RASU8(ML610112)Relocatable Assembler, Ver.1.61.2    assemble list. page:   1 
 Source File: _output\_obj\main.asm
 Object File: _output\_obj\main.obj
 Date  : 2014/05/22 Thu.[19:54]
 Title : 
## Loc. Object                   Line   Source Statements

                                    1   ;; Compile Options : /TML610112 /MS /near /Icommon /Imain /Iirq /Itimer /Iclock /Itbc /Iuart /Ii2c /SS 256 /SD /Oa /Ot /W 3 /Wc /Fa_output\_obj\ 
                                    2   ;; Version Number  : Ver.3.41.8
                                    3   ;; File Name       : main.c
                                    4   
                                    5   	type (ML610112) 
                                    6   	model small, near
                                    7   	$$NVARmain segment data 2h #0h
                                    8   	$$NINITVAR segment data 2h #0h
                                    9   	$$NINITTAB segment table 2h any
                                   10   	$$AccelGyroDataReady_ISR$main segment code 2h #0h
                                   11   	$$AccelSensorControlPID$main segment code 2h #0h
                                   12   	$$CalibrateAccel$main segment code 2h #0h
                                   13   	$$CalibrateGyro$main segment code 2h #0h
                                   14   	$$CalibrateMotors$main segment code 2h #0h
                                   15   	$$CheckSafetyLimit$main segment code 2h #0h
                                   16   	$$CheckSafetyLimitUnscaled$main segment code 2h #0h
                                   17   	$$ClearVariables$main segment code 2h #0h
                                   18   	$$Debug_STEPTest$main segment code 2h #0h
                                   19   	$$DistanceSensorControl$main segment code 2h #0h
                                   20   	$$ESC1_PWM$main segment code 2h #0h
                                   21   	$$ESC2_PWM$main segment code 2h #0h
                                   22   	$$ESC3_PWM$main segment code 2h #0h
                                   23   	$$ESC4_PWM$main segment code 2h #0h
                                   24   	$$Get_AccGyroData$main segment code 2h #0h
                                   25   	$$Get_MagData$main segment code 2h #0h
                                   26   	$$Get_PingData$main segment code 2h #0h
                                   27   	$$Get_RangeData$main segment code 2h #0h
                                   28   	$$Initialization$main segment code 2h #0h
                                   29   	$$MagSensorControl$main segment code 2h #0h
                                   30   	$$MagSensorControlPID$main segment code 2h #0h
                                   31   	$$NOP$main segment code 2h #0h
                                   32   	$$NOP1000$main segment code 2h #0h
                                   33   	$$NOPms$main segment code 2h #0h
                                   34   	$$NOPus$main segment code 2h #0h
                                   35   	$$PortA_Digital_Inputs$main segment code 2h #0h
                                   36   	$$PortA_Low$main segment code 2h #0h
                                   37   	$$PortB_Low$main segment code 2h #0h
                                   38   	$$PortC_Low$main segment code 2h #0h
                                   39   	$$PortD_Low$main segment code 2h #0h
                                   40   	$$RampUpMotorTest$main segment code 2h #0h
                                   41   	$$RangeSensorControlPID$main segment code 2h #0h
                                   42   	$$ReturnAccelData$main segment code 2h #0h
                                   43   	$$ReturnMagData$main segment code 2h #0h
                                   44   	$$ReturnSensorData$main segment code 2h #0h
                                   45   	$$Run_AccGyroCF$main segment code 2h #0h
                                   46   	$$SerialOutCoefficients$main segment code 2h #0h
                                   47   	$$SetOSC$main segment code 2h #0h
                                   48   	$$Shutdown$main segment code 2h #0h
                                   49   	$$SoftStart$main segment code 2h #0h
                                   50   	$$TAB$$S190$main segment table 2h #0h
                                   51   	$$TAB$$S203$main segment table 2h #0h
                                   52   	$$TAB$$S216$main segment table 2h #0h
                                   53   	$$TAB$$S229$main segment table 2h #0h
                                   54   	$$TAB$$S240$main segment table 2h #0h
                                   55   	$$TAB$$S254$main segment table 2h #0h
                                   56   	$$TAB$$S279$main segment table 2h #0h
                                   57   	$$TAB$$S295$main segment table 2h #0h
                                   58   	$$TAB$$S326$main segment table 2h #0h
                                   59   	$$TAB$$S351$main segment table 2h #0h
                                   60   	$$TAB$$S376$main segment table 2h #0h
                                   61   	$$TAB$$S398$main segment table 2h #0h
                                   62   	$$TAB$$S44$main segment table 2h #0h
                                   63   	$$TAB$$S442$main segment table 2h #0h
                                   64   	$$TAB$$S509$main segment table 2h #0h
                                   65   	$$TAB$$S765$main segment table 2h #0h
                                   66   	$$TAB_uartSetParam$main segment table 2h #0h
                                   67   	$$TBC_ISR$main segment code 2h #0h
                                   68   	$$TMR89_ISR$main segment code 2h #0h
                                   69   	$$UARTTunePID$main segment code 2h #0h
                                   70   	$$_funcI2CFin$main segment code 2h #0h
                                   71   	$$_funcUartFin$main segment code 2h #0h
                                   72   	$$_intI2c$main segment code 2h #0h
                                   73   	$$_intUart$main segment code 2h #0h
                                   74   	$$analog_comparator$main segment code 2h #0h
                                   75   	$$approx_arctan2$main segment code 2h #0h
                                   76   	$$checkI2C$main segment code 2h #0h
                                   77   	$$main$main segment code 2h #0h
                                   78   	$$main_clrWDT$main segment code 2h #0h
                                   79   	$$main_reqNotHalt$main segment code 2h #0h
                                   80   	STACKSEG 0100h
                                   81   CVERSION 3.41.8
                                   82   CGLOBAL 01H 03H 0000H "Shutdown" 08H 02H 0F2H 00H 81H 02H 00H 00H 07H
                                   83   CSGLOBAL 03H 0000H "TBC_ISR" 08H 02H 0FDH 00H 80H 00H 00H 00H 07H
                                   84   CGLOBAL 01H 03H 0000H "NOPms" 08H 02H 0FAH 00H 81H 0aH 00H 00H 07H
                                   85   CGLOBAL 01H 03H 0000H "NOPus" 08H 02H 0FBH 00H 80H 00H 00H 00H 07H
                                   86   CGLOBAL 01H 03H 0000H "approx_arctan2" 08H 02H 35H 01H 83H 40H 00H 00H 03H
                                   87   CGLOBAL 01H 03H 0000H "checkI2C" 08H 02H 0F5H 00H 81H 02H 00H 00H 07H
                                   88   CGLOBAL 01H 03H 0000H "main_clrWDT" 08H 02H 0CEH 00H 80H 00H 00H 00H 07H
                                   89   CSGLOBAL 03H 0000H "_funcUartFin" 08H 02H 0F3H 00H 81H 02H 00H 00H 07H
                                   90   CGLOBAL 01H 03H 0000H "main_reqNotHalt" 08H 02H 0F6H 00H 80H 00H 00H 00H 07H
                                   91   CGLOBAL 01H 03H 0000H "ReturnMagData" 08H 02H 0E3H 00H 81H 0eH 00H 00H 07H
                                   92   CGLOBAL 01H 03H 0000H "DistanceSensorControl" 08H 02H 0EBH 00H 81H 0aH 00H 00H 07H
                                   93   CGLOBAL 01H 03H 0000H "AccelSensorControlPID" 08H 02H 0EEH 00H 83H 20H 00H 00H 07H
                                   94   CSGLOBAL 03H 0000H "Initialization" 08H 02H 0CFH 00H 81H 0aH 00H 00H 07H
                                   95   CGLOBAL 01H 03H 0000H "RangeSensorControlPID" 08H 02H 0EFH 00H 81H 20H 00H 00H 07H
                                   96   CGLOBAL 01H 03H 0000H "PortA_Digital_Inputs" 08H 02H 0D6H 00H 80H 00H 00H 00H 07H
                                   97   CGLOBAL 01H 03H 0000H "MagSensorControl" 08H 02H 0ECH 00H 81H 0aH 00H 00H 07H
                                   98   CGLOBAL 01H 03H 0000H "ESC2_PWM" 08H 02H 0D8H 00H 80H 00H 00H 00H 07H
                                   99   CGLOBAL 01H 03H 0000H "Get_AccGyroData" 08H 02H 0DDH 00H 81H 0cH 00H 00H 07H
                                  100   CGLOBAL 01H 03H 0000H "main" 08H 02H 01H 01H 80H 04H 00H 00H 01H
                                  101   CGLOBAL 01H 03H 0000H "MagSensorControlPID" 08H 02H 0EDH 00H 81H 2aH 00H 00H 07H
                                  102   CSGLOBAL 03H 0000H "_intUart" 08H 02H 0F7H 00H 80H 00H 00H 00H 07H
                                  103   CGLOBAL 01H 03H 0000H "ClearVariables" 08H 02H 0E0H 00H 80H 00H 00H 00H 07H
                                  104   CGLOBAL 01H 03H 0000H "PortD_Low" 08H 02H 0D5H 00H 80H 00H 00H 00H 07H
                                  105   CGLOBAL 01H 03H 0000H "NOP1000" 08H 02H 0FCH 00H 80H 00H 00H 00H 07H
                                  106   CGLOBAL 01H 03H 0000H "ESC1_PWM" 08H 02H 0D7H 00H 80H 00H 00H 00H 07H
                                  107   CSGLOBAL 03H 0000H "_intI2c" 08H 02H 0F8H 00H 80H 00H 00H 00H 07H
                                  108   CGLOBAL 01H 03H 0000H "CheckSafetyLimitUnscaled" 08H 02H 0F1H 00H 80H 00H 00H 00H 07H
                                  109   CSGLOBAL 03H 0000H "SetOSC" 08H 02H 0D0H 00H 80H 00H 00H 00H 07H
                                  110   CGLOBAL 01H 03H 0000H "CalibrateAccel" 08H 02H 0E6H 00H 81H 0cH 00H 00H 07H
                                  111   CSGLOBAL 03H 0000H "AccelGyroDataReady_ISR" 08H 02H 0FFH 00H 80H 00H 00H 00H 07H
                                  112   CGLOBAL 01H 03H 0000H "Get_RangeData" 08H 02H 0DBH 00H 81H 0aH 00H 00H 07H
                                  113   CGLOBAL 01H 03H 0000H "PortC_Low" 08H 02H 0D4H 00H 80H 00H 00H 00H 07H
                                  114   CSGLOBAL 03H 0000H "TMR89_ISR" 08H 02H 0FEH 00H 81H 0aH 00H 00H 07H
                                  115   CGLOBAL 01H 03H 0000H "CheckSafetyLimit" 08H 02H 0F0H 00H 80H 00H 00H 00H 07H
                                  116   CGLOBAL 01H 03H 0000H "ESC4_PWM" 08H 02H 0DAH 00H 80H 00H 00H 00H 07H
                                  117   CGLOBAL 01H 03H 0000H "Get_MagData" 08H 02H 0DFH 00H 83H 28H 00H 00H 07H
                                  118   CGLOBAL 01H 03H 0000H "UARTTunePID" 08H 02H 0E8H 00H 81H 2eH 00H 00H 07H
                                  119   CGLOBAL 01H 03H 0000H "Get_PingData" 08H 02H 0DCH 00H 81H 16H 00H 00H 07H
                                  120   CGLOBAL 01H 03H 0000H "SerialOutCoefficients" 08H 02H 0E7H 00H 81H 2eH 00H 00H 07H
                                  121   CGLOBAL 01H 03H 0000H "PortB_Low" 08H 02H 0D3H 00H 80H 00H 00H 00H 07H
                                  122   CGLOBAL 01H 03H 0000H "CalibrateMotors" 08H 02H 0E4H 00H 81H 06H 00H 00H 07H
                                  123   CGLOBAL 01H 03H 0000H "ReturnAccelData" 08H 02H 0E2H 00H 81H 0cH 00H 00H 07H
                                  124   CGLOBAL 01H 03H 0000H "ESC3_PWM" 08H 02H 0D9H 00H 80H 00H 00H 00H 07H
                                  125   CGLOBAL 01H 03H 0000H "CalibrateGyro" 08H 02H 0E5H 00H 81H 0cH 00H 00H 07H
                                  126   CGLOBAL 01H 03H 0000H "RampUpMotorTest" 08H 02H 0EAH 00H 80H 00H 00H 00H 07H
                                  127   CGLOBAL 01H 03H 0000H "NOP" 08H 02H 0F9H 00H 81H 08H 00H 00H 07H
                                  128   CGLOBAL 01H 03H 0000H "PortA_Low" 08H 02H 0D2H 00H 80H 00H 00H 00H 07H
                                  129   CGLOBAL 01H 03H 0000H "analog_comparator" 08H 02H 0D1H 00H 80H 00H 00H 00H 07H
                                  130   CGLOBAL 01H 03H 0000H "Run_AccGyroCF" 08H 02H 0DEH 00H 83H 24H 00H 00H 07H
                                  131   CSGLOBAL 03H 0000H "_funcI2CFin" 08H 02H 0F4H 00H 81H 02H 00H 00H 07H
                                  132   CGLOBAL 01H 03H 0000H "SoftStart" 08H 02H 0E9H 00H 81H 02H 00H 00H 07H
                                  133   CGLOBAL 01H 03H 0000H "ReturnSensorData" 08H 02H 0E1H 00H 81H 1cH 00H 00H 07H
                                  134   CGLOBAL 01H 03H 0000H "Debug_STEPTest" 08H 02H 00H 01H 81H 1cH 00H 00H 07H
                                  135   CSTRUCTTAG 0000H 0000H 0005H 000CH 00000016H "_Notag"
                                  136   CSTRUCTMEM 42H 00000002H 00000000H "_Mode" 02H 00H 08H
                                  137   CSTRUCTMEM 43H 00000002H 00000002H "_Handle" 02H 00H 08H
                                  138   CSTRUCTMEM 42H 00000002H 00000004H "_Buf" 04H 03H 00H 00H 00H
                                  139   CSTRUCTMEM 42H 00000002H 00000006H "_Bend" 04H 03H 00H 00H 00H
                                  140   CSTRUCTMEM 42H 00000002H 00000008H "_Next" 04H 03H 00H 00H 00H
                                  141   CSTRUCTMEM 42H 00000002H 0000000AH "_Rend" 04H 03H 00H 00H 00H
                                  142   CSTRUCTMEM 42H 00000002H 0000000CH "_Rsave" 04H 03H 00H 00H 00H
                                  143   CSTRUCTMEM 42H 00000002H 0000000EH "_Wend" 04H 03H 00H 00H 00H
                                  144   CSTRUCTMEM 42H 00000002H 00000010H "_Back" 05H 01H 02H 00H 00H 00H
                                  145   CSTRUCTMEM 42H 00000001H 00000012H "_Cbuf" 02H 00H 00H
                                  146   CSTRUCTMEM 42H 00000001H 00000013H "_Nback" 02H 00H 00H
                                  147   CSTRUCTMEM 43H 00000002H 00000014H "_Tmpnam" 04H 03H 00H 00H 00H
                                  148   CSTRUCTTAG 0000H 0000H 0004H 0001H 00000004H "_Notag"
                                  149   CSTRUCTMEM 42H 00000004H 00000000H "_Off" 02H 00H 02H
                                  150   CSTRUCTTAG 0000H 0000H 0003H 0006H 0000000AH "_Notag"
                                  151   CSTRUCTMEM 42H 00000004H 00000000H "br" 02H 00H 02H
                                  152   CSTRUCTMEM 42H 00000001H 00000004H "lg" 02H 00H 00H
                                  153   CSTRUCTMEM 42H 00000001H 00000005H "pt" 02H 00H 00H
                                  154   CSTRUCTMEM 42H 00000001H 00000006H "stp" 02H 00H 00H
                                  155   CSTRUCTMEM 42H 00000001H 00000007H "neg" 02H 00H 00H
                                  156   CSTRUCTMEM 42H 00000001H 00000008H "dir" 02H 00H 00H
                                  157   CSTRUCTTAG 0000H 0000H 0002H 0002H 00000008H "_Notag"
                                  158   CSTRUCTMEM 43H 00000004H 00000000H "quot" 02H 00H 02H
                                  159   CSTRUCTMEM 43H 00000004H 00000004H "rem" 02H 00H 02H
                                  160   CSTRUCTTAG 0000H 0000H 0001H 0002H 00000004H "_Notag"
                                  161   CSTRUCTMEM 43H 00000002H 00000000H "quot" 02H 00H 01H
                                  162   CSTRUCTMEM 43H 00000002H 00000002H "rem" 02H 00H 01H
                                  163   CSTRUCTTAG 0000H 0000H 0000H 0008H 00000001H "_Notag"
                                  164   CSTRUCTMEM 52H 00000001H 00000000H "b0" 02H 00H 00H
                                  165   CSTRUCTMEM 52H 00000001H 00000001H "b1" 02H 00H 00H
                                  166   CSTRUCTMEM 52H 00000001H 00000002H "b2" 02H 00H 00H
                                  167   CSTRUCTMEM 52H 00000001H 00000003H "b3" 02H 00H 00H
                                  168   CSTRUCTMEM 52H 00000001H 00000004H "b4" 02H 00H 00H
                                  169   CSTRUCTMEM 52H 00000001H 00000005H "b5" 02H 00H 00H
                                  170   CSTRUCTMEM 52H 00000001H 00000006H "b6" 02H 00H 00H
                                  171   CSTRUCTMEM 52H 00000001H 00000007H "b7" 02H 00H 00H
                                  172   CUNIONTAG 0000H 0000H 0006H 0002H 00000008H "_Notag"
                                  173   CUNIONMEM 42H 00000008H "_W" 05H 01H 04H 00H 00H 08H
                                  174   CUNIONMEM 43H 00000008H "_D" 02H 00H 04H
                                  175   CTYPEDEF 0000H 0000H 01H "_Dconst" 04H 00H 06H 06H 00H
                                  176   CTYPEDEF 0000H 0000H 43H "_Ptrdifft" 02H 00H 01H
                                  177   CTYPEDEF 0000H 0000H 42H "_Sizet" 02H 00H 01H
                                  178   CTYPEDEF 0000H 0000H 43H "tUartSetParam" 04H 00H 05H 03H 00H
                                  179   CTYPEDEF 0000H 0000H 42H "size_t" 02H 00H 01H
                                  180   CTYPEDEF 0000H 0000H 43H "cbfUart" 0AH 03H 00H 02H 2EH 00H 00H 00H 00H 00H 07H
                                  181   CTYPEDEF 0000H 0000H 43H "fpos_t" 04H 00H 05H 04H 00H
                                  182   CTYPEDEF 0000H 0000H 43H "cbfI2c" 0AH 03H 00H 02H 43H 00H 00H 00H 00H 00H 07H
                                  183   CTYPEDEF 0000H 0000H 03H "_Cmpfun_nf" 08H 02H 01H 00H 00H 00H 00H 00H 01H
                                  184   CTYPEDEF 0000H 0000H 03H "_Cmpfun_nn" 08H 02H 00H 00H 00H 00H 00H 00H 01H
                                  185   CTYPEDEF 0000H 0000H 03H "_Cmpfun_ff" 08H 02H 03H 00H 00H 00H 00H 00H 01H
                                  186   CTYPEDEF 0000H 0000H 03H "_Cmpfun_fn" 08H 02H 02H 00H 00H 00H 00H 00H 01H
                                  187   CTYPEDEF 0000H 0000H 43H "FILE" 04H 00H 05H 05H 00H
                                  188   CTYPEDEF 0000H 0000H 43H "div_t" 04H 00H 05H 01H 00H
                                  189   CTYPEDEF 0000H 0000H 43H "ldiv_t" 04H 00H 05H 02H 00H
                                  190   CTYPEDEF 0000H 0000H 43H "_BYTE_FIELD" 04H 00H 05H 00H 00H
                                  191   CSGLOBAL 43H 0004H "CF_LPF" 02H 00H 03H
                                  192   CSGLOBAL 43H 0004H "Mag_OpposingPole" 02H 00H 03H
                                  193   CSGLOBAL 42H 0001H "AccGyro_GyroAccel_SMPRTDIV" 02H 00H 00H
                                  194   CSGLOBAL 43H 0004H "Mag_PIDOutput" 02H 00H 03H
                                  195   CSGLOBAL 42H 0008H "RecWorld" 05H 01H 08H 00H 00H 00H
                                  196   CSGLOBAL 42H 0002H "MotorIndex" 02H 00H 01H
                                  197   CGLOBAL 00H 42H 0001H "_flgUartFin" 02H 00H 00H
                                  198   CSGLOBAL 42H 0002H "Accel_PID_Motor4" 02H 00H 01H
                                  199   CSGLOBAL 42H 0002H "Accel_PID_Motor1" 02H 00H 01H
                                  200   CSGLOBAL 42H 0002H "Accel_PID_Motor2" 02H 00H 01H
                                  201   CSGLOBAL 42H 0002H "Accel_PID_Motor3" 02H 00H 01H
                                  202   CSGLOBAL 42H 0002H "Mag_PIDCounter" 02H 00H 01H
                                  203   CSGLOBAL 43H 0004H "CF_YPitch_high" 02H 00H 03H
                                  204   CSGLOBAL 43H 0004H "Mag_CWThres" 02H 00H 03H
                                  205   CSGLOBAL 42H 0002H "MotorSpeedChange" 02H 00H 01H
                                  206   CSGLOBAL 43H 0004H "Ping_out" 02H 00H 03H
                                  207   CSGLOBAL 42H 00C8H "SensorReturn" 05H 01H 0C8H 00H 00H 00H
                                  208   CSGLOBAL 42H 0001H "PWMCounter" 02H 00H 00H
                                  209   CSGLOBAL 42H 0001H "AccGyro_PWRMGMT1REG_Contents" 02H 00H 00H
                                  210   CSGLOBAL 42H 0001H "Accel_RetIndex" 02H 00H 00H
                                  211   CSGLOBAL 42H 0001H "Accel_SavIndex" 02H 00H 00H
                                  212   CSGLOBAL 42H 0001H "AccGyro_ReadData" 02H 00H 00H
                                  213   CSGLOBAL 43H 0004H "Mag_PIDError" 02H 00H 03H
                                  214   CSGLOBAL 43H 0004H "CF_Gyro_YPitch" 02H 00H 03H
                                  215   CSGLOBAL 43H 0004H "Mag_PID_kd" 02H 00H 03H
                                  216   CSGLOBAL 43H 0004H "Mag_PID_ki" 02H 00H 03H
                                  217   CSGLOBAL 43H 0004H "Mag_PID_kp" 02H 00H 03H
                                  218   CSGLOBAL 43H 0004H "Mag_Xout" 02H 00H 03H
                                  219   CSGLOBAL 42H 0002H "PWMPeriod" 02H 00H 01H
                                  220   CSGLOBAL 43H 0004H "CF_YPitch_low" 02H 00H 03H
                                  221   CSGLOBAL 42H 0002H "AccGyro_MissedIntCount" 02H 00H 01H
                                  222   CSGLOBAL 43H 0028H "Gyro_Zout" 05H 01H 0AH 00H 00H 03H
                                  223   CSGLOBAL 43H 0004H "Accel_PID_XRollErrPrev" 02H 00H 03H
                                  224   CSGLOBAL 42H 0002H "Range_out" 02H 00H 01H
                                  225   CSGLOBAL 42H 0002H "Accel_PID_YPitchCounter" 02H 00H 01H
                                  226   CSGLOBAL 43H 0004H "Range_PIDError" 02H 00H 03H
                                  227   CSGLOBAL 42H 0001H "MotorStepUpDnFlg" 02H 00H 00H
                                  228   CSGLOBAL 43H 0028H "Gyro_Yout" 05H 01H 0AH 00H 00H 03H
                                  229   CSGLOBAL 43H 0004H "Range_PIDOutput" 02H 00H 03H
                                  230   CSGLOBAL 42H 0006H "NewVar_Str" 05H 01H 06H 00H 00H 00H
                                  231   CSGLOBAL 42H 0001H "AccGyro_AccelConfig" 02H 00H 00H
                                  232   CSGLOBAL 42H 0002H "PWMLowerDutyLimitCalib" 02H 00H 01H
                                  233   CSGLOBAL 43H 0004H "Accel_PID_XRoll_ki" 02H 00H 03H
                                  234   CGLOBAL 01H 42H 0001H "Accel_PID_XYChangeFlag" 02H 00H 00H
                                  235   CSGLOBAL 43H 0004H "Accel_PID_XRoll_kd" 02H 00H 03H
                                  236   CSGLOBAL 43H 0004H "Accel_PID_XRoll_kp" 02H 00H 03H
                                  237   CSGLOBAL 42H 0001H "AccGyro_CF_FlagCounter" 02H 00H 00H
                                  238   CSGLOBAL 42H 0001H "AccGyro_ReadFlag" 02H 00H 00H
                                  239   CSGLOBAL 43H 0004H "Mag_PIDErrSum" 02H 00H 03H
                                  240   CSGLOBAL 42H 0001H "MotorStepCount" 02H 00H 00H
                                  241   CSGLOBAL 43H 0004H "Range_PIDSetpoint" 02H 00H 03H
                                  242   CSGLOBAL 42H 0001H "Mag_ModeReg_Contents" 02H 00H 00H
                                  243   CSGLOBAL 43H 0004H "NewVar" 02H 00H 03H
                                  244   CSGLOBAL 43H 0004H "Mag_Yout" 02H 00H 03H
                                  245   CSGLOBAL 43H 0004H "CF_Gyro_Counter" 02H 00H 03H
                                  246   CSGLOBAL 43H 0004H "CF_XRoll" 02H 00H 03H
                                  247   CSGLOBAL 42H 0002H "Mag_MotorStep" 02H 00H 01H
                                  248   CSGLOBAL 42H 0001H "AccGyro_GyroAccelLPF_SMPRTDIVCo" 02H 00H 00H
                                  249   CSGLOBAL 43H 0004H "CF_Accel_ForceMagApprox" 02H 00H 03H
                                  250   CSGLOBAL 43H 0004H "Mag_Zout" 02H 00H 03H
                                  251   CSGLOBAL 43H 0004H "Accel_PID_XRollErrSum" 02H 00H 03H
                                  252   CSGLOBAL 42H 0001H "Accel_PID_GoCounter" 02H 00H 00H
                                  253   CSGLOBAL 43H 0004H "CF_StdDev_Mtmp_X" 02H 00H 03H
                                  254   CSGLOBAL 43H 0004H "CF_StdDev_Mtmp_Y" 02H 00H 03H
                                  255   CSGLOBAL 43H 0004H "CF_StdDev_K" 02H 00H 03H
                                  256   CSGLOBAL 43H 0004H "Mag_PIDCurrentCount" 02H 00H 03H
                                  257   CSGLOBAL 42H 000EH "AccGyro_Data" 05H 01H 0EH 00H 00H 00H
                                  258   CSGLOBAL 43H 0004H "CF_XRoll_avg" 02H 00H 03H
                                  259   CSGLOBAL 43H 0004H "Accel_PID_YPitch_kp" 02H 00H 03H
                                  260   CSGLOBAL 43H 0004H "Accel_PID_YPitch_ki" 02H 00H 03H
                                  261   CSGLOBAL 43H 0004H "Accel_PID_YPitch_kd" 02H 00H 03H
                                  262   CSGLOBAL 43H 0004H "Mag_PIDdErr" 02H 00H 03H
                                  263   CSGLOBAL 42H 0001H "PWMflag" 02H 00H 00H
                                  264   CSGLOBAL 42H 0001H "AccGyro_INTENABLEReg_contents" 02H 00H 00H
                                  265   CSGLOBAL 42H 0001H "AccGyro_GyroConfig_Contents" 02H 00H 00H
                                  266   CSGLOBAL 42H 0001H "HMC5883Address" 02H 00H 00H
                                  267   CSGLOBAL 42H 0001H "PWMSensorResPerInc" 02H 00H 00H
                                  268   CSGLOBAL 43H 0004H "CF_Gyro_XRoll" 02H 00H 03H
                                  269   CSGLOBAL 42H 0001H "MPU6050Address" 02H 00H 00H
                                  270   CSGLOBAL 42H 0002H "PWMUpperLowerDiff" 02H 00H 01H
                                  271   CSGLOBAL 01H 000AH "_uartSetParam" 04H 00H 05H 03H 00H
                                  272   CSGLOBAL 43H 0004H "Range_PIDdErr" 02H 00H 03H
                                  273   CSGLOBAL 42H 0002H "PWMSafeDuty" 02H 00H 01H
                                  274   CSGLOBAL 43H 0004H "CF_StdDev_M_X" 02H 00H 03H
                                  275   CSGLOBAL 43H 0004H "CF_StdDev_M_Y" 02H 00H 03H
                                  276   CSGLOBAL 43H 0004H "Accel_PID_YPitchErrPrev" 02H 00H 03H
                                  277   CSGLOBAL 43H 0004H "CF_XRoll_low" 02H 00H 03H
                                  278   CSGLOBAL 43H 0004H "CF_StdDev_S_X" 02H 00H 03H
                                  279   CSGLOBAL 43H 0004H "CF_StdDev_S_Y" 02H 00H 03H
                                  280   CSGLOBAL 42H 0002H "Accel_PID_XRollCounter" 02H 00H 01H
                                  281   CSGLOBAL 42H 0001H "Mag_ModeReg" 02H 00H 00H
                                  282   CSGLOBAL 42H 0001H "Mag_ConfigB_Contents" 02H 00H 00H
                                  283   CSGLOBAL 43H 0004H "Temp_out" 02H 00H 03H
                                  284   CSGLOBAL 42H 0001H "AccGyro_PWRMGMT1REG" 02H 00H 00H
                                  285   CSGLOBAL 42H 0002H "MotorTimerUT" 02H 00H 01H
                                  286   CSGLOBAL 42H 0001H "Mag_ConfigA_Contents" 02H 00H 00H
                                  287   CSGLOBAL 42H 0001H "AccGyro_GyroConfig" 02H 00H 00H
                                  288   CSGLOBAL 43H 0004H "Range_PIDErrSum" 02H 00H 03H
                                  289   CSGLOBAL 43H 0004H "CF_YPitch" 02H 00H 03H
                                  290   CSGLOBAL 42H 0002H "Range_Output" 05H 01H 02H 00H 00H 00H
                                  291   CSGLOBAL 42H 0002H "PWMLowerDutyLimitRun" 02H 00H 01H
                                  292   CSGLOBAL 43H 0004H "CF_avgCnt" 02H 00H 03H
                                  293   CSGLOBAL 42H 0001H "AccGyro_GyroAccelLPF" 02H 00H 00H
                                  294   CSGLOBAL 42H 0001H "Range_Address" 02H 00H 00H
                                  295   CSGLOBAL 43H 0004H "Mag_DeclinationAngle" 02H 00H 03H
                                  296   CSGLOBAL 42H 0001H "CF_Counter" 02H 00H 00H
                                  297   CSGLOBAL 43H 0004H "Range_PIDCurrentCount" 02H 00H 03H
                                  298   CSGLOBAL 43H 0004H "Range_ZHiThres" 02H 00H 03H
                                  299   CSGLOBAL 43H 0004H "Range_ZLoThres" 02H 00H 03H
                                  300   CSGLOBAL 43H 0004H "Mag_PIDAngleScaled" 02H 00H 03H
                                  301   CSGLOBAL 42H 0002H "Range_PIDCounter" 02H 00H 01H
                                  302   CSGLOBAL 42H 0002H "PWMUpperDutyLimitRun" 02H 00H 01H
                                  303   CSGLOBAL 43H 0004H "Range_Ceiling" 02H 00H 03H
                                  304   CSGLOBAL 43H 0004H "Accel_PID_YPitchErrSum" 02H 00H 03H
                                  305   CSGLOBAL 43H 0004H "CF_XRoll_high" 02H 00H 03H
                                  306   CSGLOBAL 43H 0004H "Mag_CCWThres" 02H 00H 03H
                                  307   CSGLOBAL 43H 000CH "Accel_Zcal" 05H 01H 03H 00H 00H 03H
                                  308   CSGLOBAL 42H 0001H "Mag_Status" 02H 00H 00H
                                  309   CSGLOBAL 42H 0001H "AccGyro_AccelConfig_Contents" 02H 00H 00H
                                  310   CSGLOBAL 43H 0004H "Mag_PIDCorrectionFactor" 02H 00H 03H
                                  311   CGLOBAL 00H 42H 0001H "_flgI2CFin" 02H 00H 00H
                                  312   CSGLOBAL 43H 000CH "Accel_Xcal" 05H 01H 03H 00H 00H 03H
                                  313   CSGLOBAL 43H 0004H "AccGyro_GyroScaling" 02H 00H 03H
                                  314   CSGLOBAL 43H 0004H "CF_Accel_XRoll" 02H 00H 03H
                                  315   CSGLOBAL 42H 0006H "Mag_Data" 05H 01H 06H 00H 00H 00H
                                  316   CSGLOBAL 43H 0028H "Accel_Xout" 05H 01H 0AH 00H 00H 03H
                                  317   CSGLOBAL 42H 0001H "CF_highlow_flag" 02H 00H 00H
                                  318   CSGLOBAL 43H 000CH "Accel_Ycal" 05H 01H 03H 00H 00H 03H
                                  319   CSGLOBAL 42H 0001H "AccGYRO_Test" 02H 00H 00H
                                  320   CSGLOBAL 42H 0032H "SensorReturnSM" 05H 01H 32H 00H 00H 00H
                                  321   CSGLOBAL 43H 0004H "CF_Gyro_CurrentCount" 02H 00H 03H
                                  322   CSGLOBAL 43H 0004H "Mag_PIDErrPrev" 02H 00H 03H
                                  323   CGLOBAL 00H 42H 0001H "_reqNotHalt" 02H 00H 00H
                                  324   CSGLOBAL 42H 0001H "CF_UseFlag" 02H 00H 00H
                                  325   CSGLOBAL 42H 0002H "TestingEndTimer" 02H 00H 01H
                                  326   CSGLOBAL 43H 0004H "CF_Accel_YPitch" 02H 00H 03H
                                  327   CSGLOBAL 43H 0004H "Mag_Angle" 02H 00H 03H
                                  328   CSGLOBAL 43H 0004H "Mag_GainFactor" 02H 00H 03H
                                  329   CSGLOBAL 42H 0001H "AccGyro_INTENABLEReg" 02H 00H 00H
                                  330   CSGLOBAL 42H 0002H "PWMUpperDutyLimitCalib" 02H 00H 01H
                                  331   CSGLOBAL 43H 0004H "Mag_PIDSetpoint" 02H 00H 03H
                                  332   CSGLOBAL 43H 0004H "AccGyro_AccelScaling" 02H 00H 03H
                                  333   CSGLOBAL 43H 0004H "Accel_XLoThres" 02H 00H 03H
                                  334   CSGLOBAL 43H 0004H "Accel_YHiThres" 02H 00H 03H
                                  335   CSGLOBAL 43H 0004H "Range_PID_kp" 02H 00H 03H
                                  336   CSGLOBAL 43H 0004H "Accel_XHiThres" 02H 00H 03H
                                  337   CSGLOBAL 42H 0001H "Range_TakeRangeReading" 02H 00H 00H
                                  338   CSGLOBAL 43H 0004H "Range_PID_kd" 02H 00H 03H
                                  339   CSGLOBAL 43H 0028H "Accel_Yout" 05H 01H 0AH 00H 00H 03H
                                  340   CSGLOBAL 43H 0004H "Range_PID_ki" 02H 00H 03H
                                  341   CSGLOBAL 42H 0002H "MotorSpeedUT" 02H 00H 01H
                                  342   CSGLOBAL 42H 0002H "MotorStep" 02H 00H 01H
                                  343   CSGLOBAL 43H 0028H "Accel_Zout" 05H 01H 0AH 00H 00H 03H
                                  344   CSGLOBAL 42H 0002H "Timer8Counter" 02H 00H 01H
                                  345   CSGLOBAL 42H 0001H "AccGyro_GyroAccelLPF_Contents" 02H 00H 00H
                                  346   CSGLOBAL 43H 0004H "Gyro_Zcal" 02H 00H 03H
                                  347   CSGLOBAL 42H 0001H "Mag_ConfigA" 02H 00H 00H
                                  348   CSGLOBAL 42H 0001H "Mag_ConfigB" 02H 00H 00H
                                  349   CSGLOBAL 42H 0001H "Mag_ReadData" 02H 00H 00H
                                  350   CSGLOBAL 43H 0004H "Accel_YLoThres" 02H 00H 03H
                                  351   CSGLOBAL 42H 0002H "Accel_PID_Counter" 02H 00H 01H
                                  352   CSGLOBAL 43H 0004H "Gyro_Ycal" 02H 00H 03H
                                  353   CSGLOBAL 42H 0002H "timer_us" 02H 00H 01H
                                  354   CSGLOBAL 43H 0028H "Gyro_Xout" 05H 01H 0AH 00H 00H 03H
                                  355   CSGLOBAL 43H 0004H "Gyro_Xcal" 02H 00H 03H
                                  356   CSGLOBAL 43H 0004H "CF_YPitch_avg" 02H 00H 03H
                                  357   CSGLOBAL 43H 0004H "CF_HPF" 02H 00H 03H
                                  358   CSGLOBAL 43H 0004H "Range_PIDErrPrev" 02H 00H 03H
                                  359   CSGLOBAL 42H 0002H "Ping_timer" 02H 00H 01H
                                  360   CFILE 0001H 0000085AH "main\\ML610112.H"
                                  361   CFILE 0002H 000000D8H "main\\stdlib.h"
                                  362   CFILE 0003H 0000007AH "main\\yvals.h"
                                  363   CFILE 0004H 0000006BH "uart\\uart.h"
                                  364   CFILE 0005H 00000027H "common\\common.h"
                                  365   CFILE 0006H 00000057H "irq\\irq.h"
                                  366   CFILE 0007H 00000023H "main\\mcu.h"
                                  367   CFILE 0008H 00000045H "i2c\\i2c.h"
                                  368   CFILE 0009H 000000EEH "main\\stdio.h"
                                  369   CFILE 000AH 00000046H "tbc\\tbc.h"
                                  370   CFILE 000BH 000001B8H "timer\\timer.h"
                                  371   CFILE 000CH 0000004FH "main\\math.h"
                                  372   CFILE 0000H 00000F88H "main\\main.c"
                                  373   
  --------------------------      374   	rseg $$main$main
                                  375   CFUNCTION 257
                                  376   
00:0000                           377   _main	:
                                  378   CBLOCK 257 1 542
                                  379   
                                  380   ;;{
                                  381   CLINEA 0000H 0001H 021EH 0001H 0001H
                                  382   CBLOCK 257 2 542
                                  383   CLOCAL 47H 0002H 0026H 0002H "i" 02H 00H 01H
                                  384   
                                  385   ;;		Initialization(); 			//Ports, UART, Timers, Oscillator, Comparators, etc.
                                  386   CLINEA 0000H 0001H 0223H 0003H 004BH
00:0000 01-F0'00-00'              387   	bl	_Initialization
                                  388   
                                  389   ;;		main_clrWDT();				//kick the dog...1.34uS duration
                                  390   CLINEA 0000H 0001H 0224H 0003H 0034H
00:0004 01-F0'00-00'              391   	bl	_main_clrWDT
                                  392   
                                  393   ;;		CalibrateMotors();			//Time-consuming ~6s
                                  394   CLINEA 0000H 0001H 0225H 0003H 002BH
00:0008 01-F0'00-00'              395   	bl	_CalibrateMotors
                                  396   
                                  397   ;;		CalibrateGyro();			//Enter Calibration Sequence for Gyro
                                  398   CLINEA 0000H 0001H 0226H 0003H 003AH
00:000C 01-F0'00-00'              399   	bl	_CalibrateGyro
                                  400   
                                  401   ;;			Accel_Xcal[0] = 75;
                                  402   CLINEA 0000H 0001H 022BH 0004H 0016H
00:0010 00 E0                     403   	mov	er0,	#0 
00:0012 96 02                     404   	mov	r2,	#096h
00:0014 42 03                     405   	mov	r3,	#042h
00:0016 13-90 00-00'              406   	st	er0,	NEAR _Accel_Xcal
00:001A 13-92 00-00'              407   	st	er2,	NEAR _Accel_Xcal+02h
                                  408   
                                  409   ;;			Accel_Ycal[0] = -675;
                                  410   CLINEA 0000H 0001H 022CH 0004H 0018H
00:001E C0 01                     411   	mov	r1,	#0c0h
00:0020 28 02                     412   	mov	r2,	#028h
00:0022 C4 03                     413   	mov	r3,	#0c4h
00:0024 13-90 00-00'              414   	st	er0,	NEAR _Accel_Ycal
00:0028 13-92 00-00'              415   	st	er2,	NEAR _Accel_Ycal+02h
                                  416   
                                  417   ;;			Accel_Zcal[0] = -162;
                                  418   CLINEA 0000H 0001H 022DH 0004H 0018H
00:002C 00 E0                     419   	mov	er0,	#0 
00:002E 22 02                     420   	mov	r2,	#022h
00:0030 C3 03                     421   	mov	r3,	#0c3h
00:0032 13-90 00-00'              422   	st	er0,	NEAR _Accel_Zcal
00:0036 13-92 00-00'              423   	st	er2,	NEAR _Accel_Zcal+02h
                                  424   
                                  425   ;;Main_Loop:
                                  426   CLINEA 0000H 0001H 0236H 0001H 000AH
                                  427   CLABEL 001FH "Main_Loop"
00:003A                           428   _$L31 :
                                  429   
                                  430   ;;		SerialOutCoefficients();	//~23ms when PID is Triggered as well..13.8ms otherwise
                                  431   CLINEA 0000H 0001H 0237H 0003H 0052H
00:003A 01-F0'00-00'              432   	bl	_SerialOutCoefficients
                                  433   
                                  434   ;;		UARTTunePID();				//Allow PID & CF Constant changes over UART
                                  435   CLINEA 0000H 0001H 0238H 0003H 003FH
00:003E 01-F0'00-00'              436   	bl	_UARTTunePID
                                  437   
                                  438   ;;		main_clrWDT();				//kick the dog...1.34uS duration.
                                  439   CLINEA 0000H 0001H 0239H 0003H 0035H
00:0042 01-F0'00-00'              440   	bl	_main_clrWDT
                                  441   
                                  442   ;;		Accel_SavIndex = 0;			//Reset Circular Buffer for Accel/Gyro Measurements
                                  443   CLINEA 0000H 0001H 023EH 0003H 004BH
00:0046 00 00                     444   	mov	r0,	#00h
00:0048 11-90 00-00'              445   	st	r0,	NEAR _Accel_SavIndex
                                  446   
                                  447   ;;		Accel_RetIndex = 0;
                                  448   CLINEA 0000H 0001H 023FH 0003H 0015H
00:004C 11-90 00-00'              449   	st	r0,	NEAR _Accel_RetIndex
                                  450   
                                  451   ;;		for(i=0; i<10; i++){
                                  452   CLINEA 0000H 0001H 0240H 0003H 0016H
00:0050 00 E4                     453   	mov	er4,	#0 
00:0052                           454   _$L34 :
                                  455   CBLOCK 257 3 576
                                  456   
                                  457   ;;			Accel_Xout[i] = 0;
                                  458   CLINEA 0000H 0001H 0241H 0004H 0015H
00:0052 45-F0                     459   	mov	er0,	er4
00:0054 2B-91                     460   	sllc	r1,	#02h
00:0056 2A-90                     461   	sll	r0,	#02h
00:0058 00 E2                     462   	mov	er2,	#0 
00:005A 09-A2 00-00'              463   	st	er2,	NEAR _Accel_Xout[er0]
00:005E 09-A2 00-00'              464   	st	er2,	NEAR _Accel_Xout+02h[er0]
                                  465   
                                  466   ;;			Accel_Yout[i] = 0;
                                  467   CLINEA 0000H 0001H 0242H 0004H 0015H
00:0062 45-F0                     468   	mov	er0,	er4
00:0064 2B-91                     469   	sllc	r1,	#02h
00:0066 2A-90                     470   	sll	r0,	#02h
00:0068 09-A2 00-00'              471   	st	er2,	NEAR _Accel_Yout[er0]
00:006C 09-A2 00-00'              472   	st	er2,	NEAR _Accel_Yout+02h[er0]
                                  473   
                                  474   ;;			Accel_Zout[i] = 0;
                                  475   CLINEA 0000H 0001H 0243H 0004H 0015H
00:0070 45-F0                     476   	mov	er0,	er4
00:0072 2B-91                     477   	sllc	r1,	#02h
00:0074 2A-90                     478   	sll	r0,	#02h
00:0076 09-A2 00-00'              479   	st	er2,	NEAR _Accel_Zout[er0]
00:007A 09-A2 00-00'              480   	st	er2,	NEAR _Accel_Zout+02h[er0]
                                  481   
                                  482   ;;			Gyro_Xout[i] = 0;
                                  483   CLINEA 0000H 0001H 0244H 0004H 0014H
00:007E 45-F0                     484   	mov	er0,	er4
00:0080 2B-91                     485   	sllc	r1,	#02h
00:0082 2A-90                     486   	sll	r0,	#02h
00:0084 09-A2 00-00'              487   	st	er2,	NEAR _Gyro_Xout[er0]
00:0088 09-A2 00-00'              488   	st	er2,	NEAR _Gyro_Xout+02h[er0]
                                  489   
                                  490   ;;			Gyro_Yout[i] = 0;
                                  491   CLINEA 0000H 0001H 0245H 0004H 0014H
00:008C 45-F0                     492   	mov	er0,	er4
00:008E 2B-91                     493   	sllc	r1,	#02h
00:0090 2A-90                     494   	sll	r0,	#02h
00:0092 09-A2 00-00'              495   	st	er2,	NEAR _Gyro_Yout[er0]
00:0096 09-A2 00-00'              496   	st	er2,	NEAR _Gyro_Yout+02h[er0]
                                  497   
                                  498   ;;			Gyro_Zout[i] = 0;
                                  499   CLINEA 0000H 0001H 0246H 0004H 0014H
00:009A 45-F0                     500   	mov	er0,	er4
00:009C 2B-91                     501   	sllc	r1,	#02h
00:009E 2A-90                     502   	sll	r0,	#02h
00:00A0 09-A2 00-00'              503   	st	er2,	NEAR _Gyro_Zout[er0]
00:00A4 09-A2 00-00'              504   	st	er2,	NEAR _Gyro_Zout+02h[er0]
                                  505   CBLOCKEND 257 3 583
                                  506   
                                  507   ;;		for(i=0; i<10; i++){
                                  508   CLINEA 0000H 0000H 0240H 0003H 0016H
00:00A8 81 E4                     509   	add	er4,	#1 
00:00AA 0A 74                     510   	cmp	r4,	#0ah
00:00AC 00 55                     511   	cmpc	r5,	#00h
00:00AE D1 C5                     512   	blts	_$L34
                                  513   
                                  514   ;;		EPB3 = 1;					//Enable Accel/Gyro Interrupt Pin
                                  515   CLINEA 0000H 0001H 0248H 0003H 0031H
00:00B0 F0-A0 11-F0               516   	sb	0f011h.7
                                  517   
                                  518   ;;		MotorTimerUT = 0;			//Reset Timer for Step Test!
                                  519   CLINEA 0000H 0001H 024AH 0003H 0032H
00:00B4 00 E0                     520   	mov	er0,	#0 
00:00B6 13-90 00-00'              521   	st	er0,	NEAR _MotorTimerUT
                                  522   
                                  523   ;;		AccGyro_MissedIntCount = 0;
                                  524   CLINEA 0000H 0001H 024CH 0003H 001DH
00:00BA 13-90 00-00'              525   	st	er0,	NEAR _AccGyro_MissedIntCount
                                  526   
                                  527   ;;		MotorIndex = 0;
                                  528   CLINEA 0000H 0001H 024FH 0003H 0011H
00:00BE 13-90 00-00'              529   	st	er0,	NEAR _MotorIndex
                                  530   
                                  531   ;;		MotorStepCount = 0;
                                  532   CLINEA 0000H 0001H 0250H 0003H 0015H
00:00C2 11-90 00-00'              533   	st	r0,	NEAR _MotorStepCount
                                  534   
                                  535   ;;		for(i = 0; i<200; i++)
                                  536   CLINEA 0000H 0001H 0251H 0003H 0018H
00:00C6                           537   _$L40 :
                                  538   CBLOCK 257 4 594
                                  539   
                                  540   ;;			SensorReturn[i] = 0x20;
                                  541   CLINEA 0000H 0001H 0253H 0004H 001AH
00:00C6 20 02                     542   	mov	r2,	#020h
00:00C8 09-92 00-00'              543   	st	r2,	NEAR _SensorReturn[er0]
                                  544   CBLOCKEND 257 4 596
                                  545   
                                  546   ;;		for(i = 0; i<200; i++)
                                  547   CLINEA 0000H 0000H 0251H 0003H 0018H
00:00CC 81 E0                     548   	add	er0,	#1 
00:00CE C8 70                     549   	cmp	r0,	#0c8h
00:00D0 00 51                     550   	cmpc	r1,	#00h
00:00D2 F9 C5                     551   	blts	_$L40
                                  552   
                                  553   ;;		sprintf(SensorReturn, "Index,CFx,CFy,Timer,MotSpeed");
                                  554   CLINEA 0000H 0001H 0256H 0003H 0038H
00:00D4 00'00                     555   	mov	r0,	#BYTE1 OFFSET $$S44
00:00D6 00'01                     556   	mov	r1,	#BYTE2 OFFSET $$S44
00:00D8 5E-F0                     557   	push	er0
00:00DA 00'00                     558   	mov	r0,	#BYTE1 OFFSET _SensorReturn
00:00DC 00'01                     559   	mov	r1,	#BYTE2 OFFSET _SensorReturn
00:00DE 5E-F0                     560   	push	er0
00:00E0 01-F0'00-00'              561   	bl	_sprintf_nn
00:00E4 04 E1                     562   	add	sp,	#4 
                                  563   
                                  564   ;;		SensorReturn[198] = 0x0D;
                                  565   CLINEA 0000H 0001H 0257H 0003H 001BH
00:00E6 0D 00                     566   	mov	r0,	#0dh
00:00E8 11-90 00-00'              567   	st	r0,	NEAR _SensorReturn+0c6h
                                  568   
                                  569   ;;		SensorReturn[199] = 0x0A;
                                  570   CLINEA 0000H 0001H 0258H 0003H 001BH
00:00EC 0A 00                     571   	mov	r0,	#0ah
00:00EE 11-90 00-00'              572   	st	r0,	NEAR _SensorReturn+0c7h
                                  573   
                                  574   ;;		_flgUartFin = 0;
                                  575   CLINEA 0000H 0001H 025AH 0003H 0012H
00:00F2 00 00                     576   	mov	r0,	#00h
00:00F4 11-90 00-00'              577   	st	r0,	NEAR __flgUartFin
                                  578   
                                  579   ;;		uart_stop();
                                  580   CLINEA 0000H 0001H 025BH 0003H 000EH
00:00F8 01-F0'00-00'              581   	bl	_uart_stop
                                  582   
                                  583   ;;		uart_startSend(SensorReturn, 200, _funcUartFin);
                                  584   CLINEA 0000H 0001H 025CH 0003H 0032H
00:00FC 00'00                     585   	mov	r0,	#BYTE1 OFFSET __funcUartFin
00:00FE 00'01                     586   	mov	r1,	#BYTE2 OFFSET __funcUartFin
00:0100 5E-F0                     587   	push	er0
00:0102 C8 02                     588   	mov	r2,	#0c8h
00:0104 00 03                     589   	mov	r3,	#00h
00:0106 00'00                     590   	mov	r0,	#BYTE1 OFFSET _SensorReturn
00:0108 00'01                     591   	mov	r1,	#BYTE2 OFFSET _SensorReturn
00:010A 01-F0'00-00'              592   	bl	_uart_startSend
00:010E 02 E1                     593   	add	sp,	#2 
                                  594   
                                  595   ;;		while(_flgUartFin != 1){
                                  596   CLINEA 0000H 0000H 025DH 0001H 000BH
00:0110 02 CE                     597   	bal	_$L63
                                  598   
                                  599   ;;		while(_flgUartFin != 1){
                                  600   CLINEA 0000H 0000H 025DH 0003H 001AH
00:0112                           601   _$L47 :
                                  602   CBLOCK 257 5 605
                                  603   
                                  604   ;;			main_clrWDT();
                                  605   CLINEA 0000H 0001H 025EH 0004H 0011H
00:0112 01-F0'00-00'              606   	bl	_main_clrWDT
                                  607   CBLOCKEND 257 5 607
                                  608   
                                  609   ;;		while(_flgUartFin != 1){
                                  610   CLINEA 0000H 0000H 025DH 0001H 000BH
00:0116                           611   _$L63 :
00:0116 10-90 00-00'              612   	l	r0,	NEAR __flgUartFin
00:011A 01 70                     613   	cmp	r0,	#01h
00:011C FA C8                     614   	bne	_$L47
                                  615   
                                  616   ;;		}
                                  617   CLINEA 0000H 0000H 025FH 0003H 0003H
00:011E                           618   _$L46 :
                                  619   
                                  620   ;;		main_clrWDT();				//kick the dog...1.34uS duration
                                  621   CLINEA 0000H 0001H 0264H 0003H 0034H
00:011E 01-F0'00-00'              622   	bl	_main_clrWDT
                                  623   
                                  624   ;;		ClearVariables();			//Fresh start each loop...
                                  625   CLINEA 0000H 0001H 0265H 0003H 0030H
00:0122 01-F0'00-00'              626   	bl	_ClearVariables
                                  627   CBLOCK 257 6 615
                                  628   CBLOCKEND 257 6 619
                                  629   
                                  630   ;;		if(AccGyro_ReadFlag >= 1){		//Triggered by External Interrupt (flag set in AccelGyroDataReady_ISR)
                                  631   CLINEA 0000H 0001H 0279H 0003H 0064H
00:0126 10-90 00-00'              632   	l	r0,	NEAR _AccGyro_ReadFlag
00:012A 01 70                     633   	cmp	r0,	#01h
00:012C 05 C1                     634   	blt	_$L52
                                  635   CBLOCK 257 7 633
                                  636   
                                  637   ;;			AccGyro_ReadFlag = 0;
                                  638   CLINEA 0000H 0001H 027AH 0004H 0018H
00:012E 00 00                     639   	mov	r0,	#00h
00:0130 11-90 00-00'              640   	st	r0,	NEAR _AccGyro_ReadFlag
                                  641   
                                  642   ;;			Get_AccGyroData();
                                  643   CLINEA 0000H 0001H 027CH 0004H 0015H
00:0134 01-F0'00-00'              644   	bl	_Get_AccGyroData
                                  645   CBLOCKEND 257 7 638
                                  646   
                                  647   ;;		}
                                  648   CLINEA 0000H 0000H 027EH 0003H 0003H
00:0138                           649   _$L52 :
                                  650   
                                  651   ;;		if(AccGyro_CF_FlagCounter > 0){	//This Value is incremented after Get_AccGyroData(); is called
                                  652   CLINEA 0000H 0001H 027FH 0003H 0060H
00:0138 10-90 00-00'              653   	l	r0,	NEAR _AccGyro_CF_FlagCounter
00:013C 00 70                     654   	cmp	r0,	#00h
00:013E 05 C3                     655   	ble	_$L54
                                  656   CBLOCK 257 8 639
                                  657   
                                  658   ;;			Run_AccGyroCF();
                                  659   CLINEA 0000H 0001H 0281H 0004H 0013H
00:0140 01-F0'00-00'              660   	bl	_Run_AccGyroCF
                                  661   
                                  662   ;;			AccGyro_CF_FlagCounter--;	//Decremented because this value is not a static 1/0... number shows number of items in buffer that have not gone though the CF yet
                                  663   CLINEA 0000H 0000H 0283H 0004H 00A0H
00:0144 0C-F0 00-00'              664   	lea	OFFSET _AccGyro_CF_FlagCounter
00:0148 3F-FE                     665   	dec	[ea]
                                  666   CBLOCKEND 257 8 644
                                  667   
                                  668   ;;		}
                                  669   CLINEA 0000H 0000H 0284H 0003H 0003H
00:014A                           670   _$L54 :
                                  671   
                                  672   ;;		if(Accel_PID_GoCounter>=4){		//This increments in the Run_AccGyroCF()... I don't know if this is the best trigger.. but for now, it works.  Calls GetAccGyroData and AccGyroCF once within the routine.
                                  673   CLINEA 0000H 0001H 0285H 0003H 00C9H
00:014A 10-90 00-00'              674   	l	r0,	NEAR _Accel_PID_GoCounter
00:014E 04 70                     675   	cmp	r0,	#04h
00:0150 0A C1                     676   	blt	_$L56
                                  677   CBLOCK 257 9 645
                                  678   
                                  679   ;;			Debug_STEPTest();
                                  680   CLINEA 0000H 0001H 028CH 0004H 0014H
00:0152 01-F0'00-00'              681   	bl	_Debug_STEPTest
                                  682   
                                  683   ;;			TestingEndTimer++;
                                  684   CLINEA 0000H 0000H 028DH 0004H 0015H
00:0156 12-90 00-00'              685   	l	er0,	NEAR _TestingEndTimer
00:015A 81 E0                     686   	add	er0,	#1 
00:015C 13-90 00-00'              687   	st	er0,	NEAR _TestingEndTimer
                                  688   
                                  689   ;;			Accel_PID_GoCounter = 0;
                                  690   CLINEA 0000H 0001H 028FH 0004H 001BH
00:0160 00 00                     691   	mov	r0,	#00h
00:0162 11-90 00-00'              692   	st	r0,	NEAR _Accel_PID_GoCounter
                                  693   CBLOCKEND 257 9 656
                                  694   
                                  695   ;;		}
                                  696   CLINEA 0000H 0000H 0290H 0003H 0003H
00:0166                           697   _$L56 :
                                  698   CBLOCK 257 10 658
                                  699   CBLOCKEND 257 10 662
                                  700   
                                  701   ;;		if(TestingEndTimer < 10000){		//50 == 3secs = 250 = 15 seconds
                                  702   CLINEA 0000H 0001H 02A0H 0003H 0040H
00:0166 12-90 00-00'              703   	l	er0,	NEAR _TestingEndTimer
00:016A 10 70                     704   	cmp	r0,	#010h
00:016C 27 51                     705   	cmpc	r1,	#027h
00:016E D7 C1                     706   	blt	_$L46
                                  707   
                                  708   ;;		else{
                                  709   CLINEA 0000H 0000H 02A4H 0003H 0007H
                                  710   CBLOCK 257 12 676
                                  711   
                                  712   ;;			EPB3 = 0;
                                  713   CLINEA 0000H 0001H 02A5H 0004H 000CH
00:0170 F2-A0 11-F0               714   	rb	0f011h.7
                                  715   
                                  716   ;;			Shutdown();
                                  717   CLINEA 0000H 0001H 02A8H 0004H 000EH
00:0174 01-F0'00-00'              718   	bl	_Shutdown
                                  719   
                                  720   ;;			TestingEndTimer = 0;
                                  721   CLINEA 0000H 0001H 02A9H 0004H 0017H
00:0178 00 E0                     722   	mov	er0,	#0 
00:017A 13-90 00-00'              723   	st	er0,	NEAR _TestingEndTimer
                                  724   
                                  725   ;;			goto Main_Loop;
                                  726   CLINEA 0000H 0001H 02ADH 0004H 0012H
00:017E 00-F0'00-00'              727   	b	_$L31
                                  728   CBLOCKEND 257 12 686
                                  729   CBLOCKEND 257 2 688
                                  730   
                                  731   ;;}//end main
                                  732   CLINEA 0000H 0001H 02B0H 0001H 000BH
                                  733   CBLOCKEND 257 1 688
                                  734   CFUNCTIONEND 257
                                  735   
                                  736   
  --------------------------      737   	rseg $$main_clrWDT$main
                                  738   CFUNCTION 206
                                  739   
00:0000                           740   _main_clrWDT	:
                                  741   CBLOCK 206 1 869
                                  742   
                                  743   ;;{
                                  744   CLINEA 0000H 0001H 0365H 0001H 0001H
                                  745   CBLOCK 206 2 869
                                  746   
                                  747   ;;	do {
                                  748   CLINEA 0000H 0001H 0369H 0002H 0005H
00:0000                           749   _$L67 :
                                  750   CBLOCK 206 3 873
                                  751   
                                  752   ;;		WDTCON = 0x5Au;
                                  753   CLINEA 0000H 0001H 036AH 0003H 0011H
00:0000 5A 00                     754   	mov	r0,	#05ah
00:0002 11-90 0E-F0               755   	st	r0,	0f00eh
                                  756   CBLOCKEND 206 3 875
                                  757   
                                  758   ;;	} while (WDP != 1);
                                  759   CLINEA 0000H 0000H 036BH 0002H 0014H
00:0006 81-A0 0E-F0               760   	tb	0f00eh.0
00:000A FA C9                     761   	beq	_$L67
                                  762   
                                  763   ;;	WDTCON = 0xA5u;
                                  764   CLINEA 0000H 0001H 036CH 0002H 0010H
00:000C A5 00                     765   	mov	r0,	#0a5h
00:000E 11-90 0E-F0               766   	st	r0,	0f00eh
                                  767   CBLOCKEND 206 2 878
                                  768   
                                  769   ;;}
                                  770   CLINEA 0000H 0001H 036EH 0001H 0001H
00:0012 1F-FE                     771   	rt
                                  772   CBLOCKEND 206 1 878
                                  773   CFUNCTIONEND 206
                                  774   
                                  775   
  --------------------------      776   	rseg $$Initialization$main
                                  777   CFUNCTION 207
                                  778   
00:0000                           779   _Initialization	:
                                  780   CBLOCK 207 1 885
                                  781   
                                  782   ;;static void Initialization(void){
                                  783   CLINEA 0000H 0001H 0375H 0001H 0021H
00:0000 CE-F8                     784   	push	lr
                                  785   CBLOCK 207 2 885
                                  786   CRET 0000H
                                  787   
                                  788   ;;	DSIO0 = 1; // 0=> Enables Synchronous Serial Port 0 (initial value).
                                  789   CLINEA 0000H 0001H 0379H 0002H 0045H
00:0002 80-A0 2A-F0               790   	sb	0f02ah.0
                                  791   
                                  792   ;;	DUA0  = 0; // 0=> Enables the operation of UART0 (initial value).
                                  793   CLINEA 0000H 0001H 037AH 0002H 0042H
00:0006 A2-A0 2A-F0               794   	rb	0f02ah.2
                                  795   
                                  796   ;;	DUA1  = 1; // 0=> Enables Uart1 (initial value). 
                                  797   CLINEA 0000H 0001H 037BH 0002H 0032H
00:000A B0-A0 2A-F0               798   	sb	0f02ah.3
                                  799   
                                  800   ;;	DI2C1 = 1; // 0=> Enables I2C bus Interface (Slave) (initial value).
                                  801   CLINEA 0000H 0001H 037CH 0002H 0045H
00:000E E0-A0 2A-F0               802   	sb	0f02ah.6
                                  803   
                                  804   ;;	DI2C0 = 0; // 0=> Enables I2C bus Interface (Master) (initial value).	
                                  805   CLINEA 0000H 0001H 037DH 0002H 0047H
00:0012 F2-A0 2A-F0               806   	rb	0f02ah.7
                                  807   
                                  808   ;;	BLKCON4 = 0x00; // 0=> Enables SA-ADC
                                  809   CLINEA 0000H 0001H 037FH 0002H 0026H
00:0016 00 00                     810   	mov	r0,	#00h
00:0018 11-90 2C-F0               811   	st	r0,	0f02ch
                                  812   
                                  813   ;;	BLKCON6 = 0x00; // (1=disables; 0=enables) the operation of Timers 8, 9, A, E, F.
                                  814   CLINEA 0000H 0001H 0380H 0002H 0052H
00:001C 11-90 2E-F0               815   	st	r0,	0f02eh
                                  816   
                                  817   ;;	BLKCON7 = 0x00; // (1=disables; 0=enables) the operation of PWM (PWMC, PWMD, PWME, PWMF
                                  818   CLINEA 0000H 0001H 0381H 0002H 0058H
00:0020 11-90 2F-F0               819   	st	r0,	0f02fh
                                  820   
                                  821   ;;	PortA_Low();	//Initialize all 3 Ports of Port A to GPIO-Low
                                  822   CLINEA 0000H 0001H 0384H 0002H 003CH
00:0024 01-F0'00-00'              823   	bl	_PortA_Low
                                  824   
                                  825   ;;	PortB_Low();	//Initialize all 8 Ports of Port B to GPIO-Low
                                  826   CLINEA 0000H 0001H 0385H 0002H 003CH
00:0028 01-F0'00-00'              827   	bl	_PortB_Low
                                  828   
                                  829   ;;	PortC_Low();	//Initialize all 8 Ports of Port C to GPIO-Low
                                  830   CLINEA 0000H 0001H 0386H 0002H 003CH
00:002C 01-F0'00-00'              831   	bl	_PortC_Low
                                  832   
                                  833   ;;	PortD_Low();	//Initialize all 6 Ports of Port D to GPIO-Low
                                  834   CLINEA 0000H 0001H 0387H 0002H 003CH
00:0030 01-F0'00-00'              835   	bl	_PortD_Low
                                  836   
                                  837   ;;    SetOSC();
                                  838   CLINEA 0000H 0001H 038AH 0005H 000DH
00:0034 01-F0'00-00'              839   	bl	_SetOSC
                                  840   
                                  841   ;;	irq_di();	// Disable Interrupts
                                  842   CLINEA 0000H 0001H 038EH 0002H 0020H
00:0038 01-F0'00-00'              843   	bl	_irq_di
                                  844   
                                  845   ;;	irq_init();	// Initialize Interrupts (All Off and NO Requests)
                                  846   CLINEA 0000H 0001H 038FH 0002H 003FH
00:003C 01-F0'00-00'              847   	bl	_irq_init
                                  848   
                                  849   ;;	(void)irq_setHdr( (unsigned char)IRQ_NO_I2CMINT, _intI2c );
                                  850   CLINEA 0000H 0001H 03ACH 0002H 003CH
00:0040 00'02                     851   	mov	r2,	#BYTE1 OFFSET __intI2c
00:0042 00'03                     852   	mov	r3,	#BYTE2 OFFSET __intI2c
00:0044 0C 00                     853   	mov	r0,	#0ch
00:0046 01-F0'00-00'              854   	bl	_irq_setHdr
                                  855   
                                  856   ;;		EI2CM = 1;
                                  857   CLINEA 0000H 0001H 03ADH 0003H 000CH
00:004A F0-A0 12-F0               858   	sb	0f012h.7
                                  859   
                                  860   ;;	(void)irq_setHdr( (unsigned char)IRQ_NO_UA0INT, _intUart );		
                                  861   CLINEA 0000H 0001H 03B1H 0002H 003EH
00:004E 00'02                     862   	mov	r2,	#BYTE1 OFFSET __intUart
00:0050 00'03                     863   	mov	r3,	#BYTE2 OFFSET __intUart
00:0052 0F 00                     864   	mov	r0,	#0fh
00:0054 01-F0'00-00'              865   	bl	_irq_setHdr
                                  866   
                                  867   ;;		EUA0 = 1; // EUA0 is the enable flag for the UART0 interrupt (1=ENABLED)
                                  868   CLINEA 0000H 0001H 03B2H 0003H 004AH
00:0058 80-A0 14-F0               869   	sb	0f014h.0
                                  870   
                                  871   ;;	(void)irq_setHdr( (unsigned char)IRQ_NO_TM9INT, TMR89_ISR );  //Clear interrupt request flag
                                  872   CLINEA 0000H 0001H 03BFH 0002H 005DH
00:005C 00'02                     873   	mov	r2,	#BYTE1 OFFSET _TMR89_ISR
00:005E 00'03                     874   	mov	r3,	#BYTE2 OFFSET _TMR89_ISR
00:0060 0E 00                     875   	mov	r0,	#0eh
00:0062 01-F0'00-00'              876   	bl	_irq_setHdr
                                  877   
                                  878   ;;		ETM8 = 1;	  	// Enable timer 8 Interrupt (1=ENABLED
                                  879   CLINEA 0000H 0001H 03C0H 0003H 0035H
00:0066 A0-A0 13-F0               880   	sb	0f013h.2
                                  881   
                                  882   ;;		ETM9 = 1;	  	// Enable timer 9 Interrupt (1=ENABLED)
                                  883   CLINEA 0000H 0001H 03C1H 0003H 0036H
00:006A B0-A0 13-F0               884   	sb	0f013h.3
                                  885   
                                  886   ;;		QTM8 = 1;		// timer 8 IRQ request flag
                                  887   CLINEA 0000H 0001H 03C2H 0003H 0028H
00:006E A0-A0 1B-F0               888   	sb	0f01bh.2
                                  889   
                                  890   ;;		QTM9 = 1;		// timer 9 IRQ request flag
                                  891   CLINEA 0000H 0001H 03C3H 0003H 0028H
00:0072 B0-A0 1B-F0               892   	sb	0f01bh.3
                                  893   
                                  894   ;;		T8CS0 = 1;
                                  895   CLINEA 0000H 0001H 03C4H 0003H 000CH
00:0076 80-A0 E2-F8               896   	sb	0f8e2h.0
                                  897   
                                  898   ;;		T8CS1 = 1;
                                  899   CLINEA 0000H 0001H 03C5H 0003H 000CH
00:007A 90-A0 E2-F8               900   	sb	0f8e2h.1
                                  901   
                                  902   ;;		T8CS2 = 0;
                                  903   CLINEA 0000H 0001H 03C6H 0003H 000CH
00:007E A2-A0 E2-F8               904   	rb	0f8e2h.2
                                  905   
                                  906   ;;		T9CS0 = 1;
                                  907   CLINEA 0000H 0001H 03C7H 0003H 000CH
00:0082 80-A0 E6-F8               908   	sb	0f8e6h.0
                                  909   
                                  910   ;;		T9CS1 = 1;
                                  911   CLINEA 0000H 0001H 03C8H 0003H 000CH
00:0086 90-A0 E6-F8               912   	sb	0f8e6h.1
                                  913   
                                  914   ;;		T9CS2 = 0;
                                  915   CLINEA 0000H 0001H 03C9H 0003H 000CH
00:008A A2-A0 E6-F8               916   	rb	0f8e6h.2
                                  917   
                                  918   ;;		tm_init(TM_CH_NO_89);
                                  919   CLINEA 0000H 0001H 03CAH 0003H 0017H
00:008E 00 00                     920   	mov	r0,	#00h
00:0090 01-F0'00-00'              921   	bl	_tm_init
                                  922   
                                  923   ;;		tm_set89Data(8192);				//A value of 1023 should yield 125us interrupts at 8.192 MHz
                                  924   CLINEA 0000H 0000H 0150H 0002H 0025H
00:0094 00 00                     925   	mov	r0,	#00h
00:0096 11-90 E0-F8               926   	st	r0,	0f8e0h
                                  927   
                                  928   ;;		tm_set89Data(8192);				//A value of 1023 should yield 125us interrupts at 8.192 MHz
                                  929   CLINEA 0000H 0000H 0151H 0002H 0023H
00:009A 20 00                     930   	mov	r0,	#020h
00:009C 11-90 E4-F8               931   	st	r0,	0f8e4h
                                  932   
                                  933   ;;		tm_set89Source(TM_CS_HTBCLK);
                                  934   CLINEA 0000H 0000H 0186H 0002H 0015H
00:00A0 80-A0 E2-F8               935   	sb	0f8e2h.0
                                  936   
                                  937   ;;		tm_set89Source(TM_CS_HTBCLK);
                                  938   CLINEA 0000H 0000H 0187H 0002H 001AH
00:00A4 92-A0 E2-F8               939   	rb	0f8e2h.1
                                  940   
                                  941   ;;		tm_start89();
                                  942   CLINEA 0000H 0001H 00CAH 0002H 000AH
00:00A8 00 00                     943   	mov	r0,	#00h
00:00AA 11-90 E1-F8               944   	st	r0,	0f8e1h
                                  945   
                                  946   ;;		tm_start89();
                                  947   CLINEA 0000H 0000H 00CBH 0002H 000BH
00:00AE 80-A0 E3-F8               948   	sb	0f8e3h.0
                                  949   
                                  950   ;;		T89M16 = 1;
                                  951   CLINEA 0000H 0001H 03CEH 0003H 000DH
00:00B2 D0-A0 E2-F8               952   	sb	0f8e2h.5
                                  953   
                                  954   ;;		HTD3 = 1;
                                  955   CLINEA 0000H 0001H 03D0H 0003H 000BH
00:00B6 B0-A0 0B-F0               956   	sb	0f00bh.3
                                  957   
                                  958   ;;		HTD2 = 1;
                                  959   CLINEA 0000H 0001H 03D1H 0003H 000BH
00:00BA A0-A0 0B-F0               960   	sb	0f00bh.2
                                  961   
                                  962   ;;		HTD1 = 1;
                                  963   CLINEA 0000H 0001H 03D2H 0003H 000BH
00:00BE 90-A0 0B-F0               964   	sb	0f00bh.1
                                  965   
                                  966   ;;		HTD0 = 1; 
                                  967   CLINEA 0000H 0001H 03D3H 0003H 000CH
00:00C2 80-A0 0B-F0               968   	sb	0f00bh.0
                                  969   
                                  970   ;;	PB3DIR = 1;
                                  971   CLINEA 0000H 0001H 03D6H 0002H 000CH
00:00C6 B0-A0 59-F2               972   	sb	0f259h.3
                                  973   
                                  974   ;;	PB3C1 = 0;
                                  975   CLINEA 0000H 0001H 03D7H 0002H 000BH
00:00CA B2-A0 5B-F2               976   	rb	0f25bh.3
                                  977   
                                  978   ;;	PB3C0 = 0;
                                  979   CLINEA 0000H 0001H 03D8H 0002H 000BH
00:00CE B2-A0 5A-F2               980   	rb	0f25ah.3
                                  981   
                                  982   ;;	PB3MD1 = 0;
                                  983   CLINEA 0000H 0001H 03D9H 0002H 000CH
00:00D2 B2-A0 5D-F2               984   	rb	0f25dh.3
                                  985   
                                  986   ;;	PB3MD0 = 0;
                                  987   CLINEA 0000H 0001H 03DAH 0002H 000CH
00:00D6 B2-A0 5C-F2               988   	rb	0f25ch.3
                                  989   
                                  990   ;;	PB3E1 = 1;
                                  991   CLINEA 0000H 0001H 03DBH 0002H 000BH
00:00DA F0-A0 25-F0               992   	sb	0f025h.7
                                  993   
                                  994   ;;	PB3E0 = 0;		//PBnE0-1 are used to choose the Rising-Edge Mode for this interrupt
                                  995   CLINEA 0000H 0001H 03DDH 0002H 0051H
00:00DE F2-A0 24-F0               996   	rb	0f024h.7
                                  997   
                                  998   ;;	PB3SM = 0;
                                  999   CLINEA 0000H 0001H 03DEH 0002H 000BH
00:00E2 F2-A0 26-F0              1000   	rb	0f026h.7
                                 1001   
                                 1002   ;;	(void)irq_setHdr( (unsigned char)IRQ_NO_PB3INT, AccelGyroDataReady_ISR );  //Clear interrupt request flag
                                 1003   CLINEA 0000H 0001H 03E0H 0002H 006AH
00:00E6 00'02                    1004   	mov	r2,	#BYTE1 OFFSET _AccelGyroDataReady_ISR
00:00E8 00'03                    1005   	mov	r3,	#BYTE2 OFFSET _AccelGyroDataReady_ISR
00:00EA 08 00                    1006   	mov	r0,	#08h
00:00EC 01-F0'00-00'             1007   	bl	_irq_setHdr
                                 1008   
                                 1009   ;;	EPB3 = 0;	//Enables Interrupt
                                 1010   CLINEA 0000H 0001H 03E2H 0002H 001EH
00:00F0 F2-A0 11-F0              1011   	rb	0f011h.7
                                 1012   
                                 1013   ;;	QPB3 = 0;	//Enables Request Flag (need to set to start using... this is set after the UART control Stuff!)
                                 1014   CLINEA 0000H 0001H 03E3H 0002H 006BH
00:00F4 F2-A0 19-F0              1015   	rb	0f019h.7
                                 1016   
                                 1017   ;;	WDTMOD = 0x03; 	// 0x03=overflow 8sec...
                                 1018   CLINEA 0000H 0001H 03E7H 0002H 0029H
00:00F8 03 00                    1019   	mov	r0,	#03h
00:00FA 11-90 0F-F0              1020   	st	r0,	0f00fh
                                 1021   
                                 1022   ;;	main_clrWDT(); 	// Clear WDT
                                 1023   CLINEA 0000H 0001H 03E8H 0002H 001DH
00:00FE 01-F0'00-00'             1024   	bl	_main_clrWDT
                                 1025   
                                 1026   ;;	(void)i2c_init(I2C_MOD_FST, (unsigned short)HSCLK_KHZ, I2C_SYN_ON);
                                 1027   CLINEA 0000H 0001H 03ECH 0002H 0044H
00:0102 01 00                    1028   	mov	r0,	#01h
00:0104 4E-F0                    1029   	push	r0
00:0106 40 02                    1030   	mov	r2,	#040h
00:0108 1F 03                    1031   	mov	r3,	#01fh
00:010A 01-F0'00-00'             1032   	bl	_i2c_init
00:010E 02 E1                    1033   	add	sp,	#2 
                                 1034   
                                 1035   ;;			     &_uartSetParam );				/* Param... 	 */
                                 1036   CLINEA 0000H 0001H 03F2H 0009H 002DH
00:0110 00'00                    1037   	mov	r0,	#BYTE1 OFFSET __uartSetParam
00:0112 00'01                    1038   	mov	r1,	#BYTE2 OFFSET __uartSetParam
00:0114 5E-F0                    1039   	push	er0
00:0116 40 02                    1040   	mov	r2,	#040h
00:0118 1F 03                    1041   	mov	r3,	#01fh
00:011A 02 00                    1042   	mov	r0,	#02h
00:011C 01-F0'00-00'             1043   	bl	_uart_init
00:0120 02 E1                    1044   	add	sp,	#2 
                                 1045   
                                 1046   ;;		uart_PortSet();
                                 1047   CLINEA 0000H 0001H 03F3H 0003H 0011H
00:0122 01-F0'00-00'             1048   	bl	_uart_PortSet
                                 1049   
                                 1050   ;;		_flgUartFin = 0;
                                 1051   CLINEA 0000H 0001H 03F4H 0003H 0012H
00:0126 00 00                    1052   	mov	r0,	#00h
00:0128 11-90 00-00'             1053   	st	r0,	NEAR __flgUartFin
                                 1054   
                                 1055   ;;		uart_stop();
                                 1056   CLINEA 0000H 0001H 03F5H 0003H 000EH
00:012C 01-F0'00-00'             1057   	bl	_uart_stop
                                 1058   
                                 1059   ;;	irq_ei(); // Enable Interrupts
                                 1060   CLINEA 0000H 0001H 03F7H 0002H 001FH
00:0130 01-F0'00-00'             1061   	bl	_irq_ei
                                 1062   
                                 1063   ;;		ESC1_PWM();
                                 1064   CLINEA 0000H 0001H 03FBH 0003H 000DH
00:0134 01-F0'00-00'             1065   	bl	_ESC1_PWM
                                 1066   
                                 1067   ;;		ESC2_PWM();
                                 1068   CLINEA 0000H 0001H 03FCH 0003H 000DH
00:0138 01-F0'00-00'             1069   	bl	_ESC2_PWM
                                 1070   
                                 1071   ;;		ESC3_PWM();
                                 1072   CLINEA 0000H 0001H 03FDH 0003H 000DH
00:013C 01-F0'00-00'             1073   	bl	_ESC3_PWM
                                 1074   
                                 1075   ;;		ESC4_PWM();
                                 1076   CLINEA 0000H 0001H 03FEH 0003H 000DH
00:0140 01-F0'00-00'             1077   	bl	_ESC4_PWM
                                 1078   
                                 1079   ;;		PD0DIR = 1;
                                 1080   CLINEA 0000H 0001H 0400H 0003H 000DH
00:0144 80-A0 69-F2              1081   	sb	0f269h.0
                                 1082   
                                 1083   ;;		PD1DIR = 1;
                                 1084   CLINEA 0000H 0001H 0401H 0003H 000DH
00:0148 90-A0 69-F2              1085   	sb	0f269h.1
                                 1086   
                                 1087   ;;		PD2DIR = 0;
                                 1088   CLINEA 0000H 0001H 0402H 0003H 000DH
00:014C A2-A0 69-F2              1089   	rb	0f269h.2
                                 1090   
                                 1091   ;;		PWMUpperLowerDiff = PWMUpperDutyLimitRun-PWMLowerDutyLimitRun;
                                 1092   CLINEA 0000H 0001H 0404H 0003H 0040H
00:0150 12-90 00-00'             1093   	l	er0,	NEAR _PWMUpperDutyLimitRun
00:0154 12-92 00-00'             1094   	l	er2,	NEAR _PWMLowerDutyLimitRun
00:0158 28-80                    1095   	sub	r0,	r2
00:015A 39-81                    1096   	subc	r1,	r3
00:015C 13-90 00-00'             1097   	st	er0,	NEAR _PWMUpperLowerDiff
                                 1098   
                                 1099   ;;	_flgI2CFin = 0;														//reset I2C completed flag
                                 1100   CLINEA 0000H 0001H 0407H 0002H 0038H
00:0160 00 00                    1101   	mov	r0,	#00h
00:0162 11-90 00-00'             1102   	st	r0,	NEAR __flgI2CFin
                                 1103   
                                 1104   ;;	i2c_stop();															//Make sure I2C is not currently running
                                 1105   CLINEA 0000H 0001H 0408H 0002H 0043H
00:0166 01-F0'00-00'             1106   	bl	_i2c_stop
                                 1107   
                                 1108   ;;	i2c_startSend( MPU6050Address, &AccGyro_PWRMGMT1REG, 1, &AccGyro_PWRMGMT1REG_Contents, 1, (cbfI2c)_funcI2CFin);		//Begin I2C Receive Command
                                 1109   CLINEA 0000H 0001H 0409H 0002H 008DH
00:016A 00'00                    1110   	mov	r0,	#BYTE1 OFFSET __funcI2CFin
00:016C 00'01                    1111   	mov	r1,	#BYTE2 OFFSET __funcI2CFin
00:016E 5E-F0                    1112   	push	er0
00:0170 01 E0                    1113   	mov	er0,	#1 
00:0172 5E-F0                    1114   	push	er0
00:0174 00'00                    1115   	mov	r0,	#BYTE1 OFFSET _AccGyro_PWRMGMT1REG_Contents
00:0176 00'01                    1116   	mov	r1,	#BYTE2 OFFSET _AccGyro_PWRMGMT1REG_Contents
00:0178 5E-F0                    1117   	push	er0
00:017A 01 E0                    1118   	mov	er0,	#1 
00:017C 5E-F0                    1119   	push	er0
00:017E 00'02                    1120   	mov	r2,	#BYTE1 OFFSET _AccGyro_PWRMGMT1REG
00:0180 00'03                    1121   	mov	r3,	#BYTE2 OFFSET _AccGyro_PWRMGMT1REG
00:0182 10-90 00-00'             1122   	l	r0,	NEAR _MPU6050Address
00:0186 01-F0'00-00'             1123   	bl	_i2c_startSend
00:018A 08 E1                    1124   	add	sp,	#8 
                                 1125   
                                 1126   ;;	while(_flgI2CFin != 1){												//Wait for I2C commands to finish transfer
                                 1127   CLINEA 0000H 0000H 040AH 0001H 0015H
00:018C 02 CE                    1128   	bal	_$L110
                                 1129   
                                 1130   ;;	while(_flgI2CFin != 1){												//Wait for I2C commands to finish transfer
                                 1131   CLINEA 0000H 0000H 040AH 0002H 004EH
00:018E                          1132   _$L72 :
                                 1133   CBLOCK 207 3 1034
                                 1134   
                                 1135   ;;		main_clrWDT();
                                 1136   CLINEA 0000H 0001H 040BH 0003H 0010H
00:018E 01-F0'00-00'             1137   	bl	_main_clrWDT
                                 1138   CBLOCKEND 207 3 1036
                                 1139   
                                 1140   ;;	while(_flgI2CFin != 1){												//Wait for I2C commands to finish transfer
                                 1141   CLINEA 0000H 0000H 040AH 0001H 0015H
00:0192                          1142   _$L110 :
00:0192 10-90 00-00'             1143   	l	r0,	NEAR __flgI2CFin
00:0196 01 70                    1144   	cmp	r0,	#01h
00:0198 FA C8                    1145   	bne	_$L72
                                 1146   
                                 1147   ;;	_flgI2CFin = 0;														//reset I2C completed flag
                                 1148   CLINEA 0000H 0001H 040EH 0002H 0038H
00:019A 00 00                    1149   	mov	r0,	#00h
00:019C 11-90 00-00'             1150   	st	r0,	NEAR __flgI2CFin
                                 1151   
                                 1152   ;;	i2c_stop();															//Make sure I2C is not currently running
                                 1153   CLINEA 0000H 0001H 040FH 0002H 0043H
00:01A0 01-F0'00-00'             1154   	bl	_i2c_stop
                                 1155   
                                 1156   ;;	i2c_startSend( MPU6050Address, &AccGyro_AccelConfig, 1, &AccGyro_AccelConfig_Contents, 1, (cbfI2c)_funcI2CFin);		//Begin I2C Receive Command
                                 1157   CLINEA 0000H 0001H 0410H 0002H 008DH
00:01A4 00'00                    1158   	mov	r0,	#BYTE1 OFFSET __funcI2CFin
00:01A6 00'01                    1159   	mov	r1,	#BYTE2 OFFSET __funcI2CFin
00:01A8 5E-F0                    1160   	push	er0
00:01AA 01 E0                    1161   	mov	er0,	#1 
00:01AC 5E-F0                    1162   	push	er0
00:01AE 00'00                    1163   	mov	r0,	#BYTE1 OFFSET _AccGyro_AccelConfig_Contents
00:01B0 00'01                    1164   	mov	r1,	#BYTE2 OFFSET _AccGyro_AccelConfig_Contents
00:01B2 5E-F0                    1165   	push	er0
00:01B4 01 E0                    1166   	mov	er0,	#1 
00:01B6 5E-F0                    1167   	push	er0
00:01B8 00'02                    1168   	mov	r2,	#BYTE1 OFFSET _AccGyro_AccelConfig
00:01BA 00'03                    1169   	mov	r3,	#BYTE2 OFFSET _AccGyro_AccelConfig
00:01BC 10-90 00-00'             1170   	l	r0,	NEAR _MPU6050Address
00:01C0 01-F0'00-00'             1171   	bl	_i2c_startSend
00:01C4 08 E1                    1172   	add	sp,	#8 
                                 1173   
                                 1174   ;;	while(_flgI2CFin != 1){												//Wait for I2C commands to finish transfer
                                 1175   CLINEA 0000H 0000H 0411H 0001H 0015H
00:01C6 02 CE                    1176   	bal	_$L111
                                 1177   
                                 1178   ;;	while(_flgI2CFin != 1){												//Wait for I2C commands to finish transfer
                                 1179   CLINEA 0000H 0000H 0411H 0002H 004EH
00:01C8                          1180   _$L76 :
                                 1181   CBLOCK 207 4 1041
                                 1182   
                                 1183   ;;		main_clrWDT();
                                 1184   CLINEA 0000H 0001H 0412H 0003H 0010H
00:01C8 01-F0'00-00'             1185   	bl	_main_clrWDT
                                 1186   CBLOCKEND 207 4 1043
                                 1187   
                                 1188   ;;	while(_flgI2CFin != 1){												//Wait for I2C commands to finish transfer
                                 1189   CLINEA 0000H 0000H 0411H 0001H 0015H
00:01CC                          1190   _$L111 :
00:01CC 10-90 00-00'             1191   	l	r0,	NEAR __flgI2CFin
00:01D0 01 70                    1192   	cmp	r0,	#01h
00:01D2 FA C8                    1193   	bne	_$L76
                                 1194   
                                 1195   ;;	_flgI2CFin = 0;														//reset I2C completed flag
                                 1196   CLINEA 0000H 0001H 0415H 0002H 0038H
00:01D4 00 00                    1197   	mov	r0,	#00h
00:01D6 11-90 00-00'             1198   	st	r0,	NEAR __flgI2CFin
                                 1199   
                                 1200   ;;	i2c_stop();															//Make sure I2C is not currently running
                                 1201   CLINEA 0000H 0001H 0416H 0002H 0043H
00:01DA 01-F0'00-00'             1202   	bl	_i2c_stop
                                 1203   
                                 1204   ;;	i2c_startSend( MPU6050Address, &AccGyro_GyroConfig, 1, &AccGyro_GyroConfig_Contents, 1, (cbfI2c)_funcI2CFin);		//Begin I2C Receive Command
                                 1205   CLINEA 0000H 0001H 0417H 0002H 008BH
00:01DE 00'00                    1206   	mov	r0,	#BYTE1 OFFSET __funcI2CFin
00:01E0 00'01                    1207   	mov	r1,	#BYTE2 OFFSET __funcI2CFin
00:01E2 5E-F0                    1208   	push	er0
00:01E4 01 E0                    1209   	mov	er0,	#1 
00:01E6 5E-F0                    1210   	push	er0
00:01E8 00'00                    1211   	mov	r0,	#BYTE1 OFFSET _AccGyro_GyroConfig_Contents
00:01EA 00'01                    1212   	mov	r1,	#BYTE2 OFFSET _AccGyro_GyroConfig_Contents
00:01EC 5E-F0                    1213   	push	er0
00:01EE 01 E0                    1214   	mov	er0,	#1 
00:01F0 5E-F0                    1215   	push	er0
00:01F2 00'02                    1216   	mov	r2,	#BYTE1 OFFSET _AccGyro_GyroConfig
00:01F4 00'03                    1217   	mov	r3,	#BYTE2 OFFSET _AccGyro_GyroConfig
00:01F6 10-90 00-00'             1218   	l	r0,	NEAR _MPU6050Address
00:01FA 01-F0'00-00'             1219   	bl	_i2c_startSend
00:01FE 08 E1                    1220   	add	sp,	#8 
                                 1221   
                                 1222   ;;	while(_flgI2CFin != 1){												//Wait for I2C commands to finish transfer
                                 1223   CLINEA 0000H 0000H 0418H 0001H 0015H
00:0200 02 CE                    1224   	bal	_$L112
                                 1225   
                                 1226   ;;	while(_flgI2CFin != 1){												//Wait for I2C commands to finish transfer
                                 1227   CLINEA 0000H 0000H 0418H 0002H 004EH
00:0202                          1228   _$L80 :
                                 1229   CBLOCK 207 5 1048
                                 1230   
                                 1231   ;;		main_clrWDT();
                                 1232   CLINEA 0000H 0001H 0419H 0003H 0010H
00:0202 01-F0'00-00'             1233   	bl	_main_clrWDT
                                 1234   CBLOCKEND 207 5 1050
                                 1235   
                                 1236   ;;	while(_flgI2CFin != 1){												//Wait for I2C commands to finish transfer
                                 1237   CLINEA 0000H 0000H 0418H 0001H 0015H
00:0206                          1238   _$L112 :
00:0206 10-90 00-00'             1239   	l	r0,	NEAR __flgI2CFin
00:020A 01 70                    1240   	cmp	r0,	#01h
00:020C FA C8                    1241   	bne	_$L80
                                 1242   
                                 1243   ;;	_flgI2CFin = 0;														//reset I2C completed flag
                                 1244   CLINEA 0000H 0001H 041DH 0002H 0038H
00:020E 00 00                    1245   	mov	r0,	#00h
00:0210 11-90 00-00'             1246   	st	r0,	NEAR __flgI2CFin
                                 1247   
                                 1248   ;;	i2c_stop();															//Make sure I2C is not currently running
                                 1249   CLINEA 0000H 0001H 041EH 0002H 0043H
00:0214 01-F0'00-00'             1250   	bl	_i2c_stop
                                 1251   
                                 1252   ;;	i2c_startSend( MPU6050Address, &AccGyro_GyroAccel_SMPRTDIV, 1, &AccGyro_GyroAccelLPF_SMPRTDIVContents, 1, (cbfI2c)_funcI2CFin);		//Begin I2C Receive Command
                                 1253   CLINEA 0000H 0001H 041FH 0002H 009DH
00:0218 00'00                    1254   	mov	r0,	#BYTE1 OFFSET __funcI2CFin
00:021A 00'01                    1255   	mov	r1,	#BYTE2 OFFSET __funcI2CFin
00:021C 5E-F0                    1256   	push	er0
00:021E 01 E0                    1257   	mov	er0,	#1 
00:0220 5E-F0                    1258   	push	er0
00:0222 00'00                    1259   	mov	r0,	#BYTE1 OFFSET _AccGyro_GyroAccelLPF_SMPRTDIVCo
00:0224 00'01                    1260   	mov	r1,	#BYTE2 OFFSET _AccGyro_GyroAccelLPF_SMPRTDIVCo
00:0226 5E-F0                    1261   	push	er0
00:0228 01 E0                    1262   	mov	er0,	#1 
00:022A 5E-F0                    1263   	push	er0
00:022C 00'02                    1264   	mov	r2,	#BYTE1 OFFSET _AccGyro_GyroAccel_SMPRTDIV
00:022E 00'03                    1265   	mov	r3,	#BYTE2 OFFSET _AccGyro_GyroAccel_SMPRTDIV
00:0230 10-90 00-00'             1266   	l	r0,	NEAR _MPU6050Address
00:0234 01-F0'00-00'             1267   	bl	_i2c_startSend
00:0238 08 E1                    1268   	add	sp,	#8 
                                 1269   
                                 1270   ;;	while(_flgI2CFin != 1){												//Wait for I2C commands to finish transfer
                                 1271   CLINEA 0000H 0000H 0420H 0001H 0015H
00:023A 02 CE                    1272   	bal	_$L113
                                 1273   
                                 1274   ;;	while(_flgI2CFin != 1){												//Wait for I2C commands to finish transfer
                                 1275   CLINEA 0000H 0000H 0420H 0002H 004EH
00:023C                          1276   _$L84 :
                                 1277   CBLOCK 207 6 1056
                                 1278   
                                 1279   ;;		main_clrWDT();
                                 1280   CLINEA 0000H 0001H 0421H 0003H 0010H
00:023C 01-F0'00-00'             1281   	bl	_main_clrWDT
                                 1282   CBLOCKEND 207 6 1058
                                 1283   
                                 1284   ;;	while(_flgI2CFin != 1){												//Wait for I2C commands to finish transfer
                                 1285   CLINEA 0000H 0000H 0420H 0001H 0015H
00:0240                          1286   _$L113 :
00:0240 10-90 00-00'             1287   	l	r0,	NEAR __flgI2CFin
00:0244 01 70                    1288   	cmp	r0,	#01h
00:0246 FA C8                    1289   	bne	_$L84
                                 1290   
                                 1291   ;;	_flgI2CFin = 0;														//reset I2C completed flag
                                 1292   CLINEA 0000H 0001H 0425H 0002H 0038H
00:0248 00 00                    1293   	mov	r0,	#00h
00:024A 11-90 00-00'             1294   	st	r0,	NEAR __flgI2CFin
                                 1295   
                                 1296   ;;	i2c_stop();															//Make sure I2C is not currently running
                                 1297   CLINEA 0000H 0001H 0426H 0002H 0043H
00:024E 01-F0'00-00'             1298   	bl	_i2c_stop
                                 1299   
                                 1300   ;;	i2c_startSend( MPU6050Address, &AccGyro_GyroAccelLPF, 1, &AccGyro_GyroAccelLPF_Contents, 1, (cbfI2c)_funcI2CFin);		//Begin I2C Receive Command
                                 1301   CLINEA 0000H 0001H 0427H 0002H 008FH
00:0252 00'00                    1302   	mov	r0,	#BYTE1 OFFSET __funcI2CFin
00:0254 00'01                    1303   	mov	r1,	#BYTE2 OFFSET __funcI2CFin
00:0256 5E-F0                    1304   	push	er0
00:0258 01 E0                    1305   	mov	er0,	#1 
00:025A 5E-F0                    1306   	push	er0
00:025C 00'00                    1307   	mov	r0,	#BYTE1 OFFSET _AccGyro_GyroAccelLPF_Contents
00:025E 00'01                    1308   	mov	r1,	#BYTE2 OFFSET _AccGyro_GyroAccelLPF_Contents
00:0260 5E-F0                    1309   	push	er0
00:0262 01 E0                    1310   	mov	er0,	#1 
00:0264 5E-F0                    1311   	push	er0
00:0266 00'02                    1312   	mov	r2,	#BYTE1 OFFSET _AccGyro_GyroAccelLPF
00:0268 00'03                    1313   	mov	r3,	#BYTE2 OFFSET _AccGyro_GyroAccelLPF
00:026A 10-90 00-00'             1314   	l	r0,	NEAR _MPU6050Address
00:026E 01-F0'00-00'             1315   	bl	_i2c_startSend
00:0272 08 E1                    1316   	add	sp,	#8 
                                 1317   
                                 1318   ;;	while(_flgI2CFin != 1){												//Wait for I2C commands to finish transfer
                                 1319   CLINEA 0000H 0000H 0428H 0001H 0015H
00:0274 02 CE                    1320   	bal	_$L114
                                 1321   
                                 1322   ;;	while(_flgI2CFin != 1){												//Wait for I2C commands to finish transfer
                                 1323   CLINEA 0000H 0000H 0428H 0002H 004EH
00:0276                          1324   _$L88 :
                                 1325   CBLOCK 207 7 1064
                                 1326   
                                 1327   ;;		main_clrWDT();
                                 1328   CLINEA 0000H 0001H 0429H 0003H 0010H
00:0276 01-F0'00-00'             1329   	bl	_main_clrWDT
                                 1330   CBLOCKEND 207 7 1066
                                 1331   
                                 1332   ;;	while(_flgI2CFin != 1){												//Wait for I2C commands to finish transfer
                                 1333   CLINEA 0000H 0000H 0428H 0001H 0015H
00:027A                          1334   _$L114 :
00:027A 10-90 00-00'             1335   	l	r0,	NEAR __flgI2CFin
00:027E 01 70                    1336   	cmp	r0,	#01h
00:0280 FA C8                    1337   	bne	_$L88
                                 1338   
                                 1339   ;;	_flgI2CFin = 0;														//reset I2C completed flag
                                 1340   CLINEA 0000H 0001H 042DH 0002H 0038H
00:0282 00 00                    1341   	mov	r0,	#00h
00:0284 11-90 00-00'             1342   	st	r0,	NEAR __flgI2CFin
                                 1343   
                                 1344   ;;	i2c_stop();															//Make sure I2C is not currently running
                                 1345   CLINEA 0000H 0001H 042EH 0002H 0043H
00:0288 01-F0'00-00'             1346   	bl	_i2c_stop
                                 1347   
                                 1348   ;;	i2c_startSend( MPU6050Address, &AccGyro_INTENABLEReg, 1, &AccGyro_INTENABLEReg_contents, 1, (cbfI2c)_funcI2CFin);		//Begin I2C Receive Command
                                 1349   CLINEA 0000H 0001H 042FH 0002H 008FH
00:028C 00'00                    1350   	mov	r0,	#BYTE1 OFFSET __funcI2CFin
00:028E 00'01                    1351   	mov	r1,	#BYTE2 OFFSET __funcI2CFin
00:0290 5E-F0                    1352   	push	er0
00:0292 01 E0                    1353   	mov	er0,	#1 
00:0294 5E-F0                    1354   	push	er0
00:0296 00'00                    1355   	mov	r0,	#BYTE1 OFFSET _AccGyro_INTENABLEReg_contents
00:0298 00'01                    1356   	mov	r1,	#BYTE2 OFFSET _AccGyro_INTENABLEReg_contents
00:029A 5E-F0                    1357   	push	er0
00:029C 01 E0                    1358   	mov	er0,	#1 
00:029E 5E-F0                    1359   	push	er0
00:02A0 00'02                    1360   	mov	r2,	#BYTE1 OFFSET _AccGyro_INTENABLEReg
00:02A2 00'03                    1361   	mov	r3,	#BYTE2 OFFSET _AccGyro_INTENABLEReg
00:02A4 10-90 00-00'             1362   	l	r0,	NEAR _MPU6050Address
00:02A8 01-F0'00-00'             1363   	bl	_i2c_startSend
00:02AC 08 E1                    1364   	add	sp,	#8 
                                 1365   
                                 1366   ;;	while(_flgI2CFin != 1){												//Wait for I2C commands to finish transfer
                                 1367   CLINEA 0000H 0000H 0430H 0001H 0015H
00:02AE 02 CE                    1368   	bal	_$L115
                                 1369   
                                 1370   ;;	while(_flgI2CFin != 1){												//Wait for I2C commands to finish transfer
                                 1371   CLINEA 0000H 0000H 0430H 0002H 004EH
00:02B0                          1372   _$L92 :
                                 1373   CBLOCK 207 8 1072
                                 1374   
                                 1375   ;;		main_clrWDT();
                                 1376   CLINEA 0000H 0001H 0431H 0003H 0010H
00:02B0 01-F0'00-00'             1377   	bl	_main_clrWDT
                                 1378   CBLOCKEND 207 8 1074
                                 1379   
                                 1380   ;;	while(_flgI2CFin != 1){												//Wait for I2C commands to finish transfer
                                 1381   CLINEA 0000H 0000H 0430H 0001H 0015H
00:02B4                          1382   _$L115 :
00:02B4 10-90 00-00'             1383   	l	r0,	NEAR __flgI2CFin
00:02B8 01 70                    1384   	cmp	r0,	#01h
00:02BA FA C8                    1385   	bne	_$L92
                                 1386   
                                 1387   ;;	_flgI2CFin = 0;														//reset I2C completed flag
                                 1388   CLINEA 0000H 0001H 0435H 0002H 0038H
00:02BC 00 00                    1389   	mov	r0,	#00h
00:02BE 11-90 00-00'             1390   	st	r0,	NEAR __flgI2CFin
                                 1391   
                                 1392   ;;	i2c_stop();															//Make sure I2C is not currently running
                                 1393   CLINEA 0000H 0001H 0436H 0002H 0043H
00:02C2 01-F0'00-00'             1394   	bl	_i2c_stop
                                 1395   
                                 1396   ;;	i2c_startSend( HMC5883Address, &Mag_ConfigA, 1, &Mag_ConfigA_Contents, 1, (cbfI2c)_funcI2CFin);		//Begin I2C Receive Command
                                 1397   CLINEA 0000H 0001H 0437H 0002H 007DH
00:02C6 00'00                    1398   	mov	r0,	#BYTE1 OFFSET __funcI2CFin
00:02C8 00'01                    1399   	mov	r1,	#BYTE2 OFFSET __funcI2CFin
00:02CA 5E-F0                    1400   	push	er0
00:02CC 01 E0                    1401   	mov	er0,	#1 
00:02CE 5E-F0                    1402   	push	er0
00:02D0 00'00                    1403   	mov	r0,	#BYTE1 OFFSET _Mag_ConfigA_Contents
00:02D2 00'01                    1404   	mov	r1,	#BYTE2 OFFSET _Mag_ConfigA_Contents
00:02D4 5E-F0                    1405   	push	er0
00:02D6 01 E0                    1406   	mov	er0,	#1 
00:02D8 5E-F0                    1407   	push	er0
00:02DA 00'02                    1408   	mov	r2,	#BYTE1 OFFSET _Mag_ConfigA
00:02DC 00'03                    1409   	mov	r3,	#BYTE2 OFFSET _Mag_ConfigA
00:02DE 10-90 00-00'             1410   	l	r0,	NEAR _HMC5883Address
00:02E2 01-F0'00-00'             1411   	bl	_i2c_startSend
00:02E6 08 E1                    1412   	add	sp,	#8 
                                 1413   
                                 1414   ;;	while(_flgI2CFin != 1){												//Wait for I2C commands to finish transfer
                                 1415   CLINEA 0000H 0000H 0438H 0001H 0015H
00:02E8 02 CE                    1416   	bal	_$L116
                                 1417   
                                 1418   ;;	while(_flgI2CFin != 1){												//Wait for I2C commands to finish transfer
                                 1419   CLINEA 0000H 0000H 0438H 0002H 004EH
00:02EA                          1420   _$L96 :
                                 1421   CBLOCK 207 9 1080
                                 1422   
                                 1423   ;;		main_clrWDT();
                                 1424   CLINEA 0000H 0001H 0439H 0003H 0010H
00:02EA 01-F0'00-00'             1425   	bl	_main_clrWDT
                                 1426   CBLOCKEND 207 9 1082
                                 1427   
                                 1428   ;;	while(_flgI2CFin != 1){												//Wait for I2C commands to finish transfer
                                 1429   CLINEA 0000H 0000H 0438H 0001H 0015H
00:02EE                          1430   _$L116 :
00:02EE 10-90 00-00'             1431   	l	r0,	NEAR __flgI2CFin
00:02F2 01 70                    1432   	cmp	r0,	#01h
00:02F4 FA C8                    1433   	bne	_$L96
                                 1434   
                                 1435   ;;	_flgI2CFin = 0;														//reset I2C completed flag
                                 1436   CLINEA 0000H 0001H 043CH 0002H 0038H
00:02F6 00 00                    1437   	mov	r0,	#00h
00:02F8 11-90 00-00'             1438   	st	r0,	NEAR __flgI2CFin
                                 1439   
                                 1440   ;;	i2c_stop();															//Make sure I2C is not currently running
                                 1441   CLINEA 0000H 0001H 043DH 0002H 0043H
00:02FC 01-F0'00-00'             1442   	bl	_i2c_stop
                                 1443   
                                 1444   ;;	i2c_startSend( HMC5883Address, &Mag_ConfigB, 1, &Mag_ConfigB_Contents, 1, (cbfI2c)_funcI2CFin);		//Begin I2C Receive Command
                                 1445   CLINEA 0000H 0001H 043EH 0002H 007DH
00:0300 00'00                    1446   	mov	r0,	#BYTE1 OFFSET __funcI2CFin
00:0302 00'01                    1447   	mov	r1,	#BYTE2 OFFSET __funcI2CFin
00:0304 5E-F0                    1448   	push	er0
00:0306 01 E0                    1449   	mov	er0,	#1 
00:0308 5E-F0                    1450   	push	er0
00:030A 00'00                    1451   	mov	r0,	#BYTE1 OFFSET _Mag_ConfigB_Contents
00:030C 00'01                    1452   	mov	r1,	#BYTE2 OFFSET _Mag_ConfigB_Contents
00:030E 5E-F0                    1453   	push	er0
00:0310 01 E0                    1454   	mov	er0,	#1 
00:0312 5E-F0                    1455   	push	er0
00:0314 00'02                    1456   	mov	r2,	#BYTE1 OFFSET _Mag_ConfigB
00:0316 00'03                    1457   	mov	r3,	#BYTE2 OFFSET _Mag_ConfigB
00:0318 10-90 00-00'             1458   	l	r0,	NEAR _HMC5883Address
00:031C 01-F0'00-00'             1459   	bl	_i2c_startSend
00:0320 08 E1                    1460   	add	sp,	#8 
                                 1461   
                                 1462   ;;	while(_flgI2CFin != 1){												//Wait for I2C commands to finish transfer
                                 1463   CLINEA 0000H 0000H 043FH 0001H 0015H
00:0322 02 CE                    1464   	bal	_$L117
                                 1465   
                                 1466   ;;	while(_flgI2CFin != 1){												//Wait for I2C commands to finish transfer
                                 1467   CLINEA 0000H 0000H 043FH 0002H 004EH
00:0324                          1468   _$L100 :
                                 1469   CBLOCK 207 10 1087
                                 1470   
                                 1471   ;;		main_clrWDT();
                                 1472   CLINEA 0000H 0001H 0440H 0003H 0010H
00:0324 01-F0'00-00'             1473   	bl	_main_clrWDT
                                 1474   CBLOCKEND 207 10 1089
                                 1475   
                                 1476   ;;	while(_flgI2CFin != 1){												//Wait for I2C commands to finish transfer
                                 1477   CLINEA 0000H 0000H 043FH 0001H 0015H
00:0328                          1478   _$L117 :
00:0328 10-90 00-00'             1479   	l	r0,	NEAR __flgI2CFin
00:032C 01 70                    1480   	cmp	r0,	#01h
00:032E FA C8                    1481   	bne	_$L100
                                 1482   
                                 1483   ;;	_flgI2CFin = 0;														//reset I2C completed flag
                                 1484   CLINEA 0000H 0001H 0443H 0002H 0038H
00:0330 00 00                    1485   	mov	r0,	#00h
00:0332 11-90 00-00'             1486   	st	r0,	NEAR __flgI2CFin
                                 1487   
                                 1488   ;;	i2c_stop();															//Make sure I2C is not currently running
                                 1489   CLINEA 0000H 0001H 0444H 0002H 0043H
00:0336 01-F0'00-00'             1490   	bl	_i2c_stop
                                 1491   
                                 1492   ;;	i2c_startSend( HMC5883Address, &Mag_ModeReg, 1, &Mag_ModeReg_Contents, 1, (cbfI2c)_funcI2CFin);		//Begin I2C Receive Command
                                 1493   CLINEA 0000H 0001H 0445H 0002H 007DH
00:033A 00'00                    1494   	mov	r0,	#BYTE1 OFFSET __funcI2CFin
00:033C 00'01                    1495   	mov	r1,	#BYTE2 OFFSET __funcI2CFin
00:033E 5E-F0                    1496   	push	er0
00:0340 01 E0                    1497   	mov	er0,	#1 
00:0342 5E-F0                    1498   	push	er0
00:0344 00'00                    1499   	mov	r0,	#BYTE1 OFFSET _Mag_ModeReg_Contents
00:0346 00'01                    1500   	mov	r1,	#BYTE2 OFFSET _Mag_ModeReg_Contents
00:0348 5E-F0                    1501   	push	er0
00:034A 01 E0                    1502   	mov	er0,	#1 
00:034C 5E-F0                    1503   	push	er0
00:034E 00'02                    1504   	mov	r2,	#BYTE1 OFFSET _Mag_ModeReg
00:0350 00'03                    1505   	mov	r3,	#BYTE2 OFFSET _Mag_ModeReg
00:0352 10-90 00-00'             1506   	l	r0,	NEAR _HMC5883Address
00:0356 01-F0'00-00'             1507   	bl	_i2c_startSend
00:035A 08 E1                    1508   	add	sp,	#8 
                                 1509   
                                 1510   ;;	while(_flgI2CFin != 1){												//Wait for I2C commands to finish transfer
                                 1511   CLINEA 0000H 0000H 0446H 0001H 0015H
00:035C 02 CE                    1512   	bal	_$L118
                                 1513   
                                 1514   ;;	while(_flgI2CFin != 1){												//Wait for I2C commands to finish transfer
                                 1515   CLINEA 0000H 0000H 0446H 0002H 004EH
00:035E                          1516   _$L104 :
                                 1517   CBLOCK 207 11 1094
                                 1518   
                                 1519   ;;		main_clrWDT();
                                 1520   CLINEA 0000H 0001H 0447H 0003H 0010H
00:035E 01-F0'00-00'             1521   	bl	_main_clrWDT
                                 1522   CBLOCKEND 207 11 1096
                                 1523   
                                 1524   ;;	while(_flgI2CFin != 1){												//Wait for I2C commands to finish transfer
                                 1525   CLINEA 0000H 0000H 0446H 0001H 0015H
00:0362                          1526   _$L118 :
00:0362 10-90 00-00'             1527   	l	r0,	NEAR __flgI2CFin
00:0366 01 70                    1528   	cmp	r0,	#01h
00:0368 FA C8                    1529   	bne	_$L104
                                 1530   
                                 1531   ;;	EPB3 = 0;
                                 1532   CLINEA 0000H 0001H 044BH 0002H 000AH
00:036A F2-A0 11-F0              1533   	rb	0f011h.7
                                 1534   
                                 1535   ;;	_flgI2CFin = 0;																	//reset I2C completed Flag
                                 1536   CLINEA 0000H 0001H 044EH 0002H 003BH
00:036E 00 00                    1537   	mov	r0,	#00h
00:0370 11-90 00-00'             1538   	st	r0,	NEAR __flgI2CFin
                                 1539   
                                 1540   ;;	i2c_stop();																		//Make sure I2C is not currently running
                                 1541   CLINEA 0000H 0001H 044FH 0002H 0046H
00:0374 01-F0'00-00'             1542   	bl	_i2c_stop
                                 1543   
                                 1544   ;;	I20MD = 1;		//Switch to I2C Fast Operation (400kbps)
                                 1545   CLINEA 0000H 0001H 0450H 0002H 0035H
00:0378 90-A0 A4-F2              1546   	sb	0f2a4h.1
                                 1547   
                                 1548   ;;	i2c_startReceive(MPU6050Address, &AccGyro_ReadData, 1, &AccGyro_Data, 14, (cbfI2c)_funcI2CFin);	//Begin I2C Receive Command
                                 1549   CLINEA 0000H 0001H 0451H 0002H 007CH
00:037C 00'00                    1550   	mov	r0,	#BYTE1 OFFSET __funcI2CFin
00:037E 00'01                    1551   	mov	r1,	#BYTE2 OFFSET __funcI2CFin
00:0380 5E-F0                    1552   	push	er0
00:0382 0E E0                    1553   	mov	er0,	#14
00:0384 5E-F0                    1554   	push	er0
00:0386 00'00                    1555   	mov	r0,	#BYTE1 OFFSET _AccGyro_Data
00:0388 00'01                    1556   	mov	r1,	#BYTE2 OFFSET _AccGyro_Data
00:038A 5E-F0                    1557   	push	er0
00:038C 01 E0                    1558   	mov	er0,	#1 
00:038E 5E-F0                    1559   	push	er0
00:0390 00'02                    1560   	mov	r2,	#BYTE1 OFFSET _AccGyro_ReadData
00:0392 00'03                    1561   	mov	r3,	#BYTE2 OFFSET _AccGyro_ReadData
00:0394 10-90 00-00'             1562   	l	r0,	NEAR _MPU6050Address
00:0398 01-F0'00-00'             1563   	bl	_i2c_startReceive
00:039C 08 E1                    1564   	add	sp,	#8 
                                 1565   
                                 1566   ;;	while(_flgI2CFin != 1){															//Wait for I2C commands to finish transfer
                                 1567   CLINEA 0000H 0000H 0452H 0001H 0015H
00:039E 02 CE                    1568   	bal	_$L119
                                 1569   
                                 1570   ;;	while(_flgI2CFin != 1){															//Wait for I2C commands to finish transfer
                                 1571   CLINEA 0000H 0000H 0452H 0002H 0051H
00:03A0                          1572   _$L108 :
                                 1573   CBLOCK 207 12 1106
                                 1574   
                                 1575   ;;		main_clrWDT();
                                 1576   CLINEA 0000H 0001H 0453H 0003H 0010H
00:03A0 01-F0'00-00'             1577   	bl	_main_clrWDT
                                 1578   CBLOCKEND 207 12 1112
                                 1579   
                                 1580   ;;	while(_flgI2CFin != 1){															//Wait for I2C commands to finish transfer
                                 1581   CLINEA 0000H 0000H 0452H 0001H 0015H
00:03A4                          1582   _$L119 :
00:03A4 10-90 00-00'             1583   	l	r0,	NEAR __flgI2CFin
00:03A8 01 70                    1584   	cmp	r0,	#01h
00:03AA FA C8                    1585   	bne	_$L108
                                 1586   
                                 1587   ;;	PD1C1 = 1;
                                 1588   CLINEA 0000H 0001H 045CH 0002H 000BH
00:03AC 90-A0 6B-F2              1589   	sb	0f26bh.1
                                 1590   
                                 1591   ;;	PD1C0 = 1;
                                 1592   CLINEA 0000H 0001H 045DH 0002H 000BH
00:03B0 90-A0 6A-F2              1593   	sb	0f26ah.1
                                 1594   
                                 1595   ;;	PC6DIR = 1;
                                 1596   CLINEA 0000H 0001H 0460H 0002H 000CH
00:03B4 E0-A0 61-F2              1597   	sb	0f261h.6
                                 1598   
                                 1599   ;;	PC6C0 = 1;
                                 1600   CLINEA 0000H 0001H 0461H 0002H 000BH
00:03B8 E0-A0 62-F2              1601   	sb	0f262h.6
                                 1602   
                                 1603   ;;	PC6C1 = 1;
                                 1604   CLINEA 0000H 0001H 0462H 0002H 000BH
00:03BC E0-A0 63-F2              1605   	sb	0f263h.6
                                 1606   
                                 1607   ;;	PC6MD0 = 0;
                                 1608   CLINEA 0000H 0001H 0463H 0002H 000CH
00:03C0 E2-A0 64-F2              1609   	rb	0f264h.6
                                 1610   
                                 1611   ;;	PC6MD1 = 0;
                                 1612   CLINEA 0000H 0001H 0464H 0002H 000CH
00:03C4 E2-A0 65-F2              1613   	rb	0f265h.6
                                 1614   CBLOCKEND 207 2 1128
                                 1615   
                                 1616   ;;}//End Initialization
                                 1617   CLINEA 0000H 0001H 0468H 0001H 0015H
00:03C8 8E-F2                    1618   	pop	pc
                                 1619   CBLOCKEND 207 1 1128
                                 1620   CFUNCTIONEND 207
                                 1621   
                                 1622   
  --------------------------     1623   	rseg $$Get_RangeData$main
                                 1624   CFUNCTION 219
                                 1625   
00:0000                          1626   _Get_RangeData	:
                                 1627   CBLOCK 219 1 1134
                                 1628   
                                 1629   ;;void Get_RangeData(void){
                                 1630   CLINEA 0000H 0001H 046EH 0001H 0019H
00:0000 CE-F8                    1631   	push	lr
                                 1632   CBLOCK 219 2 1134
                                 1633   CRET 0000H
                                 1634   
                                 1635   ;;	_flgI2CFin = 0;														//reset I2C completed flag
                                 1636   CLINEA 0000H 0001H 0470H 0002H 0038H
00:0002 00 00                    1637   	mov	r0,	#00h
00:0004 11-90 00-00'             1638   	st	r0,	NEAR __flgI2CFin
                                 1639   
                                 1640   ;;	i2c_stop();															//Make sure I2C is not currently running
                                 1641   CLINEA 0000H 0001H 0471H 0002H 0043H
00:0008 01-F0'00-00'             1642   	bl	_i2c_stop
                                 1643   
                                 1644   ;;	I20MD = 0;		//Switch to I2C Standard Operation (100kbps)
                                 1645   CLINEA 0000H 0001H 0472H 0002H 0039H
00:000C 92-A0 A4-F2              1646   	rb	0f2a4h.1
                                 1647   
                                 1648   ;;	i2c_startSend( Range_Address, &Range_TakeRangeReading, 1, &AccGyro_PWRMGMT1REG_Contents, 0, (cbfI2c)_funcI2CFin);		//Begin I2C Receive Command
                                 1649   CLINEA 0000H 0001H 0473H 0002H 008FH
00:0010 00'00                    1650   	mov	r0,	#BYTE1 OFFSET __funcI2CFin
00:0012 00'01                    1651   	mov	r1,	#BYTE2 OFFSET __funcI2CFin
00:0014 5E-F0                    1652   	push	er0
00:0016 00 E0                    1653   	mov	er0,	#0 
00:0018 5E-F0                    1654   	push	er0
00:001A 00'00                    1655   	mov	r0,	#BYTE1 OFFSET _AccGyro_PWRMGMT1REG_Contents
00:001C 00'01                    1656   	mov	r1,	#BYTE2 OFFSET _AccGyro_PWRMGMT1REG_Contents
00:001E 5E-F0                    1657   	push	er0
00:0020 01 E0                    1658   	mov	er0,	#1 
00:0022 5E-F0                    1659   	push	er0
00:0024 00'02                    1660   	mov	r2,	#BYTE1 OFFSET _Range_TakeRangeReading
00:0026 00'03                    1661   	mov	r3,	#BYTE2 OFFSET _Range_TakeRangeReading
00:0028 10-90 00-00'             1662   	l	r0,	NEAR _Range_Address
00:002C 01-F0'00-00'             1663   	bl	_i2c_startSend
00:0030 08 E1                    1664   	add	sp,	#8 
                                 1665   
                                 1666   ;;	while(_flgI2CFin != 1){												//Wait for I2C commands to finish transfer
                                 1667   CLINEA 0000H 0000H 0474H 0001H 0001H
00:0032 02 CE                    1668   	bal	_$L133
                                 1669   
                                 1670   ;;	while(_flgI2CFin != 1){												//Wait for I2C commands to finish transfer
                                 1671   CLINEA 0000H 0000H 0474H 0002H 004EH
00:0034                          1672   _$L123 :
                                 1673   CBLOCK 219 3 1140
                                 1674   
                                 1675   ;;		main_clrWDT();
                                 1676   CLINEA 0000H 0001H 0475H 0003H 0010H
00:0034 01-F0'00-00'             1677   	bl	_main_clrWDT
                                 1678   CBLOCKEND 219 3 1142
                                 1679   
                                 1680   ;;	while(_flgI2CFin != 1){												//Wait for I2C commands to finish transfer
                                 1681   CLINEA 0000H 0000H 0474H 0001H 0001H
00:0038                          1682   _$L133 :
00:0038 10-90 00-00'             1683   	l	r0,	NEAR __flgI2CFin
00:003C 01 70                    1684   	cmp	r0,	#01h
00:003E FA C8                    1685   	bne	_$L123
                                 1686   
                                 1687   ;;	}
                                 1688   CLINEA 0000H 0000H 0476H 0002H 0002H
00:0040                          1689   _$L122 :
                                 1690   
                                 1691   ;;	while(RANGE_STAT==1);
                                 1692   CLINEA 0000H 0000H 0477H 0000H 0000H
00:0040 E1-A0 60-F2              1693   	tb	0f260h.6
00:0044 FD C8                    1694   	bne	_$L122
                                 1695   
                                 1696   ;;	_flgI2CFin = 0;																	//reset I2C completed Flag
                                 1697   CLINEA 0000H 0001H 047AH 0002H 003BH
00:0046 00 00                    1698   	mov	r0,	#00h
00:0048 11-90 00-00'             1699   	st	r0,	NEAR __flgI2CFin
                                 1700   
                                 1701   ;;	i2c_stop();																		//Make sure I2C is not currently running
                                 1702   CLINEA 0000H 0001H 047BH 0002H 0046H
00:004C 01-F0'00-00'             1703   	bl	_i2c_stop
                                 1704   
                                 1705   ;;	i2c_startReceive(Range_Address, &Range_TakeRangeReading, 0, &Range_Output, 2, (cbfI2c)_funcI2CFin);	//Begin I2C Receive Command
                                 1706   CLINEA 0000H 0001H 047CH 0002H 0080H
00:0050 00'00                    1707   	mov	r0,	#BYTE1 OFFSET __funcI2CFin
00:0052 00'01                    1708   	mov	r1,	#BYTE2 OFFSET __funcI2CFin
00:0054 5E-F0                    1709   	push	er0
00:0056 02 E0                    1710   	mov	er0,	#2 
00:0058 5E-F0                    1711   	push	er0
00:005A 00'00                    1712   	mov	r0,	#BYTE1 OFFSET _Range_Output
00:005C 00'01                    1713   	mov	r1,	#BYTE2 OFFSET _Range_Output
00:005E 5E-F0                    1714   	push	er0
00:0060 00 E0                    1715   	mov	er0,	#0 
00:0062 5E-F0                    1716   	push	er0
00:0064 00'02                    1717   	mov	r2,	#BYTE1 OFFSET _Range_TakeRangeReading
00:0066 00'03                    1718   	mov	r3,	#BYTE2 OFFSET _Range_TakeRangeReading
00:0068 10-90 00-00'             1719   	l	r0,	NEAR _Range_Address
00:006C 01-F0'00-00'             1720   	bl	_i2c_startReceive
00:0070 08 E1                    1721   	add	sp,	#8 
                                 1722   
                                 1723   ;;	while(_flgI2CFin != 1){															//Wait for I2C commands to finish transfer
                                 1724   CLINEA 0000H 0000H 047DH 0001H 0001H
00:0072 02 CE                    1725   	bal	_$L134
                                 1726   
                                 1727   ;;	while(_flgI2CFin != 1){															//Wait for I2C commands to finish transfer
                                 1728   CLINEA 0000H 0000H 047DH 0002H 0051H
00:0074                          1729   _$L131 :
                                 1730   CBLOCK 219 4 1149
                                 1731   
                                 1732   ;;		main_clrWDT();
                                 1733   CLINEA 0000H 0001H 047EH 0003H 0010H
00:0074 01-F0'00-00'             1734   	bl	_main_clrWDT
                                 1735   CBLOCKEND 219 4 1151
                                 1736   
                                 1737   ;;	while(_flgI2CFin != 1){															//Wait for I2C commands to finish transfer
                                 1738   CLINEA 0000H 0000H 047DH 0001H 0001H
00:0078                          1739   _$L134 :
00:0078 10-90 00-00'             1740   	l	r0,	NEAR __flgI2CFin
00:007C 01 70                    1741   	cmp	r0,	#01h
00:007E FA C8                    1742   	bne	_$L131
                                 1743   
                                 1744   ;;	Range_out = (Range_Output[0]<<8)+(Range_Output[1]);
                                 1745   CLINEA 0000H 0001H 0481H 0002H 0034H
00:0080 10-90 00-00'             1746   	l	r0,	NEAR _Range_Output+01h
00:0084 00 01                    1747   	mov	r1,	#00h
00:0086 10-92 00-00'             1748   	l	r2,	NEAR _Range_Output
00:008A 20-83                    1749   	mov	r3,	r2
00:008C 00 02                    1750   	mov	r2,	#00h
00:008E 26-F0                    1751   	add	er0,	er2
00:0090 13-90 00-00'             1752   	st	er0,	NEAR _Range_out
                                 1753   
                                 1754   ;;	I20MD = 1;		//Switch Back to I2C Fast Operation (400kbps)
                                 1755   CLINEA 0000H 0001H 0482H 0002H 003AH
00:0094 90-A0 A4-F2              1756   	sb	0f2a4h.1
                                 1757   CBLOCKEND 219 2 1155
                                 1758   
                                 1759   ;;}
                                 1760   CLINEA 0000H 0001H 0483H 0001H 0001H
00:0098 8E-F2                    1761   	pop	pc
                                 1762   CBLOCKEND 219 1 1155
                                 1763   CFUNCTIONEND 219
                                 1764   
                                 1765   
  --------------------------     1766   	rseg $$Get_PingData$main
                                 1767   CFUNCTION 220
                                 1768   
00:0000                          1769   _Get_PingData	:
                                 1770   CBLOCK 220 1 1157
                                 1771   
                                 1772   ;;void Get_PingData(void){
                                 1773   CLINEA 0000H 0001H 0485H 0001H 0018H
00:0000 CE-F8                    1774   	push	lr
00:0002 6E-F4                    1775   	push	xr4
                                 1776   CBLOCK 220 2 1157
                                 1777   CRET 0004H
                                 1778   
                                 1779   ;;	PD1DIR = 0;		// PortD Bit0 set to Output Mode...
                                 1780   CLINEA 0000H 0001H 0488H 0002H 0031H
00:0004 92-A0 69-F2              1781   	rb	0f269h.1
                                 1782   
                                 1783   ;;	PingSensor = 1;
                                 1784   CLINEA 0000H 0001H 0489H 0002H 0010H
00:0008 90-A0 68-F2              1785   	sb	0f268h.1
                                 1786   
                                 1787   ;;	NOPus();
                                 1788   CLINEA 0000H 0001H 048AH 0002H 0009H
00:000C 01-F0'00-00'             1789   	bl	_NOPus
                                 1790   
                                 1791   ;;	PingSensor = 0;
                                 1792   CLINEA 0000H 0001H 048BH 0002H 0010H
00:0010 92-A0 68-F2              1793   	rb	0f268h.1
                                 1794   
                                 1795   ;;	PD1DIR = 1;		// PortD Bit0 set to Input Mode...
                                 1796   CLINEA 0000H 0001H 048EH 0002H 0030H
00:0014 90-A0 69-F2              1797   	sb	0f269h.1
                                 1798   
                                 1799   ;;	while(PingSensor == 0){
                                 1800   CLINEA 0000H 0001H 048FH 0002H 0018H
00:0018 02 CE                    1801   	bal	_$L136
00:001A                          1802   _$L138 :
                                 1803   CBLOCK 220 3 1167
                                 1804   
                                 1805   ;;		NOPus();
                                 1806   CLINEA 0000H 0001H 0490H 0003H 000AH
00:001A 01-F0'00-00'             1807   	bl	_NOPus
                                 1808   CBLOCKEND 220 3 1169
                                 1809   
                                 1810   ;;	}
                                 1811   CLINEA 0000H 0000H 0491H 0002H 0002H
00:001E                          1812   _$L136 :
                                 1813   
                                 1814   ;;	while(PingSensor == 0){
                                 1815   CLINEA 0000H 0000H 048FH 0000H 0000H
00:001E 91-A0 68-F2              1816   	tb	0f268h.1
00:0022 FB C9                    1817   	beq	_$L138
                                 1818   
                                 1819   ;;	while(PingSensor ==1){
                                 1820   CLINEA 0000H 0001H 0492H 0002H 0017H
00:0024 07 CE                    1821   	bal	_$L140
00:0026                          1822   _$L142 :
                                 1823   CBLOCK 220 4 1170
                                 1824   
                                 1825   ;;		NOPus();
                                 1826   CLINEA 0000H 0001H 0493H 0003H 000AH
00:0026 01-F0'00-00'             1827   	bl	_NOPus
                                 1828   
                                 1829   ;;		Ping_timer++;
                                 1830   CLINEA 0000H 0000H 0494H 0003H 000FH
00:002A 12-90 00-00'             1831   	l	er0,	NEAR _Ping_timer
00:002E 81 E0                    1832   	add	er0,	#1 
00:0030 13-90 00-00'             1833   	st	er0,	NEAR _Ping_timer
                                 1834   CBLOCKEND 220 4 1173
                                 1835   
                                 1836   ;;	}
                                 1837   CLINEA 0000H 0000H 0495H 0002H 0002H
00:0034                          1838   _$L140 :
                                 1839   
                                 1840   ;;	while(PingSensor ==1){
                                 1841   CLINEA 0000H 0000H 0492H 0000H 0000H
00:0034 91-A0 68-F2              1842   	tb	0f268h.1
00:0038 F6 C8                    1843   	bne	_$L142
                                 1844   
                                 1845   ;;	Ping_timer *= 11;	//Convert the ping timer response to us
                                 1846   CLINEA 0000H 0001H 0496H 0002H 003AH
00:003A 12-90 00-00'             1847   	l	er0,	NEAR _Ping_timer
00:003E 05-F2                    1848   	mov	er2,	er0
00:0040 2B-91                    1849   	sllc	r1,	#02h
00:0042 2A-90                    1850   	sll	r0,	#02h
00:0044 26-F0                    1851   	add	er0,	er2
00:0046 06-F0                    1852   	add	er0,	er0
00:0048 26-F0                    1853   	add	er0,	er2
00:004A 13-90 00-00'             1854   	st	er0,	NEAR _Ping_timer
                                 1855   
                                 1856   ;;	Ping_out = (0.0162*Ping_timer) + 0.1359; //Convert us to distance based on Datasheet
                                 1857   CLINEA 0000H 0001H 0497H 0002H 0055H
00:004E 00 E2                    1858   	mov	er2,	#0 
00:0050 6E-F0                    1859   	push	xr0
00:0052 FC E1                    1860   	add	sp,	#-4
00:0054 01-F0'00-00'             1861   	bl	__dildu8sw
00:0058 82 00                    1862   	mov	r0,	#082h
00:005A E2 01                    1863   	mov	r1,	#0e2h
00:005C C7 02                    1864   	mov	r2,	#0c7h
00:005E 98 03                    1865   	mov	r3,	#098h
00:0060 BB 04                    1866   	mov	r4,	#0bbh
00:0062 96 05                    1867   	mov	r5,	#096h
00:0064 90 06                    1868   	mov	r6,	#090h
00:0066 3F 07                    1869   	mov	r7,	#03fh
00:0068 7E-F0                    1870   	push	qr0
00:006A 01-F0'00-00'             1871   	bl	__dmulu8sw
00:006E 08 E1                    1872   	add	sp,	#8 
00:0070 13 00                    1873   	mov	r0,	#013h
00:0072 61 01                    1874   	mov	r1,	#061h
00:0074 C3 02                    1875   	mov	r2,	#0c3h
00:0076 D3 03                    1876   	mov	r3,	#0d3h
00:0078 2B 04                    1877   	mov	r4,	#02bh
00:007A 65 05                    1878   	mov	r5,	#065h
00:007C C1 06                    1879   	mov	r6,	#0c1h
00:007E 7E-F0                    1880   	push	qr0
00:0080 01-F0'00-00'             1881   	bl	__daddu8sw
00:0084 08 E1                    1882   	add	sp,	#8 
00:0086 01-F0'00-00'             1883   	bl	__dtofu8sw
00:008A 04 E1                    1884   	add	sp,	#4 
00:008C 2E-F0                    1885   	pop	xr0
00:008E 13-90 00-00'             1886   	st	er0,	NEAR _Ping_out
00:0092 13-92 00-00'             1887   	st	er2,	NEAR _Ping_out+02h
                                 1888   CBLOCKEND 220 2 1177
                                 1889   
                                 1890   ;;}
                                 1891   CLINEA 0000H 0001H 0499H 0001H 0001H
00:0096 2E-F4                    1892   	pop	xr4
00:0098 8E-F2                    1893   	pop	pc
                                 1894   CBLOCKEND 220 1 1177
                                 1895   CFUNCTIONEND 220
                                 1896   
                                 1897   
  --------------------------     1898   	rseg $$Get_AccGyroData$main
                                 1899   CFUNCTION 221
                                 1900   
00:0000                          1901   _Get_AccGyroData	:
                                 1902   CBLOCK 221 1 1179
                                 1903   
                                 1904   ;;void Get_AccGyroData(void){
                                 1905   CLINEA 0000H 0001H 049BH 0001H 001BH
00:0000 CE-F8                    1906   	push	lr
00:0002 5E-F4                    1907   	push	er4
                                 1908   CBLOCK 221 2 1179
                                 1909   CRET 0002H
                                 1910   
                                 1911   ;;	LED_4 = 1;		//C2, Pin 14
                                 1912   CLINEA 0000H 0001H 049FH 0002H 0019H
00:0004 A0-A0 60-F2              1913   	sb	0f260h.2
                                 1914   
                                 1915   ;;	EPB3 = 0;		//Turn off Accel/Gyro Interrupt.  This can probably be removed...
                                 1916   CLINEA 0000H 0001H 04A1H 0002H 004DH
00:0008 F2-A0 11-F0              1917   	rb	0f011h.7
                                 1918   
                                 1919   ;;	_flgI2CFin = 0;																	//reset I2C completed Flag
                                 1920   CLINEA 0000H 0001H 04A3H 0002H 003BH
00:000C 00 00                    1921   	mov	r0,	#00h
00:000E 11-90 00-00'             1922   	st	r0,	NEAR __flgI2CFin
                                 1923   
                                 1924   ;;	i2c_stop();																		//Make sure I2C is not currently running
                                 1925   CLINEA 0000H 0001H 04A4H 0002H 0046H
00:0012 01-F0'00-00'             1926   	bl	_i2c_stop
                                 1927   
                                 1928   ;;	I20MD = 1;		//Switch to I2C Fast Operation (400kbps)
                                 1929   CLINEA 0000H 0001H 04A5H 0002H 0035H
00:0016 90-A0 A4-F2              1930   	sb	0f2a4h.1
                                 1931   
                                 1932   ;;	i2c_startReceive(MPU6050Address, &AccGyro_ReadData, 1, &AccGyro_Data, 14, (cbfI2c)_funcI2CFin);	//Begin I2C Receive Command
                                 1933   CLINEA 0000H 0001H 04A6H 0002H 007CH
00:001A 00'00                    1934   	mov	r0,	#BYTE1 OFFSET __funcI2CFin
00:001C 00'01                    1935   	mov	r1,	#BYTE2 OFFSET __funcI2CFin
00:001E 5E-F0                    1936   	push	er0
00:0020 0E E0                    1937   	mov	er0,	#14
00:0022 5E-F0                    1938   	push	er0
00:0024 00'00                    1939   	mov	r0,	#BYTE1 OFFSET _AccGyro_Data
00:0026 00'01                    1940   	mov	r1,	#BYTE2 OFFSET _AccGyro_Data
00:0028 5E-F0                    1941   	push	er0
00:002A 01 E0                    1942   	mov	er0,	#1 
00:002C 5E-F0                    1943   	push	er0
00:002E 00'02                    1944   	mov	r2,	#BYTE1 OFFSET _AccGyro_ReadData
00:0030 00'03                    1945   	mov	r3,	#BYTE2 OFFSET _AccGyro_ReadData
00:0032 10-90 00-00'             1946   	l	r0,	NEAR _MPU6050Address
00:0036 01-F0'00-00'             1947   	bl	_i2c_startReceive
00:003A 08 E1                    1948   	add	sp,	#8 
                                 1949   
                                 1950   ;;	while(_flgI2CFin != 1){															//Wait for I2C commands to finish transfer
                                 1951   CLINEA 0000H 0000H 04A7H 0001H 0001H
00:003C 02 CE                    1952   	bal	_$L151
                                 1953   
                                 1954   ;;	while(_flgI2CFin != 1){															//Wait for I2C commands to finish transfer
                                 1955   CLINEA 0000H 0000H 04A7H 0002H 0051H
00:003E                          1956   _$L147 :
                                 1957   CBLOCK 221 3 1191
                                 1958   
                                 1959   ;;		main_clrWDT();
                                 1960   CLINEA 0000H 0001H 04A8H 0003H 0010H
00:003E 01-F0'00-00'             1961   	bl	_main_clrWDT
                                 1962   CBLOCKEND 221 3 1193
                                 1963   
                                 1964   ;;	while(_flgI2CFin != 1){															//Wait for I2C commands to finish transfer
                                 1965   CLINEA 0000H 0000H 04A7H 0001H 0001H
00:0042                          1966   _$L151 :
00:0042 10-90 00-00'             1967   	l	r0,	NEAR __flgI2CFin
00:0046 01 70                    1968   	cmp	r0,	#01h
00:0048 FA C8                    1969   	bne	_$L147
                                 1970   
                                 1971   ;;	Accel_Xout[Accel_SavIndex] = (AccGyro_Data[0]<<8)+(AccGyro_Data[1]);
                                 1972   CLINEA 0000H 0001H 04ACH 0002H 0045H
00:004A 10-90 00-00'             1973   	l	r0,	NEAR _AccGyro_Data+01h
00:004E 00 01                    1974   	mov	r1,	#00h
00:0050 10-92 00-00'             1975   	l	r2,	NEAR _AccGyro_Data
00:0054 20-83                    1976   	mov	r3,	r2
00:0056 00 02                    1977   	mov	r2,	#00h
00:0058 26-F0                    1978   	add	er0,	er2
00:005A 10-82                    1979   	mov	r2,	r1
00:005C 2F-83                    1980   	extbw	er2
00:005E 30-82                    1981   	mov	r2,	r3
00:0060 6E-F0                    1982   	push	xr0
00:0062 01-F0'00-00'             1983   	bl	__fildu8sw
00:0066 2E-F0                    1984   	pop	xr0
00:0068 10-94 00-00'             1985   	l	r4,	NEAR _Accel_SavIndex
00:006C 00 05                    1986   	mov	r5,	#00h
00:006E 2B-95                    1987   	sllc	r5,	#02h
00:0070 2A-94                    1988   	sll	r4,	#02h
00:0072 49-A0 00-00'             1989   	st	er0,	NEAR _Accel_Xout[er4]
00:0076 49-A2 00-00'             1990   	st	er2,	NEAR _Accel_Xout+02h[er4]
                                 1991   
                                 1992   ;;	Accel_Yout[Accel_SavIndex] = (AccGyro_Data[2]<<8)+(AccGyro_Data[3]);
                                 1993   CLINEA 0000H 0001H 04ADH 0002H 0045H
00:007A 10-90 00-00'             1994   	l	r0,	NEAR _AccGyro_Data+02h
00:007E 00 01                    1995   	mov	r1,	#00h
00:0080 00-83                    1996   	mov	r3,	r0
00:0082 00 02                    1997   	mov	r2,	#00h
00:0084 10-90 00-00'             1998   	l	r0,	NEAR _AccGyro_Data+03h
00:0088 26-F0                    1999   	add	er0,	er2
00:008A 10-82                    2000   	mov	r2,	r1
00:008C 2F-83                    2001   	extbw	er2
00:008E 30-82                    2002   	mov	r2,	r3
00:0090 6E-F0                    2003   	push	xr0
00:0092 01-F0'00-00'             2004   	bl	__fildu8sw
00:0096 2E-F0                    2005   	pop	xr0
00:0098 49-A0 00-00'             2006   	st	er0,	NEAR _Accel_Yout[er4]
00:009C 49-A2 00-00'             2007   	st	er2,	NEAR _Accel_Yout+02h[er4]
                                 2008   
                                 2009   ;;	Accel_Zout[Accel_SavIndex] = (AccGyro_Data[4]<<8)+(AccGyro_Data[5]);
                                 2010   CLINEA 0000H 0001H 04AEH 0002H 0045H
00:00A0 10-90 00-00'             2011   	l	r0,	NEAR _AccGyro_Data+04h
00:00A4 00 01                    2012   	mov	r1,	#00h
00:00A6 00-83                    2013   	mov	r3,	r0
00:00A8 00 02                    2014   	mov	r2,	#00h
00:00AA 10-90 00-00'             2015   	l	r0,	NEAR _AccGyro_Data+05h
00:00AE 26-F0                    2016   	add	er0,	er2
00:00B0 10-82                    2017   	mov	r2,	r1
00:00B2 2F-83                    2018   	extbw	er2
00:00B4 30-82                    2019   	mov	r2,	r3
00:00B6 6E-F0                    2020   	push	xr0
00:00B8 01-F0'00-00'             2021   	bl	__fildu8sw
00:00BC 2E-F0                    2022   	pop	xr0
00:00BE 49-A0 00-00'             2023   	st	er0,	NEAR _Accel_Zout[er4]
00:00C2 49-A2 00-00'             2024   	st	er2,	NEAR _Accel_Zout+02h[er4]
                                 2025   
                                 2026   ;;	Gyro_Xout[Accel_SavIndex] = (AccGyro_Data[8]<<8)+(AccGyro_Data[9]);
                                 2027   CLINEA 0000H 0001H 04B7H 0002H 0044H
00:00C6 10-90 00-00'             2028   	l	r0,	NEAR _AccGyro_Data+08h
00:00CA 00 01                    2029   	mov	r1,	#00h
00:00CC 00-83                    2030   	mov	r3,	r0
00:00CE 00 02                    2031   	mov	r2,	#00h
00:00D0 10-90 00-00'             2032   	l	r0,	NEAR _AccGyro_Data+09h
00:00D4 26-F0                    2033   	add	er0,	er2
00:00D6 10-82                    2034   	mov	r2,	r1
00:00D8 2F-83                    2035   	extbw	er2
00:00DA 30-82                    2036   	mov	r2,	r3
00:00DC 6E-F0                    2037   	push	xr0
00:00DE 01-F0'00-00'             2038   	bl	__fildu8sw
00:00E2 2E-F0                    2039   	pop	xr0
00:00E4 49-A0 00-00'             2040   	st	er0,	NEAR _Gyro_Xout[er4]
00:00E8 49-A2 00-00'             2041   	st	er2,	NEAR _Gyro_Xout+02h[er4]
                                 2042   
                                 2043   ;;	Gyro_Yout[Accel_SavIndex] = (AccGyro_Data[10]<<8)+(AccGyro_Data[11]);
                                 2044   CLINEA 0000H 0001H 04B8H 0002H 0046H
00:00EC 10-90 00-00'             2045   	l	r0,	NEAR _AccGyro_Data+0ah
00:00F0 00 01                    2046   	mov	r1,	#00h
00:00F2 00-83                    2047   	mov	r3,	r0
00:00F4 00 02                    2048   	mov	r2,	#00h
00:00F6 10-90 00-00'             2049   	l	r0,	NEAR _AccGyro_Data+0bh
00:00FA 26-F0                    2050   	add	er0,	er2
00:00FC 10-82                    2051   	mov	r2,	r1
00:00FE 2F-83                    2052   	extbw	er2
00:0100 30-82                    2053   	mov	r2,	r3
00:0102 6E-F0                    2054   	push	xr0
00:0104 01-F0'00-00'             2055   	bl	__fildu8sw
00:0108 2E-F0                    2056   	pop	xr0
00:010A 49-A0 00-00'             2057   	st	er0,	NEAR _Gyro_Yout[er4]
00:010E 49-A2 00-00'             2058   	st	er2,	NEAR _Gyro_Yout+02h[er4]
                                 2059   
                                 2060   ;;	Gyro_Zout[Accel_SavIndex] = (AccGyro_Data[12]<<8)+(AccGyro_Data[13]);
                                 2061   CLINEA 0000H 0001H 04B9H 0002H 0046H
00:0112 10-90 00-00'             2062   	l	r0,	NEAR _AccGyro_Data+0ch
00:0116 00 01                    2063   	mov	r1,	#00h
00:0118 00-83                    2064   	mov	r3,	r0
00:011A 00 02                    2065   	mov	r2,	#00h
00:011C 10-90 00-00'             2066   	l	r0,	NEAR _AccGyro_Data+0dh
00:0120 26-F0                    2067   	add	er0,	er2
00:0122 10-82                    2068   	mov	r2,	r1
00:0124 2F-83                    2069   	extbw	er2
00:0126 30-82                    2070   	mov	r2,	r3
00:0128 6E-F0                    2071   	push	xr0
00:012A 01-F0'00-00'             2072   	bl	__fildu8sw
00:012E 2E-F0                    2073   	pop	xr0
00:0130 49-A0 00-00'             2074   	st	er0,	NEAR _Gyro_Zout[er4]
00:0134 49-A2 00-00'             2075   	st	er2,	NEAR _Gyro_Zout+02h[er4]
                                 2076   
                                 2077   ;;	Accel_Xout[Accel_SavIndex] -= Accel_Xcal[0];
                                 2078   CLINEA 0000H 0001H 04BBH 0002H 002DH
00:0138 48-A0 00-00'             2079   	l	er0,	NEAR _Accel_Xout[er4]
00:013C 48-A2 00-00'             2080   	l	er2,	NEAR _Accel_Xout+02h[er4]
00:0140 6E-F0                    2081   	push	xr0
00:0142 12-90 00-00'             2082   	l	er0,	NEAR _Accel_Xcal
00:0146 12-92 00-00'             2083   	l	er2,	NEAR _Accel_Xcal+02h
00:014A 6E-F0                    2084   	push	xr0
00:014C 01-F0'00-00'             2085   	bl	__fsubu8sw
00:0150 04 E1                    2086   	add	sp,	#4 
00:0152 2E-F0                    2087   	pop	xr0
00:0154 49-A0 00-00'             2088   	st	er0,	NEAR _Accel_Xout[er4]
00:0158 49-A2 00-00'             2089   	st	er2,	NEAR _Accel_Xout+02h[er4]
                                 2090   
                                 2091   ;;	Accel_Yout[Accel_SavIndex] -= Accel_Ycal[0];
                                 2092   CLINEA 0000H 0001H 04BCH 0002H 002DH
00:015C 48-A0 00-00'             2093   	l	er0,	NEAR _Accel_Yout[er4]
00:0160 48-A2 00-00'             2094   	l	er2,	NEAR _Accel_Yout+02h[er4]
00:0164 6E-F0                    2095   	push	xr0
00:0166 12-90 00-00'             2096   	l	er0,	NEAR _Accel_Ycal
00:016A 12-92 00-00'             2097   	l	er2,	NEAR _Accel_Ycal+02h
00:016E 6E-F0                    2098   	push	xr0
00:0170 01-F0'00-00'             2099   	bl	__fsubu8sw
00:0174 04 E1                    2100   	add	sp,	#4 
00:0176 2E-F0                    2101   	pop	xr0
00:0178 49-A0 00-00'             2102   	st	er0,	NEAR _Accel_Yout[er4]
00:017C 49-A2 00-00'             2103   	st	er2,	NEAR _Accel_Yout+02h[er4]
                                 2104   
                                 2105   ;;	Accel_Zout[Accel_SavIndex] -= Accel_Zcal[0];
                                 2106   CLINEA 0000H 0001H 04BDH 0002H 002DH
00:0180 48-A0 00-00'             2107   	l	er0,	NEAR _Accel_Zout[er4]
00:0184 48-A2 00-00'             2108   	l	er2,	NEAR _Accel_Zout+02h[er4]
00:0188 6E-F0                    2109   	push	xr0
00:018A 12-90 00-00'             2110   	l	er0,	NEAR _Accel_Zcal
00:018E 12-92 00-00'             2111   	l	er2,	NEAR _Accel_Zcal+02h
00:0192 6E-F0                    2112   	push	xr0
00:0194 01-F0'00-00'             2113   	bl	__fsubu8sw
00:0198 04 E1                    2114   	add	sp,	#4 
00:019A 2E-F0                    2115   	pop	xr0
00:019C 49-A0 00-00'             2116   	st	er0,	NEAR _Accel_Zout[er4]
00:01A0 49-A2 00-00'             2117   	st	er2,	NEAR _Accel_Zout+02h[er4]
                                 2118   
                                 2119   ;;	Gyro_Xout[Accel_SavIndex] -= Gyro_Xcal;
                                 2120   CLINEA 0000H 0001H 04BEH 0002H 0028H
00:01A4 48-A0 00-00'             2121   	l	er0,	NEAR _Gyro_Xout[er4]
00:01A8 48-A2 00-00'             2122   	l	er2,	NEAR _Gyro_Xout+02h[er4]
00:01AC 6E-F0                    2123   	push	xr0
00:01AE 12-90 00-00'             2124   	l	er0,	NEAR _Gyro_Xcal
00:01B2 12-92 00-00'             2125   	l	er2,	NEAR _Gyro_Xcal+02h
00:01B6 6E-F0                    2126   	push	xr0
00:01B8 01-F0'00-00'             2127   	bl	__fsubu8sw
00:01BC 04 E1                    2128   	add	sp,	#4 
00:01BE 2E-F0                    2129   	pop	xr0
00:01C0 49-A0 00-00'             2130   	st	er0,	NEAR _Gyro_Xout[er4]
00:01C4 49-A2 00-00'             2131   	st	er2,	NEAR _Gyro_Xout+02h[er4]
                                 2132   
                                 2133   ;;	Gyro_Yout[Accel_SavIndex] -= Gyro_Ycal;
                                 2134   CLINEA 0000H 0001H 04BFH 0002H 0028H
00:01C8 48-A0 00-00'             2135   	l	er0,	NEAR _Gyro_Yout[er4]
00:01CC 48-A2 00-00'             2136   	l	er2,	NEAR _Gyro_Yout+02h[er4]
00:01D0 6E-F0                    2137   	push	xr0
00:01D2 12-90 00-00'             2138   	l	er0,	NEAR _Gyro_Ycal
00:01D6 12-92 00-00'             2139   	l	er2,	NEAR _Gyro_Ycal+02h
00:01DA 6E-F0                    2140   	push	xr0
00:01DC 01-F0'00-00'             2141   	bl	__fsubu8sw
00:01E0 04 E1                    2142   	add	sp,	#4 
00:01E2 2E-F0                    2143   	pop	xr0
00:01E4 49-A0 00-00'             2144   	st	er0,	NEAR _Gyro_Yout[er4]
00:01E8 49-A2 00-00'             2145   	st	er2,	NEAR _Gyro_Yout+02h[er4]
                                 2146   
                                 2147   ;;	Gyro_Zout[Accel_SavIndex] -= Gyro_Zcal;
                                 2148   CLINEA 0000H 0001H 04C0H 0002H 0028H
00:01EC 48-A0 00-00'             2149   	l	er0,	NEAR _Gyro_Zout[er4]
00:01F0 48-A2 00-00'             2150   	l	er2,	NEAR _Gyro_Zout+02h[er4]
00:01F4 6E-F0                    2151   	push	xr0
00:01F6 12-90 00-00'             2152   	l	er0,	NEAR _Gyro_Zcal
00:01FA 12-92 00-00'             2153   	l	er2,	NEAR _Gyro_Zcal+02h
00:01FE 6E-F0                    2154   	push	xr0
00:0200 01-F0'00-00'             2155   	bl	__fsubu8sw
00:0204 04 E1                    2156   	add	sp,	#4 
00:0206 2E-F0                    2157   	pop	xr0
00:0208 49-A0 00-00'             2158   	st	er0,	NEAR _Gyro_Zout[er4]
00:020C 49-A2 00-00'             2159   	st	er2,	NEAR _Gyro_Zout+02h[er4]
                                 2160   
                                 2161   ;;	Accel_SavIndex++;
                                 2162   CLINEA 0000H 0000H 04C2H 0002H 0012H
00:0210 0C-F0 00-00'             2163   	lea	OFFSET _Accel_SavIndex
00:0214 2F-FE                    2164   	inc	[ea]
00:0216 10-90 00-00'             2165   	l	r0,	NEAR _Accel_SavIndex
                                 2166   
                                 2167   ;;	if(Accel_SavIndex>9){
                                 2168   CLINEA 0000H 0001H 04C3H 0002H 0016H
00:021A 09 70                    2169   	cmp	r0,	#09h
00:021C 03 C3                    2170   	ble	_$L149
                                 2171   CBLOCK 221 4 1219
                                 2172   
                                 2173   ;;		Accel_SavIndex = 0;
                                 2174   CLINEA 0000H 0001H 04C4H 0003H 0015H
00:021E 00 00                    2175   	mov	r0,	#00h
00:0220 11-90 00-00'             2176   	st	r0,	NEAR _Accel_SavIndex
                                 2177   CBLOCKEND 221 4 1221
                                 2178   
                                 2179   ;;	}
                                 2180   CLINEA 0000H 0000H 04C5H 0002H 0002H
00:0224                          2181   _$L149 :
                                 2182   
                                 2183   ;;	LED_4 = 0;		//C2, Pin 14
                                 2184   CLINEA 0000H 0001H 04C7H 0002H 0019H
00:0224 A2-A0 60-F2              2185   	rb	0f260h.2
                                 2186   
                                 2187   ;;	EPB3 = 1;		//Turns Accel/Gyro Interrupt back on... again, this may not be necessary
                                 2188   CLINEA 0000H 0001H 04C8H 0002H 0054H
00:0228 F0-A0 11-F0              2189   	sb	0f011h.7
                                 2190   
                                 2191   ;;	Accel_PID_GoCounter++;		//Counts up to 4 to trigger the PID loop to start.
                                 2192   CLINEA 0000H 0000H 04C9H 0002H 004BH
00:022C 0C-F0 00-00'             2193   	lea	OFFSET _Accel_PID_GoCounter
00:0230 2F-FE                    2194   	inc	[ea]
                                 2195   
                                 2196   ;;	AccGyro_CF_FlagCounter++;	//Counts up to the number of values are in the buffer so main loop can call CF filter function
                                 2197   CLINEA 0000H 0000H 04CAH 0002H 0079H
00:0232 0C-F0 00-00'             2198   	lea	OFFSET _AccGyro_CF_FlagCounter
00:0236 2F-FE                    2199   	inc	[ea]
                                 2200   CBLOCKEND 221 2 1227
                                 2201   
                                 2202   ;;}
                                 2203   CLINEA 0000H 0001H 04CBH 0001H 0001H
00:0238 1E-F4                    2204   	pop	er4
00:023A 8E-F2                    2205   	pop	pc
                                 2206   CBLOCKEND 221 1 1227
                                 2207   CFUNCTIONEND 221
                                 2208   
                                 2209   
  --------------------------     2210   	rseg $$Run_AccGyroCF$main
                                 2211   CFUNCTION 222
                                 2212   
00:0000                          2213   _Run_AccGyroCF	:
                                 2214   CBLOCK 222 1 1229
                                 2215   
                                 2216   ;;void Run_AccGyroCF(void){
                                 2217   CLINEA 0000H 0001H 04CDH 0001H 0019H
00:0000 CE-F8                    2218   	push	lr
00:0002 5E-FE                    2219   	push	fp
00:0004 1A-AE                    2220   	mov	fp,	sp
00:0006 F8 E1                    2221   	add	sp,	#-08
00:0008 6E-F8                    2222   	push	xr8
00:000A 6E-F4                    2223   	push	xr4
                                 2224   CBLOCK 222 2 1229
                                 2225   CRET 0012H
                                 2226   CSLOCAL 43H 0002H 0000H 0002H "i" 02H 00H 01H
                                 2227   CSLOCAL 43H 0001H 0001H 0002H "I2CCont" 02H 00H 00H
                                 2228   
                                 2229   ;;	LED_2 = 1;			//B7, Pin 11
                                 2230   CLINEA 0000H 0001H 04D1H 0002H 001AH
00:000C F0-A0 58-F2              2231   	sb	0f258h.7
                                 2232   
                                 2233   ;;	CF_Gyro_CurrentCount = CF_Gyro_Counter * .001;		//Timer in Seconds (.007 used to convert 128Hz TBC to seconds)
                                 2234   CLINEA 0000H 0001H 04D5H 0002H 006FH
00:0010 12-90 00-00'             2235   	l	er0,	NEAR _CF_Gyro_Counter
00:0014 12-92 00-00'             2236   	l	er2,	NEAR _CF_Gyro_Counter+02h
00:0018 6E-F0                    2237   	push	xr0
00:001A FC E1                    2238   	add	sp,	#-4
00:001C 01-F0'00-00'             2239   	bl	__ftodu8sw
00:0020 FC 00                    2240   	mov	r0,	#0fch
00:0022 A9 01                    2241   	mov	r1,	#0a9h
00:0024 F1 02                    2242   	mov	r2,	#0f1h
00:0026 D2 03                    2243   	mov	r3,	#0d2h
00:0028 4D 04                    2244   	mov	r4,	#04dh
00:002A 62 05                    2245   	mov	r5,	#062h
00:002C 50 06                    2246   	mov	r6,	#050h
00:002E 3F 07                    2247   	mov	r7,	#03fh
00:0030 7E-F0                    2248   	push	qr0
00:0032 01-F0'00-00'             2249   	bl	__dmulu8sw
00:0036 08 E1                    2250   	add	sp,	#8 
00:0038 01-F0'00-00'             2251   	bl	__dtofu8sw
00:003C 04 E1                    2252   	add	sp,	#4 
00:003E 2E-F0                    2253   	pop	xr0
00:0040 13-90 00-00'             2254   	st	er0,	NEAR _CF_Gyro_CurrentCount
00:0044 13-92 00-00'             2255   	st	er2,	NEAR _CF_Gyro_CurrentCount+02h
                                 2256   
                                 2257   ;;	CF_Gyro_Counter = 0;
                                 2258   CLINEA 0000H 0001H 04D6H 0002H 0015H
00:0048 00 E0                    2259   	mov	er0,	#0 
00:004A 13-90 00-00'             2260   	st	er0,	NEAR _CF_Gyro_Counter
00:004E 13-90 00-00'             2261   	st	er0,	NEAR _CF_Gyro_Counter+02h
                                 2262   
                                 2263   ;;	CF_Gyro_YPitch = CF_YPitch + ((Gyro_Xout[Accel_RetIndex]/AccGyro_GyroScaling) * CF_Gyro_CurrentCount);
                                 2264   CLINEA 0000H 0001H 04D8H 0002H 0067H
00:0052 10-90 00-00'             2265   	l	r0,	NEAR _Accel_RetIndex
00:0056 2B-91                    2266   	sllc	r1,	#02h
00:0058 2A-90                    2267   	sll	r0,	#02h
00:005A 05-F4                    2268   	mov	er4,	er0
00:005C 08-A8 00-00'             2269   	l	er8,	NEAR _Gyro_Xout[er0]
00:0060 08-AA 00-00'             2270   	l	er10,	NEAR _Gyro_Xout+02h[er0]
00:0064 6E-F8                    2271   	push	xr8
00:0066 12-90 00-00'             2272   	l	er0,	NEAR _AccGyro_GyroScaling
00:006A 12-92 00-00'             2273   	l	er2,	NEAR _AccGyro_GyroScaling+02h
00:006E 6E-F0                    2274   	push	xr0
00:0070 01-F0'00-00'             2275   	bl	__fdivu8sw
00:0074 04 E1                    2276   	add	sp,	#4 
00:0076 12-90 00-00'             2277   	l	er0,	NEAR _CF_Gyro_CurrentCount
00:007A 12-92 00-00'             2278   	l	er2,	NEAR _CF_Gyro_CurrentCount+02h
00:007E 6E-F0                    2279   	push	xr0
00:0080 01-F0'00-00'             2280   	bl	__fmulu8sw
00:0084 04 E1                    2281   	add	sp,	#4 
00:0086 12-90 00-00'             2282   	l	er0,	NEAR _CF_YPitch
00:008A 12-92 00-00'             2283   	l	er2,	NEAR _CF_YPitch+02h
00:008E 6E-F0                    2284   	push	xr0
00:0090 01-F0'00-00'             2285   	bl	__faddu8sw
00:0094 04 E1                    2286   	add	sp,	#4 
00:0096 2E-F0                    2287   	pop	xr0
00:0098 13-90 00-00'             2288   	st	er0,	NEAR _CF_Gyro_YPitch
00:009C 13-92 00-00'             2289   	st	er2,	NEAR _CF_Gyro_YPitch+02h
                                 2290   
                                 2291   ;;	CF_Gyro_XRoll = CF_XRoll - ((Gyro_Yout[Accel_RetIndex]/AccGyro_GyroScaling) * CF_Gyro_CurrentCount);	
                                 2292   CLINEA 0000H 0001H 04D9H 0002H 0066H
00:00A0 48-A8 00-00'             2293   	l	er8,	NEAR _Gyro_Yout[er4]
00:00A4 48-AA 00-00'             2294   	l	er10,	NEAR _Gyro_Yout+02h[er4]
00:00A8 6E-F8                    2295   	push	xr8
00:00AA 12-90 00-00'             2296   	l	er0,	NEAR _AccGyro_GyroScaling
00:00AE 12-92 00-00'             2297   	l	er2,	NEAR _AccGyro_GyroScaling+02h
00:00B2 6E-F0                    2298   	push	xr0
00:00B4 01-F0'00-00'             2299   	bl	__fdivu8sw
00:00B8 04 E1                    2300   	add	sp,	#4 
00:00BA 12-90 00-00'             2301   	l	er0,	NEAR _CF_Gyro_CurrentCount
00:00BE 12-92 00-00'             2302   	l	er2,	NEAR _CF_Gyro_CurrentCount+02h
00:00C2 6E-F0                    2303   	push	xr0
00:00C4 01-F0'00-00'             2304   	bl	__fmulu8sw
00:00C8 04 E1                    2305   	add	sp,	#4 
00:00CA 2E-F0                    2306   	pop	xr0
00:00CC 12-98 00-00'             2307   	l	er8,	NEAR _CF_XRoll
00:00D0 12-9A 00-00'             2308   	l	er10,	NEAR _CF_XRoll+02h
00:00D4 6E-F8                    2309   	push	xr8
00:00D6 6E-F0                    2310   	push	xr0
00:00D8 01-F0'00-00'             2311   	bl	__fsubu8sw
00:00DC 04 E1                    2312   	add	sp,	#4 
00:00DE 2E-F0                    2313   	pop	xr0
00:00E0 13-90 00-00'             2314   	st	er0,	NEAR _CF_Gyro_XRoll
00:00E4 13-92 00-00'             2315   	st	er2,	NEAR _CF_Gyro_XRoll+02h
                                 2316   
                                 2317   ;;	CF_Accel_ForceMagApprox = abs(Accel_Xout[Accel_RetIndex]) + abs(Accel_Yout[Accel_RetIndex]) + abs(Accel_Zout[Accel_RetIndex]);
                                 2318   CLINEA 0000H 0000H 04DBH 0002H 007FH
00:00E8 48-A0 00-00'             2319   	l	er0,	NEAR _Accel_Xout[er4]
00:00EC 48-A2 00-00'             2320   	l	er2,	NEAR _Accel_Xout+02h[er4]
00:00F0 6E-F0                    2321   	push	xr0
00:00F2 01-F0'00-00'             2322   	bl	__ftolu8sw
00:00F6 1E-F0                    2323   	pop	er0
00:00F8 02 E1                    2324   	add	sp,	#2 
00:00FA 01-F0'00-00'             2325   	bl	_abs
00:00FE 05-F8                    2326   	mov	er8,	er0
00:0100 10-90 00-00'             2327   	l	r0,	NEAR _Accel_RetIndex
00:0104 00 01                    2328   	mov	r1,	#00h
00:0106 2B-91                    2329   	sllc	r1,	#02h
00:0108 2A-90                    2330   	sll	r0,	#02h
00:010A 08-A4 00-00'             2331   	l	er4,	NEAR _Accel_Yout[er0]
00:010E 08-A6 00-00'             2332   	l	er6,	NEAR _Accel_Yout+02h[er0]
00:0112 6E-F4                    2333   	push	xr4
00:0114 01-F0'00-00'             2334   	bl	__ftolu8sw
00:0118 1E-F0                    2335   	pop	er0
00:011A 02 E1                    2336   	add	sp,	#2 
00:011C 01-F0'00-00'             2337   	bl	_abs
00:0120 06-F8                    2338   	add	er8,	er0
00:0122 10-90 00-00'             2339   	l	r0,	NEAR _Accel_RetIndex
00:0126 00 01                    2340   	mov	r1,	#00h
00:0128 2B-91                    2341   	sllc	r1,	#02h
00:012A 2A-90                    2342   	sll	r0,	#02h
00:012C 08-A4 00-00'             2343   	l	er4,	NEAR _Accel_Zout[er0]
00:0130 08-A6 00-00'             2344   	l	er6,	NEAR _Accel_Zout+02h[er0]
00:0134 6E-F4                    2345   	push	xr4
00:0136 01-F0'00-00'             2346   	bl	__ftolu8sw
00:013A 1E-F0                    2347   	pop	er0
00:013C 02 E1                    2348   	add	sp,	#2 
00:013E 01-F0'00-00'             2349   	bl	_abs
00:0142 05-F2                    2350   	mov	er2,	er0
00:0144 85-F0                    2351   	mov	er0,	er8
00:0146 26-F0                    2352   	add	er0,	er2
00:0148 10-82                    2353   	mov	r2,	r1
00:014A 2F-83                    2354   	extbw	er2
00:014C 30-82                    2355   	mov	r2,	r3
00:014E 6E-F0                    2356   	push	xr0
00:0150 01-F0'00-00'             2357   	bl	__fildu8sw
00:0154 2E-F0                    2358   	pop	xr0
00:0156 13-90 00-00'             2359   	st	er0,	NEAR _CF_Accel_ForceMagApprox
00:015A 13-92 00-00'             2360   	st	er2,	NEAR _CF_Accel_ForceMagApprox+02h
                                 2361   
                                 2362   ;;	if (CF_Accel_ForceMagApprox > 16384 && CF_Accel_ForceMagApprox < 32768)
                                 2363   CLINEA 0000H 0001H 04DCH 0002H 0048H
00:015E 6E-F0                    2364   	push	xr0
00:0160 00 E0                    2365   	mov	er0,	#0 
00:0162 80 02                    2366   	mov	r2,	#080h
00:0164 46 03                    2367   	mov	r3,	#046h
00:0166 6E-F0                    2368   	push	xr0
00:0168 01-F0'00-00'             2369   	bl	__fcmpu8sw
00:016C 08 E1                    2370   	add	sp,	#8 
00:016E 0B-A0                    2371   	mov	psw,	r0
00:0170 02 C2                    2372   	bgt	_$M7
00:0172 00-F0'00-00'             2373   	b	_$L153
00:0176                          2374   _$M7 :
00:0176 12-90 00-00'             2375   	l	er0,	NEAR _CF_Accel_ForceMagApprox
00:017A 12-92 00-00'             2376   	l	er2,	NEAR _CF_Accel_ForceMagApprox+02h
00:017E 6E-F0                    2377   	push	xr0
00:0180 00 E0                    2378   	mov	er0,	#0 
00:0182 00 02                    2379   	mov	r2,	#00h
00:0184 47 03                    2380   	mov	r3,	#047h
00:0186 6E-F0                    2381   	push	xr0
00:0188 01-F0'00-00'             2382   	bl	__fcmpu8sw
00:018C 08 E1                    2383   	add	sp,	#8 
00:018E 0B-A0                    2384   	mov	psw,	r0
00:0190 02 C1                    2385   	blt	_$M8
00:0192 00-F0'00-00'             2386   	b	_$L153
00:0196                          2387   _$M8 :
                                 2388   CBLOCK 222 3 1245
                                 2389   
                                 2390   ;;        CF_Accel_YPitch = atan2(Accel_Yout[Accel_RetIndex], Accel_Zout[Accel_RetIndex]) * (57.29);	//57.29 = 180deg/pi
                                 2391   CLINEA 0000H 0000H 04DFH 0009H 0076H
00:0196 10-90 00-00'             2392   	l	r0,	NEAR _Accel_RetIndex
00:019A 00 01                    2393   	mov	r1,	#00h
00:019C 2B-91                    2394   	sllc	r1,	#02h
00:019E 2A-90                    2395   	sll	r0,	#02h
00:01A0 08-A4 00-00'             2396   	l	er4,	NEAR _Accel_Zout[er0]
00:01A4 08-A6 00-00'             2397   	l	er6,	NEAR _Accel_Zout+02h[er0]
00:01A8 6E-F4                    2398   	push	xr4
00:01AA FC E1                    2399   	add	sp,	#-4
00:01AC 01-F0'00-00'             2400   	bl	__ftodu8sw
00:01B0 08-A4 00-00'             2401   	l	er4,	NEAR _Accel_Yout[er0]
00:01B4 08-A6 00-00'             2402   	l	er6,	NEAR _Accel_Yout+02h[er0]
00:01B8 6E-F4                    2403   	push	xr4
00:01BA FC E1                    2404   	add	sp,	#-4
00:01BC 01-F0'00-00'             2405   	bl	__ftodu8sw
00:01C0 E5-F0                    2406   	mov	er0,	fp
00:01C2 F8 E0                    2407   	add	er0,	#-8
00:01C4 01-F0'00-00'             2408   	bl	_atan2
00:01C8 10 E1                    2409   	add	sp,	#16
00:01CA EB-F0 F8-FF              2410   	lea	-8[fp]
00:01CE 36-90                    2411   	l	qr0,	[ea]
00:01D0 7E-F0                    2412   	push	qr0
00:01D2 85 00                    2413   	mov	r0,	#085h
00:01D4 EB 01                    2414   	mov	r1,	#0ebh
00:01D6 51 02                    2415   	mov	r2,	#051h
00:01D8 B8 03                    2416   	mov	r3,	#0b8h
00:01DA 1E 04                    2417   	mov	r4,	#01eh
00:01DC A5 05                    2418   	mov	r5,	#0a5h
00:01DE 4C 06                    2419   	mov	r6,	#04ch
00:01E0 40 07                    2420   	mov	r7,	#040h
00:01E2 7E-F0                    2421   	push	qr0
00:01E4 01-F0'00-00'             2422   	bl	__dmulu8sw
00:01E8 08 E1                    2423   	add	sp,	#8 
00:01EA 01-F0'00-00'             2424   	bl	__dtofu8sw
00:01EE 04 E1                    2425   	add	sp,	#4 
00:01F0 2E-F0                    2426   	pop	xr0
00:01F2 13-90 00-00'             2427   	st	er0,	NEAR _CF_Accel_YPitch
00:01F6 13-92 00-00'             2428   	st	er2,	NEAR _CF_Accel_YPitch+02h
                                 2429   
                                 2430   ;;        CF_YPitch = (CF_Gyro_YPitch * CF_HPF) + (CF_Accel_YPitch * CF_LPF);
                                 2431   CLINEA 0000H 0001H 04E0H 0009H 004BH
00:01FA 12-90 00-00'             2432   	l	er0,	NEAR _CF_Gyro_YPitch
00:01FE 12-92 00-00'             2433   	l	er2,	NEAR _CF_Gyro_YPitch+02h
00:0202 6E-F0                    2434   	push	xr0
00:0204 12-90 00-00'             2435   	l	er0,	NEAR _CF_HPF
00:0208 12-92 00-00'             2436   	l	er2,	NEAR _CF_HPF+02h
00:020C 6E-F0                    2437   	push	xr0
00:020E 01-F0'00-00'             2438   	bl	__fmulu8sw
00:0212 04 E1                    2439   	add	sp,	#4 
00:0214 2E-F0                    2440   	pop	xr0
00:0216 12-94 00-00'             2441   	l	er4,	NEAR _CF_Accel_YPitch
00:021A 12-96 00-00'             2442   	l	er6,	NEAR _CF_Accel_YPitch+02h
00:021E 6E-F4                    2443   	push	xr4
00:0220 12-94 00-00'             2444   	l	er4,	NEAR _CF_LPF
00:0224 12-96 00-00'             2445   	l	er6,	NEAR _CF_LPF+02h
00:0228 6E-F4                    2446   	push	xr4
00:022A 01-F0'00-00'             2447   	bl	__fmulu8sw
00:022E 04 E1                    2448   	add	sp,	#4 
00:0230 2E-F4                    2449   	pop	xr4
00:0232 6E-F0                    2450   	push	xr0
00:0234 6E-F4                    2451   	push	xr4
00:0236 01-F0'00-00'             2452   	bl	__faddu8sw
00:023A 04 E1                    2453   	add	sp,	#4 
00:023C 2E-F0                    2454   	pop	xr0
00:023E 13-90 00-00'             2455   	st	er0,	NEAR _CF_YPitch
00:0242 13-92 00-00'             2456   	st	er2,	NEAR _CF_YPitch+02h
                                 2457   
                                 2458   ;;        CF_Accel_XRoll = atan2(Accel_Xout[Accel_RetIndex], Accel_Zout[Accel_RetIndex]) * (57.29);
                                 2459   CLINEA 0000H 0000H 04E3H 0009H 0061H
00:0246 10-90 00-00'             2460   	l	r0,	NEAR _Accel_RetIndex
00:024A 00 01                    2461   	mov	r1,	#00h
00:024C 2B-91                    2462   	sllc	r1,	#02h
00:024E 2A-90                    2463   	sll	r0,	#02h
00:0250 08-A4 00-00'             2464   	l	er4,	NEAR _Accel_Zout[er0]
00:0254 08-A6 00-00'             2465   	l	er6,	NEAR _Accel_Zout+02h[er0]
00:0258 6E-F4                    2466   	push	xr4
00:025A FC E1                    2467   	add	sp,	#-4
00:025C 01-F0'00-00'             2468   	bl	__ftodu8sw
00:0260 08-A4 00-00'             2469   	l	er4,	NEAR _Accel_Xout[er0]
00:0264 08-A6 00-00'             2470   	l	er6,	NEAR _Accel_Xout+02h[er0]
00:0268 6E-F4                    2471   	push	xr4
00:026A FC E1                    2472   	add	sp,	#-4
00:026C 01-F0'00-00'             2473   	bl	__ftodu8sw
00:0270 E5-F0                    2474   	mov	er0,	fp
00:0272 F8 E0                    2475   	add	er0,	#-8
00:0274 01-F0'00-00'             2476   	bl	_atan2
00:0278 10 E1                    2477   	add	sp,	#16
00:027A EB-F0 F8-FF              2478   	lea	-8[fp]
00:027E 36-90                    2479   	l	qr0,	[ea]
00:0280 7E-F0                    2480   	push	qr0
00:0282 85 00                    2481   	mov	r0,	#085h
00:0284 EB 01                    2482   	mov	r1,	#0ebh
00:0286 51 02                    2483   	mov	r2,	#051h
00:0288 B8 03                    2484   	mov	r3,	#0b8h
00:028A 1E 04                    2485   	mov	r4,	#01eh
00:028C A5 05                    2486   	mov	r5,	#0a5h
00:028E 4C 06                    2487   	mov	r6,	#04ch
00:0290 40 07                    2488   	mov	r7,	#040h
00:0292 7E-F0                    2489   	push	qr0
00:0294 01-F0'00-00'             2490   	bl	__dmulu8sw
00:0298 08 E1                    2491   	add	sp,	#8 
00:029A 01-F0'00-00'             2492   	bl	__dtofu8sw
00:029E 04 E1                    2493   	add	sp,	#4 
00:02A0 2E-F0                    2494   	pop	xr0
00:02A2 13-90 00-00'             2495   	st	er0,	NEAR _CF_Accel_XRoll
00:02A6 13-92 00-00'             2496   	st	er2,	NEAR _CF_Accel_XRoll+02h
                                 2497   
                                 2498   ;;        CF_XRoll = (CF_Gyro_XRoll * CF_HPF) + (CF_Accel_XRoll * CF_LPF);
                                 2499   CLINEA 0000H 0001H 04E4H 0009H 0048H
00:02AA 12-90 00-00'             2500   	l	er0,	NEAR _CF_Gyro_XRoll
00:02AE 12-92 00-00'             2501   	l	er2,	NEAR _CF_Gyro_XRoll+02h
00:02B2 6E-F0                    2502   	push	xr0
00:02B4 12-90 00-00'             2503   	l	er0,	NEAR _CF_HPF
00:02B8 12-92 00-00'             2504   	l	er2,	NEAR _CF_HPF+02h
00:02BC 6E-F0                    2505   	push	xr0
00:02BE 01-F0'00-00'             2506   	bl	__fmulu8sw
00:02C2 04 E1                    2507   	add	sp,	#4 
00:02C4 2E-F0                    2508   	pop	xr0
00:02C6 12-94 00-00'             2509   	l	er4,	NEAR _CF_Accel_XRoll
00:02CA 12-96 00-00'             2510   	l	er6,	NEAR _CF_Accel_XRoll+02h
00:02CE 6E-F4                    2511   	push	xr4
00:02D0 12-94 00-00'             2512   	l	er4,	NEAR _CF_LPF
00:02D4 12-96 00-00'             2513   	l	er6,	NEAR _CF_LPF+02h
00:02D8 6E-F4                    2514   	push	xr4
00:02DA 01-F0'00-00'             2515   	bl	__fmulu8sw
00:02DE 04 E1                    2516   	add	sp,	#4 
00:02E0 2E-F4                    2517   	pop	xr4
00:02E2 6E-F0                    2518   	push	xr0
00:02E4 6E-F4                    2519   	push	xr4
00:02E6 01-F0'00-00'             2520   	bl	__faddu8sw
00:02EA 04 E1                    2521   	add	sp,	#4 
00:02EC 2E-F0                    2522   	pop	xr0
                                 2523   CBLOCKEND 222 3 1253
                                 2524   
                                 2525   ;;	else{
                                 2526   CLINEA 0000H 0001H 04E6H 0002H 0006H
00:02EE 0C CE                    2527   	bal	_$L160
00:02F0                          2528   _$L153 :
                                 2529   CBLOCK 222 4 1254
                                 2530   
                                 2531   ;;		CF_YPitch = CF_Gyro_YPitch;
                                 2532   CLINEA 0000H 0001H 04E7H 0003H 001DH
00:02F0 12-90 00-00'             2533   	l	er0,	NEAR _CF_Gyro_YPitch
00:02F4 12-92 00-00'             2534   	l	er2,	NEAR _CF_Gyro_YPitch+02h
00:02F8 13-90 00-00'             2535   	st	er0,	NEAR _CF_YPitch
00:02FC 13-92 00-00'             2536   	st	er2,	NEAR _CF_YPitch+02h
                                 2537   
                                 2538   ;;		CF_XRoll = CF_Gyro_XRoll;
                                 2539   CLINEA 0000H 0001H 04E8H 0003H 001BH
00:0300 12-90 00-00'             2540   	l	er0,	NEAR _CF_Gyro_XRoll
00:0304 12-92 00-00'             2541   	l	er2,	NEAR _CF_Gyro_XRoll+02h
                                 2542   CBLOCKEND 222 4 1257
                                 2543   
                                 2544   ;;	}
                                 2545   CLINEA 0000H 0000H 04E9H 0002H 0002H
00:0308                          2546   _$L160 :
00:0308 13-90 00-00'             2547   	st	er0,	NEAR _CF_XRoll
00:030C 13-92 00-00'             2548   	st	er2,	NEAR _CF_XRoll+02h
                                 2549   
                                 2550   ;;	Accel_RetIndex++;
                                 2551   CLINEA 0000H 0000H 04EBH 0002H 0012H
00:0310 0C-F0 00-00'             2552   	lea	OFFSET _Accel_RetIndex
00:0314 2F-FE                    2553   	inc	[ea]
00:0316 10-90 00-00'             2554   	l	r0,	NEAR _Accel_RetIndex
                                 2555   
                                 2556   ;;	if(Accel_RetIndex > 9){
                                 2557   CLINEA 0000H 0001H 04ECH 0002H 0018H
00:031A 09 70                    2558   	cmp	r0,	#09h
00:031C 03 C3                    2559   	ble	_$L161
                                 2560   CBLOCK 222 5 1260
                                 2561   
                                 2562   ;;		Accel_RetIndex = 0;
                                 2563   CLINEA 0000H 0001H 04EDH 0003H 0015H
00:031E 00 00                    2564   	mov	r0,	#00h
00:0320 11-90 00-00'             2565   	st	r0,	NEAR _Accel_RetIndex
                                 2566   CBLOCKEND 222 5 1262
                                 2567   
                                 2568   ;;	}
                                 2569   CLINEA 0000H 0000H 04EEH 0002H 0002H
00:0324                          2570   _$L161 :
                                 2571   
                                 2572   ;;	LED_2 = 0;			//B7, Pin 11
                                 2573   CLINEA 0000H 0001H 0505H 0002H 001AH
00:0324 F2-A0 58-F2              2574   	rb	0f258h.7
                                 2575   CBLOCKEND 222 2 1286
                                 2576   
                                 2577   ;;}
                                 2578   CLINEA 0000H 0001H 0506H 0001H 0001H
00:0328 2E-F4                    2579   	pop	xr4
00:032A 2E-F8                    2580   	pop	xr8
00:032C EA-A1                    2581   	mov	sp,	fp
00:032E 1E-FE                    2582   	pop	fp
00:0330 8E-F2                    2583   	pop	pc
                                 2584   CBLOCKEND 222 1 1286
                                 2585   CFUNCTIONEND 222
                                 2586   
                                 2587   
  --------------------------     2588   	rseg $$Get_MagData$main
                                 2589   CFUNCTION 223
                                 2590   
00:0000                          2591   _Get_MagData	:
                                 2592   CBLOCK 223 1 1289
                                 2593   
                                 2594   ;;void Get_MagData(void){
                                 2595   CLINEA 0000H 0001H 0509H 0001H 0017H
00:0000 CE-F8                    2596   	push	lr
00:0002 5E-FE                    2597   	push	fp
00:0004 1A-AE                    2598   	mov	fp,	sp
00:0006 F8 E1                    2599   	add	sp,	#-08
00:0008 6E-F4                    2600   	push	xr4
                                 2601   CBLOCK 223 2 1289
                                 2602   CRET 000EH
                                 2603   
                                 2604   ;;	_flgI2CFin = 0;														//reset I2C completed flag
                                 2605   CLINEA 0000H 0001H 050BH 0002H 0038H
00:000A 00 00                    2606   	mov	r0,	#00h
00:000C 11-90 00-00'             2607   	st	r0,	NEAR __flgI2CFin
                                 2608   
                                 2609   ;;	i2c_stop();															//Make sure I2C is not currently running
                                 2610   CLINEA 0000H 0001H 050CH 0002H 0043H
00:0010 01-F0'00-00'             2611   	bl	_i2c_stop
                                 2612   
                                 2613   ;;	i2c_startSend( HMC5883Address, &Mag_ModeReg, 1, &Mag_ModeReg_Contents, 1, (cbfI2c)_funcI2CFin);		//Begin I2C Receive Command
                                 2614   CLINEA 0000H 0001H 050DH 0002H 007DH
00:0014 00'00                    2615   	mov	r0,	#BYTE1 OFFSET __funcI2CFin
00:0016 00'01                    2616   	mov	r1,	#BYTE2 OFFSET __funcI2CFin
00:0018 5E-F0                    2617   	push	er0
00:001A 01 E0                    2618   	mov	er0,	#1 
00:001C 5E-F0                    2619   	push	er0
00:001E 00'00                    2620   	mov	r0,	#BYTE1 OFFSET _Mag_ModeReg_Contents
00:0020 00'01                    2621   	mov	r1,	#BYTE2 OFFSET _Mag_ModeReg_Contents
00:0022 5E-F0                    2622   	push	er0
00:0024 01 E0                    2623   	mov	er0,	#1 
00:0026 5E-F0                    2624   	push	er0
00:0028 00'02                    2625   	mov	r2,	#BYTE1 OFFSET _Mag_ModeReg
00:002A 00'03                    2626   	mov	r3,	#BYTE2 OFFSET _Mag_ModeReg
00:002C 10-90 00-00'             2627   	l	r0,	NEAR _HMC5883Address
00:0030 01-F0'00-00'             2628   	bl	_i2c_startSend
00:0034 08 E1                    2629   	add	sp,	#8 
                                 2630   
                                 2631   ;;	while(_flgI2CFin != 1){												//Wait for I2C commands to finish transfer
                                 2632   CLINEA 0000H 0000H 050EH 0001H 0001H
00:0036 02 CE                    2633   	bal	_$L180
                                 2634   
                                 2635   ;;	while(_flgI2CFin != 1){												//Wait for I2C commands to finish transfer
                                 2636   CLINEA 0000H 0000H 050EH 0002H 004EH
00:0038                          2637   _$L166 :
                                 2638   CBLOCK 223 3 1294
                                 2639   
                                 2640   ;;		main_clrWDT();
                                 2641   CLINEA 0000H 0001H 050FH 0003H 0010H
00:0038 01-F0'00-00'             2642   	bl	_main_clrWDT
                                 2643   CBLOCKEND 223 3 1296
                                 2644   
                                 2645   ;;	while(_flgI2CFin != 1){												//Wait for I2C commands to finish transfer
                                 2646   CLINEA 0000H 0000H 050EH 0001H 0001H
00:003C                          2647   _$L180 :
00:003C 10-90 00-00'             2648   	l	r0,	NEAR __flgI2CFin
00:0040 01 70                    2649   	cmp	r0,	#01h
00:0042 FA C8                    2650   	bne	_$L166
                                 2651   
                                 2652   ;;	_flgI2CFin = 0;																	//reset I2C completed Flag
                                 2653   CLINEA 0000H 0001H 0512H 0002H 003BH
00:0044 00 00                    2654   	mov	r0,	#00h
00:0046 11-90 00-00'             2655   	st	r0,	NEAR __flgI2CFin
                                 2656   
                                 2657   ;;	i2c_stop();																		//Make sure I2C is not currently running
                                 2658   CLINEA 0000H 0001H 0513H 0002H 0046H
00:004A 01-F0'00-00'             2659   	bl	_i2c_stop
                                 2660   
                                 2661   ;;	i2c_startReceive(HMC5883Address, &Mag_ReadData, 1, &Mag_Data, 6, (cbfI2c)_funcI2CFin);	//Begin I2C Recieve Command
                                 2662   CLINEA 0000H 0001H 0514H 0002H 0073H
00:004E 00'00                    2663   	mov	r0,	#BYTE1 OFFSET __funcI2CFin
00:0050 00'01                    2664   	mov	r1,	#BYTE2 OFFSET __funcI2CFin
00:0052 5E-F0                    2665   	push	er0
00:0054 06 E0                    2666   	mov	er0,	#6 
00:0056 5E-F0                    2667   	push	er0
00:0058 00'00                    2668   	mov	r0,	#BYTE1 OFFSET _Mag_Data
00:005A 00'01                    2669   	mov	r1,	#BYTE2 OFFSET _Mag_Data
00:005C 5E-F0                    2670   	push	er0
00:005E 01 E0                    2671   	mov	er0,	#1 
00:0060 5E-F0                    2672   	push	er0
00:0062 00'02                    2673   	mov	r2,	#BYTE1 OFFSET _Mag_ReadData
00:0064 00'03                    2674   	mov	r3,	#BYTE2 OFFSET _Mag_ReadData
00:0066 10-90 00-00'             2675   	l	r0,	NEAR _HMC5883Address
00:006A 01-F0'00-00'             2676   	bl	_i2c_startReceive
00:006E 08 E1                    2677   	add	sp,	#8 
                                 2678   
                                 2679   ;;	while(_flgI2CFin != 1){															//Wait for I2C commands to finish transfer
                                 2680   CLINEA 0000H 0000H 0515H 0001H 0001H
00:0070 02 CE                    2681   	bal	_$L181
                                 2682   
                                 2683   ;;	while(_flgI2CFin != 1){															//Wait for I2C commands to finish transfer
                                 2684   CLINEA 0000H 0000H 0515H 0002H 0051H
00:0072                          2685   _$L170 :
                                 2686   CBLOCK 223 4 1301
                                 2687   
                                 2688   ;;		main_clrWDT();
                                 2689   CLINEA 0000H 0001H 0516H 0003H 0010H
00:0072 01-F0'00-00'             2690   	bl	_main_clrWDT
                                 2691   CBLOCKEND 223 4 1303
                                 2692   
                                 2693   ;;	while(_flgI2CFin != 1){															//Wait for I2C commands to finish transfer
                                 2694   CLINEA 0000H 0000H 0515H 0001H 0001H
00:0076                          2695   _$L181 :
00:0076 10-90 00-00'             2696   	l	r0,	NEAR __flgI2CFin
00:007A 01 70                    2697   	cmp	r0,	#01h
00:007C FA C8                    2698   	bne	_$L170
                                 2699   
                                 2700   ;;	Mag_Zout = (Mag_Data[2]<<8)+(Mag_Data[3]);
                                 2701   CLINEA 0000H 0001H 051BH 0002H 002BH
00:007E 10-90 00-00'             2702   	l	r0,	NEAR _Mag_Data+02h
00:0082 00 01                    2703   	mov	r1,	#00h
00:0084 00-83                    2704   	mov	r3,	r0
00:0086 00 02                    2705   	mov	r2,	#00h
00:0088 10-90 00-00'             2706   	l	r0,	NEAR _Mag_Data+03h
00:008C 26-F0                    2707   	add	er0,	er2
00:008E 10-82                    2708   	mov	r2,	r1
00:0090 2F-83                    2709   	extbw	er2
00:0092 30-82                    2710   	mov	r2,	r3
00:0094 6E-F0                    2711   	push	xr0
00:0096 01-F0'00-00'             2712   	bl	__fildu8sw
00:009A 2E-F0                    2713   	pop	xr0
00:009C 13-90 00-00'             2714   	st	er0,	NEAR _Mag_Zout
00:00A0 13-92 00-00'             2715   	st	er2,	NEAR _Mag_Zout+02h
                                 2716   
                                 2717   ;;	Mag_Xout *= Mag_GainFactor;
                                 2718   CLINEA 0000H 0001H 051DH 0002H 001CH
00:00A4 10-90 00-00'             2719   	l	r0,	NEAR _Mag_Data+01h
00:00A8 00 01                    2720   	mov	r1,	#00h
00:00AA 10-92 00-00'             2721   	l	r2,	NEAR _Mag_Data
00:00AE 20-83                    2722   	mov	r3,	r2
00:00B0 00 02                    2723   	mov	r2,	#00h
00:00B2 26-F0                    2724   	add	er0,	er2
00:00B4 10-82                    2725   	mov	r2,	r1
00:00B6 2F-83                    2726   	extbw	er2
00:00B8 30-82                    2727   	mov	r2,	r3
00:00BA 6E-F0                    2728   	push	xr0
00:00BC 01-F0'00-00'             2729   	bl	__fildu8sw
00:00C0 12-90 00-00'             2730   	l	er0,	NEAR _Mag_GainFactor
00:00C4 12-92 00-00'             2731   	l	er2,	NEAR _Mag_GainFactor+02h
00:00C8 6E-F0                    2732   	push	xr0
00:00CA 01-F0'00-00'             2733   	bl	__fmulu8sw
00:00CE 04 E1                    2734   	add	sp,	#4 
00:00D0 2E-F0                    2735   	pop	xr0
00:00D2 13-90 00-00'             2736   	st	er0,	NEAR _Mag_Xout
00:00D6 13-92 00-00'             2737   	st	er2,	NEAR _Mag_Xout+02h
                                 2738   
                                 2739   ;;	Mag_Yout *= Mag_GainFactor;
                                 2740   CLINEA 0000H 0001H 051EH 0002H 001CH
00:00DA 10-90 00-00'             2741   	l	r0,	NEAR _Mag_Data+04h
00:00DE 00 01                    2742   	mov	r1,	#00h
00:00E0 00-83                    2743   	mov	r3,	r0
00:00E2 00 02                    2744   	mov	r2,	#00h
00:00E4 10-90 00-00'             2745   	l	r0,	NEAR _Mag_Data+05h
00:00E8 26-F0                    2746   	add	er0,	er2
00:00EA 10-82                    2747   	mov	r2,	r1
00:00EC 2F-83                    2748   	extbw	er2
00:00EE 30-82                    2749   	mov	r2,	r3
00:00F0 6E-F0                    2750   	push	xr0
00:00F2 01-F0'00-00'             2751   	bl	__fildu8sw
00:00F6 12-90 00-00'             2752   	l	er0,	NEAR _Mag_GainFactor
00:00FA 12-92 00-00'             2753   	l	er2,	NEAR _Mag_GainFactor+02h
00:00FE 6E-F0                    2754   	push	xr0
00:0100 01-F0'00-00'             2755   	bl	__fmulu8sw
00:0104 04 E1                    2756   	add	sp,	#4 
00:0106 2E-F0                    2757   	pop	xr0
00:0108 13-90 00-00'             2758   	st	er0,	NEAR _Mag_Yout
00:010C 13-92 00-00'             2759   	st	er2,	NEAR _Mag_Yout+02h
                                 2760   
                                 2761   ;;	if(Mag_Yout >= 0){
                                 2762   CLINEA 0000H 0001H 0520H 0002H 0013H
00:0110 6E-F0                    2763   	push	xr0
00:0112 00 E0                    2764   	mov	er0,	#0 
00:0114 00 E2                    2765   	mov	er2,	#0 
00:0116 6E-F0                    2766   	push	xr0
00:0118 01-F0'00-00'             2767   	bl	__fcmpu8sw
00:011C 08 E1                    2768   	add	sp,	#8 
00:011E 0B-A0                    2769   	mov	psw,	r0
00:0120 35 C1                    2770   	blt	_$L172
                                 2771   CBLOCK 223 5 1312
                                 2772   
                                 2773   ;;		Mag_Angle = 90 - (atan(Mag_Xout/Mag_Yout)) * (180/3.1415927);
                                 2774   CLINEA 0000H 0000H 0521H 0003H 003FH
00:0122 12-90 00-00'             2775   	l	er0,	NEAR _Mag_Xout
00:0126 12-92 00-00'             2776   	l	er2,	NEAR _Mag_Xout+02h
00:012A 6E-F0                    2777   	push	xr0
00:012C 12-90 00-00'             2778   	l	er0,	NEAR _Mag_Yout
00:0130 12-92 00-00'             2779   	l	er2,	NEAR _Mag_Yout+02h
00:0134 6E-F0                    2780   	push	xr0
00:0136 01-F0'00-00'             2781   	bl	__fdivu8sw
00:013A 01-F0'00-00'             2782   	bl	__ftodu8sw
00:013E E5-F0                    2783   	mov	er0,	fp
00:0140 F8 E0                    2784   	add	er0,	#-8
00:0142 01-F0'00-00'             2785   	bl	_atan
00:0146 08 E1                    2786   	add	sp,	#8 
00:0148 00 E0                    2787   	mov	er0,	#0 
00:014A 00 E2                    2788   	mov	er2,	#0 
00:014C 00 04                    2789   	mov	r4,	#00h
00:014E 80 05                    2790   	mov	r5,	#080h
00:0150 56 06                    2791   	mov	r6,	#056h
00:0152 40 07                    2792   	mov	r7,	#040h
00:0154 7E-F0                    2793   	push	qr0
00:0156 EB-F0 F8-FF              2794   	lea	-8[fp]
00:015A 36-90                    2795   	l	qr0,	[ea]
00:015C 7E-F0                    2796   	push	qr0
00:015E 4A 00                    2797   	mov	r0,	#04ah
00:0160 15 01                    2798   	mov	r1,	#015h
00:0162 4A 02                    2799   	mov	r2,	#04ah
00:0164 13 03                    2800   	mov	r3,	#013h
00:0166 DC 04                    2801   	mov	r4,	#0dch
00:0168 A5 05                    2802   	mov	r5,	#0a5h
00:016A 4C 06                    2803   	mov	r6,	#04ch
00:016C 40 07                    2804   	mov	r7,	#040h
00:016E 7E-F0                    2805   	push	qr0
00:0170 01-F0'00-00'             2806   	bl	__dmulu8sw
00:0174 08 E1                    2807   	add	sp,	#8 
00:0176 01-F0'00-00'             2808   	bl	__dsubu8sw
00:017A 08 E1                    2809   	add	sp,	#8 
00:017C 01-F0'00-00'             2810   	bl	__dtofu8sw
00:0180 04 E1                    2811   	add	sp,	#4 
00:0182 2E-F0                    2812   	pop	xr0
00:0184 13-90 00-00'             2813   	st	er0,	NEAR _Mag_Angle
00:0188 13-92 00-00'             2814   	st	er2,	NEAR _Mag_Angle+02h
                                 2815   CBLOCKEND 223 5 1314
                                 2816   
                                 2817   ;;	}
                                 2818   CLINEA 0000H 0000H 0522H 0002H 0002H
00:018C                          2819   _$L172 :
                                 2820   
                                 2821   ;;	if(Mag_Yout < 0){
                                 2822   CLINEA 0000H 0001H 0523H 0002H 0012H
00:018C 12-90 00-00'             2823   	l	er0,	NEAR _Mag_Yout
00:0190 12-92 00-00'             2824   	l	er2,	NEAR _Mag_Yout+02h
00:0194 6E-F0                    2825   	push	xr0
00:0196 00 E0                    2826   	mov	er0,	#0 
00:0198 00 E2                    2827   	mov	er2,	#0 
00:019A 6E-F0                    2828   	push	xr0
00:019C 01-F0'00-00'             2829   	bl	__fcmpu8sw
00:01A0 08 E1                    2830   	add	sp,	#8 
00:01A2 0B-A0                    2831   	mov	psw,	r0
00:01A4 35 C0                    2832   	bge	_$L174
                                 2833   CBLOCK 223 6 1315
                                 2834   
                                 2835   ;;		Mag_Angle = 270 - (atan(Mag_Xout/Mag_Yout)) * (180/3.1415927);
                                 2836   CLINEA 0000H 0000H 0524H 0003H 0040H
00:01A6 12-90 00-00'             2837   	l	er0,	NEAR _Mag_Xout
00:01AA 12-92 00-00'             2838   	l	er2,	NEAR _Mag_Xout+02h
00:01AE 6E-F0                    2839   	push	xr0
00:01B0 12-90 00-00'             2840   	l	er0,	NEAR _Mag_Yout
00:01B4 12-92 00-00'             2841   	l	er2,	NEAR _Mag_Yout+02h
00:01B8 6E-F0                    2842   	push	xr0
00:01BA 01-F0'00-00'             2843   	bl	__fdivu8sw
00:01BE 01-F0'00-00'             2844   	bl	__ftodu8sw
00:01C2 E5-F0                    2845   	mov	er0,	fp
00:01C4 F8 E0                    2846   	add	er0,	#-8
00:01C6 01-F0'00-00'             2847   	bl	_atan
00:01CA 08 E1                    2848   	add	sp,	#8 
00:01CC 00 E0                    2849   	mov	er0,	#0 
00:01CE 00 E2                    2850   	mov	er2,	#0 
00:01D0 00 04                    2851   	mov	r4,	#00h
00:01D2 E0 05                    2852   	mov	r5,	#0e0h
00:01D4 70 06                    2853   	mov	r6,	#070h
00:01D6 40 07                    2854   	mov	r7,	#040h
00:01D8 7E-F0                    2855   	push	qr0
00:01DA EB-F0 F8-FF              2856   	lea	-8[fp]
00:01DE 36-90                    2857   	l	qr0,	[ea]
00:01E0 7E-F0                    2858   	push	qr0
00:01E2 4A 00                    2859   	mov	r0,	#04ah
00:01E4 15 01                    2860   	mov	r1,	#015h
00:01E6 4A 02                    2861   	mov	r2,	#04ah
00:01E8 13 03                    2862   	mov	r3,	#013h
00:01EA DC 04                    2863   	mov	r4,	#0dch
00:01EC A5 05                    2864   	mov	r5,	#0a5h
00:01EE 4C 06                    2865   	mov	r6,	#04ch
00:01F0 40 07                    2866   	mov	r7,	#040h
00:01F2 7E-F0                    2867   	push	qr0
00:01F4 01-F0'00-00'             2868   	bl	__dmulu8sw
00:01F8 08 E1                    2869   	add	sp,	#8 
00:01FA 01-F0'00-00'             2870   	bl	__dsubu8sw
00:01FE 08 E1                    2871   	add	sp,	#8 
00:0200 01-F0'00-00'             2872   	bl	__dtofu8sw
00:0204 04 E1                    2873   	add	sp,	#4 
00:0206 2E-F0                    2874   	pop	xr0
00:0208 13-90 00-00'             2875   	st	er0,	NEAR _Mag_Angle
00:020C 13-92 00-00'             2876   	st	er2,	NEAR _Mag_Angle+02h
                                 2877   CBLOCKEND 223 6 1317
                                 2878   
                                 2879   ;;	}
                                 2880   CLINEA 0000H 0000H 0525H 0002H 0002H
00:0210                          2881   _$L174 :
                                 2882   
                                 2883   ;;	Mag_Angle -= 90;  //This will adjust and get the true 
                                 2884   CLINEA 0000H 0001H 0527H 0002H 0037H
00:0210 12-90 00-00'             2885   	l	er0,	NEAR _Mag_Angle
00:0214 12-92 00-00'             2886   	l	er2,	NEAR _Mag_Angle+02h
00:0218 6E-F0                    2887   	push	xr0
00:021A 00 E0                    2888   	mov	er0,	#0 
00:021C B4 02                    2889   	mov	r2,	#0b4h
00:021E C2 03                    2890   	mov	r3,	#0c2h
00:0220 6E-F0                    2891   	push	xr0
00:0222 01-F0'00-00'             2892   	bl	__faddu8sw
00:0226 04 E1                    2893   	add	sp,	#4 
00:0228 2E-F0                    2894   	pop	xr0
00:022A 13-90 00-00'             2895   	st	er0,	NEAR _Mag_Angle
00:022E 13-92 00-00'             2896   	st	er2,	NEAR _Mag_Angle+02h
                                 2897   
                                 2898   ;;	if(Mag_Angle >=360){
                                 2899   CLINEA 0000H 0001H 0528H 0002H 0015H
00:0232 6E-F0                    2900   	push	xr0
00:0234 00 E0                    2901   	mov	er0,	#0 
00:0236 B4 02                    2902   	mov	r2,	#0b4h
00:0238 43 03                    2903   	mov	r3,	#043h
00:023A 6E-F0                    2904   	push	xr0
00:023C 01-F0'00-00'             2905   	bl	__fcmpu8sw
00:0240 08 E1                    2906   	add	sp,	#8 
00:0242 0B-A0                    2907   	mov	psw,	r0
00:0244 11 C1                    2908   	blt	_$L176
                                 2909   CBLOCK 223 7 1320
                                 2910   
                                 2911   ;;		Mag_Angle -= 360;
                                 2912   CLINEA 0000H 0001H 0529H 0003H 0013H
00:0246 12-90 00-00'             2913   	l	er0,	NEAR _Mag_Angle
00:024A 12-92 00-00'             2914   	l	er2,	NEAR _Mag_Angle+02h
00:024E 6E-F0                    2915   	push	xr0
00:0250 00 E0                    2916   	mov	er0,	#0 
00:0252 B4 02                    2917   	mov	r2,	#0b4h
00:0254 C3 03                    2918   	mov	r3,	#0c3h
00:0256 6E-F0                    2919   	push	xr0
00:0258 01-F0'00-00'             2920   	bl	__faddu8sw
00:025C 04 E1                    2921   	add	sp,	#4 
00:025E 2E-F0                    2922   	pop	xr0
00:0260 13-90 00-00'             2923   	st	er0,	NEAR _Mag_Angle
00:0264 13-92 00-00'             2924   	st	er2,	NEAR _Mag_Angle+02h
                                 2925   CBLOCKEND 223 7 1322
                                 2926   
                                 2927   ;;	}
                                 2928   CLINEA 0000H 0000H 052AH 0002H 0002H
00:0268                          2929   _$L176 :
                                 2930   
                                 2931   ;;	if(Mag_Angle < 0){
                                 2932   CLINEA 0000H 0001H 052BH 0002H 0013H
00:0268 12-90 00-00'             2933   	l	er0,	NEAR _Mag_Angle
00:026C 12-92 00-00'             2934   	l	er2,	NEAR _Mag_Angle+02h
00:0270 6E-F0                    2935   	push	xr0
00:0272 00 E0                    2936   	mov	er0,	#0 
00:0274 00 E2                    2937   	mov	er2,	#0 
00:0276 6E-F0                    2938   	push	xr0
00:0278 01-F0'00-00'             2939   	bl	__fcmpu8sw
00:027C 08 E1                    2940   	add	sp,	#8 
00:027E 0B-A0                    2941   	mov	psw,	r0
00:0280 11 C0                    2942   	bge	_$L178
                                 2943   CBLOCK 223 8 1323
                                 2944   
                                 2945   ;;		Mag_Angle += 360;
                                 2946   CLINEA 0000H 0001H 052CH 0003H 0013H
00:0282 12-90 00-00'             2947   	l	er0,	NEAR _Mag_Angle
00:0286 12-92 00-00'             2948   	l	er2,	NEAR _Mag_Angle+02h
00:028A 6E-F0                    2949   	push	xr0
00:028C 00 E0                    2950   	mov	er0,	#0 
00:028E B4 02                    2951   	mov	r2,	#0b4h
00:0290 43 03                    2952   	mov	r3,	#043h
00:0292 6E-F0                    2953   	push	xr0
00:0294 01-F0'00-00'             2954   	bl	__faddu8sw
00:0298 04 E1                    2955   	add	sp,	#4 
00:029A 2E-F0                    2956   	pop	xr0
00:029C 13-90 00-00'             2957   	st	er0,	NEAR _Mag_Angle
00:02A0 13-92 00-00'             2958   	st	er2,	NEAR _Mag_Angle+02h
                                 2959   CBLOCKEND 223 8 1325
                                 2960   
                                 2961   ;;	}
                                 2962   CLINEA 0000H 0000H 052DH 0002H 0002H
00:02A4                          2963   _$L178 :
                                 2964   CBLOCKEND 223 2 1326
                                 2965   
                                 2966   ;;}
                                 2967   CLINEA 0000H 0001H 052EH 0001H 0001H
00:02A4 2E-F4                    2968   	pop	xr4
00:02A6 EA-A1                    2969   	mov	sp,	fp
00:02A8 1E-FE                    2970   	pop	fp
00:02AA 8E-F2                    2971   	pop	pc
                                 2972   CBLOCKEND 223 1 1326
                                 2973   CFUNCTIONEND 223
                                 2974   
                                 2975   
  --------------------------     2976   	rseg $$ClearVariables$main
                                 2977   CFUNCTION 224
                                 2978   
00:0000                          2979   _ClearVariables	:
                                 2980   CBLOCK 224 1 1328
                                 2981   
                                 2982   ;;void ClearVariables(void){
                                 2983   CLINEA 0000H 0001H 0530H 0001H 001AH
                                 2984   CBLOCK 224 2 1328
                                 2985   
                                 2986   ;;	Temp_out = 0;
                                 2987   CLINEA 0000H 0001H 0531H 0002H 000EH
00:0000 00 E0                    2988   	mov	er0,	#0 
00:0002 13-90 00-00'             2989   	st	er0,	NEAR _Temp_out
00:0006 13-90 00-00'             2990   	st	er0,	NEAR _Temp_out+02h
                                 2991   
                                 2992   ;;	Mag_Xout = 0;
                                 2993   CLINEA 0000H 0001H 0532H 0002H 000EH
00:000A 13-90 00-00'             2994   	st	er0,	NEAR _Mag_Xout
00:000E 13-90 00-00'             2995   	st	er0,	NEAR _Mag_Xout+02h
                                 2996   
                                 2997   ;;	Mag_Yout = 0;
                                 2998   CLINEA 0000H 0001H 0533H 0002H 000EH
00:0012 13-90 00-00'             2999   	st	er0,	NEAR _Mag_Yout
00:0016 13-90 00-00'             3000   	st	er0,	NEAR _Mag_Yout+02h
                                 3001   
                                 3002   ;;	Mag_Zout = 0;
                                 3003   CLINEA 0000H 0001H 0534H 0002H 000EH
00:001A 13-90 00-00'             3004   	st	er0,	NEAR _Mag_Zout
00:001E 13-90 00-00'             3005   	st	er0,	NEAR _Mag_Zout+02h
                                 3006   
                                 3007   ;;	Mag_Angle = 0;
                                 3008   CLINEA 0000H 0001H 0535H 0002H 000FH
00:0022 13-90 00-00'             3009   	st	er0,	NEAR _Mag_Angle
00:0026 13-90 00-00'             3010   	st	er0,	NEAR _Mag_Angle+02h
                                 3011   
                                 3012   ;;	Ping_timer = 0;
                                 3013   CLINEA 0000H 0001H 0536H 0002H 0010H
00:002A 13-90 00-00'             3014   	st	er0,	NEAR _Ping_timer
                                 3015   
                                 3016   ;;	Ping_out = 0;
                                 3017   CLINEA 0000H 0001H 0537H 0002H 000EH
00:002E 13-90 00-00'             3018   	st	er0,	NEAR _Ping_out
00:0032 13-90 00-00'             3019   	st	er0,	NEAR _Ping_out+02h
                                 3020   
                                 3021   ;;	Range_out = 0;
                                 3022   CLINEA 0000H 0001H 0538H 0002H 000FH
00:0036 13-90 00-00'             3023   	st	er0,	NEAR _Range_out
                                 3024   CBLOCKEND 224 2 1337
                                 3025   
                                 3026   ;;}
                                 3027   CLINEA 0000H 0001H 0539H 0001H 0001H
00:003A 1F-FE                    3028   	rt
                                 3029   CBLOCKEND 224 1 1337
                                 3030   CFUNCTIONEND 224
                                 3031   
                                 3032   
  --------------------------     3033   	rseg $$ReturnSensorData$main
                                 3034   CFUNCTION 225
                                 3035   
00:0000                          3036   _ReturnSensorData	:
                                 3037   CBLOCK 225 1 1339
                                 3038   
                                 3039   ;;void ReturnSensorData(void){
                                 3040   CLINEA 0000H 0001H 053BH 0001H 001CH
00:0000 CE-F8                    3041   	push	lr
                                 3042   CBLOCK 225 2 1339
                                 3043   CRET 0000H
                                 3044   CLOCAL 47H 0002H 0024H 0002H "i" 02H 00H 01H
                                 3045   
                                 3046   ;;	for(i = 0; i<150; i++)
                                 3047   CLINEA 0000H 0001H 053DH 0002H 0017H
00:0002 00 E0                    3048   	mov	er0,	#0 
00:0004                          3049   _$L186 :
                                 3050   CBLOCK 225 3 1342
                                 3051   
                                 3052   ;;		SensorReturn[i] = 0x20;
                                 3053   CLINEA 0000H 0001H 053FH 0003H 0019H
00:0004 20 02                    3054   	mov	r2,	#020h
00:0006 09-92 00-00'             3055   	st	r2,	NEAR _SensorReturn[er0]
                                 3056   CBLOCKEND 225 3 1344
                                 3057   
                                 3058   ;;	for(i = 0; i<150; i++)
                                 3059   CLINEA 0000H 0000H 053DH 0002H 0017H
00:000A 81 E0                    3060   	add	er0,	#1 
00:000C 96 70                    3061   	cmp	r0,	#096h
00:000E 00 51                    3062   	cmpc	r1,	#00h
00:0010 F9 C5                    3063   	blts	_$L186
                                 3064   
                                 3065   ;;	sprintf(SensorReturn, "%f,%f,%f,%f,%f,%f,%f,%u", Accel_Xout, Accel_Yout, Accel_Zout, Gyro_Xout, Gyro_Yout, Gyro_Zout, Mag_Angle,Range_out);
                                 3066   CLINEA 0000H 0001H 0542H 0002H 008CH
00:0012 12-90 00-00'             3067   	l	er0,	NEAR _Range_out
00:0016 5E-F0                    3068   	push	er0
00:0018 12-90 00-00'             3069   	l	er0,	NEAR _Mag_Angle
00:001C 12-92 00-00'             3070   	l	er2,	NEAR _Mag_Angle+02h
00:0020 6E-F0                    3071   	push	xr0
00:0022 FC E1                    3072   	add	sp,	#-4
00:0024 01-F0'00-00'             3073   	bl	__ftodu8sw
00:0028 00'00                    3074   	mov	r0,	#BYTE1 OFFSET _Gyro_Zout
00:002A 00'01                    3075   	mov	r1,	#BYTE2 OFFSET _Gyro_Zout
00:002C 5E-F0                    3076   	push	er0
00:002E 00'00                    3077   	mov	r0,	#BYTE1 OFFSET _Gyro_Yout
00:0030 00'01                    3078   	mov	r1,	#BYTE2 OFFSET _Gyro_Yout
00:0032 5E-F0                    3079   	push	er0
00:0034 00'00                    3080   	mov	r0,	#BYTE1 OFFSET _Gyro_Xout
00:0036 00'01                    3081   	mov	r1,	#BYTE2 OFFSET _Gyro_Xout
00:0038 5E-F0                    3082   	push	er0
00:003A 00'00                    3083   	mov	r0,	#BYTE1 OFFSET _Accel_Zout
00:003C 00'01                    3084   	mov	r1,	#BYTE2 OFFSET _Accel_Zout
00:003E 5E-F0                    3085   	push	er0
00:0040 00'00                    3086   	mov	r0,	#BYTE1 OFFSET _Accel_Yout
00:0042 00'01                    3087   	mov	r1,	#BYTE2 OFFSET _Accel_Yout
00:0044 5E-F0                    3088   	push	er0
00:0046 00'00                    3089   	mov	r0,	#BYTE1 OFFSET _Accel_Xout
00:0048 00'01                    3090   	mov	r1,	#BYTE2 OFFSET _Accel_Xout
00:004A 5E-F0                    3091   	push	er0
00:004C 00'00                    3092   	mov	r0,	#BYTE1 OFFSET $$S190
00:004E 00'01                    3093   	mov	r1,	#BYTE2 OFFSET $$S190
00:0050 5E-F0                    3094   	push	er0
00:0052 00'00                    3095   	mov	r0,	#BYTE1 OFFSET _SensorReturn
00:0054 00'01                    3096   	mov	r1,	#BYTE2 OFFSET _SensorReturn
00:0056 5E-F0                    3097   	push	er0
00:0058 01-F0'00-00'             3098   	bl	_sprintf_nn
00:005C 1A E1                    3099   	add	sp,	#26
                                 3100   
                                 3101   ;;	SensorReturn[148] = 0x0D;
                                 3102   CLINEA 0000H 0001H 0544H 0002H 001AH
00:005E 0D 00                    3103   	mov	r0,	#0dh
00:0060 11-90 00-00'             3104   	st	r0,	NEAR _SensorReturn+094h
                                 3105   
                                 3106   ;;	SensorReturn[149] = 0x0A;
                                 3107   CLINEA 0000H 0001H 0545H 0002H 001AH
00:0064 0A 00                    3108   	mov	r0,	#0ah
00:0066 11-90 00-00'             3109   	st	r0,	NEAR _SensorReturn+095h
                                 3110   
                                 3111   ;;	_flgUartFin = 0;
                                 3112   CLINEA 0000H 0001H 0548H 0002H 0011H
00:006A 00 00                    3113   	mov	r0,	#00h
00:006C 11-90 00-00'             3114   	st	r0,	NEAR __flgUartFin
                                 3115   
                                 3116   ;;	uart_stop();
                                 3117   CLINEA 0000H 0001H 0549H 0002H 000DH
00:0070 01-F0'00-00'             3118   	bl	_uart_stop
                                 3119   
                                 3120   ;;	uart_startSend(SensorReturn, 150, _funcUartFin);
                                 3121   CLINEA 0000H 0001H 054AH 0002H 0031H
00:0074 00'00                    3122   	mov	r0,	#BYTE1 OFFSET __funcUartFin
00:0076 00'01                    3123   	mov	r1,	#BYTE2 OFFSET __funcUartFin
00:0078 5E-F0                    3124   	push	er0
00:007A 96 02                    3125   	mov	r2,	#096h
00:007C 00 03                    3126   	mov	r3,	#00h
00:007E 00'00                    3127   	mov	r0,	#BYTE1 OFFSET _SensorReturn
00:0080 00'01                    3128   	mov	r1,	#BYTE2 OFFSET _SensorReturn
00:0082 01-F0'00-00'             3129   	bl	_uart_startSend
00:0086 02 E1                    3130   	add	sp,	#2 
                                 3131   
                                 3132   ;;	while(_flgUartFin != 1){
                                 3133   CLINEA 0000H 0000H 054BH 0001H 0001H
00:0088 02 CE                    3134   	bal	_$L195
                                 3135   
                                 3136   ;;	while(_flgUartFin != 1){
                                 3137   CLINEA 0000H 0000H 054BH 0002H 0019H
00:008A                          3138   _$L193 :
                                 3139   CBLOCK 225 4 1355
                                 3140   
                                 3141   ;;		main_clrWDT();
                                 3142   CLINEA 0000H 0001H 054CH 0003H 0010H
00:008A 01-F0'00-00'             3143   	bl	_main_clrWDT
                                 3144   CBLOCKEND 225 4 1357
                                 3145   
                                 3146   ;;	while(_flgUartFin != 1){
                                 3147   CLINEA 0000H 0000H 054BH 0001H 0001H
00:008E                          3148   _$L195 :
00:008E 10-90 00-00'             3149   	l	r0,	NEAR __flgUartFin
00:0092 01 70                    3150   	cmp	r0,	#01h
00:0094 FA C8                    3151   	bne	_$L193
                                 3152   CBLOCKEND 225 2 1358
                                 3153   
                                 3154   ;;}
                                 3155   CLINEA 0000H 0001H 054EH 0001H 0001H
00:0096 8E-F2                    3156   	pop	pc
                                 3157   CBLOCKEND 225 1 1358
                                 3158   CFUNCTIONEND 225
                                 3159   
                                 3160   
  --------------------------     3161   	rseg $$ReturnAccelData$main
                                 3162   CFUNCTION 226
                                 3163   
00:0000                          3164   _ReturnAccelData	:
                                 3165   CBLOCK 226 1 1360
                                 3166   
                                 3167   ;;void ReturnAccelData(void){
                                 3168   CLINEA 0000H 0001H 0550H 0001H 001BH
00:0000 CE-F8                    3169   	push	lr
                                 3170   CBLOCK 226 2 1360
                                 3171   CRET 0000H
                                 3172   CLOCAL 47H 0002H 0024H 0002H "i" 02H 00H 01H
                                 3173   
                                 3174   ;;	for(i = 0; i<150; i++)
                                 3175   CLINEA 0000H 0001H 0552H 0002H 0017H
00:0002 00 E0                    3176   	mov	er0,	#0 
00:0004                          3177   _$L199 :
                                 3178   CBLOCK 226 3 1363
                                 3179   
                                 3180   ;;		SensorReturn[i] = 0x20;
                                 3181   CLINEA 0000H 0001H 0554H 0003H 0019H
00:0004 20 02                    3182   	mov	r2,	#020h
00:0006 09-92 00-00'             3183   	st	r2,	NEAR _SensorReturn[er0]
                                 3184   CBLOCKEND 226 3 1365
                                 3185   
                                 3186   ;;	for(i = 0; i<150; i++)
                                 3187   CLINEA 0000H 0000H 0552H 0002H 0017H
00:000A 81 E0                    3188   	add	er0,	#1 
00:000C 96 70                    3189   	cmp	r0,	#096h
00:000E 00 51                    3190   	cmpc	r1,	#00h
00:0010 F9 C5                    3191   	blts	_$L199
                                 3192   
                                 3193   ;;	sprintf(SensorReturn, "%f,%f,%f", Accel_Xout, Accel_Yout, Accel_Zout);
                                 3194   CLINEA 0000H 0001H 0558H 0002H 0047H
00:0012 00'00                    3195   	mov	r0,	#BYTE1 OFFSET _Accel_Zout
00:0014 00'01                    3196   	mov	r1,	#BYTE2 OFFSET _Accel_Zout
00:0016 5E-F0                    3197   	push	er0
00:0018 00'00                    3198   	mov	r0,	#BYTE1 OFFSET _Accel_Yout
00:001A 00'01                    3199   	mov	r1,	#BYTE2 OFFSET _Accel_Yout
00:001C 5E-F0                    3200   	push	er0
00:001E 00'00                    3201   	mov	r0,	#BYTE1 OFFSET _Accel_Xout
00:0020 00'01                    3202   	mov	r1,	#BYTE2 OFFSET _Accel_Xout
00:0022 5E-F0                    3203   	push	er0
00:0024 00'00                    3204   	mov	r0,	#BYTE1 OFFSET $$S203
00:0026 00'01                    3205   	mov	r1,	#BYTE2 OFFSET $$S203
00:0028 5E-F0                    3206   	push	er0
00:002A 00'00                    3207   	mov	r0,	#BYTE1 OFFSET _SensorReturn
00:002C 00'01                    3208   	mov	r1,	#BYTE2 OFFSET _SensorReturn
00:002E 5E-F0                    3209   	push	er0
00:0030 01-F0'00-00'             3210   	bl	_sprintf_nn
00:0034 0A E1                    3211   	add	sp,	#10
                                 3212   
                                 3213   ;;	SensorReturn[148] = 0x0D;	//CR
                                 3214   CLINEA 0000H 0001H 055AH 0002H 001FH
00:0036 0D 00                    3215   	mov	r0,	#0dh
00:0038 11-90 00-00'             3216   	st	r0,	NEAR _SensorReturn+094h
                                 3217   
                                 3218   ;;	SensorReturn[149] = 0x0A;	//LF
                                 3219   CLINEA 0000H 0001H 055BH 0002H 001FH
00:003C 0A 00                    3220   	mov	r0,	#0ah
00:003E 11-90 00-00'             3221   	st	r0,	NEAR _SensorReturn+095h
                                 3222   
                                 3223   ;;	_flgUartFin = 0;
                                 3224   CLINEA 0000H 0001H 055EH 0002H 0011H
00:0042 00 00                    3225   	mov	r0,	#00h
00:0044 11-90 00-00'             3226   	st	r0,	NEAR __flgUartFin
                                 3227   
                                 3228   ;;	uart_stop();
                                 3229   CLINEA 0000H 0001H 055FH 0002H 000DH
00:0048 01-F0'00-00'             3230   	bl	_uart_stop
                                 3231   
                                 3232   ;;	uart_startSend(SensorReturn, 150, _funcUartFin);
                                 3233   CLINEA 0000H 0001H 0560H 0002H 0031H
00:004C 00'00                    3234   	mov	r0,	#BYTE1 OFFSET __funcUartFin
00:004E 00'01                    3235   	mov	r1,	#BYTE2 OFFSET __funcUartFin
00:0050 5E-F0                    3236   	push	er0
00:0052 96 02                    3237   	mov	r2,	#096h
00:0054 00 03                    3238   	mov	r3,	#00h
00:0056 00'00                    3239   	mov	r0,	#BYTE1 OFFSET _SensorReturn
00:0058 00'01                    3240   	mov	r1,	#BYTE2 OFFSET _SensorReturn
00:005A 01-F0'00-00'             3241   	bl	_uart_startSend
00:005E 02 E1                    3242   	add	sp,	#2 
                                 3243   
                                 3244   ;;	while(_flgUartFin != 1){
                                 3245   CLINEA 0000H 0000H 0561H 0001H 0001H
00:0060 02 CE                    3246   	bal	_$L208
                                 3247   
                                 3248   ;;	while(_flgUartFin != 1){
                                 3249   CLINEA 0000H 0000H 0561H 0002H 0019H
00:0062                          3250   _$L206 :
                                 3251   CBLOCK 226 4 1377
                                 3252   
                                 3253   ;;		main_clrWDT();
                                 3254   CLINEA 0000H 0001H 0562H 0003H 0010H
00:0062 01-F0'00-00'             3255   	bl	_main_clrWDT
                                 3256   CBLOCKEND 226 4 1379
                                 3257   
                                 3258   ;;	while(_flgUartFin != 1){
                                 3259   CLINEA 0000H 0000H 0561H 0001H 0001H
00:0066                          3260   _$L208 :
00:0066 10-90 00-00'             3261   	l	r0,	NEAR __flgUartFin
00:006A 01 70                    3262   	cmp	r0,	#01h
00:006C FA C8                    3263   	bne	_$L206
                                 3264   CBLOCKEND 226 2 1380
                                 3265   
                                 3266   ;;}
                                 3267   CLINEA 0000H 0001H 0564H 0001H 0001H
00:006E 8E-F2                    3268   	pop	pc
                                 3269   CBLOCKEND 226 1 1380
                                 3270   CFUNCTIONEND 226
                                 3271   
                                 3272   
  --------------------------     3273   	rseg $$ReturnMagData$main
                                 3274   CFUNCTION 227
                                 3275   
00:0000                          3276   _ReturnMagData	:
                                 3277   CBLOCK 227 1 1382
                                 3278   
                                 3279   ;;void ReturnMagData(void){
                                 3280   CLINEA 0000H 0001H 0566H 0001H 0019H
00:0000 CE-F8                    3281   	push	lr
                                 3282   CBLOCK 227 2 1382
                                 3283   CRET 0000H
                                 3284   CLOCAL 47H 0002H 0024H 0002H "i" 02H 00H 01H
                                 3285   
                                 3286   ;;	for(i = 0; i<150; i++)
                                 3287   CLINEA 0000H 0001H 0568H 0002H 0017H
00:0002 00 E0                    3288   	mov	er0,	#0 
00:0004                          3289   _$L212 :
                                 3290   CBLOCK 227 3 1385
                                 3291   
                                 3292   ;;		SensorReturn[i] = 0x20;
                                 3293   CLINEA 0000H 0001H 056AH 0003H 0019H
00:0004 20 02                    3294   	mov	r2,	#020h
00:0006 09-92 00-00'             3295   	st	r2,	NEAR _SensorReturn[er0]
                                 3296   CBLOCKEND 227 3 1387
                                 3297   
                                 3298   ;;	for(i = 0; i<150; i++)
                                 3299   CLINEA 0000H 0000H 0568H 0002H 0017H
00:000A 81 E0                    3300   	add	er0,	#1 
00:000C 96 70                    3301   	cmp	r0,	#096h
00:000E 00 51                    3302   	cmpc	r1,	#00h
00:0010 F9 C5                    3303   	blts	_$L212
                                 3304   
                                 3305   ;;	sprintf(SensorReturn, "%f", Mag_Angle);
                                 3306   CLINEA 0000H 0001H 056CH 0002H 0028H
00:0012 12-90 00-00'             3307   	l	er0,	NEAR _Mag_Angle
00:0016 12-92 00-00'             3308   	l	er2,	NEAR _Mag_Angle+02h
00:001A 6E-F0                    3309   	push	xr0
00:001C FC E1                    3310   	add	sp,	#-4
00:001E 01-F0'00-00'             3311   	bl	__ftodu8sw
00:0022 00'00                    3312   	mov	r0,	#BYTE1 OFFSET $$S216
00:0024 00'01                    3313   	mov	r1,	#BYTE2 OFFSET $$S216
00:0026 5E-F0                    3314   	push	er0
00:0028 00'00                    3315   	mov	r0,	#BYTE1 OFFSET _SensorReturn
00:002A 00'01                    3316   	mov	r1,	#BYTE2 OFFSET _SensorReturn
00:002C 5E-F0                    3317   	push	er0
00:002E 01-F0'00-00'             3318   	bl	_sprintf_nn
00:0032 0C E1                    3319   	add	sp,	#12
                                 3320   
                                 3321   ;;	SensorReturn[148] = 0x0D;
                                 3322   CLINEA 0000H 0001H 056EH 0002H 001AH
00:0034 0D 00                    3323   	mov	r0,	#0dh
00:0036 11-90 00-00'             3324   	st	r0,	NEAR _SensorReturn+094h
                                 3325   
                                 3326   ;;	SensorReturn[149] = 0x0A;
                                 3327   CLINEA 0000H 0001H 056FH 0002H 001AH
00:003A 0A 00                    3328   	mov	r0,	#0ah
00:003C 11-90 00-00'             3329   	st	r0,	NEAR _SensorReturn+095h
                                 3330   
                                 3331   ;;	_flgUartFin = 0;
                                 3332   CLINEA 0000H 0001H 0572H 0002H 0011H
00:0040 00 00                    3333   	mov	r0,	#00h
00:0042 11-90 00-00'             3334   	st	r0,	NEAR __flgUartFin
                                 3335   
                                 3336   ;;	uart_stop();
                                 3337   CLINEA 0000H 0001H 0573H 0002H 000DH
00:0046 01-F0'00-00'             3338   	bl	_uart_stop
                                 3339   
                                 3340   ;;	uart_startSend(SensorReturn, 150, _funcUartFin);
                                 3341   CLINEA 0000H 0001H 0574H 0002H 0031H
00:004A 00'00                    3342   	mov	r0,	#BYTE1 OFFSET __funcUartFin
00:004C 00'01                    3343   	mov	r1,	#BYTE2 OFFSET __funcUartFin
00:004E 5E-F0                    3344   	push	er0
00:0050 96 02                    3345   	mov	r2,	#096h
00:0052 00 03                    3346   	mov	r3,	#00h
00:0054 00'00                    3347   	mov	r0,	#BYTE1 OFFSET _SensorReturn
00:0056 00'01                    3348   	mov	r1,	#BYTE2 OFFSET _SensorReturn
00:0058 01-F0'00-00'             3349   	bl	_uart_startSend
00:005C 02 E1                    3350   	add	sp,	#2 
                                 3351   
                                 3352   ;;	while(_flgUartFin != 1){
                                 3353   CLINEA 0000H 0000H 0575H 0001H 0001H
00:005E 02 CE                    3354   	bal	_$L221
                                 3355   
                                 3356   ;;	while(_flgUartFin != 1){
                                 3357   CLINEA 0000H 0000H 0575H 0002H 0019H
00:0060                          3358   _$L219 :
                                 3359   CBLOCK 227 4 1397
                                 3360   
                                 3361   ;;		main_clrWDT();
                                 3362   CLINEA 0000H 0001H 0576H 0003H 0010H
00:0060 01-F0'00-00'             3363   	bl	_main_clrWDT
                                 3364   CBLOCKEND 227 4 1399
                                 3365   
                                 3366   ;;	while(_flgUartFin != 1){
                                 3367   CLINEA 0000H 0000H 0575H 0001H 0001H
00:0064                          3368   _$L221 :
00:0064 10-90 00-00'             3369   	l	r0,	NEAR __flgUartFin
00:0068 01 70                    3370   	cmp	r0,	#01h
00:006A FA C8                    3371   	bne	_$L219
                                 3372   CBLOCKEND 227 2 1400
                                 3373   
                                 3374   ;;}
                                 3375   CLINEA 0000H 0001H 0578H 0001H 0001H
00:006C 8E-F2                    3376   	pop	pc
                                 3377   CBLOCKEND 227 1 1400
                                 3378   CFUNCTIONEND 227
                                 3379   
                                 3380   
  --------------------------     3381   	rseg $$CalibrateMotors$main
                                 3382   CFUNCTION 228
                                 3383   
00:0000                          3384   _CalibrateMotors	:
                                 3385   CBLOCK 228 1 1408
                                 3386   
                                 3387   ;;void CalibrateMotors(void){
                                 3388   CLINEA 0000H 0001H 0580H 0001H 001BH
00:0000 CE-F8                    3389   	push	lr
                                 3390   CBLOCK 228 2 1408
                                 3391   CRET 0000H
                                 3392   CLOCAL 47H 0002H 0024H 0002H "i" 02H 00H 01H
                                 3393   
                                 3394   ;;	for(i = 0; i<150; i++)
                                 3395   CLINEA 0000H 0001H 0583H 0002H 0017H
00:0002 00 E0                    3396   	mov	er0,	#0 
00:0004                          3397   _$L225 :
                                 3398   CBLOCK 228 3 1412
                                 3399   
                                 3400   ;;		SensorReturn[i] = 0x20;
                                 3401   CLINEA 0000H 0001H 0585H 0003H 0019H
00:0004 20 02                    3402   	mov	r2,	#020h
00:0006 09-92 00-00'             3403   	st	r2,	NEAR _SensorReturn[er0]
                                 3404   CBLOCKEND 228 3 1414
                                 3405   
                                 3406   ;;	for(i = 0; i<150; i++)
                                 3407   CLINEA 0000H 0000H 0583H 0002H 0017H
00:000A 81 E0                    3408   	add	er0,	#1 
00:000C 96 70                    3409   	cmp	r0,	#096h
00:000E 00 51                    3410   	cmpc	r1,	#00h
00:0010 F9 C5                    3411   	blts	_$L225
                                 3412   
                                 3413   ;;	sprintf(SensorReturn, "Motor Calibration Started!");
                                 3414   CLINEA 0000H 0001H 0587H 0002H 0035H
00:0012 00'00                    3415   	mov	r0,	#BYTE1 OFFSET $$S229
00:0014 00'01                    3416   	mov	r1,	#BYTE2 OFFSET $$S229
00:0016 5E-F0                    3417   	push	er0
00:0018 00'00                    3418   	mov	r0,	#BYTE1 OFFSET _SensorReturn
00:001A 00'01                    3419   	mov	r1,	#BYTE2 OFFSET _SensorReturn
00:001C 5E-F0                    3420   	push	er0
00:001E 01-F0'00-00'             3421   	bl	_sprintf_nn
00:0022 04 E1                    3422   	add	sp,	#4 
                                 3423   
                                 3424   ;;	SensorReturn[148] = 0x0D;
                                 3425   CLINEA 0000H 0001H 0588H 0002H 001AH
00:0024 0D 00                    3426   	mov	r0,	#0dh
00:0026 11-90 00-00'             3427   	st	r0,	NEAR _SensorReturn+094h
                                 3428   
                                 3429   ;;	SensorReturn[149] = 0x0A;
                                 3430   CLINEA 0000H 0001H 0589H 0002H 001AH
00:002A 0A 00                    3431   	mov	r0,	#0ah
00:002C 11-90 00-00'             3432   	st	r0,	NEAR _SensorReturn+095h
                                 3433   
                                 3434   ;;	_flgUartFin = 0;
                                 3435   CLINEA 0000H 0001H 058BH 0002H 0011H
00:0030 00 00                    3436   	mov	r0,	#00h
00:0032 11-90 00-00'             3437   	st	r0,	NEAR __flgUartFin
                                 3438   
                                 3439   ;;	uart_stop();
                                 3440   CLINEA 0000H 0001H 058CH 0002H 000DH
00:0036 01-F0'00-00'             3441   	bl	_uart_stop
                                 3442   
                                 3443   ;;	uart_startSend(SensorReturn, 150, _funcUartFin);
                                 3444   CLINEA 0000H 0001H 058EH 0002H 0031H
00:003A 00'00                    3445   	mov	r0,	#BYTE1 OFFSET __funcUartFin
00:003C 00'01                    3446   	mov	r1,	#BYTE2 OFFSET __funcUartFin
00:003E 5E-F0                    3447   	push	er0
00:0040 96 02                    3448   	mov	r2,	#096h
00:0042 00 03                    3449   	mov	r3,	#00h
00:0044 00'00                    3450   	mov	r0,	#BYTE1 OFFSET _SensorReturn
00:0046 00'01                    3451   	mov	r1,	#BYTE2 OFFSET _SensorReturn
00:0048 01-F0'00-00'             3452   	bl	_uart_startSend
00:004C 02 E1                    3453   	add	sp,	#2 
                                 3454   
                                 3455   ;;	while(_flgUartFin != 1){
                                 3456   CLINEA 0000H 0000H 058FH 0001H 0001H
00:004E 02 CE                    3457   	bal	_$L245
                                 3458   
                                 3459   ;;	while(_flgUartFin != 1){
                                 3460   CLINEA 0000H 0000H 058FH 0002H 0019H
00:0050                          3461   _$L232 :
                                 3462   CBLOCK 228 4 1423
                                 3463   
                                 3464   ;;		main_clrWDT();
                                 3465   CLINEA 0000H 0001H 0591H 0003H 0010H
00:0050 01-F0'00-00'             3466   	bl	_main_clrWDT
                                 3467   CBLOCKEND 228 4 1426
                                 3468   
                                 3469   ;;	while(_flgUartFin != 1){
                                 3470   CLINEA 0000H 0000H 058FH 0001H 0001H
00:0054                          3471   _$L245 :
00:0054 10-90 00-00'             3472   	l	r0,	NEAR __flgUartFin
00:0058 01 70                    3473   	cmp	r0,	#01h
00:005A FA C8                    3474   	bne	_$L232
                                 3475   
                                 3476   ;;	PWFP = PWMPeriod;
                                 3477   CLINEA 0000H 0001H 0596H 0002H 0012H
00:005C 12-90 00-00'             3478   	l	er0,	NEAR _PWMPeriod
00:0060 13-90 60-F9              3479   	st	er0,	0f960h
                                 3480   
                                 3481   ;;	PWEP = PWMPeriod;
                                 3482   CLINEA 0000H 0001H 0597H 0002H 0012H
00:0064 13-90 30-F9              3483   	st	er0,	0f930h
                                 3484   
                                 3485   ;;	PWDP = PWMPeriod;
                                 3486   CLINEA 0000H 0001H 0598H 0002H 0012H
00:0068 13-90 20-F9              3487   	st	er0,	0f920h
                                 3488   
                                 3489   ;;	PWCP = PWMPeriod;
                                 3490   CLINEA 0000H 0001H 0599H 0002H 0012H
00:006C 13-90 10-F9              3491   	st	er0,	0f910h
                                 3492   
                                 3493   ;;	PWF0D = PWMUpperDutyLimitCalib; //Can't be running to change
                                 3494   CLINEA 0000H 0001H 059BH 0002H 003DH
00:0070 12-90 00-00'             3495   	l	er0,	NEAR _PWMUpperDutyLimitCalib
00:0074 13-90 62-F9              3496   	st	er0,	0f962h
                                 3497   
                                 3498   ;;	PWED = PWMUpperDutyLimitCalib;
                                 3499   CLINEA 0000H 0001H 059CH 0002H 001FH
00:0078 13-90 32-F9              3500   	st	er0,	0f932h
                                 3501   
                                 3502   ;;	PWDD = PWMUpperDutyLimitCalib;
                                 3503   CLINEA 0000H 0001H 059DH 0002H 001FH
00:007C 13-90 22-F9              3504   	st	er0,	0f922h
                                 3505   
                                 3506   ;;	PWCD = PWMUpperDutyLimitCalib;
                                 3507   CLINEA 0000H 0001H 059EH 0002H 001FH
00:0080 13-90 12-F9              3508   	st	er0,	0f912h
                                 3509   
                                 3510   ;;	PFRUN = 1;
                                 3511   CLINEA 0000H 0001H 05A0H 0002H 000BH
00:0084 80-A0 73-F9              3512   	sb	0f973h.0
                                 3513   
                                 3514   ;;	PERUN = 1;
                                 3515   CLINEA 0000H 0001H 05A1H 0002H 000BH
00:0088 80-A0 37-F9              3516   	sb	0f937h.0
                                 3517   
                                 3518   ;;	PDRUN = 1;
                                 3519   CLINEA 0000H 0001H 05A2H 0002H 000BH
00:008C 80-A0 27-F9              3520   	sb	0f927h.0
                                 3521   
                                 3522   ;;	PCRUN = 1;
                                 3523   CLINEA 0000H 0001H 05A3H 0002H 000BH
00:0090 80-A0 17-F9              3524   	sb	0f917h.0
                                 3525   
                                 3526   ;;	NOP(3);
                                 3527   CLINEA 0000H 0001H 05A5H 0002H 0008H
00:0094 03 00                    3528   	mov	r0,	#03h
00:0096 01-F0'00-00'             3529   	bl	_NOP
                                 3530   
                                 3531   ;;	main_clrWDT();
                                 3532   CLINEA 0000H 0001H 05A7H 0002H 000FH
00:009A 01-F0'00-00'             3533   	bl	_main_clrWDT
                                 3534   
                                 3535   ;;	PFRUN = 0;
                                 3536   CLINEA 0000H 0001H 05ABH 0002H 000BH
00:009E 82-A0 73-F9              3537   	rb	0f973h.0
                                 3538   
                                 3539   ;;	PERUN = 0;
                                 3540   CLINEA 0000H 0001H 05ACH 0002H 000BH
00:00A2 82-A0 37-F9              3541   	rb	0f937h.0
                                 3542   
                                 3543   ;;	PDRUN = 0;
                                 3544   CLINEA 0000H 0001H 05ADH 0002H 000BH
00:00A6 82-A0 27-F9              3545   	rb	0f927h.0
                                 3546   
                                 3547   ;;	PCRUN = 0;
                                 3548   CLINEA 0000H 0001H 05AEH 0002H 000BH
00:00AA 82-A0 17-F9              3549   	rb	0f917h.0
                                 3550   
                                 3551   ;;	PWF0D = PWMLowerDutyLimitCalib; //Can't be running to change
                                 3552   CLINEA 0000H 0001H 05B0H 0002H 003DH
00:00AE 12-90 00-00'             3553   	l	er0,	NEAR _PWMLowerDutyLimitCalib
00:00B2 13-90 62-F9              3554   	st	er0,	0f962h
                                 3555   
                                 3556   ;;	PWED = PWMLowerDutyLimitCalib;
                                 3557   CLINEA 0000H 0001H 05B1H 0002H 001FH
00:00B6 13-90 32-F9              3558   	st	er0,	0f932h
                                 3559   
                                 3560   ;;	PWDD = PWMLowerDutyLimitCalib;
                                 3561   CLINEA 0000H 0001H 05B2H 0002H 001FH
00:00BA 13-90 22-F9              3562   	st	er0,	0f922h
                                 3563   
                                 3564   ;;	PWCD = PWMLowerDutyLimitCalib;
                                 3565   CLINEA 0000H 0001H 05B3H 0002H 001FH
00:00BE 13-90 12-F9              3566   	st	er0,	0f912h
                                 3567   
                                 3568   ;;	PFRUN = 1;
                                 3569   CLINEA 0000H 0001H 05B5H 0002H 000BH
00:00C2 80-A0 73-F9              3570   	sb	0f973h.0
                                 3571   
                                 3572   ;;	PERUN = 1;
                                 3573   CLINEA 0000H 0001H 05B6H 0002H 000BH
00:00C6 80-A0 37-F9              3574   	sb	0f937h.0
                                 3575   
                                 3576   ;;	PDRUN = 1;
                                 3577   CLINEA 0000H 0001H 05B7H 0002H 000BH
00:00CA 80-A0 27-F9              3578   	sb	0f927h.0
                                 3579   
                                 3580   ;;	PCRUN = 1;
                                 3581   CLINEA 0000H 0001H 05B8H 0002H 000BH
00:00CE 80-A0 17-F9              3582   	sb	0f917h.0
                                 3583   
                                 3584   ;;	NOP(3);
                                 3585   CLINEA 0000H 0001H 05BAH 0002H 0008H
00:00D2 03 00                    3586   	mov	r0,	#03h
00:00D4 01-F0'00-00'             3587   	bl	_NOP
                                 3588   
                                 3589   ;;	PFRUN = 0;
                                 3590   CLINEA 0000H 0001H 05BDH 0002H 000BH
00:00D8 82-A0 73-F9              3591   	rb	0f973h.0
                                 3592   
                                 3593   ;;	PERUN = 0;
                                 3594   CLINEA 0000H 0001H 05BEH 0002H 000BH
00:00DC 82-A0 37-F9              3595   	rb	0f937h.0
                                 3596   
                                 3597   ;;	PDRUN = 0;
                                 3598   CLINEA 0000H 0001H 05BFH 0002H 000BH
00:00E0 82-A0 27-F9              3599   	rb	0f927h.0
                                 3600   
                                 3601   ;;	PCRUN = 0;
                                 3602   CLINEA 0000H 0001H 05C0H 0002H 000BH
00:00E4 82-A0 17-F9              3603   	rb	0f917h.0
                                 3604   
                                 3605   ;;	PWF0D = PWMSafeDuty; //Can't be running to change
                                 3606   CLINEA 0000H 0001H 05C2H 0002H 0032H
00:00E8 12-90 00-00'             3607   	l	er0,	NEAR _PWMSafeDuty
00:00EC 13-90 62-F9              3608   	st	er0,	0f962h
                                 3609   
                                 3610   ;;	PWED = PWMSafeDuty;
                                 3611   CLINEA 0000H 0001H 05C3H 0002H 0014H
00:00F0 13-90 32-F9              3612   	st	er0,	0f932h
                                 3613   
                                 3614   ;;	PWDD = PWMSafeDuty;
                                 3615   CLINEA 0000H 0001H 05C4H 0002H 0014H
00:00F4 13-90 22-F9              3616   	st	er0,	0f922h
                                 3617   
                                 3618   ;;	PWCD = PWMSafeDuty;
                                 3619   CLINEA 0000H 0001H 05C5H 0002H 0014H
00:00F8 13-90 12-F9              3620   	st	er0,	0f912h
                                 3621   
                                 3622   ;;	PFRUN = 1;
                                 3623   CLINEA 0000H 0001H 05C7H 0002H 000BH
00:00FC 80-A0 73-F9              3624   	sb	0f973h.0
                                 3625   
                                 3626   ;;	PERUN = 1;
                                 3627   CLINEA 0000H 0001H 05C8H 0002H 000BH
00:0100 80-A0 37-F9              3628   	sb	0f937h.0
                                 3629   
                                 3630   ;;	PDRUN = 1;
                                 3631   CLINEA 0000H 0001H 05C9H 0002H 000BH
00:0104 80-A0 27-F9              3632   	sb	0f927h.0
                                 3633   
                                 3634   ;;	PCRUN = 1;
                                 3635   CLINEA 0000H 0001H 05CAH 0002H 000BH
00:0108 80-A0 17-F9              3636   	sb	0f917h.0
                                 3637   
                                 3638   ;;	Mag_PIDCounter = 0;
                                 3639   CLINEA 0000H 0001H 05CCH 0002H 0014H
00:010C 00 E0                    3640   	mov	er0,	#0 
00:010E 13-90 00-00'             3641   	st	er0,	NEAR _Mag_PIDCounter
                                 3642   
                                 3643   ;;	CF_Gyro_Counter = 0;
                                 3644   CLINEA 0000H 0001H 05CDH 0002H 0015H
00:0112 13-90 00-00'             3645   	st	er0,	NEAR _CF_Gyro_Counter
00:0116 13-90 00-00'             3646   	st	er0,	NEAR _CF_Gyro_Counter+02h
                                 3647   
                                 3648   ;;	Accel_PID_XRollCounter = 0;
                                 3649   CLINEA 0000H 0001H 05CEH 0002H 001CH
00:011A 13-90 00-00'             3650   	st	er0,	NEAR _Accel_PID_XRollCounter
                                 3651   
                                 3652   ;;	Accel_PID_YPitchCounter = 0;
                                 3653   CLINEA 0000H 0001H 05CFH 0002H 001DH
00:011E 13-90 00-00'             3654   	st	er0,	NEAR _Accel_PID_YPitchCounter
                                 3655   
                                 3656   ;;	Range_PIDCounter = 0;
                                 3657   CLINEA 0000H 0001H 05D0H 0002H 0016H
00:0122 13-90 00-00'             3658   	st	er0,	NEAR _Range_PIDCounter
                                 3659   
                                 3660   ;;	for(i = 0; i<150; i++)
                                 3661   CLINEA 0000H 0001H 05D3H 0002H 0017H
00:0126                          3662   _$L236 :
                                 3663   CBLOCK 228 5 1492
                                 3664   
                                 3665   ;;		SensorReturn[i] = 0x20;
                                 3666   CLINEA 0000H 0001H 05D5H 0003H 0019H
00:0126 20 02                    3667   	mov	r2,	#020h
00:0128 09-92 00-00'             3668   	st	r2,	NEAR _SensorReturn[er0]
                                 3669   CBLOCKEND 228 5 1494
                                 3670   
                                 3671   ;;	for(i = 0; i<150; i++)
                                 3672   CLINEA 0000H 0000H 05D3H 0002H 0017H
00:012C 81 E0                    3673   	add	er0,	#1 
00:012E 96 70                    3674   	cmp	r0,	#096h
00:0130 00 51                    3675   	cmpc	r1,	#00h
00:0132 F9 C5                    3676   	blts	_$L236
                                 3677   
                                 3678   ;;	sprintf(SensorReturn, "Motor Calibration Complete!");
                                 3679   CLINEA 0000H 0001H 05D7H 0002H 0036H
00:0134 00'00                    3680   	mov	r0,	#BYTE1 OFFSET $$S240
00:0136 00'01                    3681   	mov	r1,	#BYTE2 OFFSET $$S240
00:0138 5E-F0                    3682   	push	er0
00:013A 00'00                    3683   	mov	r0,	#BYTE1 OFFSET _SensorReturn
00:013C 00'01                    3684   	mov	r1,	#BYTE2 OFFSET _SensorReturn
00:013E 5E-F0                    3685   	push	er0
00:0140 01-F0'00-00'             3686   	bl	_sprintf_nn
00:0144 04 E1                    3687   	add	sp,	#4 
                                 3688   
                                 3689   ;;	SensorReturn[148] = 0x0D;
                                 3690   CLINEA 0000H 0001H 05D8H 0002H 001AH
00:0146 0D 00                    3691   	mov	r0,	#0dh
00:0148 11-90 00-00'             3692   	st	r0,	NEAR _SensorReturn+094h
                                 3693   
                                 3694   ;;	SensorReturn[149] = 0x0A;
                                 3695   CLINEA 0000H 0001H 05D9H 0002H 001AH
00:014C 0A 00                    3696   	mov	r0,	#0ah
00:014E 11-90 00-00'             3697   	st	r0,	NEAR _SensorReturn+095h
                                 3698   
                                 3699   ;;	_flgUartFin = 0;
                                 3700   CLINEA 0000H 0001H 05DBH 0002H 0011H
00:0152 00 00                    3701   	mov	r0,	#00h
00:0154 11-90 00-00'             3702   	st	r0,	NEAR __flgUartFin
                                 3703   
                                 3704   ;;	uart_stop();
                                 3705   CLINEA 0000H 0001H 05DCH 0002H 000DH
00:0158 01-F0'00-00'             3706   	bl	_uart_stop
                                 3707   
                                 3708   ;;	uart_startSend(SensorReturn, 150, _funcUartFin);
                                 3709   CLINEA 0000H 0001H 05DDH 0002H 0031H
00:015C 00'00                    3710   	mov	r0,	#BYTE1 OFFSET __funcUartFin
00:015E 00'01                    3711   	mov	r1,	#BYTE2 OFFSET __funcUartFin
00:0160 5E-F0                    3712   	push	er0
00:0162 96 02                    3713   	mov	r2,	#096h
00:0164 00 03                    3714   	mov	r3,	#00h
00:0166 00'00                    3715   	mov	r0,	#BYTE1 OFFSET _SensorReturn
00:0168 00'01                    3716   	mov	r1,	#BYTE2 OFFSET _SensorReturn
00:016A 01-F0'00-00'             3717   	bl	_uart_startSend
00:016E 02 E1                    3718   	add	sp,	#2 
                                 3719   
                                 3720   ;;	while(_flgUartFin != 1){
                                 3721   CLINEA 0000H 0000H 05DEH 0001H 0001H
00:0170 04 CE                    3722   	bal	_$L246
                                 3723   
                                 3724   ;;	while(_flgUartFin != 1){
                                 3725   CLINEA 0000H 0000H 05DEH 0002H 0019H
00:0172                          3726   _$L243 :
                                 3727   CBLOCK 228 6 1502
                                 3728   
                                 3729   ;;		NOP1000();
                                 3730   CLINEA 0000H 0001H 05DFH 0003H 000CH
00:0172 01-F0'00-00'             3731   	bl	_NOP1000
                                 3732   
                                 3733   ;;		main_clrWDT();
                                 3734   CLINEA 0000H 0001H 05E0H 0003H 0010H
00:0176 01-F0'00-00'             3735   	bl	_main_clrWDT
                                 3736   CBLOCKEND 228 6 1505
                                 3737   
                                 3738   ;;	while(_flgUartFin != 1){
                                 3739   CLINEA 0000H 0000H 05DEH 0001H 0001H
00:017A                          3740   _$L246 :
00:017A 10-90 00-00'             3741   	l	r0,	NEAR __flgUartFin
00:017E 01 70                    3742   	cmp	r0,	#01h
00:0180 F8 C8                    3743   	bne	_$L243
                                 3744   CBLOCKEND 228 2 1506
                                 3745   
                                 3746   ;;}
                                 3747   CLINEA 0000H 0001H 05E2H 0001H 0001H
00:0182 8E-F2                    3748   	pop	pc
                                 3749   CBLOCKEND 228 1 1506
                                 3750   CFUNCTIONEND 228
                                 3751   
                                 3752   
  --------------------------     3753   	rseg $$CalibrateGyro$main
                                 3754   CFUNCTION 229
                                 3755   
00:0000                          3756   _CalibrateGyro	:
                                 3757   CBLOCK 229 1 1509
                                 3758   
                                 3759   ;;void CalibrateGyro(void){
                                 3760   CLINEA 0000H 0001H 05E5H 0001H 0019H
00:0000 CE-F8                    3761   	push	lr
00:0002 5E-F4                    3762   	push	er4
                                 3763   CBLOCK 229 2 1509
                                 3764   CRET 0002H
                                 3765   CLOCAL 47H 0002H 0026H 0002H "i" 02H 00H 01H
                                 3766   
                                 3767   ;;	for(i = 0; i<150; i++)
                                 3768   CLINEA 0000H 0001H 05E9H 0002H 0017H
00:0004 00 E0                    3769   	mov	er0,	#0 
00:0006                          3770   _$L250 :
                                 3771   CBLOCK 229 3 1514
                                 3772   
                                 3773   ;;		SensorReturn[i] = 0x20;
                                 3774   CLINEA 0000H 0001H 05EBH 0003H 0019H
00:0006 20 02                    3775   	mov	r2,	#020h
00:0008 09-92 00-00'             3776   	st	r2,	NEAR _SensorReturn[er0]
                                 3777   CBLOCKEND 229 3 1516
                                 3778   
                                 3779   ;;	for(i = 0; i<150; i++)
                                 3780   CLINEA 0000H 0000H 05E9H 0002H 0017H
00:000C 81 E0                    3781   	add	er0,	#1 
00:000E 96 70                    3782   	cmp	r0,	#096h
00:0010 00 51                    3783   	cmpc	r1,	#00h
00:0012 F9 C5                    3784   	blts	_$L250
                                 3785   
                                 3786   ;;	sprintf(SensorReturn, "Gyro Calibration: Please Keep the Quad Flat and Return Any 2 chars to Start");
                                 3787   CLINEA 0000H 0001H 05EDH 0002H 0066H
00:0014 00'00                    3788   	mov	r0,	#BYTE1 OFFSET $$S254
00:0016 00'01                    3789   	mov	r1,	#BYTE2 OFFSET $$S254
00:0018 5E-F0                    3790   	push	er0
00:001A 00'00                    3791   	mov	r0,	#BYTE1 OFFSET _SensorReturn
00:001C 00'01                    3792   	mov	r1,	#BYTE2 OFFSET _SensorReturn
00:001E 5E-F0                    3793   	push	er0
00:0020 01-F0'00-00'             3794   	bl	_sprintf_nn
00:0024 04 E1                    3795   	add	sp,	#4 
                                 3796   
                                 3797   ;;	SensorReturn[148] = 0x0D;
                                 3798   CLINEA 0000H 0001H 05EFH 0002H 001AH
00:0026 0D 00                    3799   	mov	r0,	#0dh
00:0028 11-90 00-00'             3800   	st	r0,	NEAR _SensorReturn+094h
                                 3801   
                                 3802   ;;	SensorReturn[149] = 0x0A;
                                 3803   CLINEA 0000H 0001H 05F0H 0002H 001AH
00:002C 0A 00                    3804   	mov	r0,	#0ah
00:002E 11-90 00-00'             3805   	st	r0,	NEAR _SensorReturn+095h
                                 3806   
                                 3807   ;;	_flgUartFin = 0;
                                 3808   CLINEA 0000H 0001H 05F2H 0002H 0011H
00:0032 00 00                    3809   	mov	r0,	#00h
00:0034 11-90 00-00'             3810   	st	r0,	NEAR __flgUartFin
                                 3811   
                                 3812   ;;	uart_stop();
                                 3813   CLINEA 0000H 0001H 05F3H 0002H 000DH
00:0038 01-F0'00-00'             3814   	bl	_uart_stop
                                 3815   
                                 3816   ;;	uart_startSend(SensorReturn, 150, _funcUartFin);
                                 3817   CLINEA 0000H 0001H 05F4H 0002H 0031H
00:003C 00'00                    3818   	mov	r0,	#BYTE1 OFFSET __funcUartFin
00:003E 00'01                    3819   	mov	r1,	#BYTE2 OFFSET __funcUartFin
00:0040 5E-F0                    3820   	push	er0
00:0042 96 02                    3821   	mov	r2,	#096h
00:0044 00 03                    3822   	mov	r3,	#00h
00:0046 00'00                    3823   	mov	r0,	#BYTE1 OFFSET _SensorReturn
00:0048 00'01                    3824   	mov	r1,	#BYTE2 OFFSET _SensorReturn
00:004A 01-F0'00-00'             3825   	bl	_uart_startSend
00:004E 02 E1                    3826   	add	sp,	#2 
                                 3827   
                                 3828   ;;	while(_flgUartFin != 1){
                                 3829   CLINEA 0000H 0000H 05F5H 0001H 0001H
00:0050 04 CE                    3830   	bal	_$L284
                                 3831   
                                 3832   ;;	while(_flgUartFin != 1){
                                 3833   CLINEA 0000H 0000H 05F5H 0002H 0019H
00:0052                          3834   _$L257 :
                                 3835   CBLOCK 229 4 1525
                                 3836   
                                 3837   ;;		NOP1000();
                                 3838   CLINEA 0000H 0001H 05F6H 0003H 000CH
00:0052 01-F0'00-00'             3839   	bl	_NOP1000
                                 3840   
                                 3841   ;;		main_clrWDT();
                                 3842   CLINEA 0000H 0001H 05F7H 0003H 0010H
00:0056 01-F0'00-00'             3843   	bl	_main_clrWDT
                                 3844   CBLOCKEND 229 4 1528
                                 3845   
                                 3846   ;;	while(_flgUartFin != 1){
                                 3847   CLINEA 0000H 0000H 05F5H 0001H 0001H
00:005A                          3848   _$L284 :
00:005A 10-90 00-00'             3849   	l	r0,	NEAR __flgUartFin
00:005E 01 70                    3850   	cmp	r0,	#01h
00:0060 F8 C8                    3851   	bne	_$L257
                                 3852   
                                 3853   ;;	_flgUartFin = 0;
                                 3854   CLINEA 0000H 0001H 05FBH 0002H 0011H
00:0062 00 00                    3855   	mov	r0,	#00h
00:0064 11-90 00-00'             3856   	st	r0,	NEAR __flgUartFin
                                 3857   
                                 3858   ;;	uart_stop();
                                 3859   CLINEA 0000H 0001H 05FCH 0002H 000DH
00:0068 01-F0'00-00'             3860   	bl	_uart_stop
                                 3861   
                                 3862   ;;	uart_startReceive(RecWorld, 2, _funcUartFin);
                                 3863   CLINEA 0000H 0001H 05FDH 0002H 002EH
00:006C 00'00                    3864   	mov	r0,	#BYTE1 OFFSET __funcUartFin
00:006E 00'01                    3865   	mov	r1,	#BYTE2 OFFSET __funcUartFin
00:0070 5E-F0                    3866   	push	er0
00:0072 02 E2                    3867   	mov	er2,	#2 
00:0074 00'00                    3868   	mov	r0,	#BYTE1 OFFSET _RecWorld
00:0076 00'01                    3869   	mov	r1,	#BYTE2 OFFSET _RecWorld
00:0078 01-F0'00-00'             3870   	bl	_uart_startReceive
00:007C 02 E1                    3871   	add	sp,	#2 
                                 3872   
                                 3873   ;;	while(_flgUartFin != 1){
                                 3874   CLINEA 0000H 0000H 05FEH 0001H 0001H
00:007E 02 CE                    3875   	bal	_$L285
                                 3876   
                                 3877   ;;	while(_flgUartFin != 1){
                                 3878   CLINEA 0000H 0000H 05FEH 0002H 0019H
00:0080                          3879   _$L261 :
                                 3880   CBLOCK 229 5 1534
                                 3881   
                                 3882   ;;		main_clrWDT();
                                 3883   CLINEA 0000H 0001H 05FFH 0003H 0010H
00:0080 01-F0'00-00'             3884   	bl	_main_clrWDT
                                 3885   CBLOCKEND 229 5 1536
                                 3886   
                                 3887   ;;	while(_flgUartFin != 1){
                                 3888   CLINEA 0000H 0000H 05FEH 0001H 0001H
00:0084                          3889   _$L285 :
                                 3890   
                                 3891   ;;	while(_flgUartFin != 1){
                                 3892   CLINEA 0000H 0000H 05FEH 000DH 0011H
00:0084 10-90 00-00'             3893   	l	r0,	NEAR __flgUartFin
00:0088 01 70                    3894   	cmp	r0,	#01h
00:008A FA C8                    3895   	bne	_$L261
                                 3896   
                                 3897   ;;	for(i = 0; i<10; i++){
                                 3898   CLINEA 0000H 0001H 0603H 0006H 000BH
00:008C 00 E4                    3899   	mov	er4,	#0 
                                 3900   
                                 3901   ;;	for(i = 0; i<10; i++){
                                 3902   CLINEA 0000H 0000H 0603H 0013H 0015H
00:008E                          3903   _$L265 :
                                 3904   CBLOCK 229 6 1539
                                 3905   
                                 3906   ;;		_flgI2CFin = 0;																	//reset I2C completed Flag
                                 3907   CLINEA 0000H 0001H 0607H 0003H 003CH
00:008E 00 00                    3908   	mov	r0,	#00h
00:0090 11-90 00-00'             3909   	st	r0,	NEAR __flgI2CFin
                                 3910   
                                 3911   ;;		i2c_stop();																		//Make sure I2C is not currently running
                                 3912   CLINEA 0000H 0001H 0608H 0003H 0047H
00:0094 01-F0'00-00'             3913   	bl	_i2c_stop
                                 3914   
                                 3915   ;;		I20MD = 1;		//Switch to I2C Fast Operation (400kbps)
                                 3916   CLINEA 0000H 0001H 0609H 0003H 0036H
00:0098 90-A0 A4-F2              3917   	sb	0f2a4h.1
                                 3918   
                                 3919   ;;		i2c_startReceive(MPU6050Address, &AccGyro_ReadData, 1, &AccGyro_Data, 14, (cbfI2c)_funcI2CFin);	//Begin I2C Receive Command
                                 3920   CLINEA 0000H 0001H 060AH 0003H 007DH
00:009C 00'00                    3921   	mov	r0,	#BYTE1 OFFSET __funcI2CFin
00:009E 00'01                    3922   	mov	r1,	#BYTE2 OFFSET __funcI2CFin
00:00A0 5E-F0                    3923   	push	er0
00:00A2 0E E0                    3924   	mov	er0,	#14
00:00A4 5E-F0                    3925   	push	er0
00:00A6 00'00                    3926   	mov	r0,	#BYTE1 OFFSET _AccGyro_Data
00:00A8 00'01                    3927   	mov	r1,	#BYTE2 OFFSET _AccGyro_Data
00:00AA 5E-F0                    3928   	push	er0
00:00AC 01 E0                    3929   	mov	er0,	#1 
00:00AE 5E-F0                    3930   	push	er0
00:00B0 00'02                    3931   	mov	r2,	#BYTE1 OFFSET _AccGyro_ReadData
00:00B2 00'03                    3932   	mov	r3,	#BYTE2 OFFSET _AccGyro_ReadData
00:00B4 10-90 00-00'             3933   	l	r0,	NEAR _MPU6050Address
00:00B8 01-F0'00-00'             3934   	bl	_i2c_startReceive
00:00BC 08 E1                    3935   	add	sp,	#8 
                                 3936   
                                 3937   ;;		while(_flgI2CFin != 1){															//Wait for I2C commands to finish transfer
                                 3938   CLINEA 0000H 0000H 060BH 0001H 0001H
00:00BE 02 CE                    3939   	bal	_$L286
                                 3940   
                                 3941   ;;		while(_flgI2CFin != 1){															//Wait for I2C commands to finish transfer
                                 3942   CLINEA 0000H 0000H 060BH 0003H 0052H
00:00C0                          3943   _$L271 :
                                 3944   CBLOCK 229 7 1547
                                 3945   
                                 3946   ;;			main_clrWDT();	
                                 3947   CLINEA 0000H 0001H 060CH 0004H 0012H
00:00C0 01-F0'00-00'             3948   	bl	_main_clrWDT
                                 3949   CBLOCKEND 229 7 1549
                                 3950   
                                 3951   ;;		while(_flgI2CFin != 1){															//Wait for I2C commands to finish transfer
                                 3952   CLINEA 0000H 0000H 060BH 0001H 0001H
00:00C4                          3953   _$L286 :
                                 3954   
                                 3955   ;;		while(_flgI2CFin != 1){															//Wait for I2C commands to finish transfer
                                 3956   CLINEA 0000H 0000H 060BH 000DH 0011H
00:00C4 10-90 00-00'             3957   	l	r0,	NEAR __flgI2CFin
00:00C8 01 70                    3958   	cmp	r0,	#01h
00:00CA FA C8                    3959   	bne	_$L271
                                 3960   
                                 3961   ;;		Gyro_Xcal += (AccGyro_Data[8]<<8)+(AccGyro_Data[9]);
                                 3962   CLINEA 0000H 0001H 0611H 0003H 0036H
00:00CC 10-90 00-00'             3963   	l	r0,	NEAR _AccGyro_Data+08h
00:00D0 00 01                    3964   	mov	r1,	#00h
00:00D2 00-83                    3965   	mov	r3,	r0
00:00D4 00 02                    3966   	mov	r2,	#00h
00:00D6 10-90 00-00'             3967   	l	r0,	NEAR _AccGyro_Data+09h
00:00DA 26-F0                    3968   	add	er0,	er2
00:00DC 10-82                    3969   	mov	r2,	r1
00:00DE 2F-83                    3970   	extbw	er2
00:00E0 30-82                    3971   	mov	r2,	r3
00:00E2 6E-F0                    3972   	push	xr0
00:00E4 01-F0'00-00'             3973   	bl	__fildu8sw
00:00E8 12-90 00-00'             3974   	l	er0,	NEAR _Gyro_Xcal
00:00EC 12-92 00-00'             3975   	l	er2,	NEAR _Gyro_Xcal+02h
00:00F0 6E-F0                    3976   	push	xr0
00:00F2 01-F0'00-00'             3977   	bl	__faddu8sw
00:00F6 04 E1                    3978   	add	sp,	#4 
00:00F8 2E-F0                    3979   	pop	xr0
00:00FA 13-90 00-00'             3980   	st	er0,	NEAR _Gyro_Xcal
00:00FE 13-92 00-00'             3981   	st	er2,	NEAR _Gyro_Xcal+02h
                                 3982   
                                 3983   ;;		Gyro_Ycal += (AccGyro_Data[10]<<8)+(AccGyro_Data[11]);
                                 3984   CLINEA 0000H 0001H 0612H 0003H 0038H
00:0102 10-90 00-00'             3985   	l	r0,	NEAR _AccGyro_Data+0ah
00:0106 00 01                    3986   	mov	r1,	#00h
00:0108 00-83                    3987   	mov	r3,	r0
00:010A 00 02                    3988   	mov	r2,	#00h
00:010C 10-90 00-00'             3989   	l	r0,	NEAR _AccGyro_Data+0bh
00:0110 26-F0                    3990   	add	er0,	er2
00:0112 10-82                    3991   	mov	r2,	r1
00:0114 2F-83                    3992   	extbw	er2
00:0116 30-82                    3993   	mov	r2,	r3
00:0118 6E-F0                    3994   	push	xr0
00:011A 01-F0'00-00'             3995   	bl	__fildu8sw
00:011E 12-90 00-00'             3996   	l	er0,	NEAR _Gyro_Ycal
00:0122 12-92 00-00'             3997   	l	er2,	NEAR _Gyro_Ycal+02h
00:0126 6E-F0                    3998   	push	xr0
00:0128 01-F0'00-00'             3999   	bl	__faddu8sw
00:012C 04 E1                    4000   	add	sp,	#4 
00:012E 2E-F0                    4001   	pop	xr0
00:0130 13-90 00-00'             4002   	st	er0,	NEAR _Gyro_Ycal
00:0134 13-92 00-00'             4003   	st	er2,	NEAR _Gyro_Ycal+02h
                                 4004   
                                 4005   ;;		Gyro_Zcal += (AccGyro_Data[12]<<8)+(AccGyro_Data[13]);
                                 4006   CLINEA 0000H 0001H 0613H 0003H 0038H
00:0138 10-90 00-00'             4007   	l	r0,	NEAR _AccGyro_Data+0ch
00:013C 00 01                    4008   	mov	r1,	#00h
00:013E 00-83                    4009   	mov	r3,	r0
00:0140 00 02                    4010   	mov	r2,	#00h
00:0142 10-90 00-00'             4011   	l	r0,	NEAR _AccGyro_Data+0dh
00:0146 26-F0                    4012   	add	er0,	er2
00:0148 10-82                    4013   	mov	r2,	r1
00:014A 2F-83                    4014   	extbw	er2
00:014C 30-82                    4015   	mov	r2,	r3
00:014E 6E-F0                    4016   	push	xr0
00:0150 01-F0'00-00'             4017   	bl	__fildu8sw
00:0154 12-90 00-00'             4018   	l	er0,	NEAR _Gyro_Zcal
00:0158 12-92 00-00'             4019   	l	er2,	NEAR _Gyro_Zcal+02h
00:015C 6E-F0                    4020   	push	xr0
00:015E 01-F0'00-00'             4021   	bl	__faddu8sw
00:0162 04 E1                    4022   	add	sp,	#4 
00:0164 2E-F0                    4023   	pop	xr0
00:0166 13-90 00-00'             4024   	st	er0,	NEAR _Gyro_Zcal
00:016A 13-92 00-00'             4025   	st	er2,	NEAR _Gyro_Zcal+02h
                                 4026   CBLOCKEND 229 6 1556
                                 4027   
                                 4028   ;;	for(i = 0; i<10; i++){
                                 4029   CLINEA 0000H 0000H 0603H 0013H 0015H
00:016E 81 E4                    4030   	add	er4,	#1 
                                 4031   
                                 4032   ;;	for(i = 0; i<10; i++){
                                 4033   CLINEA 0000H 0000H 0603H 000DH 0011H
00:0170 0A 74                    4034   	cmp	r4,	#0ah
00:0172 00 55                    4035   	cmpc	r5,	#00h
00:0174 02 C4                    4036   	bges	_$M16
00:0176 00-F0'00-00'             4037   	b	_$L265
00:017A                          4038   _$M16 :
                                 4039   
                                 4040   ;;	Gyro_Xcal /= 10;
                                 4041   CLINEA 0000H 0001H 0615H 0002H 0011H
00:017A 12-90 00-00'             4042   	l	er0,	NEAR _Gyro_Xcal
00:017E 12-92 00-00'             4043   	l	er2,	NEAR _Gyro_Xcal+02h
00:0182 6E-F0                    4044   	push	xr0
00:0184 00 E0                    4045   	mov	er0,	#0 
00:0186 20 02                    4046   	mov	r2,	#020h
00:0188 41 03                    4047   	mov	r3,	#041h
00:018A 6E-F0                    4048   	push	xr0
00:018C 01-F0'00-00'             4049   	bl	__fdivu8sw
00:0190 04 E1                    4050   	add	sp,	#4 
00:0192 2E-F0                    4051   	pop	xr0
00:0194 13-90 00-00'             4052   	st	er0,	NEAR _Gyro_Xcal
00:0198 13-92 00-00'             4053   	st	er2,	NEAR _Gyro_Xcal+02h
                                 4054   
                                 4055   ;;	Gyro_Ycal /= 10;
                                 4056   CLINEA 0000H 0001H 0616H 0002H 0011H
00:019C 12-90 00-00'             4057   	l	er0,	NEAR _Gyro_Ycal
00:01A0 12-92 00-00'             4058   	l	er2,	NEAR _Gyro_Ycal+02h
00:01A4 6E-F0                    4059   	push	xr0
00:01A6 00 E0                    4060   	mov	er0,	#0 
00:01A8 20 02                    4061   	mov	r2,	#020h
00:01AA 41 03                    4062   	mov	r3,	#041h
00:01AC 6E-F0                    4063   	push	xr0
00:01AE 01-F0'00-00'             4064   	bl	__fdivu8sw
00:01B2 04 E1                    4065   	add	sp,	#4 
00:01B4 2E-F0                    4066   	pop	xr0
00:01B6 13-90 00-00'             4067   	st	er0,	NEAR _Gyro_Ycal
00:01BA 13-92 00-00'             4068   	st	er2,	NEAR _Gyro_Ycal+02h
                                 4069   
                                 4070   ;;	Gyro_Zcal /= 10;
                                 4071   CLINEA 0000H 0001H 0617H 0002H 0011H
00:01BE 12-90 00-00'             4072   	l	er0,	NEAR _Gyro_Zcal
00:01C2 12-92 00-00'             4073   	l	er2,	NEAR _Gyro_Zcal+02h
00:01C6 6E-F0                    4074   	push	xr0
00:01C8 00 E0                    4075   	mov	er0,	#0 
00:01CA 20 02                    4076   	mov	r2,	#020h
00:01CC 41 03                    4077   	mov	r3,	#041h
00:01CE 6E-F0                    4078   	push	xr0
00:01D0 01-F0'00-00'             4079   	bl	__fdivu8sw
00:01D4 04 E1                    4080   	add	sp,	#4 
00:01D6 2E-F0                    4081   	pop	xr0
00:01D8 13-90 00-00'             4082   	st	er0,	NEAR _Gyro_Zcal
00:01DC 13-92 00-00'             4083   	st	er2,	NEAR _Gyro_Zcal+02h
                                 4084   
                                 4085   ;;	for(i = 0; i<150; i++)
                                 4086   CLINEA 0000H 0001H 061AH 0002H 0017H
00:01E0 00 E0                    4087   	mov	er0,	#0 
00:01E2                          4088   _$L275 :
                                 4089   CBLOCK 229 8 1563
                                 4090   
                                 4091   ;;		SensorReturn[i] = 0x20;
                                 4092   CLINEA 0000H 0001H 061CH 0003H 0019H
00:01E2 20 02                    4093   	mov	r2,	#020h
00:01E4 09-92 00-00'             4094   	st	r2,	NEAR _SensorReturn[er0]
                                 4095   CBLOCKEND 229 8 1565
                                 4096   
                                 4097   ;;	for(i = 0; i<150; i++)
                                 4098   CLINEA 0000H 0000H 061AH 0002H 0017H
00:01E8 81 E0                    4099   	add	er0,	#1 
                                 4100   
                                 4101   ;;	for(i = 0; i<150; i++)
                                 4102   CLINEA 0000H 0000H 061AH 000DH 0011H
00:01EA 96 70                    4103   	cmp	r0,	#096h
00:01EC 00 51                    4104   	cmpc	r1,	#00h
00:01EE F9 C5                    4105   	blts	_$L275
                                 4106   
                                 4107   ;;	sprintf(SensorReturn, "Gyro Calibration Complete!");
                                 4108   CLINEA 0000H 0001H 061EH 0002H 0035H
00:01F0 00'00                    4109   	mov	r0,	#BYTE1 OFFSET $$S279
00:01F2 00'01                    4110   	mov	r1,	#BYTE2 OFFSET $$S279
00:01F4 5E-F0                    4111   	push	er0
00:01F6 00'00                    4112   	mov	r0,	#BYTE1 OFFSET _SensorReturn
00:01F8 00'01                    4113   	mov	r1,	#BYTE2 OFFSET _SensorReturn
00:01FA 5E-F0                    4114   	push	er0
00:01FC 01-F0'00-00'             4115   	bl	_sprintf_nn
00:0200 04 E1                    4116   	add	sp,	#4 
                                 4117   
                                 4118   ;;	SensorReturn[148] = 0x0D;
                                 4119   CLINEA 0000H 0001H 061FH 0002H 001AH
00:0202 0D 00                    4120   	mov	r0,	#0dh
00:0204 11-90 00-00'             4121   	st	r0,	NEAR _SensorReturn+094h
                                 4122   
                                 4123   ;;	SensorReturn[149] = 0x0A;
                                 4124   CLINEA 0000H 0001H 0620H 0002H 001AH
00:0208 0A 00                    4125   	mov	r0,	#0ah
00:020A 11-90 00-00'             4126   	st	r0,	NEAR _SensorReturn+095h
                                 4127   
                                 4128   ;;	_flgUartFin = 0;
                                 4129   CLINEA 0000H 0001H 0622H 0002H 0011H
00:020E 00 00                    4130   	mov	r0,	#00h
00:0210 11-90 00-00'             4131   	st	r0,	NEAR __flgUartFin
                                 4132   
                                 4133   ;;	uart_stop();
                                 4134   CLINEA 0000H 0001H 0623H 0002H 000DH
00:0214 01-F0'00-00'             4135   	bl	_uart_stop
                                 4136   
                                 4137   ;;	uart_startSend(SensorReturn, 150, _funcUartFin);
                                 4138   CLINEA 0000H 0001H 0624H 0002H 0031H
00:0218 00'00                    4139   	mov	r0,	#BYTE1 OFFSET __funcUartFin
00:021A 00'01                    4140   	mov	r1,	#BYTE2 OFFSET __funcUartFin
00:021C 5E-F0                    4141   	push	er0
00:021E 96 02                    4142   	mov	r2,	#096h
00:0220 00 03                    4143   	mov	r3,	#00h
00:0222 00'00                    4144   	mov	r0,	#BYTE1 OFFSET _SensorReturn
00:0224 00'01                    4145   	mov	r1,	#BYTE2 OFFSET _SensorReturn
00:0226 01-F0'00-00'             4146   	bl	_uart_startSend
00:022A 02 E1                    4147   	add	sp,	#2 
                                 4148   
                                 4149   ;;	while(_flgUartFin != 1){
                                 4150   CLINEA 0000H 0000H 0625H 0001H 0001H
00:022C 04 CE                    4151   	bal	_$L287
                                 4152   
                                 4153   ;;	while(_flgUartFin != 1){
                                 4154   CLINEA 0000H 0000H 0625H 0002H 0019H
00:022E                          4155   _$L282 :
                                 4156   CBLOCK 229 9 1573
                                 4157   
                                 4158   ;;		NOP1000();
                                 4159   CLINEA 0000H 0001H 0626H 0003H 000CH
00:022E 01-F0'00-00'             4160   	bl	_NOP1000
                                 4161   
                                 4162   ;;		main_clrWDT();
                                 4163   CLINEA 0000H 0001H 0627H 0003H 0010H
00:0232 01-F0'00-00'             4164   	bl	_main_clrWDT
                                 4165   CBLOCKEND 229 9 1576
                                 4166   
                                 4167   ;;	while(_flgUartFin != 1){
                                 4168   CLINEA 0000H 0000H 0625H 0001H 0001H
00:0236                          4169   _$L287 :
                                 4170   
                                 4171   ;;	while(_flgUartFin != 1){
                                 4172   CLINEA 0000H 0000H 0625H 000DH 0011H
00:0236 10-90 00-00'             4173   	l	r0,	NEAR __flgUartFin
00:023A 01 70                    4174   	cmp	r0,	#01h
00:023C F8 C8                    4175   	bne	_$L282
                                 4176   CBLOCKEND 229 2 1577
                                 4177   
                                 4178   ;;}
                                 4179   CLINEA 0000H 0001H 0629H 0001H 0001H
00:023E 1E-F4                    4180   	pop	er4
00:0240 8E-F2                    4181   	pop	pc
                                 4182   CBLOCKEND 229 1 1577
                                 4183   CFUNCTIONEND 229
                                 4184   
                                 4185   
  --------------------------     4186   	rseg $$CalibrateAccel$main
                                 4187   CFUNCTION 230
                                 4188   
00:0000                          4189   _CalibrateAccel	:
                                 4190   CBLOCK 230 1 1579
                                 4191   
                                 4192   ;;void CalibrateAccel(void){
                                 4193   CLINEA 0000H 0001H 062BH 0001H 001AH
00:0000 CE-F8                    4194   	push	lr
00:0002 5E-F8                    4195   	push	er8
                                 4196   CBLOCK 230 2 1579
                                 4197   CRET 0002H
                                 4198   CLOCAL 47H 0002H 0028H 0002H "i" 02H 00H 01H
                                 4199   
                                 4200   ;;	for(i = 0; i<150; i++)
                                 4201   CLINEA 0000H 0001H 062FH 0002H 0017H
00:0004 00 E0                    4202   	mov	er0,	#0 
00:0006                          4203   _$L291 :
                                 4204   CBLOCK 230 3 1584
                                 4205   
                                 4206   ;;		SensorReturn[i] = 0x20;
                                 4207   CLINEA 0000H 0001H 0631H 0003H 0019H
00:0006 20 02                    4208   	mov	r2,	#020h
00:0008 09-92 00-00'             4209   	st	r2,	NEAR _SensorReturn[er0]
                                 4210   CBLOCKEND 230 3 1586
                                 4211   
                                 4212   ;;	for(i = 0; i<150; i++)
                                 4213   CLINEA 0000H 0000H 062FH 0002H 0017H
00:000C 81 E0                    4214   	add	er0,	#1 
                                 4215   
                                 4216   ;;	for(i = 0; i<150; i++)
                                 4217   CLINEA 0000H 0000H 062FH 000DH 0011H
00:000E 96 70                    4218   	cmp	r0,	#096h
00:0010 00 51                    4219   	cmpc	r1,	#00h
00:0012 F9 C5                    4220   	blts	_$L291
                                 4221   
                                 4222   ;;	sprintf(SensorReturn, "Accel Calibration: Keep Quad Flat! Return any 2 chars to Start");
                                 4223   CLINEA 0000H 0001H 0633H 0002H 0059H
00:0014 00'00                    4224   	mov	r0,	#BYTE1 OFFSET $$S295
00:0016 00'01                    4225   	mov	r1,	#BYTE2 OFFSET $$S295
00:0018 5E-F0                    4226   	push	er0
00:001A 00'00                    4227   	mov	r0,	#BYTE1 OFFSET _SensorReturn
00:001C 00'01                    4228   	mov	r1,	#BYTE2 OFFSET _SensorReturn
00:001E 5E-F0                    4229   	push	er0
00:0020 01-F0'00-00'             4230   	bl	_sprintf_nn
00:0024 04 E1                    4231   	add	sp,	#4 
                                 4232   
                                 4233   ;;	SensorReturn[148] = 0x0D;
                                 4234   CLINEA 0000H 0001H 0634H 0002H 001AH
00:0026 0D 00                    4235   	mov	r0,	#0dh
00:0028 11-90 00-00'             4236   	st	r0,	NEAR _SensorReturn+094h
                                 4237   
                                 4238   ;;	SensorReturn[149] = 0x0A;
                                 4239   CLINEA 0000H 0001H 0635H 0002H 001AH
00:002C 0A 00                    4240   	mov	r0,	#0ah
00:002E 11-90 00-00'             4241   	st	r0,	NEAR _SensorReturn+095h
                                 4242   
                                 4243   ;;	_flgUartFin = 0;
                                 4244   CLINEA 0000H 0001H 0637H 0002H 0011H
00:0032 00 00                    4245   	mov	r0,	#00h
00:0034 11-90 00-00'             4246   	st	r0,	NEAR __flgUartFin
                                 4247   
                                 4248   ;;	uart_stop();
                                 4249   CLINEA 0000H 0001H 0638H 0002H 000DH
00:0038 01-F0'00-00'             4250   	bl	_uart_stop
                                 4251   
                                 4252   ;;	uart_startSend(SensorReturn, 150, _funcUartFin);
                                 4253   CLINEA 0000H 0001H 0639H 0002H 0031H
00:003C 00'00                    4254   	mov	r0,	#BYTE1 OFFSET __funcUartFin
00:003E 00'01                    4255   	mov	r1,	#BYTE2 OFFSET __funcUartFin
00:0040 5E-F0                    4256   	push	er0
00:0042 96 02                    4257   	mov	r2,	#096h
00:0044 00 03                    4258   	mov	r3,	#00h
00:0046 00'00                    4259   	mov	r0,	#BYTE1 OFFSET _SensorReturn
00:0048 00'01                    4260   	mov	r1,	#BYTE2 OFFSET _SensorReturn
00:004A 01-F0'00-00'             4261   	bl	_uart_startSend
00:004E 02 E1                    4262   	add	sp,	#2 
                                 4263   
                                 4264   ;;	while(_flgUartFin != 1){
                                 4265   CLINEA 0000H 0000H 063AH 0001H 0001H
00:0050 04 CE                    4266   	bal	_$L381
                                 4267   
                                 4268   ;;	while(_flgUartFin != 1){
                                 4269   CLINEA 0000H 0000H 063AH 0002H 0019H
00:0052                          4270   _$L298 :
                                 4271   CBLOCK 230 4 1594
                                 4272   
                                 4273   ;;		NOP1000();
                                 4274   CLINEA 0000H 0001H 063BH 0003H 000CH
00:0052 01-F0'00-00'             4275   	bl	_NOP1000
                                 4276   
                                 4277   ;;		main_clrWDT();
                                 4278   CLINEA 0000H 0001H 063CH 0003H 0010H
00:0056 01-F0'00-00'             4279   	bl	_main_clrWDT
                                 4280   CBLOCKEND 230 4 1597
                                 4281   
                                 4282   ;;	while(_flgUartFin != 1){
                                 4283   CLINEA 0000H 0000H 063AH 0001H 0001H
00:005A                          4284   _$L381 :
                                 4285   
                                 4286   ;;	while(_flgUartFin != 1){
                                 4287   CLINEA 0000H 0000H 063AH 000DH 0011H
00:005A 10-90 00-00'             4288   	l	r0,	NEAR __flgUartFin
00:005E 01 70                    4289   	cmp	r0,	#01h
00:0060 F8 C8                    4290   	bne	_$L298
                                 4291   
                                 4292   ;;	_flgUartFin = 0;
                                 4293   CLINEA 0000H 0001H 063FH 0002H 0011H
00:0062 00 00                    4294   	mov	r0,	#00h
00:0064 11-90 00-00'             4295   	st	r0,	NEAR __flgUartFin
                                 4296   
                                 4297   ;;	uart_stop();
                                 4298   CLINEA 0000H 0001H 0640H 0002H 000DH
00:0068 01-F0'00-00'             4299   	bl	_uart_stop
                                 4300   
                                 4301   ;;	uart_startReceive(RecWorld, 2, _funcUartFin);
                                 4302   CLINEA 0000H 0001H 0641H 0002H 002EH
00:006C 00'00                    4303   	mov	r0,	#BYTE1 OFFSET __funcUartFin
00:006E 00'01                    4304   	mov	r1,	#BYTE2 OFFSET __funcUartFin
00:0070 5E-F0                    4305   	push	er0
00:0072 02 E2                    4306   	mov	er2,	#2 
00:0074 00'00                    4307   	mov	r0,	#BYTE1 OFFSET _RecWorld
00:0076 00'01                    4308   	mov	r1,	#BYTE2 OFFSET _RecWorld
00:0078 01-F0'00-00'             4309   	bl	_uart_startReceive
00:007C 02 E1                    4310   	add	sp,	#2 
                                 4311   
                                 4312   ;;	while(_flgUartFin != 1){
                                 4313   CLINEA 0000H 0000H 0642H 0001H 0001H
00:007E 02 CE                    4314   	bal	_$L382
                                 4315   
                                 4316   ;;	while(_flgUartFin != 1){
                                 4317   CLINEA 0000H 0000H 0642H 0002H 0019H
00:0080                          4318   _$L302 :
                                 4319   CBLOCK 230 5 1602
                                 4320   
                                 4321   ;;		main_clrWDT();
                                 4322   CLINEA 0000H 0001H 0643H 0003H 0010H
00:0080 01-F0'00-00'             4323   	bl	_main_clrWDT
                                 4324   CBLOCKEND 230 5 1604
                                 4325   
                                 4326   ;;	while(_flgUartFin != 1){
                                 4327   CLINEA 0000H 0000H 0642H 0001H 0001H
00:0084                          4328   _$L382 :
                                 4329   
                                 4330   ;;	while(_flgUartFin != 1){
                                 4331   CLINEA 0000H 0000H 0642H 000DH 0011H
00:0084 10-90 00-00'             4332   	l	r0,	NEAR __flgUartFin
00:0088 01 70                    4333   	cmp	r0,	#01h
00:008A FA C8                    4334   	bne	_$L302
                                 4335   
                                 4336   ;;	for(i = 0; i<10; i++){
                                 4337   CLINEA 0000H 0001H 0646H 0006H 000BH
00:008C 00 E8                    4338   	mov	er8,	#0 
                                 4339   
                                 4340   ;;	for(i = 0; i<10; i++){
                                 4341   CLINEA 0000H 0000H 0646H 0013H 0015H
00:008E                          4342   _$L306 :
                                 4343   CBLOCK 230 6 1606
                                 4344   
                                 4345   ;;		_flgI2CFin = 0;																	//reset I2C completed Flag
                                 4346   CLINEA 0000H 0001H 064AH 0003H 003CH
00:008E 00 00                    4347   	mov	r0,	#00h
00:0090 11-90 00-00'             4348   	st	r0,	NEAR __flgI2CFin
                                 4349   
                                 4350   ;;		i2c_stop();																		//Make sure I2C is not currently running
                                 4351   CLINEA 0000H 0001H 064BH 0003H 0047H
00:0094 01-F0'00-00'             4352   	bl	_i2c_stop
                                 4353   
                                 4354   ;;		I20MD = 1;		//Switch to I2C Fast Operation (400kbps)
                                 4355   CLINEA 0000H 0001H 064CH 0003H 0036H
00:0098 90-A0 A4-F2              4356   	sb	0f2a4h.1
                                 4357   
                                 4358   ;;		i2c_startReceive(MPU6050Address, &AccGyro_ReadData, 1, &AccGyro_Data, 14, (cbfI2c)_funcI2CFin);	//Begin I2C Receive Command
                                 4359   CLINEA 0000H 0001H 064DH 0003H 007DH
00:009C 00'00                    4360   	mov	r0,	#BYTE1 OFFSET __funcI2CFin
00:009E 00'01                    4361   	mov	r1,	#BYTE2 OFFSET __funcI2CFin
00:00A0 5E-F0                    4362   	push	er0
00:00A2 0E E0                    4363   	mov	er0,	#14
00:00A4 5E-F0                    4364   	push	er0
00:00A6 00'00                    4365   	mov	r0,	#BYTE1 OFFSET _AccGyro_Data
00:00A8 00'01                    4366   	mov	r1,	#BYTE2 OFFSET _AccGyro_Data
00:00AA 5E-F0                    4367   	push	er0
00:00AC 01 E0                    4368   	mov	er0,	#1 
00:00AE 5E-F0                    4369   	push	er0
00:00B0 00'02                    4370   	mov	r2,	#BYTE1 OFFSET _AccGyro_ReadData
00:00B2 00'03                    4371   	mov	r3,	#BYTE2 OFFSET _AccGyro_ReadData
00:00B4 10-90 00-00'             4372   	l	r0,	NEAR _MPU6050Address
00:00B8 01-F0'00-00'             4373   	bl	_i2c_startReceive
00:00BC 08 E1                    4374   	add	sp,	#8 
                                 4375   
                                 4376   ;;		while(_flgI2CFin != 1){															//Wait for I2C commands to finish transfer
                                 4377   CLINEA 0000H 0000H 064EH 0001H 0001H
00:00BE 02 CE                    4378   	bal	_$L383
                                 4379   
                                 4380   ;;		while(_flgI2CFin != 1){															//Wait for I2C commands to finish transfer
                                 4381   CLINEA 0000H 0000H 064EH 0003H 0052H
00:00C0                          4382   _$L312 :
                                 4383   CBLOCK 230 7 1614
                                 4384   
                                 4385   ;;			main_clrWDT();	
                                 4386   CLINEA 0000H 0001H 064FH 0004H 0012H
00:00C0 01-F0'00-00'             4387   	bl	_main_clrWDT
                                 4388   CBLOCKEND 230 7 1616
                                 4389   
                                 4390   ;;		while(_flgI2CFin != 1){															//Wait for I2C commands to finish transfer
                                 4391   CLINEA 0000H 0000H 064EH 0001H 0001H
00:00C4                          4392   _$L383 :
                                 4393   
                                 4394   ;;		while(_flgI2CFin != 1){															//Wait for I2C commands to finish transfer
                                 4395   CLINEA 0000H 0000H 064EH 000DH 0011H
00:00C4 10-90 00-00'             4396   	l	r0,	NEAR __flgI2CFin
00:00C8 01 70                    4397   	cmp	r0,	#01h
00:00CA FA C8                    4398   	bne	_$L312
                                 4399   
                                 4400   ;;		Accel_Xcal[1] += (AccGyro_Data[0]<<8)+(AccGyro_Data[1]);
                                 4401   CLINEA 0000H 0001H 0655H 0003H 003AH
00:00CC 10-90 00-00'             4402   	l	r0,	NEAR _AccGyro_Data+01h
00:00D0 00 01                    4403   	mov	r1,	#00h
00:00D2 10-92 00-00'             4404   	l	r2,	NEAR _AccGyro_Data
00:00D6 20-83                    4405   	mov	r3,	r2
00:00D8 00 02                    4406   	mov	r2,	#00h
00:00DA 26-F0                    4407   	add	er0,	er2
00:00DC 10-82                    4408   	mov	r2,	r1
00:00DE 2F-83                    4409   	extbw	er2
00:00E0 30-82                    4410   	mov	r2,	r3
00:00E2 6E-F0                    4411   	push	xr0
00:00E4 01-F0'00-00'             4412   	bl	__fildu8sw
00:00E8 2E-F0                    4413   	pop	xr0
00:00EA 6E-F0                    4414   	push	xr0
00:00EC 12-90 00-00'             4415   	l	er0,	NEAR _Accel_Xcal+04h
00:00F0 12-92 00-00'             4416   	l	er2,	NEAR _Accel_Xcal+06h
00:00F4 6E-F0                    4417   	push	xr0
00:00F6 01-F0'00-00'             4418   	bl	__faddu8sw
00:00FA 04 E1                    4419   	add	sp,	#4 
00:00FC 2E-F0                    4420   	pop	xr0
00:00FE 13-90 00-00'             4421   	st	er0,	NEAR _Accel_Xcal+04h
00:0102 13-92 00-00'             4422   	st	er2,	NEAR _Accel_Xcal+06h
                                 4423   
                                 4424   ;;		Accel_Ycal[1] += (AccGyro_Data[2]<<8)+(AccGyro_Data[3]);
                                 4425   CLINEA 0000H 0001H 0656H 0003H 003AH
00:0106 10-90 00-00'             4426   	l	r0,	NEAR _AccGyro_Data+02h
00:010A 00 01                    4427   	mov	r1,	#00h
00:010C 00-83                    4428   	mov	r3,	r0
00:010E 00 02                    4429   	mov	r2,	#00h
00:0110 10-90 00-00'             4430   	l	r0,	NEAR _AccGyro_Data+03h
00:0114 26-F0                    4431   	add	er0,	er2
00:0116 10-82                    4432   	mov	r2,	r1
00:0118 2F-83                    4433   	extbw	er2
00:011A 30-82                    4434   	mov	r2,	r3
00:011C 6E-F0                    4435   	push	xr0
00:011E 01-F0'00-00'             4436   	bl	__fildu8sw
00:0122 2E-F0                    4437   	pop	xr0
00:0124 6E-F0                    4438   	push	xr0
00:0126 12-90 00-00'             4439   	l	er0,	NEAR _Accel_Ycal+04h
00:012A 12-92 00-00'             4440   	l	er2,	NEAR _Accel_Ycal+06h
00:012E 6E-F0                    4441   	push	xr0
00:0130 01-F0'00-00'             4442   	bl	__faddu8sw
00:0134 04 E1                    4443   	add	sp,	#4 
00:0136 2E-F0                    4444   	pop	xr0
00:0138 13-90 00-00'             4445   	st	er0,	NEAR _Accel_Ycal+04h
00:013C 13-92 00-00'             4446   	st	er2,	NEAR _Accel_Ycal+06h
                                 4447   CBLOCKEND 230 6 1623
                                 4448   
                                 4449   ;;	for(i = 0; i<10; i++){
                                 4450   CLINEA 0000H 0000H 0646H 0013H 0015H
00:0140 81 E8                    4451   	add	er8,	#1 
                                 4452   
                                 4453   ;;	for(i = 0; i<10; i++){
                                 4454   CLINEA 0000H 0000H 0646H 000DH 0011H
00:0142 0A 78                    4455   	cmp	r8,	#0ah
00:0144 00 59                    4456   	cmpc	r9,	#00h
00:0146 02 C4                    4457   	bges	_$M18
00:0148 00-F0'00-00'             4458   	b	_$L306
00:014C                          4459   _$M18 :
                                 4460   
                                 4461   ;;	Accel_Xcal[1] /= 10;
                                 4462   CLINEA 0000H 0001H 0658H 0002H 0015H
00:014C 12-90 00-00'             4463   	l	er0,	NEAR _Accel_Xcal+04h
00:0150 12-92 00-00'             4464   	l	er2,	NEAR _Accel_Xcal+06h
00:0154 6E-F0                    4465   	push	xr0
00:0156 00 E0                    4466   	mov	er0,	#0 
00:0158 20 02                    4467   	mov	r2,	#020h
00:015A 41 03                    4468   	mov	r3,	#041h
00:015C 6E-F0                    4469   	push	xr0
00:015E 01-F0'00-00'             4470   	bl	__fdivu8sw
00:0162 04 E1                    4471   	add	sp,	#4 
00:0164 2E-F0                    4472   	pop	xr0
00:0166 13-90 00-00'             4473   	st	er0,	NEAR _Accel_Xcal+04h
00:016A 13-92 00-00'             4474   	st	er2,	NEAR _Accel_Xcal+06h
                                 4475   
                                 4476   ;;	Accel_Ycal[1] /= 10;
                                 4477   CLINEA 0000H 0001H 0659H 0002H 0015H
00:016E 12-90 00-00'             4478   	l	er0,	NEAR _Accel_Ycal+04h
00:0172 12-92 00-00'             4479   	l	er2,	NEAR _Accel_Ycal+06h
00:0176 6E-F0                    4480   	push	xr0
00:0178 00 E0                    4481   	mov	er0,	#0 
00:017A 20 02                    4482   	mov	r2,	#020h
00:017C 41 03                    4483   	mov	r3,	#041h
00:017E 6E-F0                    4484   	push	xr0
00:0180 01-F0'00-00'             4485   	bl	__fdivu8sw
00:0184 04 E1                    4486   	add	sp,	#4 
00:0186 2E-F0                    4487   	pop	xr0
00:0188 13-90 00-00'             4488   	st	er0,	NEAR _Accel_Ycal+04h
00:018C 13-92 00-00'             4489   	st	er2,	NEAR _Accel_Ycal+06h
                                 4490   
                                 4491   ;;	for(i = 0; i<150; i++)
                                 4492   CLINEA 0000H 0001H 065BH 0002H 0017H
00:0190 00 E0                    4493   	mov	er0,	#0 
00:0192                          4494   _$L316 :
                                 4495   CBLOCK 230 8 1628
                                 4496   
                                 4497   ;;		SensorReturn[i] = 0x20;
                                 4498   CLINEA 0000H 0001H 065DH 0003H 0019H
00:0192 20 02                    4499   	mov	r2,	#020h
00:0194 09-92 00-00'             4500   	st	r2,	NEAR _SensorReturn[er0]
                                 4501   CBLOCKEND 230 8 1630
                                 4502   
                                 4503   ;;	for(i = 0; i<150; i++)
                                 4504   CLINEA 0000H 0000H 065BH 0002H 0017H
00:0198 81 E0                    4505   	add	er0,	#1 
                                 4506   
                                 4507   ;;	for(i = 0; i<150; i++)
                                 4508   CLINEA 0000H 0000H 065BH 000DH 0012H
00:019A 96 70                    4509   	cmp	r0,	#096h
00:019C 00 51                    4510   	cmpc	r1,	#00h
00:019E F9 C5                    4511   	blts	_$L316
                                 4512   
                                 4513   ;;	for(i = 0; i<150; i++)
                                 4514   CLINEA 0000H 0001H 0661H 0006H 000BH
00:01A0 00 E0                    4515   	mov	er0,	#0 
                                 4516   
                                 4517   ;;	for(i = 0; i<150; i++)
                                 4518   CLINEA 0000H 0000H 0661H 0014H 0016H
00:01A2                          4519   _$L322 :
                                 4520   CBLOCK 230 9 1634
                                 4521   
                                 4522   ;;		SensorReturn[i] = 0x20;
                                 4523   CLINEA 0000H 0001H 0663H 0003H 0019H
00:01A2 20 02                    4524   	mov	r2,	#020h
00:01A4 09-92 00-00'             4525   	st	r2,	NEAR _SensorReturn[er0]
                                 4526   CBLOCKEND 230 9 1636
                                 4527   
                                 4528   ;;	for(i = 0; i<150; i++)
                                 4529   CLINEA 0000H 0000H 0661H 0014H 0016H
00:01A8 81 E0                    4530   	add	er0,	#1 
                                 4531   
                                 4532   ;;	for(i = 0; i<150; i++)
                                 4533   CLINEA 0000H 0000H 0661H 000DH 0012H
00:01AA 96 70                    4534   	cmp	r0,	#096h
00:01AC 00 51                    4535   	cmpc	r1,	#00h
00:01AE F9 C5                    4536   	blts	_$L322
                                 4537   
                                 4538   ;;	sprintf(SensorReturn, "Accel Calibration: Tilt the Quad 90deg in the ROLL Direction! Return any 2 chars to Start");
                                 4539   CLINEA 0000H 0001H 0665H 0002H 0074H
00:01B0 00'00                    4540   	mov	r0,	#BYTE1 OFFSET $$S326
00:01B2 00'01                    4541   	mov	r1,	#BYTE2 OFFSET $$S326
00:01B4 5E-F0                    4542   	push	er0
00:01B6 00'00                    4543   	mov	r0,	#BYTE1 OFFSET _SensorReturn
00:01B8 00'01                    4544   	mov	r1,	#BYTE2 OFFSET _SensorReturn
00:01BA 5E-F0                    4545   	push	er0
00:01BC 01-F0'00-00'             4546   	bl	_sprintf_nn
00:01C0 04 E1                    4547   	add	sp,	#4 
                                 4548   
                                 4549   ;;	SensorReturn[148] = 0x0D;
                                 4550   CLINEA 0000H 0001H 0666H 0002H 001AH
00:01C2 0D 00                    4551   	mov	r0,	#0dh
00:01C4 11-90 00-00'             4552   	st	r0,	NEAR _SensorReturn+094h
                                 4553   
                                 4554   ;;	SensorReturn[149] = 0x0A;
                                 4555   CLINEA 0000H 0001H 0667H 0002H 001AH
00:01C8 0A 00                    4556   	mov	r0,	#0ah
00:01CA 11-90 00-00'             4557   	st	r0,	NEAR _SensorReturn+095h
                                 4558   
                                 4559   ;;	_flgUartFin = 0;
                                 4560   CLINEA 0000H 0001H 0669H 0002H 0011H
00:01CE 00 00                    4561   	mov	r0,	#00h
00:01D0 11-90 00-00'             4562   	st	r0,	NEAR __flgUartFin
                                 4563   
                                 4564   ;;	uart_stop();
                                 4565   CLINEA 0000H 0001H 066AH 0002H 000DH
00:01D4 01-F0'00-00'             4566   	bl	_uart_stop
                                 4567   
                                 4568   ;;	uart_startSend(SensorReturn, 150, _funcUartFin);
                                 4569   CLINEA 0000H 0001H 066BH 0002H 0031H
00:01D8 00'00                    4570   	mov	r0,	#BYTE1 OFFSET __funcUartFin
00:01DA 00'01                    4571   	mov	r1,	#BYTE2 OFFSET __funcUartFin
00:01DC 5E-F0                    4572   	push	er0
00:01DE 96 02                    4573   	mov	r2,	#096h
00:01E0 00 03                    4574   	mov	r3,	#00h
00:01E2 00'00                    4575   	mov	r0,	#BYTE1 OFFSET _SensorReturn
00:01E4 00'01                    4576   	mov	r1,	#BYTE2 OFFSET _SensorReturn
00:01E6 01-F0'00-00'             4577   	bl	_uart_startSend
00:01EA 02 E1                    4578   	add	sp,	#2 
                                 4579   
                                 4580   ;;	while(_flgUartFin != 1){
                                 4581   CLINEA 0000H 0000H 066CH 0001H 0001H
00:01EC 04 CE                    4582   	bal	_$L384
                                 4583   
                                 4584   ;;	while(_flgUartFin != 1){
                                 4585   CLINEA 0000H 0000H 066CH 0002H 0019H
00:01EE                          4586   _$L329 :
                                 4587   CBLOCK 230 10 1644
                                 4588   
                                 4589   ;;		NOP1000();
                                 4590   CLINEA 0000H 0001H 066DH 0003H 000CH
00:01EE 01-F0'00-00'             4591   	bl	_NOP1000
                                 4592   
                                 4593   ;;		main_clrWDT();
                                 4594   CLINEA 0000H 0001H 066EH 0003H 0010H
00:01F2 01-F0'00-00'             4595   	bl	_main_clrWDT
                                 4596   CBLOCKEND 230 10 1647
                                 4597   
                                 4598   ;;	while(_flgUartFin != 1){
                                 4599   CLINEA 0000H 0000H 066CH 0001H 0001H
00:01F6                          4600   _$L384 :
                                 4601   
                                 4602   ;;	while(_flgUartFin != 1){
                                 4603   CLINEA 0000H 0000H 066CH 000DH 0012H
00:01F6 10-90 00-00'             4604   	l	r0,	NEAR __flgUartFin
00:01FA 01 70                    4605   	cmp	r0,	#01h
00:01FC F8 C8                    4606   	bne	_$L329
                                 4607   
                                 4608   ;;	_flgUartFin = 0;
                                 4609   CLINEA 0000H 0001H 0671H 0002H 0011H
00:01FE 00 00                    4610   	mov	r0,	#00h
00:0200 11-90 00-00'             4611   	st	r0,	NEAR __flgUartFin
                                 4612   
                                 4613   ;;	uart_stop();
                                 4614   CLINEA 0000H 0001H 0672H 0002H 000DH
00:0204 01-F0'00-00'             4615   	bl	_uart_stop
                                 4616   
                                 4617   ;;	uart_startReceive(RecWorld, 2, _funcUartFin);
                                 4618   CLINEA 0000H 0001H 0673H 0002H 002EH
00:0208 00'00                    4619   	mov	r0,	#BYTE1 OFFSET __funcUartFin
00:020A 00'01                    4620   	mov	r1,	#BYTE2 OFFSET __funcUartFin
00:020C 5E-F0                    4621   	push	er0
00:020E 02 E2                    4622   	mov	er2,	#2 
00:0210 00'00                    4623   	mov	r0,	#BYTE1 OFFSET _RecWorld
00:0212 00'01                    4624   	mov	r1,	#BYTE2 OFFSET _RecWorld
00:0214 01-F0'00-00'             4625   	bl	_uart_startReceive
00:0218 02 E1                    4626   	add	sp,	#2 
                                 4627   
                                 4628   ;;	while(_flgUartFin != 1){
                                 4629   CLINEA 0000H 0000H 0674H 0001H 0001H
00:021A 02 CE                    4630   	bal	_$L385
                                 4631   
                                 4632   ;;	while(_flgUartFin != 1){
                                 4633   CLINEA 0000H 0000H 0674H 0002H 0019H
00:021C                          4634   _$L333 :
                                 4635   CBLOCK 230 11 1652
                                 4636   
                                 4637   ;;		main_clrWDT();
                                 4638   CLINEA 0000H 0001H 0675H 0003H 0010H
00:021C 01-F0'00-00'             4639   	bl	_main_clrWDT
                                 4640   CBLOCKEND 230 11 1654
                                 4641   
                                 4642   ;;	while(_flgUartFin != 1){
                                 4643   CLINEA 0000H 0000H 0674H 0001H 0001H
00:0220                          4644   _$L385 :
                                 4645   
                                 4646   ;;	while(_flgUartFin != 1){
                                 4647   CLINEA 0000H 0000H 0674H 000DH 0011H
00:0220 10-90 00-00'             4648   	l	r0,	NEAR __flgUartFin
00:0224 01 70                    4649   	cmp	r0,	#01h
00:0226 FA C8                    4650   	bne	_$L333
                                 4651   
                                 4652   ;;	for(i = 0; i<10; i++){
                                 4653   CLINEA 0000H 0001H 0678H 0006H 000BH
00:0228 00 E8                    4654   	mov	er8,	#0 
                                 4655   
                                 4656   ;;	for(i = 0; i<10; i++){
                                 4657   CLINEA 0000H 0000H 0678H 0013H 0015H
00:022A                          4658   _$L337 :
                                 4659   CBLOCK 230 12 1656
                                 4660   
                                 4661   ;;		_flgI2CFin = 0;																	//reset I2C completed Flag
                                 4662   CLINEA 0000H 0001H 067CH 0003H 003CH
00:022A 00 00                    4663   	mov	r0,	#00h
00:022C 11-90 00-00'             4664   	st	r0,	NEAR __flgI2CFin
                                 4665   
                                 4666   ;;		i2c_stop();																		//Make sure I2C is not currently running
                                 4667   CLINEA 0000H 0001H 067DH 0003H 0047H
00:0230 01-F0'00-00'             4668   	bl	_i2c_stop
                                 4669   
                                 4670   ;;		I20MD = 1;		//Switch to I2C Fast Operation (400kbps)
                                 4671   CLINEA 0000H 0001H 067EH 0003H 0036H
00:0234 90-A0 A4-F2              4672   	sb	0f2a4h.1
                                 4673   
                                 4674   ;;		i2c_startReceive(MPU6050Address, &AccGyro_ReadData, 1, &AccGyro_Data, 14, (cbfI2c)_funcI2CFin);	//Begin I2C Receive Command
                                 4675   CLINEA 0000H 0001H 067FH 0003H 007DH
00:0238 00'00                    4676   	mov	r0,	#BYTE1 OFFSET __funcI2CFin
00:023A 00'01                    4677   	mov	r1,	#BYTE2 OFFSET __funcI2CFin
00:023C 5E-F0                    4678   	push	er0
00:023E 0E E0                    4679   	mov	er0,	#14
00:0240 5E-F0                    4680   	push	er0
00:0242 00'00                    4681   	mov	r0,	#BYTE1 OFFSET _AccGyro_Data
00:0244 00'01                    4682   	mov	r1,	#BYTE2 OFFSET _AccGyro_Data
00:0246 5E-F0                    4683   	push	er0
00:0248 01 E0                    4684   	mov	er0,	#1 
00:024A 5E-F0                    4685   	push	er0
00:024C 00'02                    4686   	mov	r2,	#BYTE1 OFFSET _AccGyro_ReadData
00:024E 00'03                    4687   	mov	r3,	#BYTE2 OFFSET _AccGyro_ReadData
00:0250 10-90 00-00'             4688   	l	r0,	NEAR _MPU6050Address
00:0254 01-F0'00-00'             4689   	bl	_i2c_startReceive
00:0258 08 E1                    4690   	add	sp,	#8 
                                 4691   
                                 4692   ;;		while(_flgI2CFin != 1){															//Wait for I2C commands to finish transfer
                                 4693   CLINEA 0000H 0000H 0680H 0001H 0001H
00:025A 02 CE                    4694   	bal	_$L386
                                 4695   
                                 4696   ;;		while(_flgI2CFin != 1){															//Wait for I2C commands to finish transfer
                                 4697   CLINEA 0000H 0000H 0680H 0003H 0052H
00:025C                          4698   _$L343 :
                                 4699   CBLOCK 230 13 1664
                                 4700   
                                 4701   ;;			main_clrWDT();	
                                 4702   CLINEA 0000H 0001H 0681H 0004H 0012H
00:025C 01-F0'00-00'             4703   	bl	_main_clrWDT
                                 4704   CBLOCKEND 230 13 1666
                                 4705   
                                 4706   ;;		while(_flgI2CFin != 1){															//Wait for I2C commands to finish transfer
                                 4707   CLINEA 0000H 0000H 0680H 0001H 0001H
00:0260                          4708   _$L386 :
                                 4709   
                                 4710   ;;		while(_flgI2CFin != 1){															//Wait for I2C commands to finish transfer
                                 4711   CLINEA 0000H 0000H 0680H 000DH 0011H
00:0260 10-90 00-00'             4712   	l	r0,	NEAR __flgI2CFin
00:0264 01 70                    4713   	cmp	r0,	#01h
00:0266 FA C8                    4714   	bne	_$L343
                                 4715   
                                 4716   ;;		Accel_Zcal[1] += (AccGyro_Data[4]<<8)+(AccGyro_Data[5]);
                                 4717   CLINEA 0000H 0001H 0687H 0003H 003AH
00:0268 10-90 00-00'             4718   	l	r0,	NEAR _AccGyro_Data+04h
00:026C 00 01                    4719   	mov	r1,	#00h
00:026E 00-83                    4720   	mov	r3,	r0
00:0270 00 02                    4721   	mov	r2,	#00h
00:0272 10-90 00-00'             4722   	l	r0,	NEAR _AccGyro_Data+05h
00:0276 26-F0                    4723   	add	er0,	er2
00:0278 10-82                    4724   	mov	r2,	r1
00:027A 2F-83                    4725   	extbw	er2
00:027C 30-82                    4726   	mov	r2,	r3
00:027E 6E-F0                    4727   	push	xr0
00:0280 01-F0'00-00'             4728   	bl	__fildu8sw
00:0284 2E-F0                    4729   	pop	xr0
00:0286 6E-F0                    4730   	push	xr0
00:0288 12-90 00-00'             4731   	l	er0,	NEAR _Accel_Zcal+04h
00:028C 12-92 00-00'             4732   	l	er2,	NEAR _Accel_Zcal+06h
00:0290 6E-F0                    4733   	push	xr0
00:0292 01-F0'00-00'             4734   	bl	__faddu8sw
00:0296 04 E1                    4735   	add	sp,	#4 
00:0298 2E-F0                    4736   	pop	xr0
00:029A 13-90 00-00'             4737   	st	er0,	NEAR _Accel_Zcal+04h
00:029E 13-92 00-00'             4738   	st	er2,	NEAR _Accel_Zcal+06h
                                 4739   
                                 4740   ;;		Accel_Ycal[2] += (AccGyro_Data[2]<<8)+(AccGyro_Data[3]);
                                 4741   CLINEA 0000H 0001H 0688H 0003H 003AH
00:02A2 10-90 00-00'             4742   	l	r0,	NEAR _AccGyro_Data+02h
00:02A6 00 01                    4743   	mov	r1,	#00h
00:02A8 00-83                    4744   	mov	r3,	r0
00:02AA 00 02                    4745   	mov	r2,	#00h
00:02AC 10-90 00-00'             4746   	l	r0,	NEAR _AccGyro_Data+03h
00:02B0 26-F0                    4747   	add	er0,	er2
00:02B2 10-82                    4748   	mov	r2,	r1
00:02B4 2F-83                    4749   	extbw	er2
00:02B6 30-82                    4750   	mov	r2,	r3
00:02B8 6E-F0                    4751   	push	xr0
00:02BA 01-F0'00-00'             4752   	bl	__fildu8sw
00:02BE 2E-F0                    4753   	pop	xr0
00:02C0 6E-F0                    4754   	push	xr0
00:02C2 12-90 00-00'             4755   	l	er0,	NEAR _Accel_Ycal+08h
00:02C6 12-92 00-00'             4756   	l	er2,	NEAR _Accel_Ycal+0ah
00:02CA 6E-F0                    4757   	push	xr0
00:02CC 01-F0'00-00'             4758   	bl	__faddu8sw
00:02D0 04 E1                    4759   	add	sp,	#4 
00:02D2 2E-F0                    4760   	pop	xr0
00:02D4 13-90 00-00'             4761   	st	er0,	NEAR _Accel_Ycal+08h
00:02D8 13-92 00-00'             4762   	st	er2,	NEAR _Accel_Ycal+0ah
                                 4763   CBLOCKEND 230 12 1673
                                 4764   
                                 4765   ;;	for(i = 0; i<10; i++){
                                 4766   CLINEA 0000H 0000H 0678H 0013H 0015H
00:02DC 81 E8                    4767   	add	er8,	#1 
                                 4768   
                                 4769   ;;	for(i = 0; i<10; i++){
                                 4770   CLINEA 0000H 0000H 0678H 000DH 0011H
00:02DE 0A 78                    4771   	cmp	r8,	#0ah
00:02E0 00 59                    4772   	cmpc	r9,	#00h
00:02E2 02 C4                    4773   	bges	_$M19
00:02E4 00-F0'00-00'             4774   	b	_$L337
00:02E8                          4775   _$M19 :
                                 4776   
                                 4777   ;;	Accel_Zcal[1] /= 10;
                                 4778   CLINEA 0000H 0001H 068AH 0002H 0015H
00:02E8 12-90 00-00'             4779   	l	er0,	NEAR _Accel_Zcal+04h
00:02EC 12-92 00-00'             4780   	l	er2,	NEAR _Accel_Zcal+06h
00:02F0 6E-F0                    4781   	push	xr0
00:02F2 00 E0                    4782   	mov	er0,	#0 
00:02F4 20 02                    4783   	mov	r2,	#020h
00:02F6 41 03                    4784   	mov	r3,	#041h
00:02F8 6E-F0                    4785   	push	xr0
00:02FA 01-F0'00-00'             4786   	bl	__fdivu8sw
00:02FE 04 E1                    4787   	add	sp,	#4 
00:0300 2E-F0                    4788   	pop	xr0
00:0302 13-90 00-00'             4789   	st	er0,	NEAR _Accel_Zcal+04h
00:0306 13-92 00-00'             4790   	st	er2,	NEAR _Accel_Zcal+06h
                                 4791   
                                 4792   ;;	Accel_Ycal[2] /= 10;
                                 4793   CLINEA 0000H 0001H 068BH 0002H 0015H
00:030A 12-90 00-00'             4794   	l	er0,	NEAR _Accel_Ycal+08h
00:030E 12-92 00-00'             4795   	l	er2,	NEAR _Accel_Ycal+0ah
00:0312 6E-F0                    4796   	push	xr0
00:0314 00 E0                    4797   	mov	er0,	#0 
00:0316 20 02                    4798   	mov	r2,	#020h
00:0318 41 03                    4799   	mov	r3,	#041h
00:031A 6E-F0                    4800   	push	xr0
00:031C 01-F0'00-00'             4801   	bl	__fdivu8sw
00:0320 04 E1                    4802   	add	sp,	#4 
00:0322 2E-F0                    4803   	pop	xr0
00:0324 13-90 00-00'             4804   	st	er0,	NEAR _Accel_Ycal+08h
00:0328 13-92 00-00'             4805   	st	er2,	NEAR _Accel_Ycal+0ah
                                 4806   
                                 4807   ;;	for(i = 0; i<150; i++)
                                 4808   CLINEA 0000H 0001H 068EH 0002H 0017H
00:032C 00 E0                    4809   	mov	er0,	#0 
00:032E                          4810   _$L347 :
                                 4811   CBLOCK 230 14 1679
                                 4812   
                                 4813   ;;		SensorReturn[i] = 0x20;
                                 4814   CLINEA 0000H 0001H 0690H 0003H 0019H
00:032E 20 02                    4815   	mov	r2,	#020h
00:0330 09-92 00-00'             4816   	st	r2,	NEAR _SensorReturn[er0]
                                 4817   CBLOCKEND 230 14 1681
                                 4818   
                                 4819   ;;	for(i = 0; i<150; i++)
                                 4820   CLINEA 0000H 0000H 068EH 0002H 0017H
00:0334 81 E0                    4821   	add	er0,	#1 
                                 4822   
                                 4823   ;;	for(i = 0; i<150; i++)
                                 4824   CLINEA 0000H 0000H 068EH 000DH 0011H
00:0336 96 70                    4825   	cmp	r0,	#096h
00:0338 00 51                    4826   	cmpc	r1,	#00h
00:033A F9 C5                    4827   	blts	_$L347
                                 4828   
                                 4829   ;;	sprintf(SensorReturn, "Accel Calibration: Tilt the Quad 90deg in the PITCH direction! Return any 2 chars to Start");
                                 4830   CLINEA 0000H 0001H 0692H 0002H 0075H
00:033C 00'00                    4831   	mov	r0,	#BYTE1 OFFSET $$S351
00:033E 00'01                    4832   	mov	r1,	#BYTE2 OFFSET $$S351
00:0340 5E-F0                    4833   	push	er0
00:0342 00'00                    4834   	mov	r0,	#BYTE1 OFFSET _SensorReturn
00:0344 00'01                    4835   	mov	r1,	#BYTE2 OFFSET _SensorReturn
00:0346 5E-F0                    4836   	push	er0
00:0348 01-F0'00-00'             4837   	bl	_sprintf_nn
00:034C 04 E1                    4838   	add	sp,	#4 
                                 4839   
                                 4840   ;;	SensorReturn[148] = 0x0D;
                                 4841   CLINEA 0000H 0001H 0693H 0002H 001AH
00:034E 0D 00                    4842   	mov	r0,	#0dh
00:0350 11-90 00-00'             4843   	st	r0,	NEAR _SensorReturn+094h
                                 4844   
                                 4845   ;;	SensorReturn[149] = 0x0A;
                                 4846   CLINEA 0000H 0001H 0694H 0002H 001AH
00:0354 0A 00                    4847   	mov	r0,	#0ah
00:0356 11-90 00-00'             4848   	st	r0,	NEAR _SensorReturn+095h
                                 4849   
                                 4850   ;;	_flgUartFin = 0;
                                 4851   CLINEA 0000H 0001H 0696H 0002H 0011H
00:035A 00 00                    4852   	mov	r0,	#00h
00:035C 11-90 00-00'             4853   	st	r0,	NEAR __flgUartFin
                                 4854   
                                 4855   ;;	uart_stop();
                                 4856   CLINEA 0000H 0001H 0697H 0002H 000DH
00:0360 01-F0'00-00'             4857   	bl	_uart_stop
                                 4858   
                                 4859   ;;	uart_startSend(SensorReturn, 150, _funcUartFin);
                                 4860   CLINEA 0000H 0001H 0698H 0002H 0031H
00:0364 00'00                    4861   	mov	r0,	#BYTE1 OFFSET __funcUartFin
00:0366 00'01                    4862   	mov	r1,	#BYTE2 OFFSET __funcUartFin
00:0368 5E-F0                    4863   	push	er0
00:036A 96 02                    4864   	mov	r2,	#096h
00:036C 00 03                    4865   	mov	r3,	#00h
00:036E 00'00                    4866   	mov	r0,	#BYTE1 OFFSET _SensorReturn
00:0370 00'01                    4867   	mov	r1,	#BYTE2 OFFSET _SensorReturn
00:0372 01-F0'00-00'             4868   	bl	_uart_startSend
00:0376 02 E1                    4869   	add	sp,	#2 
                                 4870   
                                 4871   ;;	while(_flgUartFin != 1){
                                 4872   CLINEA 0000H 0000H 0699H 0001H 0001H
00:0378 04 CE                    4873   	bal	_$L387
                                 4874   
                                 4875   ;;	while(_flgUartFin != 1){
                                 4876   CLINEA 0000H 0000H 0699H 0002H 0019H
00:037A                          4877   _$L354 :
                                 4878   CBLOCK 230 15 1689
                                 4879   
                                 4880   ;;		NOP1000();
                                 4881   CLINEA 0000H 0001H 069AH 0003H 000CH
00:037A 01-F0'00-00'             4882   	bl	_NOP1000
                                 4883   
                                 4884   ;;		main_clrWDT();
                                 4885   CLINEA 0000H 0001H 069BH 0003H 0010H
00:037E 01-F0'00-00'             4886   	bl	_main_clrWDT
                                 4887   CBLOCKEND 230 15 1692
                                 4888   
                                 4889   ;;	while(_flgUartFin != 1){
                                 4890   CLINEA 0000H 0000H 0699H 0001H 0001H
00:0382                          4891   _$L387 :
                                 4892   
                                 4893   ;;	while(_flgUartFin != 1){
                                 4894   CLINEA 0000H 0000H 0699H 000DH 0011H
00:0382 10-90 00-00'             4895   	l	r0,	NEAR __flgUartFin
00:0386 01 70                    4896   	cmp	r0,	#01h
00:0388 F8 C8                    4897   	bne	_$L354
                                 4898   
                                 4899   ;;	_flgUartFin = 0;
                                 4900   CLINEA 0000H 0001H 069EH 0002H 0011H
00:038A 00 00                    4901   	mov	r0,	#00h
00:038C 11-90 00-00'             4902   	st	r0,	NEAR __flgUartFin
                                 4903   
                                 4904   ;;	uart_stop();
                                 4905   CLINEA 0000H 0001H 069FH 0002H 000DH
00:0390 01-F0'00-00'             4906   	bl	_uart_stop
                                 4907   
                                 4908   ;;	uart_startReceive(RecWorld, 2, _funcUartFin);
                                 4909   CLINEA 0000H 0001H 06A0H 0002H 002EH
00:0394 00'00                    4910   	mov	r0,	#BYTE1 OFFSET __funcUartFin
00:0396 00'01                    4911   	mov	r1,	#BYTE2 OFFSET __funcUartFin
00:0398 5E-F0                    4912   	push	er0
00:039A 02 E2                    4913   	mov	er2,	#2 
00:039C 00'00                    4914   	mov	r0,	#BYTE1 OFFSET _RecWorld
00:039E 00'01                    4915   	mov	r1,	#BYTE2 OFFSET _RecWorld
00:03A0 01-F0'00-00'             4916   	bl	_uart_startReceive
00:03A4 02 E1                    4917   	add	sp,	#2 
                                 4918   
                                 4919   ;;	while(_flgUartFin != 1){
                                 4920   CLINEA 0000H 0000H 06A1H 0001H 0001H
00:03A6 02 CE                    4921   	bal	_$L388
                                 4922   
                                 4923   ;;	while(_flgUartFin != 1){
                                 4924   CLINEA 0000H 0000H 06A1H 0002H 0019H
00:03A8                          4925   _$L358 :
                                 4926   CBLOCK 230 16 1697
                                 4927   
                                 4928   ;;		main_clrWDT();
                                 4929   CLINEA 0000H 0001H 06A2H 0003H 0010H
00:03A8 01-F0'00-00'             4930   	bl	_main_clrWDT
                                 4931   CBLOCKEND 230 16 1699
                                 4932   
                                 4933   ;;	while(_flgUartFin != 1){
                                 4934   CLINEA 0000H 0000H 06A1H 0001H 0001H
00:03AC                          4935   _$L388 :
                                 4936   
                                 4937   ;;	while(_flgUartFin != 1){
                                 4938   CLINEA 0000H 0000H 06A1H 000DH 0011H
00:03AC 10-90 00-00'             4939   	l	r0,	NEAR __flgUartFin
00:03B0 01 70                    4940   	cmp	r0,	#01h
00:03B2 FA C8                    4941   	bne	_$L358
                                 4942   
                                 4943   ;;	for(i = 0; i<10; i++){
                                 4944   CLINEA 0000H 0001H 06A5H 0006H 000BH
00:03B4 00 E8                    4945   	mov	er8,	#0 
                                 4946   
                                 4947   ;;	for(i = 0; i<10; i++){
                                 4948   CLINEA 0000H 0000H 06A5H 0013H 0015H
00:03B6                          4949   _$L362 :
                                 4950   CBLOCK 230 17 1701
                                 4951   
                                 4952   ;;		_flgI2CFin = 0;																	//reset I2C completed Flag
                                 4953   CLINEA 0000H 0001H 06A9H 0003H 003CH
00:03B6 00 00                    4954   	mov	r0,	#00h
00:03B8 11-90 00-00'             4955   	st	r0,	NEAR __flgI2CFin
                                 4956   
                                 4957   ;;		i2c_stop();																		//Make sure I2C is not currently running
                                 4958   CLINEA 0000H 0001H 06AAH 0003H 0047H
00:03BC 01-F0'00-00'             4959   	bl	_i2c_stop
                                 4960   
                                 4961   ;;		I20MD = 1;		//Switch to I2C Fast Operation (400kbps)
                                 4962   CLINEA 0000H 0001H 06ABH 0003H 0036H
00:03C0 90-A0 A4-F2              4963   	sb	0f2a4h.1
                                 4964   
                                 4965   ;;		i2c_startReceive(MPU6050Address, &AccGyro_ReadData, 1, &AccGyro_Data, 14, (cbfI2c)_funcI2CFin);	//Begin I2C Receive Command
                                 4966   CLINEA 0000H 0001H 06ACH 0003H 007DH
00:03C4 00'00                    4967   	mov	r0,	#BYTE1 OFFSET __funcI2CFin
00:03C6 00'01                    4968   	mov	r1,	#BYTE2 OFFSET __funcI2CFin
00:03C8 5E-F0                    4969   	push	er0
00:03CA 0E E0                    4970   	mov	er0,	#14
00:03CC 5E-F0                    4971   	push	er0
00:03CE 00'00                    4972   	mov	r0,	#BYTE1 OFFSET _AccGyro_Data
00:03D0 00'01                    4973   	mov	r1,	#BYTE2 OFFSET _AccGyro_Data
00:03D2 5E-F0                    4974   	push	er0
00:03D4 01 E0                    4975   	mov	er0,	#1 
00:03D6 5E-F0                    4976   	push	er0
00:03D8 00'02                    4977   	mov	r2,	#BYTE1 OFFSET _AccGyro_ReadData
00:03DA 00'03                    4978   	mov	r3,	#BYTE2 OFFSET _AccGyro_ReadData
00:03DC 10-90 00-00'             4979   	l	r0,	NEAR _MPU6050Address
00:03E0 01-F0'00-00'             4980   	bl	_i2c_startReceive
00:03E4 08 E1                    4981   	add	sp,	#8 
                                 4982   
                                 4983   ;;		while(_flgI2CFin != 1){															//Wait for I2C commands to finish transfer
                                 4984   CLINEA 0000H 0000H 06ADH 0001H 0001H
00:03E6 02 CE                    4985   	bal	_$L389
                                 4986   
                                 4987   ;;		while(_flgI2CFin != 1){															//Wait for I2C commands to finish transfer
                                 4988   CLINEA 0000H 0000H 06ADH 0003H 0052H
00:03E8                          4989   _$L368 :
                                 4990   CBLOCK 230 18 1709
                                 4991   
                                 4992   ;;			main_clrWDT();	
                                 4993   CLINEA 0000H 0001H 06AEH 0004H 0012H
00:03E8 01-F0'00-00'             4994   	bl	_main_clrWDT
                                 4995   CBLOCKEND 230 18 1711
                                 4996   
                                 4997   ;;		while(_flgI2CFin != 1){															//Wait for I2C commands to finish transfer
                                 4998   CLINEA 0000H 0000H 06ADH 0001H 0001H
00:03EC                          4999   _$L389 :
                                 5000   
                                 5001   ;;		while(_flgI2CFin != 1){															//Wait for I2C commands to finish transfer
                                 5002   CLINEA 0000H 0000H 06ADH 000DH 0011H
00:03EC 10-90 00-00'             5003   	l	r0,	NEAR __flgI2CFin
00:03F0 01 70                    5004   	cmp	r0,	#01h
00:03F2 FA C8                    5005   	bne	_$L368
                                 5006   
                                 5007   ;;		Accel_Zcal[2] += (AccGyro_Data[4]<<8)+(AccGyro_Data[5]);
                                 5008   CLINEA 0000H 0001H 06B4H 0003H 003AH
00:03F4 10-90 00-00'             5009   	l	r0,	NEAR _AccGyro_Data+04h
00:03F8 00 01                    5010   	mov	r1,	#00h
00:03FA 00-83                    5011   	mov	r3,	r0
00:03FC 00 02                    5012   	mov	r2,	#00h
00:03FE 10-90 00-00'             5013   	l	r0,	NEAR _AccGyro_Data+05h
00:0402 26-F0                    5014   	add	er0,	er2
00:0404 10-82                    5015   	mov	r2,	r1
00:0406 2F-83                    5016   	extbw	er2
00:0408 30-82                    5017   	mov	r2,	r3
00:040A 6E-F0                    5018   	push	xr0
00:040C 01-F0'00-00'             5019   	bl	__fildu8sw
00:0410 2E-F0                    5020   	pop	xr0
00:0412 6E-F0                    5021   	push	xr0
00:0414 12-90 00-00'             5022   	l	er0,	NEAR _Accel_Zcal+08h
00:0418 12-92 00-00'             5023   	l	er2,	NEAR _Accel_Zcal+0ah
00:041C 6E-F0                    5024   	push	xr0
00:041E 01-F0'00-00'             5025   	bl	__faddu8sw
00:0422 04 E1                    5026   	add	sp,	#4 
00:0424 2E-F0                    5027   	pop	xr0
00:0426 13-90 00-00'             5028   	st	er0,	NEAR _Accel_Zcal+08h
00:042A 13-92 00-00'             5029   	st	er2,	NEAR _Accel_Zcal+0ah
                                 5030   
                                 5031   ;;		Accel_Xcal[2] += (AccGyro_Data[0]<<8)+(AccGyro_Data[1]);
                                 5032   CLINEA 0000H 0001H 06B5H 0003H 003AH
00:042E 10-90 00-00'             5033   	l	r0,	NEAR _AccGyro_Data+01h
00:0432 00 01                    5034   	mov	r1,	#00h
00:0434 10-92 00-00'             5035   	l	r2,	NEAR _AccGyro_Data
00:0438 20-83                    5036   	mov	r3,	r2
00:043A 00 02                    5037   	mov	r2,	#00h
00:043C 26-F0                    5038   	add	er0,	er2
00:043E 10-82                    5039   	mov	r2,	r1
00:0440 2F-83                    5040   	extbw	er2
00:0442 30-82                    5041   	mov	r2,	r3
00:0444 6E-F0                    5042   	push	xr0
00:0446 01-F0'00-00'             5043   	bl	__fildu8sw
00:044A 2E-F0                    5044   	pop	xr0
00:044C 6E-F0                    5045   	push	xr0
00:044E 12-90 00-00'             5046   	l	er0,	NEAR _Accel_Xcal+08h
00:0452 12-92 00-00'             5047   	l	er2,	NEAR _Accel_Xcal+0ah
00:0456 6E-F0                    5048   	push	xr0
00:0458 01-F0'00-00'             5049   	bl	__faddu8sw
00:045C 04 E1                    5050   	add	sp,	#4 
00:045E 2E-F0                    5051   	pop	xr0
00:0460 13-90 00-00'             5052   	st	er0,	NEAR _Accel_Xcal+08h
00:0464 13-92 00-00'             5053   	st	er2,	NEAR _Accel_Xcal+0ah
                                 5054   CBLOCKEND 230 17 1718
                                 5055   
                                 5056   ;;	for(i = 0; i<10; i++){
                                 5057   CLINEA 0000H 0000H 06A5H 0013H 0015H
00:0468 81 E8                    5058   	add	er8,	#1 
                                 5059   
                                 5060   ;;	for(i = 0; i<10; i++){
                                 5061   CLINEA 0000H 0000H 06A5H 000DH 0011H
00:046A 0A 78                    5062   	cmp	r8,	#0ah
00:046C 00 59                    5063   	cmpc	r9,	#00h
00:046E 02 C4                    5064   	bges	_$M20
00:0470 00-F0'00-00'             5065   	b	_$L362
00:0474                          5066   _$M20 :
                                 5067   
                                 5068   ;;	Accel_Zcal[2] /= 10;
                                 5069   CLINEA 0000H 0001H 06B7H 0002H 0015H
00:0474 12-90 00-00'             5070   	l	er0,	NEAR _Accel_Zcal+08h
00:0478 12-92 00-00'             5071   	l	er2,	NEAR _Accel_Zcal+0ah
00:047C 6E-F0                    5072   	push	xr0
00:047E 00 E0                    5073   	mov	er0,	#0 
00:0480 20 02                    5074   	mov	r2,	#020h
00:0482 41 03                    5075   	mov	r3,	#041h
00:0484 6E-F0                    5076   	push	xr0
00:0486 01-F0'00-00'             5077   	bl	__fdivu8sw
00:048A 04 E1                    5078   	add	sp,	#4 
00:048C 2E-F0                    5079   	pop	xr0
00:048E 13-90 00-00'             5080   	st	er0,	NEAR _Accel_Zcal+08h
00:0492 13-92 00-00'             5081   	st	er2,	NEAR _Accel_Zcal+0ah
                                 5082   
                                 5083   ;;	Accel_Xcal[2] /= 10;
                                 5084   CLINEA 0000H 0001H 06B8H 0002H 0015H
00:0496 12-90 00-00'             5085   	l	er0,	NEAR _Accel_Xcal+08h
00:049A 12-92 00-00'             5086   	l	er2,	NEAR _Accel_Xcal+0ah
00:049E 6E-F0                    5087   	push	xr0
00:04A0 00 E0                    5088   	mov	er0,	#0 
00:04A2 20 02                    5089   	mov	r2,	#020h
00:04A4 41 03                    5090   	mov	r3,	#041h
00:04A6 6E-F0                    5091   	push	xr0
00:04A8 01-F0'00-00'             5092   	bl	__fdivu8sw
00:04AC 04 E1                    5093   	add	sp,	#4 
00:04AE 2E-F0                    5094   	pop	xr0
00:04B0 13-90 00-00'             5095   	st	er0,	NEAR _Accel_Xcal+08h
00:04B4 13-92 00-00'             5096   	st	er2,	NEAR _Accel_Xcal+0ah
                                 5097   
                                 5098   ;;	Accel_Xcal[0] = (Accel_Xcal[1]+Accel_Xcal[2])/2;
                                 5099   CLINEA 0000H 0001H 06BBH 0002H 0031H
00:04B8 12-90 00-00'             5100   	l	er0,	NEAR _Accel_Xcal+04h
00:04BC 12-92 00-00'             5101   	l	er2,	NEAR _Accel_Xcal+06h
00:04C0 6E-F0                    5102   	push	xr0
00:04C2 12-90 00-00'             5103   	l	er0,	NEAR _Accel_Xcal+08h
00:04C6 12-92 00-00'             5104   	l	er2,	NEAR _Accel_Xcal+0ah
00:04CA 6E-F0                    5105   	push	xr0
00:04CC 01-F0'00-00'             5106   	bl	__faddu8sw
00:04D0 04 E1                    5107   	add	sp,	#4 
00:04D2 00 E0                    5108   	mov	er0,	#0 
00:04D4 00 02                    5109   	mov	r2,	#00h
00:04D6 40 03                    5110   	mov	r3,	#040h
00:04D8 6E-F0                    5111   	push	xr0
00:04DA 01-F0'00-00'             5112   	bl	__fdivu8sw
00:04DE 04 E1                    5113   	add	sp,	#4 
00:04E0 2E-F0                    5114   	pop	xr0
00:04E2 13-90 00-00'             5115   	st	er0,	NEAR _Accel_Xcal
00:04E6 13-92 00-00'             5116   	st	er2,	NEAR _Accel_Xcal+02h
                                 5117   
                                 5118   ;;	Accel_Ycal[0] = (Accel_Ycal[1]+Accel_Ycal[2])/2;
                                 5119   CLINEA 0000H 0001H 06BCH 0002H 0031H
00:04EA 12-90 00-00'             5120   	l	er0,	NEAR _Accel_Ycal+04h
00:04EE 12-92 00-00'             5121   	l	er2,	NEAR _Accel_Ycal+06h
00:04F2 6E-F0                    5122   	push	xr0
00:04F4 12-90 00-00'             5123   	l	er0,	NEAR _Accel_Ycal+08h
00:04F8 12-92 00-00'             5124   	l	er2,	NEAR _Accel_Ycal+0ah
00:04FC 6E-F0                    5125   	push	xr0
00:04FE 01-F0'00-00'             5126   	bl	__faddu8sw
00:0502 04 E1                    5127   	add	sp,	#4 
00:0504 00 E0                    5128   	mov	er0,	#0 
00:0506 00 02                    5129   	mov	r2,	#00h
00:0508 40 03                    5130   	mov	r3,	#040h
00:050A 6E-F0                    5131   	push	xr0
00:050C 01-F0'00-00'             5132   	bl	__fdivu8sw
00:0510 04 E1                    5133   	add	sp,	#4 
00:0512 2E-F0                    5134   	pop	xr0
00:0514 13-90 00-00'             5135   	st	er0,	NEAR _Accel_Ycal
00:0518 13-92 00-00'             5136   	st	er2,	NEAR _Accel_Ycal+02h
                                 5137   
                                 5138   ;;	Accel_Zcal[0] = (Accel_Zcal[1]+Accel_Zcal[2])/2;
                                 5139   CLINEA 0000H 0001H 06BDH 0002H 0031H
00:051C 12-90 00-00'             5140   	l	er0,	NEAR _Accel_Zcal+04h
00:0520 12-92 00-00'             5141   	l	er2,	NEAR _Accel_Zcal+06h
00:0524 6E-F0                    5142   	push	xr0
00:0526 12-90 00-00'             5143   	l	er0,	NEAR _Accel_Zcal+08h
00:052A 12-92 00-00'             5144   	l	er2,	NEAR _Accel_Zcal+0ah
00:052E 6E-F0                    5145   	push	xr0
00:0530 01-F0'00-00'             5146   	bl	__faddu8sw
00:0534 04 E1                    5147   	add	sp,	#4 
00:0536 00 E0                    5148   	mov	er0,	#0 
00:0538 00 02                    5149   	mov	r2,	#00h
00:053A 40 03                    5150   	mov	r3,	#040h
00:053C 6E-F0                    5151   	push	xr0
00:053E 01-F0'00-00'             5152   	bl	__fdivu8sw
00:0542 04 E1                    5153   	add	sp,	#4 
00:0544 2E-F0                    5154   	pop	xr0
00:0546 13-90 00-00'             5155   	st	er0,	NEAR _Accel_Zcal
00:054A 13-92 00-00'             5156   	st	er2,	NEAR _Accel_Zcal+02h
                                 5157   
                                 5158   ;;	for(i = 0; i<150; i++)
                                 5159   CLINEA 0000H 0001H 06C0H 0002H 0017H
00:054E 00 E0                    5160   	mov	er0,	#0 
00:0550                          5161   _$L372 :
                                 5162   CBLOCK 230 19 1729
                                 5163   
                                 5164   ;;		SensorReturn[i] = 0x20;
                                 5165   CLINEA 0000H 0001H 06C2H 0003H 0019H
00:0550 20 02                    5166   	mov	r2,	#020h
00:0552 09-92 00-00'             5167   	st	r2,	NEAR _SensorReturn[er0]
                                 5168   CBLOCKEND 230 19 1731
                                 5169   
                                 5170   ;;	for(i = 0; i<150; i++)
                                 5171   CLINEA 0000H 0000H 06C0H 0002H 0017H
00:0556 81 E0                    5172   	add	er0,	#1 
                                 5173   
                                 5174   ;;	for(i = 0; i<150; i++)
                                 5175   CLINEA 0000H 0000H 06C0H 000DH 0011H
00:0558 96 70                    5176   	cmp	r0,	#096h
00:055A 00 51                    5177   	cmpc	r1,	#00h
00:055C F9 C5                    5178   	blts	_$L372
                                 5179   
                                 5180   ;;	sprintf(SensorReturn, "Accel Calibration Complete!");
                                 5181   CLINEA 0000H 0001H 06C4H 0002H 0036H
00:055E 00'00                    5182   	mov	r0,	#BYTE1 OFFSET $$S376
00:0560 00'01                    5183   	mov	r1,	#BYTE2 OFFSET $$S376
00:0562 5E-F0                    5184   	push	er0
00:0564 00'00                    5185   	mov	r0,	#BYTE1 OFFSET _SensorReturn
00:0566 00'01                    5186   	mov	r1,	#BYTE2 OFFSET _SensorReturn
00:0568 5E-F0                    5187   	push	er0
00:056A 01-F0'00-00'             5188   	bl	_sprintf_nn
00:056E 04 E1                    5189   	add	sp,	#4 
                                 5190   
                                 5191   ;;	SensorReturn[148] = 0x0D;
                                 5192   CLINEA 0000H 0001H 06C5H 0002H 001AH
00:0570 0D 00                    5193   	mov	r0,	#0dh
00:0572 11-90 00-00'             5194   	st	r0,	NEAR _SensorReturn+094h
                                 5195   
                                 5196   ;;	SensorReturn[149] = 0x0A;
                                 5197   CLINEA 0000H 0001H 06C6H 0002H 001AH
00:0576 0A 00                    5198   	mov	r0,	#0ah
00:0578 11-90 00-00'             5199   	st	r0,	NEAR _SensorReturn+095h
                                 5200   
                                 5201   ;;	_flgUartFin = 0;
                                 5202   CLINEA 0000H 0001H 06C8H 0002H 0011H
00:057C 00 00                    5203   	mov	r0,	#00h
00:057E 11-90 00-00'             5204   	st	r0,	NEAR __flgUartFin
                                 5205   
                                 5206   ;;	uart_stop();
                                 5207   CLINEA 0000H 0001H 06C9H 0002H 000DH
00:0582 01-F0'00-00'             5208   	bl	_uart_stop
                                 5209   
                                 5210   ;;	uart_startSend(SensorReturn, 150, _funcUartFin);
                                 5211   CLINEA 0000H 0001H 06CAH 0002H 0031H
00:0586 00'00                    5212   	mov	r0,	#BYTE1 OFFSET __funcUartFin
00:0588 00'01                    5213   	mov	r1,	#BYTE2 OFFSET __funcUartFin
00:058A 5E-F0                    5214   	push	er0
00:058C 96 02                    5215   	mov	r2,	#096h
00:058E 00 03                    5216   	mov	r3,	#00h
00:0590 00'00                    5217   	mov	r0,	#BYTE1 OFFSET _SensorReturn
00:0592 00'01                    5218   	mov	r1,	#BYTE2 OFFSET _SensorReturn
00:0594 01-F0'00-00'             5219   	bl	_uart_startSend
00:0598 02 E1                    5220   	add	sp,	#2 
                                 5221   
                                 5222   ;;	while(_flgUartFin != 1){
                                 5223   CLINEA 0000H 0000H 06CBH 0001H 0001H
00:059A 04 CE                    5224   	bal	_$L390
                                 5225   
                                 5226   ;;	while(_flgUartFin != 1){
                                 5227   CLINEA 0000H 0000H 06CBH 0002H 0019H
00:059C                          5228   _$L379 :
                                 5229   CBLOCK 230 20 1739
                                 5230   
                                 5231   ;;		NOP1000();
                                 5232   CLINEA 0000H 0001H 06CCH 0003H 000CH
00:059C 01-F0'00-00'             5233   	bl	_NOP1000
                                 5234   
                                 5235   ;;		main_clrWDT();
                                 5236   CLINEA 0000H 0001H 06CDH 0003H 0010H
00:05A0 01-F0'00-00'             5237   	bl	_main_clrWDT
                                 5238   CBLOCKEND 230 20 1742
                                 5239   
                                 5240   ;;	while(_flgUartFin != 1){
                                 5241   CLINEA 0000H 0000H 06CBH 0001H 0001H
00:05A4                          5242   _$L390 :
                                 5243   
                                 5244   ;;	while(_flgUartFin != 1){
                                 5245   CLINEA 0000H 0000H 06CBH 000DH 0011H
00:05A4 10-90 00-00'             5246   	l	r0,	NEAR __flgUartFin
00:05A8 01 70                    5247   	cmp	r0,	#01h
00:05AA F8 C8                    5248   	bne	_$L379
                                 5249   CBLOCKEND 230 2 1743
                                 5250   
                                 5251   ;;}
                                 5252   CLINEA 0000H 0001H 06CFH 0001H 0001H
00:05AC 1E-F8                    5253   	pop	er8
00:05AE 8E-F2                    5254   	pop	pc
                                 5255   CBLOCKEND 230 1 1743
                                 5256   CFUNCTIONEND 230
                                 5257   
                                 5258   
  --------------------------     5259   	rseg $$SerialOutCoefficients$main
                                 5260   CFUNCTION 231
                                 5261   
00:0000                          5262   _SerialOutCoefficients	:
                                 5263   CBLOCK 231 1 1747
                                 5264   
                                 5265   ;;{
                                 5266   CLINEA 0000H 0001H 06D3H 0001H 0001H
00:0000 CE-F8                    5267   	push	lr
                                 5268   CBLOCK 231 2 1747
                                 5269   CRET 0000H
                                 5270   CLOCAL 47H 0002H 0024H 0002H "j" 02H 00H 01H
                                 5271   
                                 5272   ;;		for(j = 0; j<150; j++)
                                 5273   CLINEA 0000H 0001H 06D6H 0003H 0018H
00:0002 00 E0                    5274   	mov	er0,	#0 
00:0004                          5275   _$L394 :
                                 5276   CBLOCK 231 3 1751
                                 5277   
                                 5278   ;;			SensorReturn[j] = 0x20;
                                 5279   CLINEA 0000H 0001H 06D8H 0004H 001AH
00:0004 20 02                    5280   	mov	r2,	#020h
00:0006 09-92 00-00'             5281   	st	r2,	NEAR _SensorReturn[er0]
                                 5282   CBLOCKEND 231 3 1753
                                 5283   
                                 5284   ;;		for(j = 0; j<150; j++)
                                 5285   CLINEA 0000H 0000H 06D6H 0003H 0018H
00:000A 81 E0                    5286   	add	er0,	#1 
                                 5287   
                                 5288   ;;		for(j = 0; j<150; j++)
                                 5289   CLINEA 0000H 0000H 06D6H 000DH 0011H
00:000C 96 70                    5290   	cmp	r0,	#096h
00:000E 00 51                    5291   	cmpc	r1,	#00h
00:0010 F9 C5                    5292   	blts	_$L394
                                 5293   
                                 5294   ;;		sprintf(SensorReturn, "Current Settings: kp=%f,ki=%f,kd=%f,a1=%f,a2=%f", Accel_PID_XRoll_kp, Accel_PID_XRoll_ki, Accel_PID_XRoll_kd, CF_HPF, CF_LPF);
                                 5295   CLINEA 0000H 0001H 06DBH 0003H 0097H
00:0012 12-90 00-00'             5296   	l	er0,	NEAR _CF_LPF
00:0016 12-92 00-00'             5297   	l	er2,	NEAR _CF_LPF+02h
00:001A 6E-F0                    5298   	push	xr0
00:001C FC E1                    5299   	add	sp,	#-4
00:001E 01-F0'00-00'             5300   	bl	__ftodu8sw
00:0022 12-90 00-00'             5301   	l	er0,	NEAR _CF_HPF
00:0026 12-92 00-00'             5302   	l	er2,	NEAR _CF_HPF+02h
00:002A 6E-F0                    5303   	push	xr0
00:002C FC E1                    5304   	add	sp,	#-4
00:002E 01-F0'00-00'             5305   	bl	__ftodu8sw
00:0032 12-90 00-00'             5306   	l	er0,	NEAR _Accel_PID_XRoll_kd
00:0036 12-92 00-00'             5307   	l	er2,	NEAR _Accel_PID_XRoll_kd+02h
00:003A 6E-F0                    5308   	push	xr0
00:003C FC E1                    5309   	add	sp,	#-4
00:003E 01-F0'00-00'             5310   	bl	__ftodu8sw
00:0042 12-90 00-00'             5311   	l	er0,	NEAR _Accel_PID_XRoll_ki
00:0046 12-92 00-00'             5312   	l	er2,	NEAR _Accel_PID_XRoll_ki+02h
00:004A 6E-F0                    5313   	push	xr0
00:004C FC E1                    5314   	add	sp,	#-4
00:004E 01-F0'00-00'             5315   	bl	__ftodu8sw
00:0052 12-90 00-00'             5316   	l	er0,	NEAR _Accel_PID_XRoll_kp
00:0056 12-92 00-00'             5317   	l	er2,	NEAR _Accel_PID_XRoll_kp+02h
00:005A 6E-F0                    5318   	push	xr0
00:005C FC E1                    5319   	add	sp,	#-4
00:005E 01-F0'00-00'             5320   	bl	__ftodu8sw
00:0062 00'00                    5321   	mov	r0,	#BYTE1 OFFSET $$S398
00:0064 00'01                    5322   	mov	r1,	#BYTE2 OFFSET $$S398
00:0066 5E-F0                    5323   	push	er0
00:0068 00'00                    5324   	mov	r0,	#BYTE1 OFFSET _SensorReturn
00:006A 00'01                    5325   	mov	r1,	#BYTE2 OFFSET _SensorReturn
00:006C 5E-F0                    5326   	push	er0
00:006E 01-F0'00-00'             5327   	bl	_sprintf_nn
00:0072 2C E1                    5328   	add	sp,	#44
                                 5329   
                                 5330   ;;		SensorReturn[148] = 0x0D;	//CR
                                 5331   CLINEA 0000H 0001H 06DDH 0003H 0020H
00:0074 0D 00                    5332   	mov	r0,	#0dh
00:0076 11-90 00-00'             5333   	st	r0,	NEAR _SensorReturn+094h
                                 5334   
                                 5335   ;;		SensorReturn[149] = 0x0A;	//LF
                                 5336   CLINEA 0000H 0001H 06DEH 0003H 0020H
00:007A 0A 00                    5337   	mov	r0,	#0ah
00:007C 11-90 00-00'             5338   	st	r0,	NEAR _SensorReturn+095h
                                 5339   
                                 5340   ;;		_flgUartFin = 0;
                                 5341   CLINEA 0000H 0001H 06E1H 0003H 0012H
00:0080 00 00                    5342   	mov	r0,	#00h
00:0082 11-90 00-00'             5343   	st	r0,	NEAR __flgUartFin
                                 5344   
                                 5345   ;;		uart_stop();
                                 5346   CLINEA 0000H 0001H 06E2H 0003H 000EH
00:0086 01-F0'00-00'             5347   	bl	_uart_stop
                                 5348   
                                 5349   ;;		uart_startSend(SensorReturn, 150, _funcUartFin);
                                 5350   CLINEA 0000H 0001H 06E3H 0003H 0032H
00:008A 00'00                    5351   	mov	r0,	#BYTE1 OFFSET __funcUartFin
00:008C 00'01                    5352   	mov	r1,	#BYTE2 OFFSET __funcUartFin
00:008E 5E-F0                    5353   	push	er0
00:0090 96 02                    5354   	mov	r2,	#096h
00:0092 00 03                    5355   	mov	r3,	#00h
00:0094 00'00                    5356   	mov	r0,	#BYTE1 OFFSET _SensorReturn
00:0096 00'01                    5357   	mov	r1,	#BYTE2 OFFSET _SensorReturn
00:0098 01-F0'00-00'             5358   	bl	_uart_startSend
00:009C 02 E1                    5359   	add	sp,	#2 
                                 5360   
                                 5361   ;;		while(_flgUartFin != 1){
                                 5362   CLINEA 0000H 0000H 06E4H 0001H 0001H
00:009E 02 CE                    5363   	bal	_$L403
                                 5364   
                                 5365   ;;		while(_flgUartFin != 1){
                                 5366   CLINEA 0000H 0000H 06E4H 0003H 001AH
00:00A0                          5367   _$L401 :
                                 5368   CBLOCK 231 4 1764
                                 5369   
                                 5370   ;;			main_clrWDT();
                                 5371   CLINEA 0000H 0001H 06E5H 0004H 0011H
00:00A0 01-F0'00-00'             5372   	bl	_main_clrWDT
                                 5373   CBLOCKEND 231 4 1766
                                 5374   
                                 5375   ;;		while(_flgUartFin != 1){
                                 5376   CLINEA 0000H 0000H 06E4H 0001H 0001H
00:00A4                          5377   _$L403 :
                                 5378   
                                 5379   ;;		while(_flgUartFin != 1){
                                 5380   CLINEA 0000H 0000H 06E4H 000DH 0011H
00:00A4 10-90 00-00'             5381   	l	r0,	NEAR __flgUartFin
00:00A8 01 70                    5382   	cmp	r0,	#01h
00:00AA FA C8                    5383   	bne	_$L401
                                 5384   CBLOCKEND 231 2 1768
                                 5385   
                                 5386   ;;}
                                 5387   CLINEA 0000H 0001H 06E8H 0001H 0001H
00:00AC 8E-F2                    5388   	pop	pc
                                 5389   CBLOCKEND 231 1 1768
                                 5390   CFUNCTIONEND 231
                                 5391   
                                 5392   
  --------------------------     5393   	rseg $$UARTTunePID$main
                                 5394   CFUNCTION 232
                                 5395   
00:0000                          5396   _UARTTunePID	:
                                 5397   CBLOCK 232 1 1772
                                 5398   
                                 5399   ;;{
                                 5400   CLINEA 0000H 0001H 06ECH 0001H 0001H
00:0000 CE-F8                    5401   	push	lr
                                 5402   CBLOCK 232 2 1772
                                 5403   CRET 0000H
                                 5404   CLOCAL 47H 0002H 0024H 0002H "k" 02H 00H 01H
                                 5405   CLOCAL 4BH 0002H 0000H 0002H "i" 02H 00H 01H
                                 5406   CLOCAL 4BH 0002H 0000H 0002H "j" 02H 00H 01H
                                 5407   CLOCAL 4BH 0002H 0000H 0002H "index" 02H 00H 01H
                                 5408   
                                 5409   ;;		for (k=0;k<7;k++)
                                 5410   CLINEA 0000H 0001H 06F4H 0008H 000BH
00:0002 00 E0                    5411   	mov	er0,	#0 
                                 5412   
                                 5413   ;;		for (k=0;k<7;k++)
                                 5414   CLINEA 0000H 0000H 06F4H 0010H 0012H
00:0004                          5415   _$L408 :
                                 5416   CBLOCK 232 3 1781
                                 5417   
                                 5418   ;;			RecWorld[k] = 0;	//ie: to set ki to 1.5 =>send ki1.50000
                                 5419   CLINEA 0000H 0001H 06F6H 0004H 003BH
00:0004 00 02                    5420   	mov	r2,	#00h
00:0006 09-92 00-00'             5421   	st	r2,	NEAR _RecWorld[er0]
                                 5422   CBLOCKEND 232 3 1783
                                 5423   
                                 5424   ;;		for (k=0;k<7;k++)
                                 5425   CLINEA 0000H 0000H 06F4H 0010H 0012H
00:000A 81 E0                    5426   	add	er0,	#1 
                                 5427   
                                 5428   ;;		for (k=0;k<7;k++)
                                 5429   CLINEA 0000H 0000H 06F4H 000CH 000FH
00:000C 07 70                    5430   	cmp	r0,	#07h
00:000E 00 51                    5431   	cmpc	r1,	#00h
00:0010 F9 C5                    5432   	blts	_$L408
                                 5433   
                                 5434   ;;		ETM8 = 0; //Turn OFF TIMER8/9 ISR for this function...
                                 5435   CLINEA 0000H 0001H 06F9H 0003H 0038H
00:0012 A2-A0 13-F0              5436   	rb	0f013h.2
                                 5437   
                                 5438   ;;		ETM9 = 0; //Turn OFF TIMER8/9 ISR for this function...
                                 5439   CLINEA 0000H 0001H 06FAH 0003H 0038H
00:0016 B2-A0 13-F0              5440   	rb	0f013h.3
                                 5441   
                                 5442   ;;		_flgUartFin = 0;
                                 5443   CLINEA 0000H 0001H 06FDH 0003H 0012H
00:001A 00 00                    5444   	mov	r0,	#00h
00:001C 11-90 00-00'             5445   	st	r0,	NEAR __flgUartFin
                                 5446   
                                 5447   ;;		uart_stop();
                                 5448   CLINEA 0000H 0001H 06FEH 0003H 000EH
00:0020 01-F0'00-00'             5449   	bl	_uart_stop
                                 5450   
                                 5451   ;;		uart_startReceive(RecWorld, 8, _funcUartFin);
                                 5452   CLINEA 0000H 0001H 06FFH 0003H 002FH
00:0024 00'00                    5453   	mov	r0,	#BYTE1 OFFSET __funcUartFin
00:0026 00'01                    5454   	mov	r1,	#BYTE2 OFFSET __funcUartFin
00:0028 5E-F0                    5455   	push	er0
00:002A 08 E2                    5456   	mov	er2,	#8 
00:002C 00'00                    5457   	mov	r0,	#BYTE1 OFFSET _RecWorld
00:002E 00'01                    5458   	mov	r1,	#BYTE2 OFFSET _RecWorld
00:0030 01-F0'00-00'             5459   	bl	_uart_startReceive
00:0034 02 E1                    5460   	add	sp,	#2 
                                 5461   
                                 5462   ;;		while(_flgUartFin != 1){
                                 5463   CLINEA 0000H 0000H 0700H 0001H 0001H
00:0036 02 CE                    5464   	bal	_$L447
                                 5465   
                                 5466   ;;		while(_flgUartFin != 1){
                                 5467   CLINEA 0000H 0000H 0700H 0003H 001AH
00:0038                          5468   _$L414 :
                                 5469   CBLOCK 232 4 1792
                                 5470   
                                 5471   ;;			main_clrWDT();
                                 5472   CLINEA 0000H 0001H 0701H 0004H 0011H
00:0038 01-F0'00-00'             5473   	bl	_main_clrWDT
                                 5474   CBLOCKEND 232 4 1794
                                 5475   
                                 5476   ;;		while(_flgUartFin != 1){
                                 5477   CLINEA 0000H 0000H 0700H 0001H 0001H
00:003C                          5478   _$L447 :
                                 5479   
                                 5480   ;;		while(_flgUartFin != 1){
                                 5481   CLINEA 0000H 0000H 0700H 000CH 000FH
00:003C 10-90 00-00'             5482   	l	r0,	NEAR __flgUartFin
00:0040 01 70                    5483   	cmp	r0,	#01h
00:0042 FA C8                    5484   	bne	_$L414
                                 5485   
                                 5486   ;;		if(RecWorld[0] == 0x6B){			//if RECWORLD == "kp"
                                 5487   CLINEA 0000H 0001H 0736H 0003H 0032H
00:0044 10-90 00-00'             5488   	l	r0,	NEAR _RecWorld
00:0048 6B 70                    5489   	cmp	r0,	#06bh
00:004A 34 C8                    5490   	bne	_$L418
                                 5491   CBLOCK 232 5 1846
                                 5492   
                                 5493   ;;			if(RecWorld[1] == 0x70){
                                 5494   CLINEA 0000H 0001H 0737H 0004H 001BH
00:004C 10-90 00-00'             5495   	l	r0,	NEAR _RecWorld+01h
00:0050 70 70                    5496   	cmp	r0,	#070h
00:0052 30 C8                    5497   	bne	_$L418
                                 5498   CBLOCK 232 6 1847
                                 5499   
                                 5500   ;;				NewVar_Str[0] = RecWorld[2];
                                 5501   CLINEA 0000H 0001H 0738H 0005H 0020H
00:0054 10-90 00-00'             5502   	l	r0,	NEAR _RecWorld+02h
00:0058 11-90 00-00'             5503   	st	r0,	NEAR _NewVar_Str
                                 5504   
                                 5505   ;;				NewVar_Str[1] = RecWorld[3];
                                 5506   CLINEA 0000H 0001H 0739H 0005H 0020H
00:005C 10-90 00-00'             5507   	l	r0,	NEAR _RecWorld+03h
00:0060 11-90 00-00'             5508   	st	r0,	NEAR _NewVar_Str+01h
                                 5509   
                                 5510   ;;				NewVar_Str[2] = RecWorld[4];
                                 5511   CLINEA 0000H 0001H 073AH 0005H 0020H
00:0064 10-90 00-00'             5512   	l	r0,	NEAR _RecWorld+04h
00:0068 11-90 00-00'             5513   	st	r0,	NEAR _NewVar_Str+02h
                                 5514   
                                 5515   ;;				NewVar_Str[3] = RecWorld[5];
                                 5516   CLINEA 0000H 0001H 073BH 0005H 0020H
00:006C 10-90 00-00'             5517   	l	r0,	NEAR _RecWorld+05h
00:0070 11-90 00-00'             5518   	st	r0,	NEAR _NewVar_Str+03h
                                 5519   
                                 5520   ;;				NewVar_Str[4] = RecWorld[6];
                                 5521   CLINEA 0000H 0001H 073CH 0005H 0020H
00:0074 10-90 00-00'             5522   	l	r0,	NEAR _RecWorld+06h
00:0078 11-90 00-00'             5523   	st	r0,	NEAR _NewVar_Str+04h
                                 5524   
                                 5525   ;;				NewVar_Str[5] = RecWorld[7];
                                 5526   CLINEA 0000H 0001H 073DH 0005H 0020H
00:007C 10-90 00-00'             5527   	l	r0,	NEAR _RecWorld+07h
00:0080 11-90 00-00'             5528   	st	r0,	NEAR _NewVar_Str+05h
                                 5529   
                                 5530   ;;				sscanf(NewVar_Str, "%f", &NewVar);
                                 5531   CLINEA 0000H 0001H 073EH 0005H 0026H
00:0084 00'00                    5532   	mov	r0,	#BYTE1 OFFSET _NewVar
00:0086 00'01                    5533   	mov	r1,	#BYTE2 OFFSET _NewVar
00:0088 5E-F0                    5534   	push	er0
00:008A 00'00                    5535   	mov	r0,	#BYTE1 OFFSET $$S216
00:008C 00'01                    5536   	mov	r1,	#BYTE2 OFFSET $$S216
00:008E 5E-F0                    5537   	push	er0
00:0090 00'00                    5538   	mov	r0,	#BYTE1 OFFSET _NewVar_Str
00:0092 00'01                    5539   	mov	r1,	#BYTE2 OFFSET _NewVar_Str
00:0094 5E-F0                    5540   	push	er0
00:0096 01-F0'00-00'             5541   	bl	_sscanf_nn
00:009A 06 E1                    5542   	add	sp,	#6 
                                 5543   
                                 5544   ;;				Accel_PID_XRoll_kp = NewVar;
                                 5545   CLINEA 0000H 0001H 073FH 0005H 0020H
00:009C 12-90 00-00'             5546   	l	er0,	NEAR _NewVar
00:00A0 12-92 00-00'             5547   	l	er2,	NEAR _NewVar+02h
00:00A4 13-90 00-00'             5548   	st	er0,	NEAR _Accel_PID_XRoll_kp
00:00A8 13-92 00-00'             5549   	st	er2,	NEAR _Accel_PID_XRoll_kp+02h
                                 5550   
                                 5551   ;;				Accel_PID_YPitch_kp = NewVar;
                                 5552   CLINEA 0000H 0001H 0740H 0005H 0021H
00:00AC 13-90 00-00'             5553   	st	er0,	NEAR _Accel_PID_YPitch_kp
00:00B0 13-92 00-00'             5554   	st	er2,	NEAR _Accel_PID_YPitch_kp+02h
                                 5555   CBLOCKEND 232 6 1857
                                 5556   
                                 5557   ;;			}
                                 5558   CLINEA 0000H 0000H 0741H 0004H 0004H
00:00B4                          5559   _$L418 :
                                 5560   CBLOCKEND 232 5 1858
                                 5561   
                                 5562   ;;		if(RecWorld[0] == 0x6B){			//if RECWORLD == "ki"
                                 5563   CLINEA 0000H 0001H 0744H 0003H 0032H
00:00B4 10-90 00-00'             5564   	l	r0,	NEAR _RecWorld
00:00B8 6B 70                    5565   	cmp	r0,	#06bh
00:00BA 34 C8                    5566   	bne	_$L422
                                 5567   CBLOCK 232 7 1860
                                 5568   
                                 5569   ;;			if(RecWorld[1] == 0x69){
                                 5570   CLINEA 0000H 0001H 0745H 0004H 001BH
00:00BC 10-90 00-00'             5571   	l	r0,	NEAR _RecWorld+01h
00:00C0 69 70                    5572   	cmp	r0,	#069h
00:00C2 30 C8                    5573   	bne	_$L422
                                 5574   CBLOCK 232 8 1861
                                 5575   
                                 5576   ;;				NewVar_Str[0] = RecWorld[2];
                                 5577   CLINEA 0000H 0001H 0746H 0005H 0020H
00:00C4 10-90 00-00'             5578   	l	r0,	NEAR _RecWorld+02h
00:00C8 11-90 00-00'             5579   	st	r0,	NEAR _NewVar_Str
                                 5580   
                                 5581   ;;				NewVar_Str[1] = RecWorld[3];
                                 5582   CLINEA 0000H 0001H 0747H 0005H 0020H
00:00CC 10-90 00-00'             5583   	l	r0,	NEAR _RecWorld+03h
00:00D0 11-90 00-00'             5584   	st	r0,	NEAR _NewVar_Str+01h
                                 5585   
                                 5586   ;;				NewVar_Str[2] = RecWorld[4];
                                 5587   CLINEA 0000H 0001H 0748H 0005H 0020H
00:00D4 10-90 00-00'             5588   	l	r0,	NEAR _RecWorld+04h
00:00D8 11-90 00-00'             5589   	st	r0,	NEAR _NewVar_Str+02h
                                 5590   
                                 5591   ;;				NewVar_Str[3] = RecWorld[5];
                                 5592   CLINEA 0000H 0001H 0749H 0005H 0020H
00:00DC 10-90 00-00'             5593   	l	r0,	NEAR _RecWorld+05h
00:00E0 11-90 00-00'             5594   	st	r0,	NEAR _NewVar_Str+03h
                                 5595   
                                 5596   ;;				NewVar_Str[4] = RecWorld[6];
                                 5597   CLINEA 0000H 0001H 074AH 0005H 0020H
00:00E4 10-90 00-00'             5598   	l	r0,	NEAR _RecWorld+06h
00:00E8 11-90 00-00'             5599   	st	r0,	NEAR _NewVar_Str+04h
                                 5600   
                                 5601   ;;				NewVar_Str[5] = RecWorld[7];
                                 5602   CLINEA 0000H 0001H 074BH 0005H 0020H
00:00EC 10-90 00-00'             5603   	l	r0,	NEAR _RecWorld+07h
00:00F0 11-90 00-00'             5604   	st	r0,	NEAR _NewVar_Str+05h
                                 5605   
                                 5606   ;;				sscanf(NewVar_Str, "%f", &NewVar);
                                 5607   CLINEA 0000H 0001H 074CH 0005H 0026H
00:00F4 00'00                    5608   	mov	r0,	#BYTE1 OFFSET _NewVar
00:00F6 00'01                    5609   	mov	r1,	#BYTE2 OFFSET _NewVar
00:00F8 5E-F0                    5610   	push	er0
00:00FA 00'00                    5611   	mov	r0,	#BYTE1 OFFSET $$S216
00:00FC 00'01                    5612   	mov	r1,	#BYTE2 OFFSET $$S216
00:00FE 5E-F0                    5613   	push	er0
00:0100 00'00                    5614   	mov	r0,	#BYTE1 OFFSET _NewVar_Str
00:0102 00'01                    5615   	mov	r1,	#BYTE2 OFFSET _NewVar_Str
00:0104 5E-F0                    5616   	push	er0
00:0106 01-F0'00-00'             5617   	bl	_sscanf_nn
00:010A 06 E1                    5618   	add	sp,	#6 
                                 5619   
                                 5620   ;;				Accel_PID_XRoll_ki = NewVar;
                                 5621   CLINEA 0000H 0001H 074DH 0005H 0020H
00:010C 12-90 00-00'             5622   	l	er0,	NEAR _NewVar
00:0110 12-92 00-00'             5623   	l	er2,	NEAR _NewVar+02h
00:0114 13-90 00-00'             5624   	st	er0,	NEAR _Accel_PID_XRoll_ki
00:0118 13-92 00-00'             5625   	st	er2,	NEAR _Accel_PID_XRoll_ki+02h
                                 5626   
                                 5627   ;;				Accel_PID_YPitch_ki = NewVar;
                                 5628   CLINEA 0000H 0001H 074EH 0005H 0021H
00:011C 13-90 00-00'             5629   	st	er0,	NEAR _Accel_PID_YPitch_ki
00:0120 13-92 00-00'             5630   	st	er2,	NEAR _Accel_PID_YPitch_ki+02h
                                 5631   CBLOCKEND 232 8 1871
                                 5632   
                                 5633   ;;			}
                                 5634   CLINEA 0000H 0000H 074FH 0004H 0004H
00:0124                          5635   _$L422 :
                                 5636   CBLOCKEND 232 7 1872
                                 5637   
                                 5638   ;;		if(RecWorld[0] == 0x6B){			//if RECWORLD == "kd"
                                 5639   CLINEA 0000H 0001H 0752H 0003H 0032H
00:0124 10-90 00-00'             5640   	l	r0,	NEAR _RecWorld
00:0128 6B 70                    5641   	cmp	r0,	#06bh
00:012A 34 C8                    5642   	bne	_$L426
                                 5643   CBLOCK 232 9 1874
                                 5644   
                                 5645   ;;			if(RecWorld[1] == 0x64){
                                 5646   CLINEA 0000H 0001H 0753H 0004H 001BH
00:012C 10-90 00-00'             5647   	l	r0,	NEAR _RecWorld+01h
00:0130 64 70                    5648   	cmp	r0,	#064h
00:0132 30 C8                    5649   	bne	_$L426
                                 5650   CBLOCK 232 10 1875
                                 5651   
                                 5652   ;;				NewVar_Str[0] = RecWorld[2];
                                 5653   CLINEA 0000H 0001H 0754H 0005H 0020H
00:0134 10-90 00-00'             5654   	l	r0,	NEAR _RecWorld+02h
00:0138 11-90 00-00'             5655   	st	r0,	NEAR _NewVar_Str
                                 5656   
                                 5657   ;;				NewVar_Str[1] = RecWorld[3];
                                 5658   CLINEA 0000H 0001H 0755H 0005H 0020H
00:013C 10-90 00-00'             5659   	l	r0,	NEAR _RecWorld+03h
00:0140 11-90 00-00'             5660   	st	r0,	NEAR _NewVar_Str+01h
                                 5661   
                                 5662   ;;				NewVar_Str[2] = RecWorld[4];
                                 5663   CLINEA 0000H 0001H 0756H 0005H 0020H
00:0144 10-90 00-00'             5664   	l	r0,	NEAR _RecWorld+04h
00:0148 11-90 00-00'             5665   	st	r0,	NEAR _NewVar_Str+02h
                                 5666   
                                 5667   ;;				NewVar_Str[3] = RecWorld[5];
                                 5668   CLINEA 0000H 0001H 0757H 0005H 0020H
00:014C 10-90 00-00'             5669   	l	r0,	NEAR _RecWorld+05h
00:0150 11-90 00-00'             5670   	st	r0,	NEAR _NewVar_Str+03h
                                 5671   
                                 5672   ;;				NewVar_Str[4] = RecWorld[6];
                                 5673   CLINEA 0000H 0001H 0758H 0005H 0020H
00:0154 10-90 00-00'             5674   	l	r0,	NEAR _RecWorld+06h
00:0158 11-90 00-00'             5675   	st	r0,	NEAR _NewVar_Str+04h
                                 5676   
                                 5677   ;;				NewVar_Str[5] = RecWorld[7];
                                 5678   CLINEA 0000H 0001H 0759H 0005H 0020H
00:015C 10-90 00-00'             5679   	l	r0,	NEAR _RecWorld+07h
00:0160 11-90 00-00'             5680   	st	r0,	NEAR _NewVar_Str+05h
                                 5681   
                                 5682   ;;				sscanf(NewVar_Str, "%f", &NewVar);
                                 5683   CLINEA 0000H 0001H 075AH 0005H 0026H
00:0164 00'00                    5684   	mov	r0,	#BYTE1 OFFSET _NewVar
00:0166 00'01                    5685   	mov	r1,	#BYTE2 OFFSET _NewVar
00:0168 5E-F0                    5686   	push	er0
00:016A 00'00                    5687   	mov	r0,	#BYTE1 OFFSET $$S216
00:016C 00'01                    5688   	mov	r1,	#BYTE2 OFFSET $$S216
00:016E 5E-F0                    5689   	push	er0
00:0170 00'00                    5690   	mov	r0,	#BYTE1 OFFSET _NewVar_Str
00:0172 00'01                    5691   	mov	r1,	#BYTE2 OFFSET _NewVar_Str
00:0174 5E-F0                    5692   	push	er0
00:0176 01-F0'00-00'             5693   	bl	_sscanf_nn
00:017A 06 E1                    5694   	add	sp,	#6 
                                 5695   
                                 5696   ;;				Accel_PID_XRoll_kd = NewVar;
                                 5697   CLINEA 0000H 0001H 075BH 0005H 0020H
00:017C 12-90 00-00'             5698   	l	er0,	NEAR _NewVar
00:0180 12-92 00-00'             5699   	l	er2,	NEAR _NewVar+02h
00:0184 13-90 00-00'             5700   	st	er0,	NEAR _Accel_PID_XRoll_kd
00:0188 13-92 00-00'             5701   	st	er2,	NEAR _Accel_PID_XRoll_kd+02h
                                 5702   
                                 5703   ;;				Accel_PID_YPitch_kd = NewVar;
                                 5704   CLINEA 0000H 0001H 075CH 0005H 0021H
00:018C 13-90 00-00'             5705   	st	er0,	NEAR _Accel_PID_YPitch_kd
00:0190 13-92 00-00'             5706   	st	er2,	NEAR _Accel_PID_YPitch_kd+02h
                                 5707   CBLOCKEND 232 10 1885
                                 5708   
                                 5709   ;;			}
                                 5710   CLINEA 0000H 0000H 075DH 0004H 0004H
00:0194                          5711   _$L426 :
                                 5712   CBLOCKEND 232 9 1886
                                 5713   
                                 5714   ;;		if(RecWorld[0] == 0x61){			//if RECWORLD == "a1"
                                 5715   CLINEA 0000H 0001H 0760H 0003H 0032H
00:0194 10-90 00-00'             5716   	l	r0,	NEAR _RecWorld
00:0198 61 70                    5717   	cmp	r0,	#061h
00:019A 02 C9                    5718   	beq	_$M23
00:019C 00-F0'00-00'             5719   	b	_$L430
00:01A0                          5720   _$M23 :
                                 5721   CBLOCK 232 11 1888
                                 5722   
                                 5723   ;;			if(RecWorld[1] == 0x31){
                                 5724   CLINEA 0000H 0001H 0761H 0004H 001BH
00:01A0 10-90 00-00'             5725   	l	r0,	NEAR _RecWorld+01h
00:01A4 31 70                    5726   	cmp	r0,	#031h
00:01A6 3D C8                    5727   	bne	_$L430
                                 5728   CBLOCK 232 12 1889
                                 5729   
                                 5730   ;;				NewVar_Str[0] = RecWorld[2];
                                 5731   CLINEA 0000H 0001H 0762H 0005H 0020H
00:01A8 10-90 00-00'             5732   	l	r0,	NEAR _RecWorld+02h
00:01AC 11-90 00-00'             5733   	st	r0,	NEAR _NewVar_Str
                                 5734   
                                 5735   ;;				NewVar_Str[1] = RecWorld[3];
                                 5736   CLINEA 0000H 0001H 0763H 0005H 0020H
00:01B0 10-90 00-00'             5737   	l	r0,	NEAR _RecWorld+03h
00:01B4 11-90 00-00'             5738   	st	r0,	NEAR _NewVar_Str+01h
                                 5739   
                                 5740   ;;				NewVar_Str[2] = RecWorld[4];
                                 5741   CLINEA 0000H 0001H 0764H 0005H 0020H
00:01B8 10-90 00-00'             5742   	l	r0,	NEAR _RecWorld+04h
00:01BC 11-90 00-00'             5743   	st	r0,	NEAR _NewVar_Str+02h
                                 5744   
                                 5745   ;;				NewVar_Str[3] = RecWorld[5];
                                 5746   CLINEA 0000H 0001H 0765H 0005H 0020H
00:01C0 10-90 00-00'             5747   	l	r0,	NEAR _RecWorld+05h
00:01C4 11-90 00-00'             5748   	st	r0,	NEAR _NewVar_Str+03h
                                 5749   
                                 5750   ;;				NewVar_Str[4] = RecWorld[6];
                                 5751   CLINEA 0000H 0001H 0766H 0005H 0020H
00:01C8 10-90 00-00'             5752   	l	r0,	NEAR _RecWorld+06h
00:01CC 11-90 00-00'             5753   	st	r0,	NEAR _NewVar_Str+04h
                                 5754   
                                 5755   ;;				NewVar_Str[5] = RecWorld[7];
                                 5756   CLINEA 0000H 0001H 0767H 0005H 0020H
00:01D0 10-90 00-00'             5757   	l	r0,	NEAR _RecWorld+07h
00:01D4 11-90 00-00'             5758   	st	r0,	NEAR _NewVar_Str+05h
                                 5759   
                                 5760   ;;				sscanf(NewVar_Str, "%f", &NewVar);
                                 5761   CLINEA 0000H 0001H 0768H 0005H 0026H
00:01D8 00'00                    5762   	mov	r0,	#BYTE1 OFFSET _NewVar
00:01DA 00'01                    5763   	mov	r1,	#BYTE2 OFFSET _NewVar
00:01DC 5E-F0                    5764   	push	er0
00:01DE 00'00                    5765   	mov	r0,	#BYTE1 OFFSET $$S216
00:01E0 00'01                    5766   	mov	r1,	#BYTE2 OFFSET $$S216
00:01E2 5E-F0                    5767   	push	er0
00:01E4 00'00                    5768   	mov	r0,	#BYTE1 OFFSET _NewVar_Str
00:01E6 00'01                    5769   	mov	r1,	#BYTE2 OFFSET _NewVar_Str
00:01E8 5E-F0                    5770   	push	er0
00:01EA 01-F0'00-00'             5771   	bl	_sscanf_nn
00:01EE 06 E1                    5772   	add	sp,	#6 
                                 5773   
                                 5774   ;;				CF_HPF = NewVar;
                                 5775   CLINEA 0000H 0001H 0769H 0005H 0014H
00:01F0 12-90 00-00'             5776   	l	er0,	NEAR _NewVar
00:01F4 12-92 00-00'             5777   	l	er2,	NEAR _NewVar+02h
00:01F8 13-90 00-00'             5778   	st	er0,	NEAR _CF_HPF
00:01FC 13-92 00-00'             5779   	st	er2,	NEAR _CF_HPF+02h
                                 5780   
                                 5781   ;;				CF_LPF = 1-NewVar;
                                 5782   CLINEA 0000H 0001H 076AH 0005H 0016H
00:0200 00 E0                    5783   	mov	er0,	#0 
00:0202 80 02                    5784   	mov	r2,	#080h
00:0204 3F 03                    5785   	mov	r3,	#03fh
00:0206 6E-F0                    5786   	push	xr0
00:0208 12-90 00-00'             5787   	l	er0,	NEAR _NewVar
00:020C 12-92 00-00'             5788   	l	er2,	NEAR _NewVar+02h
00:0210 6E-F0                    5789   	push	xr0
00:0212 01-F0'00-00'             5790   	bl	__fsubu8sw
00:0216 04 E1                    5791   	add	sp,	#4 
00:0218 2E-F0                    5792   	pop	xr0
00:021A 13-90 00-00'             5793   	st	er0,	NEAR _CF_LPF
00:021E 13-92 00-00'             5794   	st	er2,	NEAR _CF_LPF+02h
                                 5795   CBLOCKEND 232 12 1899
                                 5796   
                                 5797   ;;			}
                                 5798   CLINEA 0000H 0000H 076BH 0004H 0004H
00:0222                          5799   _$L430 :
                                 5800   CBLOCKEND 232 11 1900
                                 5801   
                                 5802   ;;		if(RecWorld[0] == 0x61){			//if RECWORLD == "a2"
                                 5803   CLINEA 0000H 0001H 076EH 0003H 0032H
00:0222 10-90 00-00'             5804   	l	r0,	NEAR _RecWorld
00:0226 61 70                    5805   	cmp	r0,	#061h
00:0228 02 C9                    5806   	beq	_$M24
00:022A 00-F0'00-00'             5807   	b	_$L434
00:022E                          5808   _$M24 :
                                 5809   CBLOCK 232 13 1902
                                 5810   
                                 5811   ;;			if(RecWorld[1] == 0x32){
                                 5812   CLINEA 0000H 0001H 076FH 0004H 001BH
00:022E 10-90 00-00'             5813   	l	r0,	NEAR _RecWorld+01h
00:0232 32 70                    5814   	cmp	r0,	#032h
00:0234 3D C8                    5815   	bne	_$L434
                                 5816   CBLOCK 232 14 1903
                                 5817   
                                 5818   ;;				NewVar_Str[0] = RecWorld[2];
                                 5819   CLINEA 0000H 0001H 0770H 0005H 0020H
00:0236 10-90 00-00'             5820   	l	r0,	NEAR _RecWorld+02h
00:023A 11-90 00-00'             5821   	st	r0,	NEAR _NewVar_Str
                                 5822   
                                 5823   ;;				NewVar_Str[1] = RecWorld[3];
                                 5824   CLINEA 0000H 0001H 0771H 0005H 0020H
00:023E 10-90 00-00'             5825   	l	r0,	NEAR _RecWorld+03h
00:0242 11-90 00-00'             5826   	st	r0,	NEAR _NewVar_Str+01h
                                 5827   
                                 5828   ;;				NewVar_Str[2] = RecWorld[4];
                                 5829   CLINEA 0000H 0001H 0772H 0005H 0020H
00:0246 10-90 00-00'             5830   	l	r0,	NEAR _RecWorld+04h
00:024A 11-90 00-00'             5831   	st	r0,	NEAR _NewVar_Str+02h
                                 5832   
                                 5833   ;;				NewVar_Str[3] = RecWorld[5];
                                 5834   CLINEA 0000H 0001H 0773H 0005H 0020H
00:024E 10-90 00-00'             5835   	l	r0,	NEAR _RecWorld+05h
00:0252 11-90 00-00'             5836   	st	r0,	NEAR _NewVar_Str+03h
                                 5837   
                                 5838   ;;				NewVar_Str[4] = RecWorld[6];
                                 5839   CLINEA 0000H 0001H 0774H 0005H 0020H
00:0256 10-90 00-00'             5840   	l	r0,	NEAR _RecWorld+06h
00:025A 11-90 00-00'             5841   	st	r0,	NEAR _NewVar_Str+04h
                                 5842   
                                 5843   ;;				NewVar_Str[5] = RecWorld[7];
                                 5844   CLINEA 0000H 0001H 0775H 0005H 0020H
00:025E 10-90 00-00'             5845   	l	r0,	NEAR _RecWorld+07h
00:0262 11-90 00-00'             5846   	st	r0,	NEAR _NewVar_Str+05h
                                 5847   
                                 5848   ;;				sscanf(NewVar_Str, "%f", &NewVar);
                                 5849   CLINEA 0000H 0001H 0776H 0005H 0026H
00:0266 00'00                    5850   	mov	r0,	#BYTE1 OFFSET _NewVar
00:0268 00'01                    5851   	mov	r1,	#BYTE2 OFFSET _NewVar
00:026A 5E-F0                    5852   	push	er0
00:026C 00'00                    5853   	mov	r0,	#BYTE1 OFFSET $$S216
00:026E 00'01                    5854   	mov	r1,	#BYTE2 OFFSET $$S216
00:0270 5E-F0                    5855   	push	er0
00:0272 00'00                    5856   	mov	r0,	#BYTE1 OFFSET _NewVar_Str
00:0274 00'01                    5857   	mov	r1,	#BYTE2 OFFSET _NewVar_Str
00:0276 5E-F0                    5858   	push	er0
00:0278 01-F0'00-00'             5859   	bl	_sscanf_nn
00:027C 06 E1                    5860   	add	sp,	#6 
                                 5861   
                                 5862   ;;				CF_HPF = 1-NewVar;
                                 5863   CLINEA 0000H 0001H 0777H 0005H 0016H
00:027E 00 E0                    5864   	mov	er0,	#0 
00:0280 80 02                    5865   	mov	r2,	#080h
00:0282 3F 03                    5866   	mov	r3,	#03fh
00:0284 6E-F0                    5867   	push	xr0
00:0286 12-90 00-00'             5868   	l	er0,	NEAR _NewVar
00:028A 12-92 00-00'             5869   	l	er2,	NEAR _NewVar+02h
00:028E 6E-F0                    5870   	push	xr0
00:0290 01-F0'00-00'             5871   	bl	__fsubu8sw
00:0294 04 E1                    5872   	add	sp,	#4 
00:0296 2E-F0                    5873   	pop	xr0
00:0298 13-90 00-00'             5874   	st	er0,	NEAR _CF_HPF
00:029C 13-92 00-00'             5875   	st	er2,	NEAR _CF_HPF+02h
                                 5876   
                                 5877   ;;				CF_LPF = NewVar;
                                 5878   CLINEA 0000H 0001H 0778H 0005H 0014H
00:02A0 12-90 00-00'             5879   	l	er0,	NEAR _NewVar
00:02A4 12-92 00-00'             5880   	l	er2,	NEAR _NewVar+02h
00:02A8 13-90 00-00'             5881   	st	er0,	NEAR _CF_LPF
00:02AC 13-92 00-00'             5882   	st	er2,	NEAR _CF_LPF+02h
                                 5883   CBLOCKEND 232 14 1913
                                 5884   
                                 5885   ;;			}
                                 5886   CLINEA 0000H 0000H 0779H 0004H 0004H
00:02B0                          5887   _$L434 :
                                 5888   CBLOCKEND 232 13 1914
                                 5889   
                                 5890   ;;		for(k = 0; k<150; k++)
                                 5891   CLINEA 0000H 0001H 077CH 0007H 000CH
00:02B0 00 E0                    5892   	mov	er0,	#0 
                                 5893   
                                 5894   ;;		for(k = 0; k<150; k++)
                                 5895   CLINEA 0000H 0000H 077CH 0015H 0017H
00:02B2                          5896   _$L438 :
                                 5897   CBLOCK 232 15 1917
                                 5898   
                                 5899   ;;			SensorReturn[k] = 0x20;
                                 5900   CLINEA 0000H 0001H 077EH 0004H 001AH
00:02B2 20 02                    5901   	mov	r2,	#020h
00:02B4 09-92 00-00'             5902   	st	r2,	NEAR _SensorReturn[er0]
                                 5903   CBLOCKEND 232 15 1919
                                 5904   
                                 5905   ;;		for(k = 0; k<150; k++)
                                 5906   CLINEA 0000H 0000H 077CH 0015H 0017H
00:02B8 81 E0                    5907   	add	er0,	#1 
                                 5908   
                                 5909   ;;		for(k = 0; k<150; k++)
                                 5910   CLINEA 0000H 0000H 077CH 000EH 0013H
00:02BA 96 70                    5911   	cmp	r0,	#096h
00:02BC 00 51                    5912   	cmpc	r1,	#00h
00:02BE F9 C5                    5913   	blts	_$L438
                                 5914   
                                 5915   ;;		sprintf(SensorReturn, "New Settings: kp=%f,ki=%f,kd=%f,a1=%f,a2=%f", Accel_PID_XRoll_kp, Accel_PID_XRoll_ki, Accel_PID_XRoll_kd, CF_HPF, CF_LPF);
                                 5916   CLINEA 0000H 0001H 0781H 0003H 0093H
00:02C0 12-90 00-00'             5917   	l	er0,	NEAR _CF_LPF
00:02C4 12-92 00-00'             5918   	l	er2,	NEAR _CF_LPF+02h
00:02C8 6E-F0                    5919   	push	xr0
00:02CA FC E1                    5920   	add	sp,	#-4
00:02CC 01-F0'00-00'             5921   	bl	__ftodu8sw
00:02D0 12-90 00-00'             5922   	l	er0,	NEAR _CF_HPF
00:02D4 12-92 00-00'             5923   	l	er2,	NEAR _CF_HPF+02h
00:02D8 6E-F0                    5924   	push	xr0
00:02DA FC E1                    5925   	add	sp,	#-4
00:02DC 01-F0'00-00'             5926   	bl	__ftodu8sw
00:02E0 12-90 00-00'             5927   	l	er0,	NEAR _Accel_PID_XRoll_kd
00:02E4 12-92 00-00'             5928   	l	er2,	NEAR _Accel_PID_XRoll_kd+02h
00:02E8 6E-F0                    5929   	push	xr0
00:02EA FC E1                    5930   	add	sp,	#-4
00:02EC 01-F0'00-00'             5931   	bl	__ftodu8sw
00:02F0 12-90 00-00'             5932   	l	er0,	NEAR _Accel_PID_XRoll_ki
00:02F4 12-92 00-00'             5933   	l	er2,	NEAR _Accel_PID_XRoll_ki+02h
00:02F8 6E-F0                    5934   	push	xr0
00:02FA FC E1                    5935   	add	sp,	#-4
00:02FC 01-F0'00-00'             5936   	bl	__ftodu8sw
00:0300 12-90 00-00'             5937   	l	er0,	NEAR _Accel_PID_XRoll_kp
00:0304 12-92 00-00'             5938   	l	er2,	NEAR _Accel_PID_XRoll_kp+02h
00:0308 6E-F0                    5939   	push	xr0
00:030A FC E1                    5940   	add	sp,	#-4
00:030C 01-F0'00-00'             5941   	bl	__ftodu8sw
00:0310 00'00                    5942   	mov	r0,	#BYTE1 OFFSET $$S442
00:0312 00'01                    5943   	mov	r1,	#BYTE2 OFFSET $$S442
00:0314 5E-F0                    5944   	push	er0
00:0316 00'00                    5945   	mov	r0,	#BYTE1 OFFSET _SensorReturn
00:0318 00'01                    5946   	mov	r1,	#BYTE2 OFFSET _SensorReturn
00:031A 5E-F0                    5947   	push	er0
00:031C 01-F0'00-00'             5948   	bl	_sprintf_nn
00:0320 2C E1                    5949   	add	sp,	#44
                                 5950   
                                 5951   ;;		SensorReturn[148] = 0x0D;	//CR
                                 5952   CLINEA 0000H 0001H 0783H 0003H 0020H
00:0322 0D 00                    5953   	mov	r0,	#0dh
00:0324 11-90 00-00'             5954   	st	r0,	NEAR _SensorReturn+094h
                                 5955   
                                 5956   ;;		SensorReturn[149] = 0x0A;	//LF
                                 5957   CLINEA 0000H 0001H 0784H 0003H 0020H
00:0328 0A 00                    5958   	mov	r0,	#0ah
00:032A 11-90 00-00'             5959   	st	r0,	NEAR _SensorReturn+095h
                                 5960   
                                 5961   ;;		_flgUartFin = 0;
                                 5962   CLINEA 0000H 0001H 0787H 0003H 0012H
00:032E 00 00                    5963   	mov	r0,	#00h
00:0330 11-90 00-00'             5964   	st	r0,	NEAR __flgUartFin
                                 5965   
                                 5966   ;;		uart_stop();
                                 5967   CLINEA 0000H 0001H 0788H 0003H 000EH
00:0334 01-F0'00-00'             5968   	bl	_uart_stop
                                 5969   
                                 5970   ;;		uart_startSend(SensorReturn, 150, _funcUartFin);
                                 5971   CLINEA 0000H 0001H 0789H 0003H 0032H
00:0338 00'00                    5972   	mov	r0,	#BYTE1 OFFSET __funcUartFin
00:033A 00'01                    5973   	mov	r1,	#BYTE2 OFFSET __funcUartFin
00:033C 5E-F0                    5974   	push	er0
00:033E 96 02                    5975   	mov	r2,	#096h
00:0340 00 03                    5976   	mov	r3,	#00h
00:0342 00'00                    5977   	mov	r0,	#BYTE1 OFFSET _SensorReturn
00:0344 00'01                    5978   	mov	r1,	#BYTE2 OFFSET _SensorReturn
00:0346 01-F0'00-00'             5979   	bl	_uart_startSend
00:034A 02 E1                    5980   	add	sp,	#2 
                                 5981   
                                 5982   ;;		while(_flgUartFin != 1){
                                 5983   CLINEA 0000H 0000H 078AH 0001H 0001H
00:034C 02 CE                    5984   	bal	_$L448
                                 5985   
                                 5986   ;;		while(_flgUartFin != 1){
                                 5987   CLINEA 0000H 0000H 078AH 0003H 001AH
00:034E                          5988   _$L445 :
                                 5989   CBLOCK 232 16 1930
                                 5990   
                                 5991   ;;			main_clrWDT();
                                 5992   CLINEA 0000H 0001H 078BH 0004H 0011H
00:034E 01-F0'00-00'             5993   	bl	_main_clrWDT
                                 5994   CBLOCKEND 232 16 1932
                                 5995   
                                 5996   ;;		while(_flgUartFin != 1){
                                 5997   CLINEA 0000H 0000H 078AH 0001H 0001H
00:0352                          5998   _$L448 :
                                 5999   
                                 6000   ;;		while(_flgUartFin != 1){
                                 6001   CLINEA 0000H 0000H 078AH 000EH 0013H
00:0352 10-90 00-00'             6002   	l	r0,	NEAR __flgUartFin
00:0356 01 70                    6003   	cmp	r0,	#01h
00:0358 FA C8                    6004   	bne	_$L445
                                 6005   
                                 6006   ;;		ETM8 = 1;	//Turn TIMER8/9 ISR Back ON
                                 6007   CLINEA 0000H 0001H 078EH 0003H 0027H
00:035A A0-A0 13-F0              6008   	sb	0f013h.2
                                 6009   
                                 6010   ;;		ETM9 = 1;	//Turn TIMER8/9 ISR Back ON		
                                 6011   CLINEA 0000H 0001H 078FH 0003H 0029H
00:035E B0-A0 13-F0              6012   	sb	0f013h.3
                                 6013   CBLOCKEND 232 2 1936
                                 6014   
                                 6015   ;;}
                                 6016   CLINEA 0000H 0001H 0790H 0001H 0001H
00:0362 8E-F2                    6017   	pop	pc
                                 6018   CBLOCKEND 232 1 1936
                                 6019   CFUNCTIONEND 232
                                 6020   
                                 6021   
  --------------------------     6022   	rseg $$SoftStart$main
                                 6023   CFUNCTION 233
                                 6024   
00:0000                          6025   _SoftStart	:
                                 6026   CBLOCK 233 1 1940
                                 6027   
                                 6028   ;;{
                                 6029   CLINEA 0000H 0001H 0794H 0001H 0001H
00:0000 CE-F8                    6030   	push	lr
                                 6031   CBLOCK 233 2 1940
                                 6032   CRET 0000H
                                 6033   
                                 6034   ;;		while(PWED < PWMLowerDutyLimitRun){
                                 6035   CLINEA 0000H 0001H 0797H 0003H 0025H
00:0002 27 CE                    6036   	bal	_$L450
00:0004                          6037   _$L452 :
                                 6038   CBLOCK 233 3 1943
                                 6039   
                                 6040   ;;			NOPms(50);
                                 6041   CLINEA 0000H 0001H 0798H 0004H 000DH
00:0004 32 E0                    6042   	mov	er0,	#50
00:0006 01-F0'00-00'             6043   	bl	_NOPms
                                 6044   
                                 6045   ;;			PFRUN = 0;	//Turn OFF PWM
                                 6046   CLINEA 0000H 0001H 0799H 0004H 001CH
00:000A 82-A0 73-F9              6047   	rb	0f973h.0
                                 6048   
                                 6049   ;;			PERUN = 0;
                                 6050   CLINEA 0000H 0001H 079AH 0004H 000DH
00:000E 82-A0 37-F9              6051   	rb	0f937h.0
                                 6052   
                                 6053   ;;			PDRUN = 0;
                                 6054   CLINEA 0000H 0001H 079BH 0004H 000DH
00:0012 82-A0 27-F9              6055   	rb	0f927h.0
                                 6056   
                                 6057   ;;			PCRUN = 0;
                                 6058   CLINEA 0000H 0001H 079CH 0004H 000DH
00:0016 82-A0 17-F9              6059   	rb	0f917h.0
                                 6060   
                                 6061   ;;			PWF0D += 1; 		//Can't be running to change (Only this variable)
                                 6062   CLINEA 0000H 0001H 079DH 0004H 0042H
00:001A 12-90 62-F9              6063   	l	er0,	0f962h
00:001E 81 E0                    6064   	add	er0,	#1 
00:0020 13-90 62-F9              6065   	st	er0,	0f962h
                                 6066   
                                 6067   ;;			PWED += 1;	
                                 6068   CLINEA 0000H 0001H 079EH 0004H 000EH
00:0024 12-90 32-F9              6069   	l	er0,	0f932h
00:0028 81 E0                    6070   	add	er0,	#1 
00:002A 13-90 32-F9              6071   	st	er0,	0f932h
                                 6072   
                                 6073   ;;			PWDD += 1;	
                                 6074   CLINEA 0000H 0001H 079FH 0004H 000EH
00:002E 12-90 22-F9              6075   	l	er0,	0f922h
00:0032 81 E0                    6076   	add	er0,	#1 
00:0034 13-90 22-F9              6077   	st	er0,	0f922h
                                 6078   
                                 6079   ;;			PWCD += 1;
                                 6080   CLINEA 0000H 0001H 07A0H 0004H 000DH
00:0038 12-90 12-F9              6081   	l	er0,	0f912h
00:003C 81 E0                    6082   	add	er0,	#1 
00:003E 13-90 12-F9              6083   	st	er0,	0f912h
                                 6084   
                                 6085   ;;			PFRUN = 1;	//Turn ON PWM
                                 6086   CLINEA 0000H 0001H 07A2H 0004H 001BH
00:0042 80-A0 73-F9              6087   	sb	0f973h.0
                                 6088   
                                 6089   ;;			PERUN = 1;
                                 6090   CLINEA 0000H 0001H 07A3H 0004H 000DH
00:0046 80-A0 37-F9              6091   	sb	0f937h.0
                                 6092   
                                 6093   ;;			PDRUN = 1;
                                 6094   CLINEA 0000H 0001H 07A4H 0004H 000DH
00:004A 80-A0 27-F9              6095   	sb	0f927h.0
                                 6096   
                                 6097   ;;			PCRUN = 1;
                                 6098   CLINEA 0000H 0001H 07A5H 0004H 000DH
00:004E 80-A0 17-F9              6099   	sb	0f917h.0
                                 6100   CBLOCKEND 233 3 1958
                                 6101   
                                 6102   ;;		}
                                 6103   CLINEA 0000H 0000H 07A6H 0003H 0003H
00:0052                          6104   _$L450 :
                                 6105   
                                 6106   ;;		while(PWED < PWMLowerDutyLimitRun){
                                 6107   CLINEA 0000H 0000H 0797H 000EH 0013H
00:0052 12-90 32-F9              6108   	l	er0,	0f932h
00:0056 12-92 00-00'             6109   	l	er2,	NEAR _PWMLowerDutyLimitRun
00:005A 27-F0                    6110   	cmp	er0,	er2
00:005C D3 C1                    6111   	blt	_$L452
                                 6112   CBLOCKEND 233 2 1959
                                 6113   
                                 6114   ;;}
                                 6115   CLINEA 0000H 0001H 07A7H 0001H 0001H
00:005E 8E-F2                    6116   	pop	pc
                                 6117   CBLOCKEND 233 1 1959
                                 6118   CFUNCTIONEND 233
                                 6119   
                                 6120   
  --------------------------     6121   	rseg $$RampUpMotorTest$main
                                 6122   CFUNCTION 234
                                 6123   
00:0000                          6124   _RampUpMotorTest	:
                                 6125   CBLOCK 234 1 1964
                                 6126   
                                 6127   ;;void RampUpMotorTest(void){
                                 6128   CLINEA 0000H 0001H 07ACH 0001H 001BH
                                 6129   CBLOCK 234 2 1964
                                 6130   
                                 6131   ;;	if(PWMCounter < PWMSensorResPerInc){
                                 6132   CLINEA 0000H 0001H 07ADH 0002H 0025H
00:0000 10-90 00-00'             6133   	l	r0,	NEAR _PWMCounter
00:0004 10-91 00-00'             6134   	l	r1,	NEAR _PWMSensorResPerInc
00:0008 17-80                    6135   	cmp	r0,	r1
00:000A 04 C0                    6136   	bge	_$L455
                                 6137   CBLOCK 234 3 1965
                                 6138   
                                 6139   ;;		PWMCounter++;
                                 6140   CLINEA 0000H 0000H 07AEH 0003H 000FH
00:000C 01 10                    6141   	add	r0,	#01h
00:000E 11-90 00-00'             6142   	st	r0,	NEAR _PWMCounter
                                 6143   CBLOCKEND 234 3 1967
                                 6144   
                                 6145   ;;	else{
                                 6146   CLINEA 0000H 0001H 07B0H 0002H 0006H
00:0012 1F-FE                    6147   	rt
00:0014                          6148   _$L455 :
                                 6149   CBLOCK 234 4 1968
                                 6150   
                                 6151   ;;		if(PWED < PWMUpperDutyLimitCalib){
                                 6152   CLINEA 0000H 0001H 07B1H 0003H 0024H
00:0014 12-90 32-F9              6153   	l	er0,	0f932h
00:0018 12-92 00-00'             6154   	l	er2,	NEAR _PWMUpperDutyLimitCalib
00:001C 27-F0                    6155   	cmp	er0,	er2
00:001E 02 C1                    6156   	blt	_$M27
00:0020 00-F0'00-00'             6157   	b	_$L464
00:0024                          6158   _$M27 :
                                 6159   CBLOCK 234 5 1969
                                 6160   
                                 6161   ;;			if(PWMflag == 0){
                                 6162   CLINEA 0000H 0001H 07B2H 0004H 0014H
00:0024 10-90 00-00'             6163   	l	r0,	NEAR _PWMflag
00:0028 26 C8                    6164   	bne	_$L460
                                 6165   CBLOCK 234 6 1970
                                 6166   
                                 6167   ;;				PFRUN = 0;	//Turn OFF PWM
                                 6168   CLINEA 0000H 0001H 07B3H 0005H 001DH
00:002A 82-A0 73-F9              6169   	rb	0f973h.0
                                 6170   
                                 6171   ;;				PERUN = 0;
                                 6172   CLINEA 0000H 0001H 07B4H 0005H 000EH
00:002E 82-A0 37-F9              6173   	rb	0f937h.0
                                 6174   
                                 6175   ;;				PDRUN = 0;
                                 6176   CLINEA 0000H 0001H 07B5H 0005H 000EH
00:0032 82-A0 27-F9              6177   	rb	0f927h.0
                                 6178   
                                 6179   ;;				PCRUN = 0;
                                 6180   CLINEA 0000H 0001H 07B6H 0005H 000EH
00:0036 82-A0 17-F9              6181   	rb	0f917h.0
                                 6182   
                                 6183   ;;				PWF0D += MotorStep; //Can't be running to change (Only this variable)
                                 6184   CLINEA 0000H 0001H 07B7H 0005H 0049H
00:003A 12-90 62-F9              6185   	l	er0,	0f962h
00:003E 12-92 00-00'             6186   	l	er2,	NEAR _MotorStep
00:0042 26-F0                    6187   	add	er0,	er2
00:0044 13-90 62-F9              6188   	st	er0,	0f962h
                                 6189   
                                 6190   ;;				PWED += MotorStep;
                                 6191   CLINEA 0000H 0001H 07B8H 0005H 0016H
00:0048 12-90 32-F9              6192   	l	er0,	0f932h
00:004C 26-F0                    6193   	add	er0,	er2
00:004E 13-90 32-F9              6194   	st	er0,	0f932h
                                 6195   
                                 6196   ;;				PWDD += MotorStep;
                                 6197   CLINEA 0000H 0001H 07B9H 0005H 0016H
00:0052 12-90 22-F9              6198   	l	er0,	0f922h
00:0056 26-F0                    6199   	add	er0,	er2
00:0058 13-90 22-F9              6200   	st	er0,	0f922h
                                 6201   
                                 6202   ;;				PWCD += MotorStep;
                                 6203   CLINEA 0000H 0001H 07BAH 0005H 0016H
00:005C 12-90 12-F9              6204   	l	er0,	0f912h
00:0060 26-F0                    6205   	add	er0,	er2
00:0062 13-90 12-F9              6206   	st	er0,	0f912h
                                 6207   
                                 6208   ;;				PFRUN = 1;	//Turn ON PWM
                                 6209   CLINEA 0000H 0001H 07BBH 0005H 001CH
00:0066 80-A0 73-F9              6210   	sb	0f973h.0
                                 6211   
                                 6212   ;;				PERUN = 1;
                                 6213   CLINEA 0000H 0001H 07BCH 0005H 000EH
00:006A 80-A0 37-F9              6214   	sb	0f937h.0
                                 6215   
                                 6216   ;;				PDRUN = 1;
                                 6217   CLINEA 0000H 0001H 07BDH 0005H 000EH
00:006E 80-A0 27-F9              6218   	sb	0f927h.0
                                 6219   
                                 6220   ;;				PCRUN = 1;
                                 6221   CLINEA 0000H 0001H 07BEH 0005H 000EH
00:0072 80-A0 17-F9              6222   	sb	0f917h.0
                                 6223   CBLOCKEND 234 6 1983
                                 6224   
                                 6225   ;;			}
                                 6226   CLINEA 0000H 0000H 07BFH 0004H 0004H
00:0076                          6227   _$L460 :
                                 6228   
                                 6229   ;;			if(PWMflag == 1){
                                 6230   CLINEA 0000H 0001H 07C0H 0004H 0014H
00:0076 10-90 00-00'             6231   	l	r0,	NEAR _PWMflag
00:007A 01 70                    6232   	cmp	r0,	#01h
00:007C 33 C8                    6233   	bne	_$L464
                                 6234   CBLOCK 234 7 1984
                                 6235   
                                 6236   ;;				PFRUN = 0;	//Turn OFF PWM
                                 6237   CLINEA 0000H 0001H 07C1H 0005H 001DH
00:007E 82-A0 73-F9              6238   	rb	0f973h.0
                                 6239   
                                 6240   ;;				PERUN = 0;
                                 6241   CLINEA 0000H 0001H 07C2H 0005H 000EH
00:0082 82-A0 37-F9              6242   	rb	0f937h.0
                                 6243   
                                 6244   ;;				PDRUN = 0;
                                 6245   CLINEA 0000H 0001H 07C3H 0005H 000EH
00:0086 82-A0 27-F9              6246   	rb	0f927h.0
                                 6247   
                                 6248   ;;				PCRUN = 0;
                                 6249   CLINEA 0000H 0001H 07C4H 0005H 000EH
00:008A 82-A0 17-F9              6250   	rb	0f917h.0
                                 6251   
                                 6252   ;;				PWF0D -= MotorStep; //Can't be running to change (Only this variable)
                                 6253   CLINEA 0000H 0001H 07C5H 0005H 0049H
00:008E 12-90 62-F9              6254   	l	er0,	0f962h
00:0092 12-92 00-00'             6255   	l	er2,	NEAR _MotorStep
00:0096 28-80                    6256   	sub	r0,	r2
00:0098 39-81                    6257   	subc	r1,	r3
00:009A 13-90 62-F9              6258   	st	er0,	0f962h
                                 6259   
                                 6260   ;;				PWED -= MotorStep;
                                 6261   CLINEA 0000H 0001H 07C6H 0005H 0016H
00:009E 12-90 32-F9              6262   	l	er0,	0f932h
00:00A2 28-80                    6263   	sub	r0,	r2
00:00A4 39-81                    6264   	subc	r1,	r3
00:00A6 13-90 32-F9              6265   	st	er0,	0f932h
                                 6266   
                                 6267   ;;				PWDD -= MotorStep;
                                 6268   CLINEA 0000H 0001H 07C7H 0005H 0016H
00:00AA 12-90 22-F9              6269   	l	er0,	0f922h
00:00AE 28-80                    6270   	sub	r0,	r2
00:00B0 39-81                    6271   	subc	r1,	r3
00:00B2 13-90 22-F9              6272   	st	er0,	0f922h
                                 6273   
                                 6274   ;;				PWCD -= MotorStep;
                                 6275   CLINEA 0000H 0001H 07C8H 0005H 0016H
00:00B6 12-90 12-F9              6276   	l	er0,	0f912h
00:00BA 28-80                    6277   	sub	r0,	r2
00:00BC 39-81                    6278   	subc	r1,	r3
00:00BE 13-90 12-F9              6279   	st	er0,	0f912h
                                 6280   
                                 6281   ;;				PFRUN = 1;	//Turn ON PWM
                                 6282   CLINEA 0000H 0001H 07C9H 0005H 001CH
00:00C2 80-A0 73-F9              6283   	sb	0f973h.0
                                 6284   
                                 6285   ;;				PERUN = 1;
                                 6286   CLINEA 0000H 0001H 07CAH 0005H 000EH
00:00C6 80-A0 37-F9              6287   	sb	0f937h.0
                                 6288   
                                 6289   ;;				PDRUN = 1;
                                 6290   CLINEA 0000H 0001H 07CBH 0005H 000EH
00:00CA 80-A0 27-F9              6291   	sb	0f927h.0
                                 6292   
                                 6293   ;;				PCRUN = 1;
                                 6294   CLINEA 0000H 0001H 07CCH 0005H 000EH
00:00CE 80-A0 17-F9              6295   	sb	0f917h.0
                                 6296   
                                 6297   ;;				if(PWED <= PWMSafeDuty){
                                 6298   CLINEA 0000H 0001H 07CDH 0005H 001CH
00:00D2 12-90 32-F9              6299   	l	er0,	0f932h
00:00D6 12-92 00-00'             6300   	l	er2,	NEAR _PWMSafeDuty
00:00DA 27-F0                    6301   	cmp	er0,	er2
00:00DC 03 C2                    6302   	bgt	_$L464
                                 6303   CBLOCK 234 8 1997
                                 6304   
                                 6305   ;;					PWMflag = 2;
                                 6306   CLINEA 0000H 0001H 07CEH 0006H 0011H
00:00DE 02 00                    6307   	mov	r0,	#02h
00:00E0 11-90 00-00'             6308   	st	r0,	NEAR _PWMflag
                                 6309   CBLOCKEND 234 8 1999
                                 6310   
                                 6311   ;;				}
                                 6312   CLINEA 0000H 0000H 07CFH 0005H 0005H
00:00E4                          6313   _$L464 :
                                 6314   CBLOCKEND 234 7 2000
                                 6315   CBLOCKEND 234 5 2001
                                 6316   
                                 6317   ;;		if(PWED >= PWMUpperDutyLimitCalib){
                                 6318   CLINEA 0000H 0001H 07D2H 0003H 0025H
00:00E4 12-90 32-F9              6319   	l	er0,	0f932h
00:00E8 12-92 00-00'             6320   	l	er2,	NEAR _PWMUpperDutyLimitCalib
00:00EC 27-F0                    6321   	cmp	er0,	er2
00:00EE 2D C1                    6322   	blt	_$L466
                                 6323   CBLOCK 234 9 2002
                                 6324   
                                 6325   ;;			PFRUN = 0;	//Turn OFF PWM
                                 6326   CLINEA 0000H 0001H 07D3H 0004H 001CH
00:00F0 82-A0 73-F9              6327   	rb	0f973h.0
                                 6328   
                                 6329   ;;			PERUN = 0;
                                 6330   CLINEA 0000H 0001H 07D4H 0004H 000DH
00:00F4 82-A0 37-F9              6331   	rb	0f937h.0
                                 6332   
                                 6333   ;;			PDRUN = 0;
                                 6334   CLINEA 0000H 0001H 07D5H 0004H 000DH
00:00F8 82-A0 27-F9              6335   	rb	0f927h.0
                                 6336   
                                 6337   ;;			PCRUN = 0;
                                 6338   CLINEA 0000H 0001H 07D6H 0004H 000DH
00:00FC 82-A0 17-F9              6339   	rb	0f917h.0
                                 6340   
                                 6341   ;;			PWF0D -= MotorStep; //Can't be running to change (Only this variable)
                                 6342   CLINEA 0000H 0001H 07D7H 0004H 0048H
00:0100 12-90 62-F9              6343   	l	er0,	0f962h
00:0104 12-92 00-00'             6344   	l	er2,	NEAR _MotorStep
00:0108 28-80                    6345   	sub	r0,	r2
00:010A 39-81                    6346   	subc	r1,	r3
00:010C 13-90 62-F9              6347   	st	er0,	0f962h
                                 6348   
                                 6349   ;;			PWED -= MotorStep;
                                 6350   CLINEA 0000H 0001H 07D8H 0004H 0015H
00:0110 12-90 32-F9              6351   	l	er0,	0f932h
00:0114 28-80                    6352   	sub	r0,	r2
00:0116 39-81                    6353   	subc	r1,	r3
00:0118 13-90 32-F9              6354   	st	er0,	0f932h
                                 6355   
                                 6356   ;;			PWDD -= MotorStep;
                                 6357   CLINEA 0000H 0001H 07D9H 0004H 0015H
00:011C 12-90 22-F9              6358   	l	er0,	0f922h
00:0120 28-80                    6359   	sub	r0,	r2
00:0122 39-81                    6360   	subc	r1,	r3
00:0124 13-90 22-F9              6361   	st	er0,	0f922h
                                 6362   
                                 6363   ;;			PWCD -= MotorStep;
                                 6364   CLINEA 0000H 0001H 07DAH 0004H 0015H
00:0128 12-90 12-F9              6365   	l	er0,	0f912h
00:012C 28-80                    6366   	sub	r0,	r2
00:012E 39-81                    6367   	subc	r1,	r3
00:0130 13-90 12-F9              6368   	st	er0,	0f912h
                                 6369   
                                 6370   ;;			PWMflag = 1;
                                 6371   CLINEA 0000H 0001H 07DBH 0004H 000FH
00:0134 01 00                    6372   	mov	r0,	#01h
00:0136 11-90 00-00'             6373   	st	r0,	NEAR _PWMflag
                                 6374   
                                 6375   ;;			PFRUN = 1;	//Turn ON PWM
                                 6376   CLINEA 0000H 0001H 07DCH 0004H 001BH
00:013A 80-A0 73-F9              6377   	sb	0f973h.0
                                 6378   
                                 6379   ;;			PERUN = 1;
                                 6380   CLINEA 0000H 0001H 07DDH 0004H 000DH
00:013E 80-A0 37-F9              6381   	sb	0f937h.0
                                 6382   
                                 6383   ;;			PDRUN = 1;
                                 6384   CLINEA 0000H 0001H 07DEH 0004H 000DH
00:0142 80-A0 27-F9              6385   	sb	0f927h.0
                                 6386   
                                 6387   ;;			PCRUN = 1;
                                 6388   CLINEA 0000H 0001H 07DFH 0004H 000DH
00:0146 80-A0 17-F9              6389   	sb	0f917h.0
                                 6390   CBLOCKEND 234 9 2016
                                 6391   
                                 6392   ;;		}
                                 6393   CLINEA 0000H 0000H 07E0H 0003H 0003H
00:014A                          6394   _$L466 :
                                 6395   
                                 6396   ;;		PWMCounter = 0;
                                 6397   CLINEA 0000H 0001H 07E1H 0003H 0011H
00:014A 00 00                    6398   	mov	r0,	#00h
00:014C 11-90 00-00'             6399   	st	r0,	NEAR _PWMCounter
                                 6400   CBLOCKEND 234 4 2018
                                 6401   
                                 6402   ;;	}
                                 6403   CLINEA 0000H 0000H 07E2H 0002H 0002H
                                 6404   CBLOCKEND 234 2 2019
                                 6405   
                                 6406   ;;}
                                 6407   CLINEA 0000H 0001H 07E3H 0001H 0001H
00:0150 1F-FE                    6408   	rt
                                 6409   CBLOCKEND 234 1 2019
                                 6410   CFUNCTIONEND 234
                                 6411   
                                 6412   
  --------------------------     6413   	rseg $$DistanceSensorControl$main
                                 6414   CFUNCTION 235
                                 6415   
00:0000                          6416   _DistanceSensorControl	:
                                 6417   CBLOCK 235 1 2020
                                 6418   
                                 6419   ;;void DistanceSensorControl(void){
                                 6420   CLINEA 0000H 0001H 07E4H 0001H 0021H
00:0000 CE-F8                    6421   	push	lr
                                 6422   CBLOCK 235 2 2020
                                 6423   CRET 0000H
                                 6424   
                                 6425   ;;	if((Range_out < Range_ZHiThres)||(Range_out > Range_Ceiling)){	//65 = 4Ft Level, 240 accounts for sensor error when too close to ground.
                                 6426   CLINEA 0000H 0001H 07E5H 0002H 0089H
00:0002 12-90 00-00'             6427   	l	er0,	NEAR _Range_out
00:0006 00 E2                    6428   	mov	er2,	#0 
00:0008 6E-F0                    6429   	push	xr0
00:000A 01-F0'00-00'             6430   	bl	__fuldu8sw
00:000E 12-90 00-00'             6431   	l	er0,	NEAR _Range_ZHiThres
00:0012 12-92 00-00'             6432   	l	er2,	NEAR _Range_ZHiThres+02h
00:0016 6E-F0                    6433   	push	xr0
00:0018 01-F0'00-00'             6434   	bl	__fcmpu8sw
00:001C 08 E1                    6435   	add	sp,	#8 
00:001E 0B-A0                    6436   	mov	psw,	r0
00:0020 10 C1                    6437   	blt	_$L470
00:0022 12-90 00-00'             6438   	l	er0,	NEAR _Range_out
00:0026 00 E2                    6439   	mov	er2,	#0 
00:0028 6E-F0                    6440   	push	xr0
00:002A 01-F0'00-00'             6441   	bl	__fuldu8sw
00:002E 12-90 00-00'             6442   	l	er0,	NEAR _Range_Ceiling
00:0032 12-92 00-00'             6443   	l	er2,	NEAR _Range_Ceiling+02h
00:0036 6E-F0                    6444   	push	xr0
00:0038 01-F0'00-00'             6445   	bl	__fcmpu8sw
00:003C 08 E1                    6446   	add	sp,	#8 
00:003E 0B-A0                    6447   	mov	psw,	r0
00:0040 26 C3                    6448   	ble	_$L469
00:0042                          6449   _$L470 :
                                 6450   CBLOCK 235 3 2021
                                 6451   
                                 6452   ;;		PFRUN = 0;	//Turn OFF PWM
                                 6453   CLINEA 0000H 0001H 07E6H 0003H 001BH
00:0042 82-A0 73-F9              6454   	rb	0f973h.0
                                 6455   
                                 6456   ;;		PERUN = 0;
                                 6457   CLINEA 0000H 0001H 07E7H 0003H 000CH
00:0046 82-A0 37-F9              6458   	rb	0f937h.0
                                 6459   
                                 6460   ;;		PDRUN = 0;
                                 6461   CLINEA 0000H 0001H 07E8H 0003H 000CH
00:004A 82-A0 27-F9              6462   	rb	0f927h.0
                                 6463   
                                 6464   ;;		PCRUN = 0;
                                 6465   CLINEA 0000H 0001H 07E9H 0003H 000CH
00:004E 82-A0 17-F9              6466   	rb	0f917h.0
                                 6467   
                                 6468   ;;		PWF0D += MotorStep; //Can't be running to change (Only this variable)
                                 6469   CLINEA 0000H 0001H 07EAH 0003H 0047H
00:0052 12-90 62-F9              6470   	l	er0,	0f962h
00:0056 12-92 00-00'             6471   	l	er2,	NEAR _MotorStep
00:005A 26-F0                    6472   	add	er0,	er2
00:005C 13-90 62-F9              6473   	st	er0,	0f962h
                                 6474   
                                 6475   ;;		PWED += MotorStep;
                                 6476   CLINEA 0000H 0001H 07EBH 0003H 0014H
00:0060 12-90 32-F9              6477   	l	er0,	0f932h
00:0064 26-F0                    6478   	add	er0,	er2
00:0066 13-90 32-F9              6479   	st	er0,	0f932h
                                 6480   
                                 6481   ;;		PWDD += MotorStep;
                                 6482   CLINEA 0000H 0001H 07ECH 0003H 0014H
00:006A 12-90 22-F9              6483   	l	er0,	0f922h
00:006E 26-F0                    6484   	add	er0,	er2
00:0070 13-90 22-F9              6485   	st	er0,	0f922h
                                 6486   
                                 6487   ;;		PWCD += MotorStep;
                                 6488   CLINEA 0000H 0001H 07EDH 0003H 0014H
00:0074 12-90 12-F9              6489   	l	er0,	0f912h
00:0078 26-F0                    6490   	add	er0,	er2
00:007A 13-90 12-F9              6491   	st	er0,	0f912h
                                 6492   
                                 6493   ;;		PFRUN = 1;	//Turn ON PWM
                                 6494   CLINEA 0000H 0001H 07EEH 0003H 001AH
00:007E 80-A0 73-F9              6495   	sb	0f973h.0
                                 6496   
                                 6497   ;;		PERUN = 1;
                                 6498   CLINEA 0000H 0001H 07EFH 0003H 000CH
00:0082 80-A0 37-F9              6499   	sb	0f937h.0
                                 6500   
                                 6501   ;;		PDRUN = 1;
                                 6502   CLINEA 0000H 0001H 07F0H 0003H 000CH
00:0086 80-A0 27-F9              6503   	sb	0f927h.0
                                 6504   
                                 6505   ;;		PCRUN = 1;
                                 6506   CLINEA 0000H 0001H 07F1H 0003H 000CH
00:008A 80-A0 17-F9              6507   	sb	0f917h.0
                                 6508   CBLOCKEND 235 3 2034
                                 6509   
                                 6510   ;;	}			
                                 6511   CLINEA 0000H 0000H 07F2H 0002H 0005H
00:008E                          6512   _$L469 :
                                 6513   
                                 6514   ;;	if(Range_out > 75){	//4Ft Level
                                 6515   CLINEA 0000H 0001H 07F3H 0002H 0020H
00:008E 12-90 00-00'             6516   	l	er0,	NEAR _Range_out
00:0092 4B 70                    6517   	cmp	r0,	#04bh
00:0094 00 51                    6518   	cmpc	r1,	#00h
00:0096 2A C3                    6519   	ble	_$L476
                                 6520   CBLOCK 235 4 2035
                                 6521   
                                 6522   ;;		PFRUN = 0;	//Turn OFF PWM
                                 6523   CLINEA 0000H 0001H 07F4H 0003H 001BH
00:0098 82-A0 73-F9              6524   	rb	0f973h.0
                                 6525   
                                 6526   ;;		PERUN = 0;
                                 6527   CLINEA 0000H 0001H 07F5H 0003H 000CH
00:009C 82-A0 37-F9              6528   	rb	0f937h.0
                                 6529   
                                 6530   ;;		PDRUN = 0;
                                 6531   CLINEA 0000H 0001H 07F6H 0003H 000CH
00:00A0 82-A0 27-F9              6532   	rb	0f927h.0
                                 6533   
                                 6534   ;;		PCRUN = 0;
                                 6535   CLINEA 0000H 0001H 07F7H 0003H 000CH
00:00A4 82-A0 17-F9              6536   	rb	0f917h.0
                                 6537   
                                 6538   ;;		PWF0D -= MotorStep; //Can't be running to change (Only this variable)
                                 6539   CLINEA 0000H 0001H 07F8H 0003H 0047H
00:00A8 12-90 62-F9              6540   	l	er0,	0f962h
00:00AC 12-92 00-00'             6541   	l	er2,	NEAR _MotorStep
00:00B0 28-80                    6542   	sub	r0,	r2
00:00B2 39-81                    6543   	subc	r1,	r3
00:00B4 13-90 62-F9              6544   	st	er0,	0f962h
                                 6545   
                                 6546   ;;		PWED -= MotorStep;
                                 6547   CLINEA 0000H 0001H 07F9H 0003H 0014H
00:00B8 12-90 32-F9              6548   	l	er0,	0f932h
00:00BC 28-80                    6549   	sub	r0,	r2
00:00BE 39-81                    6550   	subc	r1,	r3
00:00C0 13-90 32-F9              6551   	st	er0,	0f932h
                                 6552   
                                 6553   ;;		PWDD -= MotorStep;
                                 6554   CLINEA 0000H 0001H 07FAH 0003H 0014H
00:00C4 12-90 22-F9              6555   	l	er0,	0f922h
00:00C8 28-80                    6556   	sub	r0,	r2
00:00CA 39-81                    6557   	subc	r1,	r3
00:00CC 13-90 22-F9              6558   	st	er0,	0f922h
                                 6559   
                                 6560   ;;		PWCD -= MotorStep;
                                 6561   CLINEA 0000H 0001H 07FBH 0003H 0014H
00:00D0 12-90 12-F9              6562   	l	er0,	0f912h
00:00D4 28-80                    6563   	sub	r0,	r2
00:00D6 39-81                    6564   	subc	r1,	r3
00:00D8 13-90 12-F9              6565   	st	er0,	0f912h
                                 6566   
                                 6567   ;;		PFRUN = 1;	//Turn ON PWM
                                 6568   CLINEA 0000H 0001H 07FCH 0003H 001AH
00:00DC 80-A0 73-F9              6569   	sb	0f973h.0
                                 6570   
                                 6571   ;;		PERUN = 1;
                                 6572   CLINEA 0000H 0001H 07FDH 0003H 000CH
00:00E0 80-A0 37-F9              6573   	sb	0f937h.0
                                 6574   
                                 6575   ;;		PDRUN = 1;
                                 6576   CLINEA 0000H 0001H 07FEH 0003H 000CH
00:00E4 80-A0 27-F9              6577   	sb	0f927h.0
                                 6578   
                                 6579   ;;		PCRUN = 1;
                                 6580   CLINEA 0000H 0001H 07FFH 0003H 000CH
00:00E8 80-A0 17-F9              6581   	sb	0f917h.0
                                 6582   CBLOCKEND 235 4 2048
                                 6583   
                                 6584   ;;	}
                                 6585   CLINEA 0000H 0000H 0800H 0002H 0002H
00:00EC                          6586   _$L476 :
                                 6587   CBLOCKEND 235 2 2092
                                 6588   
                                 6589   ;;}
                                 6590   CLINEA 0000H 0001H 082CH 0001H 0001H
00:00EC 8E-F2                    6591   	pop	pc
                                 6592   CBLOCKEND 235 1 2092
                                 6593   CFUNCTIONEND 235
                                 6594   
                                 6595   
  --------------------------     6596   	rseg $$MagSensorControl$main
                                 6597   CFUNCTION 236
                                 6598   
00:0000                          6599   _MagSensorControl	:
                                 6600   CBLOCK 236 1 2155
                                 6601   
                                 6602   ;;void MagSensorControl(void){
                                 6603   CLINEA 0000H 0001H 086BH 0001H 001CH
00:0000 CE-F8                    6604   	push	lr
                                 6605   CBLOCK 236 2 2155
                                 6606   CRET 0000H
                                 6607   
                                 6608   ;;	if((Mag_Angle > Mag_CWThres)&&(Mag_Angle < Mag_OpposingPole)){
                                 6609   CLINEA 0000H 0001H 086CH 0002H 003FH
00:0002 12-90 00-00'             6610   	l	er0,	NEAR _Mag_Angle
00:0006 12-92 00-00'             6611   	l	er2,	NEAR _Mag_Angle+02h
00:000A 6E-F0                    6612   	push	xr0
00:000C 12-90 00-00'             6613   	l	er0,	NEAR _Mag_CWThres
00:0010 12-92 00-00'             6614   	l	er2,	NEAR _Mag_CWThres+02h
00:0014 6E-F0                    6615   	push	xr0
00:0016 01-F0'00-00'             6616   	bl	__fcmpu8sw
00:001A 08 E1                    6617   	add	sp,	#8 
00:001C 0B-A0                    6618   	mov	psw,	r0
00:001E 37 C3                    6619   	ble	_$L479
00:0020 12-90 00-00'             6620   	l	er0,	NEAR _Mag_Angle
00:0024 12-92 00-00'             6621   	l	er2,	NEAR _Mag_Angle+02h
00:0028 6E-F0                    6622   	push	xr0
00:002A 12-90 00-00'             6623   	l	er0,	NEAR _Mag_OpposingPole
00:002E 12-92 00-00'             6624   	l	er2,	NEAR _Mag_OpposingPole+02h
00:0032 6E-F0                    6625   	push	xr0
00:0034 01-F0'00-00'             6626   	bl	__fcmpu8sw
00:0038 08 E1                    6627   	add	sp,	#8 
00:003A 0B-A0                    6628   	mov	psw,	r0
00:003C 28 C0                    6629   	bge	_$L479
                                 6630   CBLOCK 236 3 2156
                                 6631   
                                 6632   ;;		PFRUN = 0;	//Turn OFF PWM
                                 6633   CLINEA 0000H 0001H 086DH 0003H 001BH
00:003E 82-A0 73-F9              6634   	rb	0f973h.0
                                 6635   
                                 6636   ;;		PERUN = 0;
                                 6637   CLINEA 0000H 0001H 086EH 0003H 000CH
00:0042 82-A0 37-F9              6638   	rb	0f937h.0
                                 6639   
                                 6640   ;;		PDRUN = 0;
                                 6641   CLINEA 0000H 0001H 086FH 0003H 000CH
00:0046 82-A0 27-F9              6642   	rb	0f927h.0
                                 6643   
                                 6644   ;;		PCRUN = 0;
                                 6645   CLINEA 0000H 0001H 0870H 0003H 000CH
00:004A 82-A0 17-F9              6646   	rb	0f917h.0
                                 6647   
                                 6648   ;;		PWF0D += Mag_MotorStep; //Can't be running to change (Only this variable)
                                 6649   CLINEA 0000H 0001H 0871H 0003H 004BH
00:004E 12-90 62-F9              6650   	l	er0,	0f962h
00:0052 12-92 00-00'             6651   	l	er2,	NEAR _Mag_MotorStep
00:0056 26-F0                    6652   	add	er0,	er2
00:0058 13-90 62-F9              6653   	st	er0,	0f962h
                                 6654   
                                 6655   ;;		PWED -= Mag_MotorStep;
                                 6656   CLINEA 0000H 0001H 0872H 0003H 0018H
00:005C 12-90 32-F9              6657   	l	er0,	0f932h
00:0060 28-80                    6658   	sub	r0,	r2
00:0062 39-81                    6659   	subc	r1,	r3
00:0064 13-90 32-F9              6660   	st	er0,	0f932h
                                 6661   
                                 6662   ;;		PWDD -= Mag_MotorStep;
                                 6663   CLINEA 0000H 0001H 0873H 0003H 0018H
00:0068 12-90 22-F9              6664   	l	er0,	0f922h
00:006C 28-80                    6665   	sub	r0,	r2
00:006E 39-81                    6666   	subc	r1,	r3
00:0070 13-90 22-F9              6667   	st	er0,	0f922h
                                 6668   
                                 6669   ;;		PWCD += Mag_MotorStep;
                                 6670   CLINEA 0000H 0001H 0874H 0003H 0018H
00:0074 12-90 12-F9              6671   	l	er0,	0f912h
00:0078 26-F0                    6672   	add	er0,	er2
00:007A 13-90 12-F9              6673   	st	er0,	0f912h
                                 6674   
                                 6675   ;;		PFRUN = 1;	//Turn ON PWM
                                 6676   CLINEA 0000H 0001H 0875H 0003H 001AH
00:007E 80-A0 73-F9              6677   	sb	0f973h.0
                                 6678   
                                 6679   ;;		PERUN = 1;
                                 6680   CLINEA 0000H 0001H 0876H 0003H 000CH
00:0082 80-A0 37-F9              6681   	sb	0f937h.0
                                 6682   
                                 6683   ;;		PDRUN = 1;
                                 6684   CLINEA 0000H 0001H 0877H 0003H 000CH
00:0086 80-A0 27-F9              6685   	sb	0f927h.0
                                 6686   
                                 6687   ;;		PCRUN = 1;
                                 6688   CLINEA 0000H 0001H 0878H 0003H 000CH
00:008A 80-A0 17-F9              6689   	sb	0f917h.0
                                 6690   CBLOCKEND 236 3 2169
                                 6691   
                                 6692   ;;	}
                                 6693   CLINEA 0000H 0000H 0879H 0002H 0002H
00:008E                          6694   _$L479 :
                                 6695   
                                 6696   ;;	if((Mag_Angle < Mag_CCWThres)&&(Mag_Angle > Mag_OpposingPole)){
                                 6697   CLINEA 0000H 0001H 087AH 0002H 0040H
00:008E 12-90 00-00'             6698   	l	er0,	NEAR _Mag_Angle
00:0092 12-92 00-00'             6699   	l	er2,	NEAR _Mag_Angle+02h
00:0096 6E-F0                    6700   	push	xr0
00:0098 12-90 00-00'             6701   	l	er0,	NEAR _Mag_CCWThres
00:009C 12-92 00-00'             6702   	l	er2,	NEAR _Mag_CCWThres+02h
00:00A0 6E-F0                    6703   	push	xr0
00:00A2 01-F0'00-00'             6704   	bl	__fcmpu8sw
00:00A6 08 E1                    6705   	add	sp,	#8 
00:00A8 0B-A0                    6706   	mov	psw,	r0
00:00AA 37 C0                    6707   	bge	_$L486
00:00AC 12-90 00-00'             6708   	l	er0,	NEAR _Mag_Angle
00:00B0 12-92 00-00'             6709   	l	er2,	NEAR _Mag_Angle+02h
00:00B4 6E-F0                    6710   	push	xr0
00:00B6 12-90 00-00'             6711   	l	er0,	NEAR _Mag_OpposingPole
00:00BA 12-92 00-00'             6712   	l	er2,	NEAR _Mag_OpposingPole+02h
00:00BE 6E-F0                    6713   	push	xr0
00:00C0 01-F0'00-00'             6714   	bl	__fcmpu8sw
00:00C4 08 E1                    6715   	add	sp,	#8 
00:00C6 0B-A0                    6716   	mov	psw,	r0
00:00C8 28 C3                    6717   	ble	_$L486
                                 6718   CBLOCK 236 4 2170
                                 6719   
                                 6720   ;;		PFRUN = 0;	//Turn OFF PWM
                                 6721   CLINEA 0000H 0001H 087BH 0003H 001BH
00:00CA 82-A0 73-F9              6722   	rb	0f973h.0
                                 6723   
                                 6724   ;;		PERUN = 0;
                                 6725   CLINEA 0000H 0001H 087CH 0003H 000CH
00:00CE 82-A0 37-F9              6726   	rb	0f937h.0
                                 6727   
                                 6728   ;;		PDRUN = 0;
                                 6729   CLINEA 0000H 0001H 087DH 0003H 000CH
00:00D2 82-A0 27-F9              6730   	rb	0f927h.0
                                 6731   
                                 6732   ;;		PCRUN = 0;
                                 6733   CLINEA 0000H 0001H 087EH 0003H 000CH
00:00D6 82-A0 17-F9              6734   	rb	0f917h.0
                                 6735   
                                 6736   ;;		PWF0D -= Mag_MotorStep; //Can't be running to change (Only this variable)
                                 6737   CLINEA 0000H 0001H 087FH 0003H 004BH
00:00DA 12-90 62-F9              6738   	l	er0,	0f962h
00:00DE 12-92 00-00'             6739   	l	er2,	NEAR _Mag_MotorStep
00:00E2 28-80                    6740   	sub	r0,	r2
00:00E4 39-81                    6741   	subc	r1,	r3
00:00E6 13-90 62-F9              6742   	st	er0,	0f962h
                                 6743   
                                 6744   ;;		PWED += Mag_MotorStep;
                                 6745   CLINEA 0000H 0001H 0880H 0003H 0018H
00:00EA 12-90 32-F9              6746   	l	er0,	0f932h
00:00EE 26-F0                    6747   	add	er0,	er2
00:00F0 13-90 32-F9              6748   	st	er0,	0f932h
                                 6749   
                                 6750   ;;		PWDD += Mag_MotorStep;
                                 6751   CLINEA 0000H 0001H 0881H 0003H 0018H
00:00F4 12-90 22-F9              6752   	l	er0,	0f922h
00:00F8 26-F0                    6753   	add	er0,	er2
00:00FA 13-90 22-F9              6754   	st	er0,	0f922h
                                 6755   
                                 6756   ;;		PWCD -= Mag_MotorStep;
                                 6757   CLINEA 0000H 0001H 0882H 0003H 0018H
00:00FE 12-90 12-F9              6758   	l	er0,	0f912h
00:0102 28-80                    6759   	sub	r0,	r2
00:0104 39-81                    6760   	subc	r1,	r3
00:0106 13-90 12-F9              6761   	st	er0,	0f912h
                                 6762   
                                 6763   ;;		PFRUN = 1;	//Turn ON PWM
                                 6764   CLINEA 0000H 0001H 0883H 0003H 001AH
00:010A 80-A0 73-F9              6765   	sb	0f973h.0
                                 6766   
                                 6767   ;;		PERUN = 1;
                                 6768   CLINEA 0000H 0001H 0884H 0003H 000CH
00:010E 80-A0 37-F9              6769   	sb	0f937h.0
                                 6770   
                                 6771   ;;		PDRUN = 1;
                                 6772   CLINEA 0000H 0001H 0885H 0003H 000CH
00:0112 80-A0 27-F9              6773   	sb	0f927h.0
                                 6774   
                                 6775   ;;		PCRUN = 1;
                                 6776   CLINEA 0000H 0001H 0886H 0003H 000CH
00:0116 80-A0 17-F9              6777   	sb	0f917h.0
                                 6778   CBLOCKEND 236 4 2183
                                 6779   
                                 6780   ;;	}
                                 6781   CLINEA 0000H 0000H 0887H 0002H 0002H
00:011A                          6782   _$L486 :
                                 6783   CBLOCKEND 236 2 2184
                                 6784   
                                 6785   ;;}
                                 6786   CLINEA 0000H 0001H 0888H 0001H 0001H
00:011A 8E-F2                    6787   	pop	pc
                                 6788   CBLOCKEND 236 1 2184
                                 6789   CFUNCTIONEND 236
                                 6790   
                                 6791   
  --------------------------     6792   	rseg $$MagSensorControlPID$main
                                 6793   CFUNCTION 237
                                 6794   
00:0000                          6795   _MagSensorControlPID	:
                                 6796   CBLOCK 237 1 2186
                                 6797   
                                 6798   ;;void MagSensorControlPID(void){
                                 6799   CLINEA 0000H 0001H 088AH 0001H 001FH
00:0000 CE-F8                    6800   	push	lr
00:0002 6E-F4                    6801   	push	xr4
                                 6802   CBLOCK 237 2 2186
                                 6803   CRET 0004H
                                 6804   CLOCAL 47H 0002H 0024H 0002H "i" 02H 00H 01H
                                 6805   
                                 6806   ;;	if(Mag_PIDSetpoint > 180){
                                 6807   CLINEA 0000H 0001H 088FH 0002H 001BH
00:0004 12-90 00-00'             6808   	l	er0,	NEAR _Mag_PIDSetpoint
00:0008 12-92 00-00'             6809   	l	er2,	NEAR _Mag_PIDSetpoint+02h
00:000C 6E-F0                    6810   	push	xr0
00:000E 00 E0                    6811   	mov	er0,	#0 
00:0010 34 02                    6812   	mov	r2,	#034h
00:0012 43 03                    6813   	mov	r3,	#043h
00:0014 6E-F0                    6814   	push	xr0
00:0016 01-F0'00-00'             6815   	bl	__fcmpu8sw
00:001A 08 E1                    6816   	add	sp,	#8 
00:001C 0B-A0                    6817   	mov	psw,	r0
00:001E 3C C3                    6818   	ble	_$L494
                                 6819   CBLOCK 237 3 2191
                                 6820   
                                 6821   ;;		Mag_PIDCorrectionFactor = 360-Mag_PIDSetpoint;
                                 6822   CLINEA 0000H 0001H 0890H 0003H 0030H
00:0020 00 E0                    6823   	mov	er0,	#0 
00:0022 B4 02                    6824   	mov	r2,	#0b4h
00:0024 43 03                    6825   	mov	r3,	#043h
00:0026 6E-F0                    6826   	push	xr0
00:0028 12-90 00-00'             6827   	l	er0,	NEAR _Mag_PIDSetpoint
00:002C 12-92 00-00'             6828   	l	er2,	NEAR _Mag_PIDSetpoint+02h
00:0030 6E-F0                    6829   	push	xr0
00:0032 01-F0'00-00'             6830   	bl	__fsubu8sw
00:0036 04 E1                    6831   	add	sp,	#4 
00:0038 2E-F0                    6832   	pop	xr0
00:003A 13-90 00-00'             6833   	st	er0,	NEAR _Mag_PIDCorrectionFactor
00:003E 13-92 00-00'             6834   	st	er2,	NEAR _Mag_PIDCorrectionFactor+02h
                                 6835   
                                 6836   ;;		Mag_PIDAngleScaled = Mag_Angle + Mag_PIDCorrectionFactor;
                                 6837   CLINEA 0000H 0001H 0891H 0003H 003BH
00:0042 6E-F0                    6838   	push	xr0
00:0044 12-90 00-00'             6839   	l	er0,	NEAR _Mag_Angle
00:0048 12-92 00-00'             6840   	l	er2,	NEAR _Mag_Angle+02h
00:004C 6E-F0                    6841   	push	xr0
00:004E 01-F0'00-00'             6842   	bl	__faddu8sw
00:0052 04 E1                    6843   	add	sp,	#4 
00:0054 2E-F0                    6844   	pop	xr0
00:0056 13-90 00-00'             6845   	st	er0,	NEAR _Mag_PIDAngleScaled
00:005A 13-92 00-00'             6846   	st	er2,	NEAR _Mag_PIDAngleScaled+02h
                                 6847   
                                 6848   ;;		if(Mag_PIDAngleScaled > 180){
                                 6849   CLINEA 0000H 0001H 0892H 0003H 001FH
00:005E 6E-F0                    6850   	push	xr0
00:0060 00 E0                    6851   	mov	er0,	#0 
00:0062 34 02                    6852   	mov	r2,	#034h
00:0064 43 03                    6853   	mov	r3,	#043h
00:0066 6E-F0                    6854   	push	xr0
00:0068 01-F0'00-00'             6855   	bl	__fcmpu8sw
00:006C 08 E1                    6856   	add	sp,	#8 
00:006E 0B-A0                    6857   	mov	psw,	r0
00:0070 0E C3                    6858   	ble	_$L496
                                 6859   CBLOCK 237 4 2194
                                 6860   
                                 6861   ;;			Mag_PIDError = Mag_PIDAngleScaled - 360;
                                 6862   CLINEA 0000H 0001H 0893H 0004H 002BH
00:0072 12-90 00-00'             6863   	l	er0,	NEAR _Mag_PIDAngleScaled
00:0076 12-92 00-00'             6864   	l	er2,	NEAR _Mag_PIDAngleScaled+02h
00:007A 6E-F0                    6865   	push	xr0
00:007C 00 E0                    6866   	mov	er0,	#0 
00:007E B4 02                    6867   	mov	r2,	#0b4h
00:0080 C3 03                    6868   	mov	r3,	#0c3h
00:0082 6E-F0                    6869   	push	xr0
00:0084 01-F0'00-00'             6870   	bl	__faddu8sw
00:0088 04 E1                    6871   	add	sp,	#4 
00:008A 2E-F0                    6872   	pop	xr0
                                 6873   CBLOCKEND 237 4 2197
                                 6874   
                                 6875   ;;		else{
                                 6876   CLINEA 0000H 0001H 0896H 0003H 0007H
00:008C 04 CE                    6877   	bal	_$L498
00:008E                          6878   _$L496 :
                                 6879   CBLOCK 237 5 2198
                                 6880   
                                 6881   ;;			Mag_PIDError= Mag_PIDAngleScaled;
                                 6882   CLINEA 0000H 0001H 0897H 0004H 0024H
00:008E 12-90 00-00'             6883   	l	er0,	NEAR _Mag_PIDAngleScaled
00:0092 12-92 00-00'             6884   	l	er2,	NEAR _Mag_PIDAngleScaled+02h
                                 6885   CBLOCKEND 237 5 2200
                                 6886   
                                 6887   ;;		}
                                 6888   CLINEA 0000H 0000H 0898H 0003H 0003H
00:0096                          6889   _$L498 :
                                 6890   
                                 6891   ;;	else{
                                 6892   CLINEA 0000H 0001H 089AH 0002H 0006H
00:0096 36 CE                    6893   	bal	_$L502
00:0098                          6894   _$L494 :
                                 6895   CBLOCK 237 6 2202
                                 6896   
                                 6897   ;;		Mag_PIDCorrectionFactor = Mag_PIDSetpoint;					
                                 6898   CLINEA 0000H 0001H 089BH 0003H 0031H
00:0098 12-90 00-00'             6899   	l	er0,	NEAR _Mag_PIDSetpoint
00:009C 12-92 00-00'             6900   	l	er2,	NEAR _Mag_PIDSetpoint+02h
00:00A0 13-90 00-00'             6901   	st	er0,	NEAR _Mag_PIDCorrectionFactor
00:00A4 13-92 00-00'             6902   	st	er2,	NEAR _Mag_PIDCorrectionFactor+02h
                                 6903   
                                 6904   ;;		Mag_PIDAngleScaled = Mag_Angle - Mag_PIDCorrectionFactor;
                                 6905   CLINEA 0000H 0001H 089DH 0003H 003BH
00:00A8 12-90 00-00'             6906   	l	er0,	NEAR _Mag_Angle
00:00AC 12-92 00-00'             6907   	l	er2,	NEAR _Mag_Angle+02h
00:00B0 6E-F0                    6908   	push	xr0
00:00B2 12-90 00-00'             6909   	l	er0,	NEAR _Mag_PIDSetpoint
00:00B6 12-92 00-00'             6910   	l	er2,	NEAR _Mag_PIDSetpoint+02h
00:00BA 6E-F0                    6911   	push	xr0
00:00BC 01-F0'00-00'             6912   	bl	__fsubu8sw
00:00C0 04 E1                    6913   	add	sp,	#4 
00:00C2 2E-F0                    6914   	pop	xr0
00:00C4 13-90 00-00'             6915   	st	er0,	NEAR _Mag_PIDAngleScaled
00:00C8 13-92 00-00'             6916   	st	er2,	NEAR _Mag_PIDAngleScaled+02h
                                 6917   
                                 6918   ;;		if(Mag_PIDAngleScaled > 180){
                                 6919   CLINEA 0000H 0001H 089EH 0003H 001FH
00:00CC 6E-F0                    6920   	push	xr0
00:00CE 00 E0                    6921   	mov	er0,	#0 
00:00D0 34 02                    6922   	mov	r2,	#034h
00:00D2 43 03                    6923   	mov	r3,	#043h
00:00D4 6E-F0                    6924   	push	xr0
00:00D6 01-F0'00-00'             6925   	bl	__fcmpu8sw
00:00DA 08 E1                    6926   	add	sp,	#8 
00:00DC 0B-A0                    6927   	mov	psw,	r0
00:00DE 0E C3                    6928   	ble	_$L500
                                 6929   CBLOCK 237 7 2206
                                 6930   
                                 6931   ;;			Mag_PIDError = Mag_PIDAngleScaled - 360;
                                 6932   CLINEA 0000H 0001H 089FH 0004H 002BH
00:00E0 12-90 00-00'             6933   	l	er0,	NEAR _Mag_PIDAngleScaled
00:00E4 12-92 00-00'             6934   	l	er2,	NEAR _Mag_PIDAngleScaled+02h
00:00E8 6E-F0                    6935   	push	xr0
00:00EA 00 E0                    6936   	mov	er0,	#0 
00:00EC B4 02                    6937   	mov	r2,	#0b4h
00:00EE C3 03                    6938   	mov	r3,	#0c3h
00:00F0 6E-F0                    6939   	push	xr0
00:00F2 01-F0'00-00'             6940   	bl	__faddu8sw
00:00F6 04 E1                    6941   	add	sp,	#4 
00:00F8 2E-F0                    6942   	pop	xr0
                                 6943   CBLOCKEND 237 7 2209
                                 6944   
                                 6945   ;;		else{
                                 6946   CLINEA 0000H 0001H 08A2H 0003H 0007H
00:00FA 04 CE                    6947   	bal	_$L502
00:00FC                          6948   _$L500 :
                                 6949   CBLOCK 237 8 2210
                                 6950   
                                 6951   ;;			Mag_PIDError = Mag_PIDAngleScaled;
                                 6952   CLINEA 0000H 0001H 08A3H 0004H 0025H
00:00FC 12-90 00-00'             6953   	l	er0,	NEAR _Mag_PIDAngleScaled
00:0100 12-92 00-00'             6954   	l	er2,	NEAR _Mag_PIDAngleScaled+02h
                                 6955   CBLOCKEND 237 8 2212
                                 6956   
                                 6957   ;;		}
                                 6958   CLINEA 0000H 0000H 08A4H 0003H 0003H
00:0104                          6959   _$L502 :
00:0104 13-90 00-00'             6960   	st	er0,	NEAR _Mag_PIDError
00:0108 13-92 00-00'             6961   	st	er2,	NEAR _Mag_PIDError+02h
                                 6962   CBLOCKEND 237 6 2213
                                 6963   
                                 6964   ;;	Mag_PIDError *= -1;
                                 6965   CLINEA 0000H 0001H 08A6H 0002H 0014H
00:010C 6E-F0                    6966   	push	xr0
00:010E 00 E0                    6967   	mov	er0,	#0 
00:0110 80 02                    6968   	mov	r2,	#080h
00:0112 BF 03                    6969   	mov	r3,	#0bfh
00:0114 6E-F0                    6970   	push	xr0
00:0116 01-F0'00-00'             6971   	bl	__fmulu8sw
00:011A 04 E1                    6972   	add	sp,	#4 
00:011C 2E-F0                    6973   	pop	xr0
00:011E 13-90 00-00'             6974   	st	er0,	NEAR _Mag_PIDError
00:0122 13-92 00-00'             6975   	st	er2,	NEAR _Mag_PIDError+02h
                                 6976   
                                 6977   ;;	Mag_PIDCurrentCount = Mag_PIDCounter * .001;		//Timer in Seconds (.007 used to convert 128Hz TBC to seconds)
                                 6978   CLINEA 0000H 0001H 08ACH 0002H 006DH
00:0126 12-90 00-00'             6979   	l	er0,	NEAR _Mag_PIDCounter
00:012A 00 E2                    6980   	mov	er2,	#0 
00:012C 6E-F0                    6981   	push	xr0
00:012E FC E1                    6982   	add	sp,	#-4
00:0130 01-F0'00-00'             6983   	bl	__dildu8sw
00:0134 FC 00                    6984   	mov	r0,	#0fch
00:0136 A9 01                    6985   	mov	r1,	#0a9h
00:0138 F1 02                    6986   	mov	r2,	#0f1h
00:013A D2 03                    6987   	mov	r3,	#0d2h
00:013C 4D 04                    6988   	mov	r4,	#04dh
00:013E 62 05                    6989   	mov	r5,	#062h
00:0140 50 06                    6990   	mov	r6,	#050h
00:0142 3F 07                    6991   	mov	r7,	#03fh
00:0144 7E-F0                    6992   	push	qr0
00:0146 01-F0'00-00'             6993   	bl	__dmulu8sw
00:014A 08 E1                    6994   	add	sp,	#8 
00:014C 01-F0'00-00'             6995   	bl	__dtofu8sw
00:0150 04 E1                    6996   	add	sp,	#4 
00:0152 2E-F0                    6997   	pop	xr0
00:0154 13-90 00-00'             6998   	st	er0,	NEAR _Mag_PIDCurrentCount
00:0158 13-92 00-00'             6999   	st	er2,	NEAR _Mag_PIDCurrentCount+02h
                                 7000   
                                 7001   ;;	Mag_PIDCounter = 0;
                                 7002   CLINEA 0000H 0001H 08ADH 0002H 0014H
00:015C 00 E0                    7003   	mov	er0,	#0 
00:015E 13-90 00-00'             7004   	st	er0,	NEAR _Mag_PIDCounter
                                 7005   
                                 7006   ;;	Mag_PIDErrSum += (Mag_PIDError * Mag_PIDCurrentCount);
                                 7007   CLINEA 0000H 0001H 08B0H 0002H 0037H
00:0162 12-90 00-00'             7008   	l	er0,	NEAR _Mag_PIDCurrentCount
00:0166 6E-F0                    7009   	push	xr0
00:0168 12-90 00-00'             7010   	l	er0,	NEAR _Mag_PIDError
00:016C 12-92 00-00'             7011   	l	er2,	NEAR _Mag_PIDError+02h
00:0170 6E-F0                    7012   	push	xr0
00:0172 01-F0'00-00'             7013   	bl	__fmulu8sw
00:0176 04 E1                    7014   	add	sp,	#4 
00:0178 12-90 00-00'             7015   	l	er0,	NEAR _Mag_PIDErrSum
00:017C 12-92 00-00'             7016   	l	er2,	NEAR _Mag_PIDErrSum+02h
00:0180 6E-F0                    7017   	push	xr0
00:0182 01-F0'00-00'             7018   	bl	__faddu8sw
00:0186 04 E1                    7019   	add	sp,	#4 
00:0188 2E-F0                    7020   	pop	xr0
00:018A 13-90 00-00'             7021   	st	er0,	NEAR _Mag_PIDErrSum
00:018E 13-92 00-00'             7022   	st	er2,	NEAR _Mag_PIDErrSum+02h
                                 7023   
                                 7024   ;;	Mag_PIDdErr	/= Mag_PIDCurrentCount;
                                 7025   CLINEA 0000H 0001H 08B4H 0002H 0024H
00:0192 12-90 00-00'             7026   	l	er0,	NEAR _Mag_PIDError
00:0196 12-92 00-00'             7027   	l	er2,	NEAR _Mag_PIDError+02h
00:019A 6E-F0                    7028   	push	xr0
00:019C 12-90 00-00'             7029   	l	er0,	NEAR _Mag_PIDErrPrev
00:01A0 12-92 00-00'             7030   	l	er2,	NEAR _Mag_PIDErrPrev+02h
00:01A4 6E-F0                    7031   	push	xr0
00:01A6 01-F0'00-00'             7032   	bl	__fsubu8sw
00:01AA 04 E1                    7033   	add	sp,	#4 
00:01AC 12-90 00-00'             7034   	l	er0,	NEAR _Mag_PIDCurrentCount
00:01B0 12-92 00-00'             7035   	l	er2,	NEAR _Mag_PIDCurrentCount+02h
00:01B4 6E-F0                    7036   	push	xr0
00:01B6 01-F0'00-00'             7037   	bl	__fdivu8sw
00:01BA 04 E1                    7038   	add	sp,	#4 
00:01BC 2E-F0                    7039   	pop	xr0
00:01BE 13-90 00-00'             7040   	st	er0,	NEAR _Mag_PIDdErr
00:01C2 13-92 00-00'             7041   	st	er2,	NEAR _Mag_PIDdErr+02h
                                 7042   
                                 7043   ;;	Mag_PIDErrPrev = Mag_PIDError;
                                 7044   CLINEA 0000H 0001H 08B5H 0002H 001FH
00:01C6 12-90 00-00'             7045   	l	er0,	NEAR _Mag_PIDError
00:01CA 12-92 00-00'             7046   	l	er2,	NEAR _Mag_PIDError+02h
00:01CE 13-90 00-00'             7047   	st	er0,	NEAR _Mag_PIDErrPrev
00:01D2 13-92 00-00'             7048   	st	er2,	NEAR _Mag_PIDErrPrev+02h
                                 7049   
                                 7050   ;;	Mag_PIDOutput = (Mag_PID_kp*Mag_PIDError) + (Mag_PID_ki*Mag_PIDErrSum) + (Mag_PID_kd*Mag_PIDdErr);
                                 7051   CLINEA 0000H 0001H 08B8H 0002H 0063H
00:01D6 6E-F0                    7052   	push	xr0
00:01D8 12-90 00-00'             7053   	l	er0,	NEAR _Mag_PID_kp
00:01DC 12-92 00-00'             7054   	l	er2,	NEAR _Mag_PID_kp+02h
00:01E0 6E-F0                    7055   	push	xr0
00:01E2 01-F0'00-00'             7056   	bl	__fmulu8sw
00:01E6 04 E1                    7057   	add	sp,	#4 
00:01E8 2E-F0                    7058   	pop	xr0
00:01EA 12-94 00-00'             7059   	l	er4,	NEAR _Mag_PIDErrSum
00:01EE 12-96 00-00'             7060   	l	er6,	NEAR _Mag_PIDErrSum+02h
00:01F2 6E-F4                    7061   	push	xr4
00:01F4 12-94 00-00'             7062   	l	er4,	NEAR _Mag_PID_ki
00:01F8 12-96 00-00'             7063   	l	er6,	NEAR _Mag_PID_ki+02h
00:01FC 6E-F4                    7064   	push	xr4
00:01FE 01-F0'00-00'             7065   	bl	__fmulu8sw
00:0202 04 E1                    7066   	add	sp,	#4 
00:0204 2E-F4                    7067   	pop	xr4
00:0206 6E-F0                    7068   	push	xr0
00:0208 6E-F4                    7069   	push	xr4
00:020A 01-F0'00-00'             7070   	bl	__faddu8sw
00:020E 04 E1                    7071   	add	sp,	#4 
00:0210 2E-F0                    7072   	pop	xr0
00:0212 12-94 00-00'             7073   	l	er4,	NEAR _Mag_PID_kd
00:0216 12-96 00-00'             7074   	l	er6,	NEAR _Mag_PID_kd+02h
00:021A 6E-F4                    7075   	push	xr4
00:021C 12-94 00-00'             7076   	l	er4,	NEAR _Mag_PIDdErr
00:0220 12-96 00-00'             7077   	l	er6,	NEAR _Mag_PIDdErr+02h
00:0224 6E-F4                    7078   	push	xr4
00:0226 01-F0'00-00'             7079   	bl	__fmulu8sw
00:022A 04 E1                    7080   	add	sp,	#4 
00:022C 2E-F4                    7081   	pop	xr4
00:022E 6E-F0                    7082   	push	xr0
00:0230 6E-F4                    7083   	push	xr4
00:0232 01-F0'00-00'             7084   	bl	__faddu8sw
00:0236 04 E1                    7085   	add	sp,	#4 
00:0238 2E-F0                    7086   	pop	xr0
00:023A 13-90 00-00'             7087   	st	er0,	NEAR _Mag_PIDOutput
00:023E 13-92 00-00'             7088   	st	er2,	NEAR _Mag_PIDOutput+02h
                                 7089   
                                 7090   ;;	PFRUN = 0;	//Turn OFF PWM
                                 7091   CLINEA 0000H 0001H 08BCH 0002H 001AH
00:0242 82-A0 73-F9              7092   	rb	0f973h.0
                                 7093   
                                 7094   ;;	PERUN = 0;
                                 7095   CLINEA 0000H 0001H 08BDH 0002H 000BH
00:0246 82-A0 37-F9              7096   	rb	0f937h.0
                                 7097   
                                 7098   ;;	PDRUN = 0;
                                 7099   CLINEA 0000H 0001H 08BEH 0002H 000BH
00:024A 82-A0 27-F9              7100   	rb	0f927h.0
                                 7101   
                                 7102   ;;	PCRUN = 0;
                                 7103   CLINEA 0000H 0001H 08BFH 0002H 000BH
00:024E 82-A0 17-F9              7104   	rb	0f917h.0
                                 7105   
                                 7106   ;;	PWF0D -= Mag_PIDOutput; 		//Can't be running to change (Only this variable)
                                 7107   CLINEA 0000H 0001H 08C1H 0002H 004CH
00:0252 12-90 62-F9              7108   	l	er0,	0f962h
00:0256 00 E2                    7109   	mov	er2,	#0 
00:0258 6E-F0                    7110   	push	xr0
00:025A 01-F0'00-00'             7111   	bl	__fuldu8sw
00:025E 12-90 00-00'             7112   	l	er0,	NEAR _Mag_PIDOutput
00:0262 12-92 00-00'             7113   	l	er2,	NEAR _Mag_PIDOutput+02h
00:0266 6E-F0                    7114   	push	xr0
00:0268 01-F0'00-00'             7115   	bl	__fsubu8sw
00:026C 04 E1                    7116   	add	sp,	#4 
00:026E 01-F0'00-00'             7117   	bl	__ftolu8sw
00:0272 1E-F0                    7118   	pop	er0
00:0274 02 E1                    7119   	add	sp,	#2 
00:0276 13-90 62-F9              7120   	st	er0,	0f962h
                                 7121   
                                 7122   ;;	PWED += Mag_PIDOutput;	//CCW motor, spin to move CW
                                 7123   CLINEA 0000H 0001H 08C2H 0002H 0034H
00:027A 12-90 32-F9              7124   	l	er0,	0f932h
00:027E 00 E2                    7125   	mov	er2,	#0 
00:0280 6E-F0                    7126   	push	xr0
00:0282 01-F0'00-00'             7127   	bl	__fuldu8sw
00:0286 12-90 00-00'             7128   	l	er0,	NEAR _Mag_PIDOutput
00:028A 12-92 00-00'             7129   	l	er2,	NEAR _Mag_PIDOutput+02h
00:028E 6E-F0                    7130   	push	xr0
00:0290 01-F0'00-00'             7131   	bl	__faddu8sw
00:0294 04 E1                    7132   	add	sp,	#4 
00:0296 01-F0'00-00'             7133   	bl	__ftolu8sw
00:029A 1E-F0                    7134   	pop	er0
00:029C 02 E1                    7135   	add	sp,	#2 
00:029E 13-90 32-F9              7136   	st	er0,	0f932h
                                 7137   
                                 7138   ;;	PWDD += Mag_PIDOutput;	//CCW motor, spin to move CW
                                 7139   CLINEA 0000H 0001H 08C3H 0002H 0034H
00:02A2 12-90 22-F9              7140   	l	er0,	0f922h
00:02A6 00 E2                    7141   	mov	er2,	#0 
00:02A8 6E-F0                    7142   	push	xr0
00:02AA 01-F0'00-00'             7143   	bl	__fuldu8sw
00:02AE 12-90 00-00'             7144   	l	er0,	NEAR _Mag_PIDOutput
00:02B2 12-92 00-00'             7145   	l	er2,	NEAR _Mag_PIDOutput+02h
00:02B6 6E-F0                    7146   	push	xr0
00:02B8 01-F0'00-00'             7147   	bl	__faddu8sw
00:02BC 04 E1                    7148   	add	sp,	#4 
00:02BE 01-F0'00-00'             7149   	bl	__ftolu8sw
00:02C2 1E-F0                    7150   	pop	er0
00:02C4 02 E1                    7151   	add	sp,	#2 
00:02C6 13-90 22-F9              7152   	st	er0,	0f922h
                                 7153   
                                 7154   ;;	PWCD -= Mag_PIDOutput;
                                 7155   CLINEA 0000H 0001H 08C4H 0002H 0017H
00:02CA 12-90 12-F9              7156   	l	er0,	0f912h
00:02CE 00 E2                    7157   	mov	er2,	#0 
00:02D0 6E-F0                    7158   	push	xr0
00:02D2 01-F0'00-00'             7159   	bl	__fuldu8sw
00:02D6 12-90 00-00'             7160   	l	er0,	NEAR _Mag_PIDOutput
00:02DA 12-92 00-00'             7161   	l	er2,	NEAR _Mag_PIDOutput+02h
00:02DE 6E-F0                    7162   	push	xr0
00:02E0 01-F0'00-00'             7163   	bl	__fsubu8sw
00:02E4 04 E1                    7164   	add	sp,	#4 
00:02E6 01-F0'00-00'             7165   	bl	__ftolu8sw
00:02EA 1E-F0                    7166   	pop	er0
00:02EC 02 E1                    7167   	add	sp,	#2 
00:02EE 13-90 12-F9              7168   	st	er0,	0f912h
                                 7169   
                                 7170   ;;	CheckSafetyLimit();
                                 7171   CLINEA 0000H 0001H 08C5H 0002H 0014H
00:02F2 01-F0'00-00'             7172   	bl	_CheckSafetyLimit
                                 7173   CBLOCKEND 237 3 2272
                                 7174   
                                 7175   ;;	PFRUN = 1;	//Turn ON PWM
                                 7176   CLINEA 0000H 0001H 08C6H 0002H 0019H
00:02F6 80-A0 73-F9              7177   	sb	0f973h.0
                                 7178   
                                 7179   ;;	PERUN = 1;
                                 7180   CLINEA 0000H 0001H 08C7H 0002H 000BH
00:02FA 80-A0 37-F9              7181   	sb	0f937h.0
                                 7182   
                                 7183   ;;	PDRUN = 1;
                                 7184   CLINEA 0000H 0001H 08C8H 0002H 000BH
00:02FE 80-A0 27-F9              7185   	sb	0f927h.0
                                 7186   
                                 7187   ;;	PCRUN = 1;
                                 7188   CLINEA 0000H 0001H 08C9H 0002H 000BH
00:0302 80-A0 17-F9              7189   	sb	0f917h.0
                                 7190   
                                 7191   ;;	for(i = 0; i<150; i++)
                                 7192   CLINEA 0000H 0001H 08CDH 0002H 0017H
00:0306 00 E0                    7193   	mov	er0,	#0 
00:0308                          7194   _$L505 :
                                 7195   CBLOCK 237 9 2254
                                 7196   
                                 7197   ;;		SensorReturn[i] = 0x20;
                                 7198   CLINEA 0000H 0001H 08CFH 0003H 0019H
00:0308 20 02                    7199   	mov	r2,	#020h
00:030A 09-92 00-00'             7200   	st	r2,	NEAR _SensorReturn[er0]
                                 7201   CBLOCKEND 237 9 2256
                                 7202   
                                 7203   ;;	for(i = 0; i<150; i++)
                                 7204   CLINEA 0000H 0000H 08CDH 0002H 0017H
00:030E 81 E0                    7205   	add	er0,	#1 
                                 7206   
                                 7207   ;;	for(i = 0; i<150; i++)
                                 7208   CLINEA 0000H 0000H 08CDH 000EH 0013H
00:0310 96 70                    7209   	cmp	r0,	#096h
00:0312 00 51                    7210   	cmpc	r1,	#00h
00:0314 F9 C5                    7211   	blts	_$L505
                                 7212   
                                 7213   ;;	sprintf(SensorReturn, "%f,%f,%f,%f", Mag_Angle, Mag_PIDOutput, Mag_PID_kd, Mag_PID_kp);
                                 7214   CLINEA 0000H 0001H 08D3H 0002H 0058H
00:0316 12-90 00-00'             7215   	l	er0,	NEAR _Mag_PID_kp
00:031A 12-92 00-00'             7216   	l	er2,	NEAR _Mag_PID_kp+02h
00:031E 6E-F0                    7217   	push	xr0
00:0320 FC E1                    7218   	add	sp,	#-4
00:0322 01-F0'00-00'             7219   	bl	__ftodu8sw
00:0326 12-90 00-00'             7220   	l	er0,	NEAR _Mag_PID_kd
00:032A 12-92 00-00'             7221   	l	er2,	NEAR _Mag_PID_kd+02h
00:032E 6E-F0                    7222   	push	xr0
00:0330 FC E1                    7223   	add	sp,	#-4
00:0332 01-F0'00-00'             7224   	bl	__ftodu8sw
00:0336 12-90 00-00'             7225   	l	er0,	NEAR _Mag_PIDOutput
00:033A 12-92 00-00'             7226   	l	er2,	NEAR _Mag_PIDOutput+02h
00:033E 6E-F0                    7227   	push	xr0
00:0340 FC E1                    7228   	add	sp,	#-4
00:0342 01-F0'00-00'             7229   	bl	__ftodu8sw
00:0346 12-90 00-00'             7230   	l	er0,	NEAR _Mag_Angle
00:034A 12-92 00-00'             7231   	l	er2,	NEAR _Mag_Angle+02h
00:034E 6E-F0                    7232   	push	xr0
00:0350 FC E1                    7233   	add	sp,	#-4
00:0352 01-F0'00-00'             7234   	bl	__ftodu8sw
00:0356 00'00                    7235   	mov	r0,	#BYTE1 OFFSET $$S509
00:0358 00'01                    7236   	mov	r1,	#BYTE2 OFFSET $$S509
00:035A 5E-F0                    7237   	push	er0
00:035C 00'00                    7238   	mov	r0,	#BYTE1 OFFSET _SensorReturn
00:035E 00'01                    7239   	mov	r1,	#BYTE2 OFFSET _SensorReturn
00:0360 5E-F0                    7240   	push	er0
00:0362 01-F0'00-00'             7241   	bl	_sprintf_nn
00:0366 24 E1                    7242   	add	sp,	#36
                                 7243   
                                 7244   ;;	SensorReturn[148] = 0x0D;
                                 7245   CLINEA 0000H 0001H 08D5H 0002H 001AH
00:0368 0D 00                    7246   	mov	r0,	#0dh
00:036A 11-90 00-00'             7247   	st	r0,	NEAR _SensorReturn+094h
                                 7248   
                                 7249   ;;	SensorReturn[149] = 0x0A;
                                 7250   CLINEA 0000H 0001H 08D6H 0002H 001AH
00:036E 0A 00                    7251   	mov	r0,	#0ah
00:0370 11-90 00-00'             7252   	st	r0,	NEAR _SensorReturn+095h
                                 7253   
                                 7254   ;;	_flgUartFin = 0;
                                 7255   CLINEA 0000H 0001H 08D9H 0002H 0011H
00:0374 00 00                    7256   	mov	r0,	#00h
00:0376 11-90 00-00'             7257   	st	r0,	NEAR __flgUartFin
                                 7258   
                                 7259   ;;	uart_stop();
                                 7260   CLINEA 0000H 0001H 08DAH 0002H 000DH
00:037A 01-F0'00-00'             7261   	bl	_uart_stop
                                 7262   
                                 7263   ;;	uart_startSend(SensorReturn, 150, _funcUartFin);
                                 7264   CLINEA 0000H 0001H 08DBH 0002H 0031H
00:037E 00'00                    7265   	mov	r0,	#BYTE1 OFFSET __funcUartFin
00:0380 00'01                    7266   	mov	r1,	#BYTE2 OFFSET __funcUartFin
00:0382 5E-F0                    7267   	push	er0
00:0384 96 02                    7268   	mov	r2,	#096h
00:0386 00 03                    7269   	mov	r3,	#00h
00:0388 00'00                    7270   	mov	r0,	#BYTE1 OFFSET _SensorReturn
00:038A 00'01                    7271   	mov	r1,	#BYTE2 OFFSET _SensorReturn
00:038C 01-F0'00-00'             7272   	bl	_uart_startSend
00:0390 02 E1                    7273   	add	sp,	#2 
                                 7274   
                                 7275   ;;	while(_flgUartFin != 1){
                                 7276   CLINEA 0000H 0000H 08DCH 0001H 0001H
00:0392 04 CE                    7277   	bal	_$L514
                                 7278   
                                 7279   ;;	while(_flgUartFin != 1){
                                 7280   CLINEA 0000H 0000H 08DCH 0002H 0019H
00:0394                          7281   _$L512 :
                                 7282   CBLOCK 237 10 2268
                                 7283   
                                 7284   ;;		NOP1000();
                                 7285   CLINEA 0000H 0001H 08DDH 0003H 000CH
00:0394 01-F0'00-00'             7286   	bl	_NOP1000
                                 7287   
                                 7288   ;;		main_clrWDT();
                                 7289   CLINEA 0000H 0001H 08DEH 0003H 0010H
00:0398 01-F0'00-00'             7290   	bl	_main_clrWDT
                                 7291   CBLOCKEND 237 10 2271
                                 7292   
                                 7293   ;;	while(_flgUartFin != 1){
                                 7294   CLINEA 0000H 0000H 08DCH 0001H 0001H
00:039C                          7295   _$L514 :
                                 7296   
                                 7297   ;;	while(_flgUartFin != 1){
                                 7298   CLINEA 0000H 0000H 08DCH 000EH 0013H
00:039C 10-90 00-00'             7299   	l	r0,	NEAR __flgUartFin
00:03A0 01 70                    7300   	cmp	r0,	#01h
00:03A2 F8 C8                    7301   	bne	_$L512
                                 7302   CBLOCKEND 237 2 2272
                                 7303   
                                 7304   ;;}
                                 7305   CLINEA 0000H 0001H 08E0H 0001H 0001H
00:03A4 2E-F4                    7306   	pop	xr4
00:03A6 8E-F2                    7307   	pop	pc
                                 7308   CBLOCKEND 237 1 2272
                                 7309   CFUNCTIONEND 237
                                 7310   
                                 7311   
  --------------------------     7312   	rseg $$AccelSensorControlPID$main
                                 7313   CFUNCTION 238
                                 7314   
00:0000                          7315   _AccelSensorControlPID	:
                                 7316   CBLOCK 238 1 2274
                                 7317   
                                 7318   ;;void AccelSensorControlPID(void){
                                 7319   CLINEA 0000H 0001H 08E2H 0001H 0021H
00:0000 CE-F8                    7320   	push	lr
00:0002 5E-FE                    7321   	push	fp
00:0004 1A-AE                    7322   	mov	fp,	sp
00:0006 FC E1                    7323   	add	sp,	#-04
00:0008 6E-F8                    7324   	push	xr8
00:000A 6E-F4                    7325   	push	xr4
                                 7326   CBLOCK 238 2 2274
                                 7327   CRET 000EH
                                 7328   CLOCAL 4BH 0002H 0000H 0002H "i" 02H 00H 01H
                                 7329   CSLOCAL 43H 0004H 0002H 0002H "Accel_PID_XRollSetpoint" 02H 00H 03H
                                 7330   CSLOCAL 43H 0004H 0003H 0002H "Accel_PID_XRollSetpointPrime" 02H 00H 03H
                                 7331   CSLOCAL 43H 0004H 0004H 0002H "Accel_PID_XRollError" 02H 00H 03H
                                 7332   CSLOCAL 43H 0004H 0005H 0002H "Accel_PID_XRollCurrentCount" 02H 00H 03H
                                 7333   CSLOCAL 43H 0004H 0006H 0002H "Accel_PID_XRolldErr" 02H 00H 03H
                                 7334   CSLOCAL 43H 0004H 0007H 0002H "Accel_PID_XRollOutput" 02H 00H 03H
                                 7335   CSLOCAL 43H 0004H 0008H 0002H "Accel_PID_YPitchSetpoint" 02H 00H 03H
                                 7336   CSLOCAL 43H 0004H 0009H 0002H "Accel_PID_YPitchSetpointPrime" 02H 00H 03H
                                 7337   CSLOCAL 43H 0004H 000AH 0002H "Accel_PID_YPitchError" 02H 00H 03H
                                 7338   CSLOCAL 43H 0004H 000BH 0002H "Accel_PID_YPitchCurrentCount" 02H 00H 03H
                                 7339   CSLOCAL 43H 0004H 000CH 0002H "Accel_PID_YPitchdErr" 02H 00H 03H
                                 7340   CSLOCAL 43H 0004H 000DH 0002H "Accel_PID_YPitchOutput" 02H 00H 03H
                                 7341   CSLOCAL 43H 0004H 000EH 0002H "Accel_PID_Motor1_temp" 02H 00H 03H
                                 7342   CSLOCAL 43H 0004H 000FH 0002H "Accel_PID_Motor2_temp" 02H 00H 03H
                                 7343   CSLOCAL 43H 0004H 0010H 0002H "Accel_PID_Motor3_temp" 02H 00H 03H
                                 7344   CSLOCAL 43H 0004H 0011H 0002H "Accel_PID_Motor4_temp" 02H 00H 03H
                                 7345   
                                 7346   ;;	LED_3 = 1;		//C1, Pin 13
                                 7347   CLINEA 0000H 0001H 08F9H 0002H 0019H
00:000C 90-A0 60-F2              7348   	sb	0f260h.1
                                 7349   
                                 7350   ;;		Accel_PID_XRollError = -CF_XRoll;	//Setpoint - Error (in this case setpoint is 0)
                                 7351   CLINEA 0000H 0001H 090CH 0003H 0053H
00:0010 12-90 00-00'             7352   	l	er0,	NEAR _CF_XRoll
00:0014 12-92 00-00'             7353   	l	er2,	NEAR _CF_XRoll+02h
00:0018 6E-F0                    7354   	push	xr0
00:001A 01-F0'00-00'             7355   	bl	__fnegu8sw
00:001E 2E-F0                    7356   	pop	xr0
00:0020 13-90 00-00'             7357   	st	er0,	NEAR _$ST4
00:0024 13-92 00-00'             7358   	st	er2,	NEAR _$ST4+02h
                                 7359   
                                 7360   ;;		Accel_PID_XRollCurrentCount = Accel_PID_XRollCounter * .001;	//Timer in Seconds
                                 7361   CLINEA 0000H 0001H 090FH 0003H 0051H
00:0028 12-94 00-00'             7362   	l	er4,	NEAR _Accel_PID_XRollCounter
00:002C 00 E6                    7363   	mov	er6,	#0 
00:002E 6E-F4                    7364   	push	xr4
00:0030 FC E1                    7365   	add	sp,	#-4
00:0032 01-F0'00-00'             7366   	bl	__dildu8sw
00:0036 FC 04                    7367   	mov	r4,	#0fch
00:0038 A9 05                    7368   	mov	r5,	#0a9h
00:003A F1 06                    7369   	mov	r6,	#0f1h
00:003C D2 07                    7370   	mov	r7,	#0d2h
00:003E 4D 08                    7371   	mov	r8,	#04dh
00:0040 62 09                    7372   	mov	r9,	#062h
00:0042 50 0A                    7373   	mov	r10,	#050h
00:0044 3F 0B                    7374   	mov	r11,	#03fh
00:0046 6E-F8                    7375   	push	xr8
00:0048 6E-F4                    7376   	push	xr4
00:004A 01-F0'00-00'             7377   	bl	__dmulu8sw
00:004E 08 E1                    7378   	add	sp,	#8 
00:0050 01-F0'00-00'             7379   	bl	__dtofu8sw
00:0054 04 E1                    7380   	add	sp,	#4 
00:0056 2E-F4                    7381   	pop	xr4
00:0058 13-94 00-00'             7382   	st	er4,	NEAR _$ST5
00:005C 13-96 00-00'             7383   	st	er6,	NEAR _$ST5+02h
                                 7384   
                                 7385   ;;		Accel_PID_XRollCounter = 0;
                                 7386   CLINEA 0000H 0001H 0910H 0003H 001DH
00:0060 00 E4                    7387   	mov	er4,	#0 
00:0062 13-94 00-00'             7388   	st	er4,	NEAR _Accel_PID_XRollCounter
                                 7389   
                                 7390   ;;		Accel_PID_XRollErrSum += (Accel_PID_XRollError * Accel_PID_XRollCurrentCount);
                                 7391   CLINEA 0000H 0001H 0913H 0003H 0050H
00:0066 6E-F0                    7392   	push	xr0
00:0068 12-94 00-00'             7393   	l	er4,	NEAR _$ST5
00:006C 6E-F4                    7394   	push	xr4
00:006E 01-F0'00-00'             7395   	bl	__fmulu8sw
00:0072 04 E1                    7396   	add	sp,	#4 
00:0074 12-94 00-00'             7397   	l	er4,	NEAR _Accel_PID_XRollErrSum
00:0078 12-96 00-00'             7398   	l	er6,	NEAR _Accel_PID_XRollErrSum+02h
00:007C 6E-F4                    7399   	push	xr4
00:007E 01-F0'00-00'             7400   	bl	__faddu8sw
00:0082 04 E1                    7401   	add	sp,	#4 
00:0084 2E-F4                    7402   	pop	xr4
00:0086 13-94 00-00'             7403   	st	er4,	NEAR _Accel_PID_XRollErrSum
00:008A 13-96 00-00'             7404   	st	er6,	NEAR _Accel_PID_XRollErrSum+02h
                                 7405   
                                 7406   ;;		Accel_PID_XRolldErr	/= Accel_PID_XRollCurrentCount;
                                 7407   CLINEA 0000H 0001H 0917H 0003H 0035H
00:008E 6E-F0                    7408   	push	xr0
00:0090 12-94 00-00'             7409   	l	er4,	NEAR _Accel_PID_XRollErrPrev
00:0094 12-96 00-00'             7410   	l	er6,	NEAR _Accel_PID_XRollErrPrev+02h
00:0098 6E-F4                    7411   	push	xr4
00:009A 01-F0'00-00'             7412   	bl	__fsubu8sw
00:009E 04 E1                    7413   	add	sp,	#4 
00:00A0 12-94 00-00'             7414   	l	er4,	NEAR _$ST5
00:00A4 12-96 00-00'             7415   	l	er6,	NEAR _$ST5+02h
00:00A8 6E-F4                    7416   	push	xr4
00:00AA 01-F0'00-00'             7417   	bl	__fdivu8sw
00:00AE 04 E1                    7418   	add	sp,	#4 
00:00B0 2E-F4                    7419   	pop	xr4
00:00B2 13-94 00-00'             7420   	st	er4,	NEAR _$ST6
00:00B6 13-96 00-00'             7421   	st	er6,	NEAR _$ST6+02h
                                 7422   
                                 7423   ;;		Accel_PID_XRollErrPrev = Accel_PID_XRollError;
                                 7424   CLINEA 0000H 0001H 0918H 0003H 0030H
00:00BA 13-90 00-00'             7425   	st	er0,	NEAR _Accel_PID_XRollErrPrev
00:00BE 13-92 00-00'             7426   	st	er2,	NEAR _Accel_PID_XRollErrPrev+02h
                                 7427   
                                 7428   ;;		Accel_PID_XRollOutput += (Accel_PID_XRoll_kd*Accel_PID_XRolldErr);
                                 7429   CLINEA 0000H 0001H 091DH 0003H 0044H
00:00C2 6E-F0                    7430   	push	xr0
00:00C4 12-90 00-00'             7431   	l	er0,	NEAR _Accel_PID_XRoll_kp
00:00C8 12-92 00-00'             7432   	l	er2,	NEAR _Accel_PID_XRoll_kp+02h
00:00CC 6E-F0                    7433   	push	xr0
00:00CE 01-F0'00-00'             7434   	bl	__fmulu8sw
00:00D2 04 E1                    7435   	add	sp,	#4 
00:00D4 2E-F0                    7436   	pop	xr0
00:00D6 12-94 00-00'             7437   	l	er4,	NEAR _Accel_PID_XRollErrSum
00:00DA 12-96 00-00'             7438   	l	er6,	NEAR _Accel_PID_XRollErrSum+02h
00:00DE 6E-F4                    7439   	push	xr4
00:00E0 12-94 00-00'             7440   	l	er4,	NEAR _Accel_PID_XRoll_ki
00:00E4 12-96 00-00'             7441   	l	er6,	NEAR _Accel_PID_XRoll_ki+02h
00:00E8 6E-F4                    7442   	push	xr4
00:00EA 01-F0'00-00'             7443   	bl	__fmulu8sw
00:00EE 04 E1                    7444   	add	sp,	#4 
00:00F0 2E-F4                    7445   	pop	xr4
00:00F2 6E-F0                    7446   	push	xr0
00:00F4 6E-F4                    7447   	push	xr4
00:00F6 01-F0'00-00'             7448   	bl	__faddu8sw
00:00FA 04 E1                    7449   	add	sp,	#4 
00:00FC 2E-F0                    7450   	pop	xr0
00:00FE 12-94 00-00'             7451   	l	er4,	NEAR _$ST6
00:0102 12-96 00-00'             7452   	l	er6,	NEAR _$ST6+02h
00:0106 6E-F4                    7453   	push	xr4
00:0108 12-94 00-00'             7454   	l	er4,	NEAR _Accel_PID_XRoll_kd
00:010C 12-96 00-00'             7455   	l	er6,	NEAR _Accel_PID_XRoll_kd+02h
00:0110 6E-F4                    7456   	push	xr4
00:0112 01-F0'00-00'             7457   	bl	__fmulu8sw
00:0116 04 E1                    7458   	add	sp,	#4 
00:0118 2E-F4                    7459   	pop	xr4
00:011A 6E-F0                    7460   	push	xr0
00:011C 6E-F4                    7461   	push	xr4
00:011E 01-F0'00-00'             7462   	bl	__faddu8sw
00:0122 04 E1                    7463   	add	sp,	#4 
00:0124 2E-F0                    7464   	pop	xr0
00:0126 13-90 00-00'             7465   	st	er0,	NEAR _$ST7
00:012A 13-92 00-00'             7466   	st	er2,	NEAR _$ST7+02h
                                 7467   
                                 7468   ;;		Accel_PID_Motor1 -= Accel_PID_XRollOutput;
                                 7469   CLINEA 0000H 0001H 0929H 0003H 002CH
00:012E 12-94 00-00'             7470   	l	er4,	NEAR _Accel_PID_Motor1
00:0132 00 E6                    7471   	mov	er6,	#0 
00:0134 6E-F4                    7472   	push	xr4
00:0136 01-F0'00-00'             7473   	bl	__fuldu8sw
00:013A 6E-F0                    7474   	push	xr0
00:013C 01-F0'00-00'             7475   	bl	__fsubu8sw
00:0140 04 E1                    7476   	add	sp,	#4 
00:0142 01-F0'00-00'             7477   	bl	__ftolu8sw
00:0146 1E-F4                    7478   	pop	er4
00:0148 02 E1                    7479   	add	sp,	#2 
00:014A 13-94 00-00'             7480   	st	er4,	NEAR _Accel_PID_Motor1
                                 7481   
                                 7482   ;;		Accel_PID_Motor2 += Accel_PID_XRollOutput;
                                 7483   CLINEA 0000H 0001H 092AH 0003H 002CH
00:014E 12-94 00-00'             7484   	l	er4,	NEAR _Accel_PID_Motor2
00:0152 6E-F4                    7485   	push	xr4
00:0154 01-F0'00-00'             7486   	bl	__fuldu8sw
00:0158 2E-F4                    7487   	pop	xr4
00:015A 6E-F0                    7488   	push	xr0
00:015C 6E-F4                    7489   	push	xr4
00:015E 01-F0'00-00'             7490   	bl	__faddu8sw
00:0162 04 E1                    7491   	add	sp,	#4 
00:0164 01-F0'00-00'             7492   	bl	__ftolu8sw
00:0168 1E-F4                    7493   	pop	er4
00:016A 02 E1                    7494   	add	sp,	#2 
00:016C 13-94 00-00'             7495   	st	er4,	NEAR _Accel_PID_Motor2
                                 7496   
                                 7497   ;;		Accel_PID_Motor3 += Accel_PID_XRollOutput;
                                 7498   CLINEA 0000H 0001H 092BH 0003H 002CH
00:0170 12-94 00-00'             7499   	l	er4,	NEAR _Accel_PID_Motor3
00:0174 00 E6                    7500   	mov	er6,	#0 
00:0176 6E-F4                    7501   	push	xr4
00:0178 01-F0'00-00'             7502   	bl	__fuldu8sw
00:017C 2E-F4                    7503   	pop	xr4
00:017E 6E-F0                    7504   	push	xr0
00:0180 6E-F4                    7505   	push	xr4
00:0182 01-F0'00-00'             7506   	bl	__faddu8sw
00:0186 04 E1                    7507   	add	sp,	#4 
00:0188 01-F0'00-00'             7508   	bl	__ftolu8sw
00:018C 1E-F4                    7509   	pop	er4
00:018E 02 E1                    7510   	add	sp,	#2 
00:0190 13-94 00-00'             7511   	st	er4,	NEAR _Accel_PID_Motor3
                                 7512   
                                 7513   ;;		Accel_PID_Motor4 -= Accel_PID_XRollOutput;
                                 7514   CLINEA 0000H 0001H 092CH 0003H 002CH
00:0194 12-94 00-00'             7515   	l	er4,	NEAR _Accel_PID_Motor4
00:0198 00 E6                    7516   	mov	er6,	#0 
00:019A 6E-F4                    7517   	push	xr4
00:019C 01-F0'00-00'             7518   	bl	__fuldu8sw
00:01A0 6E-F0                    7519   	push	xr0
00:01A2 01-F0'00-00'             7520   	bl	__fsubu8sw
00:01A6 04 E1                    7521   	add	sp,	#4 
00:01A8 01-F0'00-00'             7522   	bl	__ftolu8sw
00:01AC 1E-F0                    7523   	pop	er0
00:01AE 02 E1                    7524   	add	sp,	#2 
00:01B0 13-90 00-00'             7525   	st	er0,	NEAR _Accel_PID_Motor4
                                 7526   
                                 7527   ;;		CheckSafetyLimitUnscaled();
                                 7528   CLINEA 0000H 0001H 092EH 0003H 001DH
00:01B4 01-F0'00-00'             7529   	bl	_CheckSafetyLimitUnscaled
                                 7530   
                                 7531   ;;		Accel_PID_Motor1_temp = Accel_PID_Motor1_temp + PWMLowerDutyLimitRun;	//Conversion from 65535 Scaling to PWM Period of 17000
                                 7532   CLINEA 0000H 0001H 0932H 0003H 007EH
00:01B8 12-90 00-00'             7533   	l	er0,	NEAR _Accel_PID_Motor1
00:01BC 02 10                    7534   	add	r0,	#02h
00:01BE C0 61                    7535   	addc	r1,	#0c0h
00:01C0 00 E2                    7536   	mov	er2,	#0 
00:01C2 6E-F0                    7537   	push	xr0
00:01C4 01-F0'00-00'             7538   	bl	__fuldu8sw
00:01C8 00 00                    7539   	mov	r0,	#00h
00:01CA FE 01                    7540   	mov	r1,	#0feh
00:01CC FF 02                    7541   	mov	r2,	#0ffh
00:01CE 46 03                    7542   	mov	r3,	#046h
00:01D0 6E-F0                    7543   	push	xr0
00:01D2 01-F0'00-00'             7544   	bl	__fdivu8sw
00:01D6 04 E1                    7545   	add	sp,	#4 
00:01D8 2E-F4                    7546   	pop	xr4
00:01DA 12-90 00-00'             7547   	l	er0,	NEAR _PWMUpperLowerDiff
00:01DE 00 E2                    7548   	mov	er2,	#0 
00:01E0 6E-F0                    7549   	push	xr0
00:01E2 01-F0'00-00'             7550   	bl	__fuldu8sw
00:01E6 2E-F0                    7551   	pop	xr0
00:01E8 7E-F0                    7552   	push	qr0
00:01EA 01-F0'00-00'             7553   	bl	__fmulu8sw
00:01EE 04 E1                    7554   	add	sp,	#4 
00:01F0 2E-F8                    7555   	pop	xr8
00:01F2 12-94 00-00'             7556   	l	er4,	NEAR _PWMLowerDutyLimitRun
00:01F6 00 E6                    7557   	mov	er6,	#0 
00:01F8 6E-F4                    7558   	push	xr4
00:01FA 01-F0'00-00'             7559   	bl	__fuldu8sw
00:01FE 2E-F4                    7560   	pop	xr4
00:0200 6E-F8                    7561   	push	xr8
00:0202 6E-F4                    7562   	push	xr4
00:0204 01-F0'00-00'             7563   	bl	__faddu8sw
00:0208 04 E1                    7564   	add	sp,	#4 
00:020A 2E-F8                    7565   	pop	xr8
00:020C 13-98 00-00'             7566   	st	er8,	NEAR _$ST14
00:0210 13-9A 00-00'             7567   	st	er10,	NEAR _$ST14+02h
                                 7568   
                                 7569   ;;		Accel_PID_Motor2_temp = Accel_PID_Motor2_temp + PWMLowerDutyLimitRun;	//Conversion from 65535 Scaling to PWM Period of 17000
                                 7570   CLINEA 0000H 0001H 0936H 0003H 007EH
00:0214 12-98 00-00'             7571   	l	er8,	NEAR _Accel_PID_Motor2
00:0218 02 18                    7572   	add	r8,	#02h
00:021A C0 69                    7573   	addc	r9,	#0c0h
00:021C 00 EA                    7574   	mov	er10,	#0 
00:021E 6E-F8                    7575   	push	xr8
00:0220 01-F0'00-00'             7576   	bl	__fuldu8sw
00:0224 00 08                    7577   	mov	r8,	#00h
00:0226 FE 09                    7578   	mov	r9,	#0feh
00:0228 FF 0A                    7579   	mov	r10,	#0ffh
00:022A 46 0B                    7580   	mov	r11,	#046h
00:022C 6E-F8                    7581   	push	xr8
00:022E 01-F0'00-00'             7582   	bl	__fdivu8sw
00:0232 04 E1                    7583   	add	sp,	#4 
00:0234 6E-F0                    7584   	push	xr0
00:0236 01-F0'00-00'             7585   	bl	__fmulu8sw
00:023A 04 E1                    7586   	add	sp,	#4 
00:023C 6E-F4                    7587   	push	xr4
00:023E 01-F0'00-00'             7588   	bl	__faddu8sw
00:0242 04 E1                    7589   	add	sp,	#4 
00:0244 2E-F8                    7590   	pop	xr8
00:0246 13-98 00-00'             7591   	st	er8,	NEAR _$ST15
00:024A 13-9A 00-00'             7592   	st	er10,	NEAR _$ST15+02h
                                 7593   
                                 7594   ;;		Accel_PID_Motor3_temp = Accel_PID_Motor3_temp + PWMLowerDutyLimitRun;	//Conversion from 65535 Scaling to PWM Period of 17000
                                 7595   CLINEA 0000H 0001H 093AH 0003H 007EH
00:024E 12-98 00-00'             7596   	l	er8,	NEAR _Accel_PID_Motor3
00:0252 02 18                    7597   	add	r8,	#02h
00:0254 C0 69                    7598   	addc	r9,	#0c0h
00:0256 00 EA                    7599   	mov	er10,	#0 
00:0258 6E-F8                    7600   	push	xr8
00:025A 01-F0'00-00'             7601   	bl	__fuldu8sw
00:025E 00 08                    7602   	mov	r8,	#00h
00:0260 FE 09                    7603   	mov	r9,	#0feh
00:0262 FF 0A                    7604   	mov	r10,	#0ffh
00:0264 46 0B                    7605   	mov	r11,	#046h
00:0266 6E-F8                    7606   	push	xr8
00:0268 01-F0'00-00'             7607   	bl	__fdivu8sw
00:026C 04 E1                    7608   	add	sp,	#4 
00:026E 6E-F0                    7609   	push	xr0
00:0270 01-F0'00-00'             7610   	bl	__fmulu8sw
00:0274 04 E1                    7611   	add	sp,	#4 
00:0276 6E-F4                    7612   	push	xr4
00:0278 01-F0'00-00'             7613   	bl	__faddu8sw
00:027C 04 E1                    7614   	add	sp,	#4 
00:027E 2E-F8                    7615   	pop	xr8
00:0280 13-98 00-00'             7616   	st	er8,	NEAR _$ST16
00:0284 13-9A 00-00'             7617   	st	er10,	NEAR _$ST16+02h
                                 7618   
                                 7619   ;;		Accel_PID_Motor4_temp = Accel_PID_Motor4_temp + PWMLowerDutyLimitRun;	//Conversion from 65535 Scaling to PWM Period of 17000
                                 7620   CLINEA 0000H 0001H 093EH 0003H 007EH
00:0288 12-98 00-00'             7621   	l	er8,	NEAR _Accel_PID_Motor4
00:028C 02 18                    7622   	add	r8,	#02h
00:028E C0 69                    7623   	addc	r9,	#0c0h
00:0290 00 EA                    7624   	mov	er10,	#0 
00:0292 6E-F8                    7625   	push	xr8
00:0294 01-F0'00-00'             7626   	bl	__fuldu8sw
00:0298 00 08                    7627   	mov	r8,	#00h
00:029A FE 09                    7628   	mov	r9,	#0feh
00:029C FF 0A                    7629   	mov	r10,	#0ffh
00:029E 46 0B                    7630   	mov	r11,	#046h
00:02A0 6E-F8                    7631   	push	xr8
00:02A2 01-F0'00-00'             7632   	bl	__fdivu8sw
00:02A6 04 E1                    7633   	add	sp,	#4 
00:02A8 6E-F0                    7634   	push	xr0
00:02AA 01-F0'00-00'             7635   	bl	__fmulu8sw
00:02AE 04 E1                    7636   	add	sp,	#4 
00:02B0 6E-F4                    7637   	push	xr4
00:02B2 01-F0'00-00'             7638   	bl	__faddu8sw
00:02B6 04 E1                    7639   	add	sp,	#4 
00:02B8 2E-F0                    7640   	pop	xr0
00:02BA 13-90 00-00'             7641   	st	er0,	NEAR _$ST17
00:02BE 13-92 00-00'             7642   	st	er2,	NEAR _$ST17+02h
                                 7643   
                                 7644   ;;		PFRUN = 0;	//Turn OFF PWM
                                 7645   CLINEA 0000H 0001H 0942H 0003H 001BH
00:02C2 82-A0 73-F9              7646   	rb	0f973h.0
                                 7647   
                                 7648   ;;		PERUN = 0;
                                 7649   CLINEA 0000H 0001H 0943H 0003H 000CH
00:02C6 82-A0 37-F9              7650   	rb	0f937h.0
                                 7651   
                                 7652   ;;		PDRUN = 0;
                                 7653   CLINEA 0000H 0001H 0944H 0003H 000CH
00:02CA 82-A0 27-F9              7654   	rb	0f927h.0
                                 7655   
                                 7656   ;;		PCRUN = 0;
                                 7657   CLINEA 0000H 0001H 0945H 0003H 000CH
00:02CE 82-A0 17-F9              7658   	rb	0f917h.0
                                 7659   
                                 7660   ;;		PWF0D = Accel_PID_Motor1_temp; 		//Can't be running to change (Only this variable)
                                 7661   CLINEA 0000H 0001H 0946H 0003H 0054H
00:02D2 12-90 00-00'             7662   	l	er0,	NEAR _$ST14
00:02D6 12-92 00-00'             7663   	l	er2,	NEAR _$ST14+02h
00:02DA 6E-F0                    7664   	push	xr0
00:02DC 01-F0'00-00'             7665   	bl	__ftolu8sw
00:02E0 1E-F0                    7666   	pop	er0
00:02E2 02 E1                    7667   	add	sp,	#2 
00:02E4 13-90 62-F9              7668   	st	er0,	0f962h
                                 7669   
                                 7670   ;;		PWED = Accel_PID_Motor2_temp;	
                                 7671   CLINEA 0000H 0001H 0947H 0003H 0020H
00:02E8 12-90 00-00'             7672   	l	er0,	NEAR _$ST15
00:02EC 12-92 00-00'             7673   	l	er2,	NEAR _$ST15+02h
00:02F0 6E-F0                    7674   	push	xr0
00:02F2 01-F0'00-00'             7675   	bl	__ftolu8sw
00:02F6 1E-F0                    7676   	pop	er0
00:02F8 02 E1                    7677   	add	sp,	#2 
00:02FA 13-90 32-F9              7678   	st	er0,	0f932h
                                 7679   
                                 7680   ;;		PWCD = Accel_PID_Motor3_temp;	
                                 7681   CLINEA 0000H 0001H 0948H 0003H 0020H
00:02FE 12-90 00-00'             7682   	l	er0,	NEAR _$ST16
00:0302 12-92 00-00'             7683   	l	er2,	NEAR _$ST16+02h
00:0306 6E-F0                    7684   	push	xr0
00:0308 01-F0'00-00'             7685   	bl	__ftolu8sw
00:030C 1E-F0                    7686   	pop	er0
00:030E 02 E1                    7687   	add	sp,	#2 
00:0310 13-90 12-F9              7688   	st	er0,	0f912h
                                 7689   
                                 7690   ;;		PWDD = Accel_PID_Motor4_temp;
                                 7691   CLINEA 0000H 0001H 0949H 0003H 001FH
00:0314 12-90 00-00'             7692   	l	er0,	NEAR _$ST17
00:0318 12-92 00-00'             7693   	l	er2,	NEAR _$ST17+02h
00:031C 6E-F0                    7694   	push	xr0
00:031E 01-F0'00-00'             7695   	bl	__ftolu8sw
00:0322 1E-F0                    7696   	pop	er0
00:0324 02 E1                    7697   	add	sp,	#2 
00:0326 13-90 22-F9              7698   	st	er0,	0f922h
                                 7699   
                                 7700   ;;		CheckSafetyLimit();
                                 7701   CLINEA 0000H 0001H 094AH 0003H 0015H
00:032A 01-F0'00-00'             7702   	bl	_CheckSafetyLimit
                                 7703   
                                 7704   ;;		PFRUN = 1;	//Turn ON PWM
                                 7705   CLINEA 0000H 0001H 094BH 0003H 001AH
00:032E 80-A0 73-F9              7706   	sb	0f973h.0
                                 7707   
                                 7708   ;;		PERUN = 1;
                                 7709   CLINEA 0000H 0001H 094CH 0003H 000CH
00:0332 80-A0 37-F9              7710   	sb	0f937h.0
                                 7711   
                                 7712   ;;		PDRUN = 1;
                                 7713   CLINEA 0000H 0001H 094DH 0003H 000CH
00:0336 80-A0 27-F9              7714   	sb	0f927h.0
                                 7715   
                                 7716   ;;		PCRUN = 1;
                                 7717   CLINEA 0000H 0001H 094EH 0003H 000CH
00:033A 80-A0 17-F9              7718   	sb	0f917h.0
                                 7719   
                                 7720   ;;	while(AccGyro_ReadFlag == 0){
                                 7721   CLINEA 0000H 0000H 0964H 0001H 0001H
00:033E 02 CE                    7722   	bal	_$L522
                                 7723   
                                 7724   ;;	while(AccGyro_ReadFlag == 0){
                                 7725   CLINEA 0000H 0000H 0964H 0002H 001EH
00:0340                          7726   _$L518 :
                                 7727   CBLOCK 238 3 2404
                                 7728   
                                 7729   ;;		main_clrWDT();				//kick the dog...1.34uS duration.
                                 7730   CLINEA 0000H 0001H 0965H 0003H 0035H
00:0340 01-F0'00-00'             7731   	bl	_main_clrWDT
                                 7732   CBLOCKEND 238 3 2406
                                 7733   
                                 7734   ;;	while(AccGyro_ReadFlag == 0){
                                 7735   CLINEA 0000H 0000H 0964H 0001H 0001H
00:0344                          7736   _$L522 :
                                 7737   
                                 7738   ;;	while(AccGyro_ReadFlag == 0){
                                 7739   CLINEA 0000H 0000H 0964H 000EH 0013H
00:0344 10-90 00-00'             7740   	l	r0,	NEAR _AccGyro_ReadFlag
00:0348 FB C9                    7741   	beq	_$L518
                                 7742   
                                 7743   ;;	Get_AccGyroData();	//This Function takes 14ms (as of 3/30/2013)
                                 7744   CLINEA 0000H 0001H 0967H 0002H 0040H
00:034A 01-F0'00-00'             7745   	bl	_Get_AccGyroData
                                 7746   
                                 7747   ;;	AccGyro_ReadFlag = 0;
                                 7748   CLINEA 0000H 0001H 0968H 0002H 0016H
00:034E 00 00                    7749   	mov	r0,	#00h
00:0350 11-90 00-00'             7750   	st	r0,	NEAR _AccGyro_ReadFlag
                                 7751   
                                 7752   ;;	if(AccGyro_CF_FlagCounter > 0){
                                 7753   CLINEA 0000H 0001H 0969H 0002H 0020H
00:0354 10-90 00-00'             7754   	l	r0,	NEAR _AccGyro_CF_FlagCounter
00:0358 00 70                    7755   	cmp	r0,	#00h
00:035A 05 C3                    7756   	ble	_$L520
                                 7757   CBLOCK 238 4 2409
                                 7758   
                                 7759   ;;		Run_AccGyroCF();
                                 7760   CLINEA 0000H 0001H 096BH 0003H 0012H
00:035C 01-F0'00-00'             7761   	bl	_Run_AccGyroCF
                                 7762   
                                 7763   ;;		AccGyro_CF_FlagCounter--;
                                 7764   CLINEA 0000H 0000H 096DH 0003H 001BH
00:0360 0C-F0 00-00'             7765   	lea	OFFSET _AccGyro_CF_FlagCounter
00:0364 3F-FE                    7766   	dec	[ea]
                                 7767   CBLOCKEND 238 4 2414
                                 7768   
                                 7769   ;;	}
                                 7770   CLINEA 0000H 0000H 096EH 0002H 0002H
00:0366                          7771   _$L520 :
                                 7772   
                                 7773   ;;		Accel_PID_YPitchError = -CF_YPitch;		//Setpoint - Error (in this case setpoint is 0)
                                 7774   CLINEA 0000H 0001H 0980H 0003H 0056H
00:0366 12-90 00-00'             7775   	l	er0,	NEAR _CF_YPitch
00:036A 12-92 00-00'             7776   	l	er2,	NEAR _CF_YPitch+02h
00:036E 6E-F0                    7777   	push	xr0
00:0370 01-F0'00-00'             7778   	bl	__fnegu8sw
00:0374 2E-F0                    7779   	pop	xr0
00:0376 13-90 00-00'             7780   	st	er0,	NEAR _$ST10
00:037A 13-92 00-00'             7781   	st	er2,	NEAR _$ST10+02h
                                 7782   
                                 7783   ;;		Accel_PID_YPitchCurrentCount = Accel_PID_YPitchCounter * .001;		//Timer in Seconds
                                 7784   CLINEA 0000H 0001H 0983H 0003H 0054H
00:037E 12-94 00-00'             7785   	l	er4,	NEAR _Accel_PID_YPitchCounter
00:0382 00 E6                    7786   	mov	er6,	#0 
00:0384 6E-F4                    7787   	push	xr4
00:0386 FC E1                    7788   	add	sp,	#-4
00:0388 01-F0'00-00'             7789   	bl	__dildu8sw
00:038C FC 04                    7790   	mov	r4,	#0fch
00:038E A9 05                    7791   	mov	r5,	#0a9h
00:0390 F1 06                    7792   	mov	r6,	#0f1h
00:0392 D2 07                    7793   	mov	r7,	#0d2h
00:0394 4D 08                    7794   	mov	r8,	#04dh
00:0396 62 09                    7795   	mov	r9,	#062h
00:0398 50 0A                    7796   	mov	r10,	#050h
00:039A 3F 0B                    7797   	mov	r11,	#03fh
00:039C 6E-F8                    7798   	push	xr8
00:039E 6E-F4                    7799   	push	xr4
00:03A0 01-F0'00-00'             7800   	bl	__dmulu8sw
00:03A4 08 E1                    7801   	add	sp,	#8 
00:03A6 01-F0'00-00'             7802   	bl	__dtofu8sw
00:03AA 04 E1                    7803   	add	sp,	#4 
00:03AC 2E-F4                    7804   	pop	xr4
00:03AE 13-94 00-00'             7805   	st	er4,	NEAR _$ST11
00:03B2 13-96 00-00'             7806   	st	er6,	NEAR _$ST11+02h
                                 7807   
                                 7808   ;;		Accel_PID_YPitchCounter = 0;
                                 7809   CLINEA 0000H 0001H 0984H 0003H 001EH
00:03B6 00 E4                    7810   	mov	er4,	#0 
00:03B8 13-94 00-00'             7811   	st	er4,	NEAR _Accel_PID_YPitchCounter
                                 7812   
                                 7813   ;;		Accel_PID_YPitchErrSum += (Accel_PID_YPitchError * Accel_PID_YPitchCurrentCount);
                                 7814   CLINEA 0000H 0001H 0988H 0003H 0053H
00:03BC 6E-F0                    7815   	push	xr0
00:03BE 12-94 00-00'             7816   	l	er4,	NEAR _$ST11
00:03C2 12-96 00-00'             7817   	l	er6,	NEAR _$ST11+02h
00:03C6 6E-F4                    7818   	push	xr4
00:03C8 01-F0'00-00'             7819   	bl	__fmulu8sw
00:03CC 04 E1                    7820   	add	sp,	#4 
00:03CE 12-94 00-00'             7821   	l	er4,	NEAR _Accel_PID_YPitchErrSum
00:03D2 12-96 00-00'             7822   	l	er6,	NEAR _Accel_PID_YPitchErrSum+02h
00:03D6 6E-F4                    7823   	push	xr4
00:03D8 01-F0'00-00'             7824   	bl	__faddu8sw
00:03DC 04 E1                    7825   	add	sp,	#4 
00:03DE 2E-F4                    7826   	pop	xr4
00:03E0 13-94 00-00'             7827   	st	er4,	NEAR _Accel_PID_YPitchErrSum
00:03E4 13-96 00-00'             7828   	st	er6,	NEAR _Accel_PID_YPitchErrSum+02h
                                 7829   
                                 7830   ;;		Accel_PID_YPitchdErr /= Accel_PID_YPitchCurrentCount;
                                 7831   CLINEA 0000H 0001H 098CH 0003H 0037H
00:03E8 6E-F0                    7832   	push	xr0
00:03EA 12-94 00-00'             7833   	l	er4,	NEAR _Accel_PID_YPitchErrPrev
00:03EE 12-96 00-00'             7834   	l	er6,	NEAR _Accel_PID_YPitchErrPrev+02h
00:03F2 6E-F4                    7835   	push	xr4
00:03F4 01-F0'00-00'             7836   	bl	__fsubu8sw
00:03F8 04 E1                    7837   	add	sp,	#4 
00:03FA 12-94 00-00'             7838   	l	er4,	NEAR _$ST11
00:03FE 12-96 00-00'             7839   	l	er6,	NEAR _$ST11+02h
00:0402 6E-F4                    7840   	push	xr4
00:0404 01-F0'00-00'             7841   	bl	__fdivu8sw
00:0408 04 E1                    7842   	add	sp,	#4 
00:040A 2E-F4                    7843   	pop	xr4
00:040C 13-94 00-00'             7844   	st	er4,	NEAR _$ST12
00:0410 13-96 00-00'             7845   	st	er6,	NEAR _$ST12+02h
                                 7846   
                                 7847   ;;		Accel_PID_YPitchErrPrev = Accel_PID_YPitchError;
                                 7848   CLINEA 0000H 0001H 098DH 0003H 0032H
00:0414 13-90 00-00'             7849   	st	er0,	NEAR _Accel_PID_YPitchErrPrev
00:0418 13-92 00-00'             7850   	st	er2,	NEAR _Accel_PID_YPitchErrPrev+02h
                                 7851   
                                 7852   ;;		Accel_PID_YPitchOutput = (Accel_PID_YPitch_kp*Accel_PID_YPitchError) + (Accel_PID_YPitch_ki*Accel_PID_YPitchErrSum) + (Accel_PID_YPitch_kd*Accel_PID_YPitchdErr);
                                 7853   CLINEA 0000H 0001H 0990H 0003H 00A3H
00:041C 6E-F0                    7854   	push	xr0
00:041E 12-90 00-00'             7855   	l	er0,	NEAR _Accel_PID_YPitch_kp
00:0422 12-92 00-00'             7856   	l	er2,	NEAR _Accel_PID_YPitch_kp+02h
00:0426 6E-F0                    7857   	push	xr0
00:0428 01-F0'00-00'             7858   	bl	__fmulu8sw
00:042C 04 E1                    7859   	add	sp,	#4 
00:042E 2E-F0                    7860   	pop	xr0
00:0430 12-94 00-00'             7861   	l	er4,	NEAR _Accel_PID_YPitchErrSum
00:0434 12-96 00-00'             7862   	l	er6,	NEAR _Accel_PID_YPitchErrSum+02h
00:0438 6E-F4                    7863   	push	xr4
00:043A 12-94 00-00'             7864   	l	er4,	NEAR _Accel_PID_YPitch_ki
00:043E 12-96 00-00'             7865   	l	er6,	NEAR _Accel_PID_YPitch_ki+02h
00:0442 6E-F4                    7866   	push	xr4
00:0444 01-F0'00-00'             7867   	bl	__fmulu8sw
00:0448 04 E1                    7868   	add	sp,	#4 
00:044A 2E-F4                    7869   	pop	xr4
00:044C 6E-F0                    7870   	push	xr0
00:044E 6E-F4                    7871   	push	xr4
00:0450 01-F0'00-00'             7872   	bl	__faddu8sw
00:0454 04 E1                    7873   	add	sp,	#4 
00:0456 2E-F0                    7874   	pop	xr0
00:0458 12-94 00-00'             7875   	l	er4,	NEAR _$ST12
00:045C 12-96 00-00'             7876   	l	er6,	NEAR _$ST12+02h
00:0460 6E-F4                    7877   	push	xr4
00:0462 12-94 00-00'             7878   	l	er4,	NEAR _Accel_PID_YPitch_kd
00:0466 12-96 00-00'             7879   	l	er6,	NEAR _Accel_PID_YPitch_kd+02h
00:046A 6E-F4                    7880   	push	xr4
00:046C 01-F0'00-00'             7881   	bl	__fmulu8sw
00:0470 04 E1                    7882   	add	sp,	#4 
00:0472 2E-F4                    7883   	pop	xr4
00:0474 6E-F0                    7884   	push	xr0
00:0476 6E-F4                    7885   	push	xr4
00:0478 01-F0'00-00'             7886   	bl	__faddu8sw
00:047C 04 E1                    7887   	add	sp,	#4 
00:047E 2E-F0                    7888   	pop	xr0
00:0480 13-90 00-00'             7889   	st	er0,	NEAR _$ST13
00:0484 13-92 00-00'             7890   	st	er2,	NEAR _$ST13+02h
                                 7891   
                                 7892   ;;		Accel_PID_Motor1 += Accel_PID_YPitchOutput;
                                 7893   CLINEA 0000H 0001H 099DH 0003H 002DH
00:0488 12-94 00-00'             7894   	l	er4,	NEAR _Accel_PID_Motor1
00:048C 00 E6                    7895   	mov	er6,	#0 
00:048E 6E-F4                    7896   	push	xr4
00:0490 01-F0'00-00'             7897   	bl	__fuldu8sw
00:0494 2E-F4                    7898   	pop	xr4
00:0496 6E-F0                    7899   	push	xr0
00:0498 6E-F4                    7900   	push	xr4
00:049A 01-F0'00-00'             7901   	bl	__faddu8sw
00:049E 04 E1                    7902   	add	sp,	#4 
00:04A0 01-F0'00-00'             7903   	bl	__ftolu8sw
00:04A4 1E-F4                    7904   	pop	er4
00:04A6 02 E1                    7905   	add	sp,	#2 
00:04A8 13-94 00-00'             7906   	st	er4,	NEAR _Accel_PID_Motor1
                                 7907   
                                 7908   ;;		Accel_PID_Motor2 += Accel_PID_YPitchOutput;
                                 7909   CLINEA 0000H 0001H 099EH 0003H 002DH
00:04AC 12-94 00-00'             7910   	l	er4,	NEAR _Accel_PID_Motor2
00:04B0 00 E6                    7911   	mov	er6,	#0 
00:04B2 6E-F4                    7912   	push	xr4
00:04B4 01-F0'00-00'             7913   	bl	__fuldu8sw
00:04B8 2E-F4                    7914   	pop	xr4
00:04BA 6E-F0                    7915   	push	xr0
00:04BC 6E-F4                    7916   	push	xr4
00:04BE 01-F0'00-00'             7917   	bl	__faddu8sw
00:04C2 04 E1                    7918   	add	sp,	#4 
00:04C4 01-F0'00-00'             7919   	bl	__ftolu8sw
00:04C8 1E-F4                    7920   	pop	er4
00:04CA 02 E1                    7921   	add	sp,	#2 
00:04CC 13-94 00-00'             7922   	st	er4,	NEAR _Accel_PID_Motor2
                                 7923   
                                 7924   ;;		Accel_PID_Motor3 -= Accel_PID_YPitchOutput;
                                 7925   CLINEA 0000H 0001H 099FH 0003H 002DH
00:04D0 12-94 00-00'             7926   	l	er4,	NEAR _Accel_PID_Motor3
00:04D4 00 E6                    7927   	mov	er6,	#0 
00:04D6 6E-F4                    7928   	push	xr4
00:04D8 01-F0'00-00'             7929   	bl	__fuldu8sw
00:04DC 6E-F0                    7930   	push	xr0
00:04DE 01-F0'00-00'             7931   	bl	__fsubu8sw
00:04E2 04 E1                    7932   	add	sp,	#4 
00:04E4 01-F0'00-00'             7933   	bl	__ftolu8sw
00:04E8 1E-F4                    7934   	pop	er4
00:04EA 02 E1                    7935   	add	sp,	#2 
00:04EC 13-94 00-00'             7936   	st	er4,	NEAR _Accel_PID_Motor3
                                 7937   
                                 7938   ;;		Accel_PID_Motor4 -= Accel_PID_YPitchOutput;
                                 7939   CLINEA 0000H 0001H 09A0H 0003H 002DH
00:04F0 12-94 00-00'             7940   	l	er4,	NEAR _Accel_PID_Motor4
00:04F4 6E-F4                    7941   	push	xr4
00:04F6 01-F0'00-00'             7942   	bl	__fuldu8sw
00:04FA 6E-F0                    7943   	push	xr0
00:04FC 01-F0'00-00'             7944   	bl	__fsubu8sw
00:0500 04 E1                    7945   	add	sp,	#4 
00:0502 01-F0'00-00'             7946   	bl	__ftolu8sw
00:0506 1E-F0                    7947   	pop	er0
00:0508 02 E1                    7948   	add	sp,	#2 
00:050A 13-90 00-00'             7949   	st	er0,	NEAR _Accel_PID_Motor4
                                 7950   
                                 7951   ;;		CheckSafetyLimitUnscaled();
                                 7952   CLINEA 0000H 0001H 09A1H 0003H 001DH
00:050E 01-F0'00-00'             7953   	bl	_CheckSafetyLimitUnscaled
                                 7954   
                                 7955   ;;		Accel_PID_Motor1_temp = Accel_PID_Motor1_temp + PWMLowerDutyLimitRun;	//Conversion from 65535 Scaling to PWM Period of 17000
                                 7956   CLINEA 0000H 0001H 09A5H 0003H 007EH
00:0512 12-90 00-00'             7957   	l	er0,	NEAR _Accel_PID_Motor1
00:0516 02 10                    7958   	add	r0,	#02h
00:0518 C0 61                    7959   	addc	r1,	#0c0h
00:051A 00 E2                    7960   	mov	er2,	#0 
00:051C 6E-F0                    7961   	push	xr0
00:051E 01-F0'00-00'             7962   	bl	__fuldu8sw
00:0522 00 00                    7963   	mov	r0,	#00h
00:0524 FE 01                    7964   	mov	r1,	#0feh
00:0526 FF 02                    7965   	mov	r2,	#0ffh
00:0528 46 03                    7966   	mov	r3,	#046h
00:052A 6E-F0                    7967   	push	xr0
00:052C 01-F0'00-00'             7968   	bl	__fdivu8sw
00:0530 04 E1                    7969   	add	sp,	#4 
00:0532 2E-F4                    7970   	pop	xr4
00:0534 12-90 00-00'             7971   	l	er0,	NEAR _PWMUpperLowerDiff
00:0538 00 E2                    7972   	mov	er2,	#0 
00:053A 6E-F0                    7973   	push	xr0
00:053C 01-F0'00-00'             7974   	bl	__fuldu8sw
00:0540 2E-F0                    7975   	pop	xr0
00:0542 7E-F0                    7976   	push	qr0
00:0544 01-F0'00-00'             7977   	bl	__fmulu8sw
00:0548 04 E1                    7978   	add	sp,	#4 
00:054A 2E-F8                    7979   	pop	xr8
00:054C 12-94 00-00'             7980   	l	er4,	NEAR _PWMLowerDutyLimitRun
00:0550 00 E6                    7981   	mov	er6,	#0 
00:0552 6E-F4                    7982   	push	xr4
00:0554 01-F0'00-00'             7983   	bl	__fuldu8sw
00:0558 2E-F4                    7984   	pop	xr4
00:055A 6E-F8                    7985   	push	xr8
00:055C 6E-F4                    7986   	push	xr4
00:055E 01-F0'00-00'             7987   	bl	__faddu8sw
00:0562 04 E1                    7988   	add	sp,	#4 
00:0564 2E-F8                    7989   	pop	xr8
00:0566 13-98 00-00'             7990   	st	er8,	NEAR _$ST14
00:056A 13-9A 00-00'             7991   	st	er10,	NEAR _$ST14+02h
                                 7992   
                                 7993   ;;		Accel_PID_Motor2_temp = Accel_PID_Motor2_temp + PWMLowerDutyLimitRun;	//Conversion from 65535 Scaling to PWM Period of 17000
                                 7994   CLINEA 0000H 0001H 09A9H 0003H 007EH
00:056E 12-98 00-00'             7995   	l	er8,	NEAR _Accel_PID_Motor2
00:0572 02 18                    7996   	add	r8,	#02h
00:0574 C0 69                    7997   	addc	r9,	#0c0h
00:0576 00 EA                    7998   	mov	er10,	#0 
00:0578 6E-F8                    7999   	push	xr8
00:057A 01-F0'00-00'             8000   	bl	__fuldu8sw
00:057E 00 08                    8001   	mov	r8,	#00h
00:0580 FE 09                    8002   	mov	r9,	#0feh
00:0582 FF 0A                    8003   	mov	r10,	#0ffh
00:0584 46 0B                    8004   	mov	r11,	#046h
00:0586 6E-F8                    8005   	push	xr8
00:0588 01-F0'00-00'             8006   	bl	__fdivu8sw
00:058C 04 E1                    8007   	add	sp,	#4 
00:058E 6E-F0                    8008   	push	xr0
00:0590 01-F0'00-00'             8009   	bl	__fmulu8sw
00:0594 04 E1                    8010   	add	sp,	#4 
00:0596 6E-F4                    8011   	push	xr4
00:0598 01-F0'00-00'             8012   	bl	__faddu8sw
00:059C 04 E1                    8013   	add	sp,	#4 
00:059E 2E-F8                    8014   	pop	xr8
00:05A0 13-98 00-00'             8015   	st	er8,	NEAR _$ST15
00:05A4 13-9A 00-00'             8016   	st	er10,	NEAR _$ST15+02h
                                 8017   
                                 8018   ;;		Accel_PID_Motor3_temp = Accel_PID_Motor3_temp + PWMLowerDutyLimitRun;	//Conversion from 65535 Scaling to PWM Period of 17000
                                 8019   CLINEA 0000H 0001H 09ADH 0003H 007EH
00:05A8 12-98 00-00'             8020   	l	er8,	NEAR _Accel_PID_Motor3
00:05AC 02 18                    8021   	add	r8,	#02h
00:05AE C0 69                    8022   	addc	r9,	#0c0h
00:05B0 00 EA                    8023   	mov	er10,	#0 
00:05B2 6E-F8                    8024   	push	xr8
00:05B4 01-F0'00-00'             8025   	bl	__fuldu8sw
00:05B8 00 08                    8026   	mov	r8,	#00h
00:05BA FE 09                    8027   	mov	r9,	#0feh
00:05BC FF 0A                    8028   	mov	r10,	#0ffh
00:05BE 46 0B                    8029   	mov	r11,	#046h
00:05C0 6E-F8                    8030   	push	xr8
00:05C2 01-F0'00-00'             8031   	bl	__fdivu8sw
00:05C6 04 E1                    8032   	add	sp,	#4 
00:05C8 6E-F0                    8033   	push	xr0
00:05CA 01-F0'00-00'             8034   	bl	__fmulu8sw
00:05CE 04 E1                    8035   	add	sp,	#4 
00:05D0 6E-F4                    8036   	push	xr4
00:05D2 01-F0'00-00'             8037   	bl	__faddu8sw
00:05D6 04 E1                    8038   	add	sp,	#4 
00:05D8 2E-F8                    8039   	pop	xr8
00:05DA 13-98 00-00'             8040   	st	er8,	NEAR _$ST16
00:05DE 13-9A 00-00'             8041   	st	er10,	NEAR _$ST16+02h
                                 8042   
                                 8043   ;;		Accel_PID_Motor4_temp = Accel_PID_Motor4_temp + PWMLowerDutyLimitRun;	//Conversion from 65535 Scaling to PWM Period of 17000
                                 8044   CLINEA 0000H 0001H 09B1H 0003H 007EH
00:05E2 12-98 00-00'             8045   	l	er8,	NEAR _Accel_PID_Motor4
00:05E6 02 18                    8046   	add	r8,	#02h
00:05E8 C0 69                    8047   	addc	r9,	#0c0h
00:05EA 00 EA                    8048   	mov	er10,	#0 
00:05EC 6E-F8                    8049   	push	xr8
00:05EE 01-F0'00-00'             8050   	bl	__fuldu8sw
00:05F2 00 08                    8051   	mov	r8,	#00h
00:05F4 FE 09                    8052   	mov	r9,	#0feh
00:05F6 FF 0A                    8053   	mov	r10,	#0ffh
00:05F8 46 0B                    8054   	mov	r11,	#046h
00:05FA 6E-F8                    8055   	push	xr8
00:05FC 01-F0'00-00'             8056   	bl	__fdivu8sw
00:0600 04 E1                    8057   	add	sp,	#4 
00:0602 6E-F0                    8058   	push	xr0
00:0604 01-F0'00-00'             8059   	bl	__fmulu8sw
00:0608 04 E1                    8060   	add	sp,	#4 
00:060A 6E-F4                    8061   	push	xr4
00:060C 01-F0'00-00'             8062   	bl	__faddu8sw
00:0610 04 E1                    8063   	add	sp,	#4 
00:0612 2E-F0                    8064   	pop	xr0
00:0614 13-90 00-00'             8065   	st	er0,	NEAR _$ST17
00:0618 13-92 00-00'             8066   	st	er2,	NEAR _$ST17+02h
                                 8067   
                                 8068   ;;		PFRUN = 0;	//Turn OFF PWM
                                 8069   CLINEA 0000H 0001H 09E1H 0003H 001BH
00:061C 82-A0 73-F9              8070   	rb	0f973h.0
                                 8071   
                                 8072   ;;		PERUN = 0;
                                 8073   CLINEA 0000H 0001H 09E2H 0003H 000CH
00:0620 82-A0 37-F9              8074   	rb	0f937h.0
                                 8075   
                                 8076   ;;		PDRUN = 0;
                                 8077   CLINEA 0000H 0001H 09E3H 0003H 000CH
00:0624 82-A0 27-F9              8078   	rb	0f927h.0
                                 8079   
                                 8080   ;;		PCRUN = 0;
                                 8081   CLINEA 0000H 0001H 09E4H 0003H 000CH
00:0628 82-A0 17-F9              8082   	rb	0f917h.0
                                 8083   
                                 8084   ;;		PWF0D = Accel_PID_Motor1_temp; 		//Can't be running to change (Only this variable)
                                 8085   CLINEA 0000H 0001H 09E5H 0003H 0054H
00:062C 12-90 00-00'             8086   	l	er0,	NEAR _$ST14
00:0630 12-92 00-00'             8087   	l	er2,	NEAR _$ST14+02h
00:0634 6E-F0                    8088   	push	xr0
00:0636 01-F0'00-00'             8089   	bl	__ftolu8sw
00:063A 1E-F0                    8090   	pop	er0
00:063C 02 E1                    8091   	add	sp,	#2 
00:063E 13-90 62-F9              8092   	st	er0,	0f962h
                                 8093   
                                 8094   ;;		PWED = Accel_PID_Motor2_temp;	
                                 8095   CLINEA 0000H 0001H 09E6H 0003H 0020H
00:0642 12-90 00-00'             8096   	l	er0,	NEAR _$ST15
00:0646 12-92 00-00'             8097   	l	er2,	NEAR _$ST15+02h
00:064A 6E-F0                    8098   	push	xr0
00:064C 01-F0'00-00'             8099   	bl	__ftolu8sw
00:0650 1E-F0                    8100   	pop	er0
00:0652 02 E1                    8101   	add	sp,	#2 
00:0654 13-90 32-F9              8102   	st	er0,	0f932h
                                 8103   
                                 8104   ;;		PWCD = Accel_PID_Motor3_temp;	
                                 8105   CLINEA 0000H 0001H 09E7H 0003H 0020H
00:0658 12-90 00-00'             8106   	l	er0,	NEAR _$ST16
00:065C 12-92 00-00'             8107   	l	er2,	NEAR _$ST16+02h
00:0660 6E-F0                    8108   	push	xr0
00:0662 01-F0'00-00'             8109   	bl	__ftolu8sw
00:0666 1E-F0                    8110   	pop	er0
00:0668 02 E1                    8111   	add	sp,	#2 
00:066A 13-90 12-F9              8112   	st	er0,	0f912h
                                 8113   
                                 8114   ;;		PWDD = Accel_PID_Motor4_temp;
                                 8115   CLINEA 0000H 0001H 09E8H 0003H 001FH
00:066E 12-90 00-00'             8116   	l	er0,	NEAR _$ST17
00:0672 12-92 00-00'             8117   	l	er2,	NEAR _$ST17+02h
00:0676 6E-F0                    8118   	push	xr0
00:0678 01-F0'00-00'             8119   	bl	__ftolu8sw
00:067C 1E-F0                    8120   	pop	er0
00:067E 02 E1                    8121   	add	sp,	#2 
00:0680 13-90 22-F9              8122   	st	er0,	0f922h
                                 8123   
                                 8124   ;;		CheckSafetyLimit();
                                 8125   CLINEA 0000H 0001H 09E9H 0003H 0015H
00:0684 01-F0'00-00'             8126   	bl	_CheckSafetyLimit
                                 8127   
                                 8128   ;;		PFRUN = 1;	//Turn ON PWM
                                 8129   CLINEA 0000H 0001H 09EAH 0003H 001AH
00:0688 80-A0 73-F9              8130   	sb	0f973h.0
                                 8131   
                                 8132   ;;		PERUN = 1;
                                 8133   CLINEA 0000H 0001H 09EBH 0003H 000CH
00:068C 80-A0 37-F9              8134   	sb	0f937h.0
                                 8135   
                                 8136   ;;		PDRUN = 1;
                                 8137   CLINEA 0000H 0001H 09ECH 0003H 000CH
00:0690 80-A0 27-F9              8138   	sb	0f927h.0
                                 8139   
                                 8140   ;;		PCRUN = 1;
                                 8141   CLINEA 0000H 0001H 09EDH 0003H 000CH
00:0694 80-A0 17-F9              8142   	sb	0f917h.0
                                 8143   
                                 8144   ;;	LED_3 = 0;		//C1, Pin 13
                                 8145   CLINEA 0000H 0001H 0A4AH 0002H 0019H
00:0698 92-A0 60-F2              8146   	rb	0f260h.1
                                 8147   CBLOCKEND 238 2 2635
                                 8148   
                                 8149   ;;}
                                 8150   CLINEA 0000H 0001H 0A4BH 0001H 0001H
00:069C 2E-F4                    8151   	pop	xr4
00:069E 2E-F8                    8152   	pop	xr8
00:06A0 EA-A1                    8153   	mov	sp,	fp
00:06A2 1E-FE                    8154   	pop	fp
00:06A4 8E-F2                    8155   	pop	pc
                                 8156   CBLOCKEND 238 1 2635
                                 8157   CFUNCTIONEND 238
                                 8158   
                                 8159   
  --------------------------     8160   	rseg $$RangeSensorControlPID$main
                                 8161   CFUNCTION 239
                                 8162   
00:0000                          8163   _RangeSensorControlPID	:
                                 8164   CBLOCK 239 1 2637
                                 8165   
                                 8166   ;;void RangeSensorControlPID(void){
                                 8167   CLINEA 0000H 0001H 0A4DH 0001H 0021H
00:0000 CE-F8                    8168   	push	lr
00:0002 6E-F8                    8169   	push	xr8
00:0004 6E-F4                    8170   	push	xr4
                                 8171   CBLOCK 239 2 2637
                                 8172   CRET 0008H
                                 8173   CLOCAL 47H 0002H 0024H 0002H "i" 02H 00H 01H
                                 8174   
                                 8175   ;;	Range_PIDError = Range_PIDSetpoint - Range_out;
                                 8176   CLINEA 0000H 0001H 0A52H 0002H 0030H
00:0006 12-90 00-00'             8177   	l	er0,	NEAR _Range_out
00:000A 00 E2                    8178   	mov	er2,	#0 
00:000C 6E-F0                    8179   	push	xr0
00:000E 01-F0'00-00'             8180   	bl	__fuldu8sw
00:0012 2E-F0                    8181   	pop	xr0
00:0014 12-94 00-00'             8182   	l	er4,	NEAR _Range_PIDSetpoint
00:0018 12-96 00-00'             8183   	l	er6,	NEAR _Range_PIDSetpoint+02h
00:001C 7E-F0                    8184   	push	qr0
00:001E 01-F0'00-00'             8185   	bl	__fsubu8sw
00:0022 04 E1                    8186   	add	sp,	#4 
00:0024 2E-F0                    8187   	pop	xr0
00:0026 13-90 00-00'             8188   	st	er0,	NEAR _Range_PIDError
00:002A 13-92 00-00'             8189   	st	er2,	NEAR _Range_PIDError+02h
                                 8190   
                                 8191   ;;	Range_PIDCurrentCount = Range_PIDCounter * .007;		//Timer in Seconds (.007 used to convert 128Hz TBC to seconds)
                                 8192   CLINEA 0000H 0001H 0A55H 0002H 0071H
00:002E 12-94 00-00'             8193   	l	er4,	NEAR _Range_PIDCounter
00:0032 00 E6                    8194   	mov	er6,	#0 
00:0034 6E-F4                    8195   	push	xr4
00:0036 FC E1                    8196   	add	sp,	#-4
00:0038 01-F0'00-00'             8197   	bl	__dildu8sw
00:003C 79 04                    8198   	mov	r4,	#079h
00:003E E9 05                    8199   	mov	r5,	#0e9h
00:0040 26 06                    8200   	mov	r6,	#026h
00:0042 31 07                    8201   	mov	r7,	#031h
00:0044 08 08                    8202   	mov	r8,	#08h
00:0046 AC 09                    8203   	mov	r9,	#0ach
00:0048 7C 0A                    8204   	mov	r10,	#07ch
00:004A 3F 0B                    8205   	mov	r11,	#03fh
00:004C 6E-F8                    8206   	push	xr8
00:004E 6E-F4                    8207   	push	xr4
00:0050 01-F0'00-00'             8208   	bl	__dmulu8sw
00:0054 08 E1                    8209   	add	sp,	#8 
00:0056 01-F0'00-00'             8210   	bl	__dtofu8sw
00:005A 04 E1                    8211   	add	sp,	#4 
00:005C 2E-F4                    8212   	pop	xr4
00:005E 13-94 00-00'             8213   	st	er4,	NEAR _Range_PIDCurrentCount
00:0062 13-96 00-00'             8214   	st	er6,	NEAR _Range_PIDCurrentCount+02h
                                 8215   
                                 8216   ;;	Range_PIDCounter = 0;
                                 8217   CLINEA 0000H 0001H 0A56H 0002H 0016H
00:0066 00 E4                    8218   	mov	er4,	#0 
00:0068 13-94 00-00'             8219   	st	er4,	NEAR _Range_PIDCounter
                                 8220   
                                 8221   ;;	Range_PIDErrSum += (Range_PIDError * Range_PIDCurrentCount);
                                 8222   CLINEA 0000H 0001H 0A59H 0002H 003DH
00:006C 6E-F0                    8223   	push	xr0
00:006E 12-94 00-00'             8224   	l	er4,	NEAR _Range_PIDCurrentCount
00:0072 6E-F4                    8225   	push	xr4
00:0074 01-F0'00-00'             8226   	bl	__fmulu8sw
00:0078 04 E1                    8227   	add	sp,	#4 
00:007A 12-94 00-00'             8228   	l	er4,	NEAR _Range_PIDErrSum
00:007E 12-96 00-00'             8229   	l	er6,	NEAR _Range_PIDErrSum+02h
00:0082 6E-F4                    8230   	push	xr4
00:0084 01-F0'00-00'             8231   	bl	__faddu8sw
00:0088 04 E1                    8232   	add	sp,	#4 
00:008A 2E-F4                    8233   	pop	xr4
00:008C 13-94 00-00'             8234   	st	er4,	NEAR _Range_PIDErrSum
00:0090 13-96 00-00'             8235   	st	er6,	NEAR _Range_PIDErrSum+02h
                                 8236   
                                 8237   ;;	Range_PIDdErr	/= Range_PIDCurrentCount;
                                 8238   CLINEA 0000H 0001H 0A5DH 0002H 0028H
00:0094 6E-F0                    8239   	push	xr0
00:0096 12-94 00-00'             8240   	l	er4,	NEAR _Range_PIDErrPrev
00:009A 12-96 00-00'             8241   	l	er6,	NEAR _Range_PIDErrPrev+02h
00:009E 6E-F4                    8242   	push	xr4
00:00A0 01-F0'00-00'             8243   	bl	__fsubu8sw
00:00A4 04 E1                    8244   	add	sp,	#4 
00:00A6 12-94 00-00'             8245   	l	er4,	NEAR _Range_PIDCurrentCount
00:00AA 12-96 00-00'             8246   	l	er6,	NEAR _Range_PIDCurrentCount+02h
00:00AE 6E-F4                    8247   	push	xr4
00:00B0 01-F0'00-00'             8248   	bl	__fdivu8sw
00:00B4 04 E1                    8249   	add	sp,	#4 
00:00B6 2E-F4                    8250   	pop	xr4
00:00B8 13-94 00-00'             8251   	st	er4,	NEAR _Range_PIDdErr
00:00BC 13-96 00-00'             8252   	st	er6,	NEAR _Range_PIDdErr+02h
                                 8253   
                                 8254   ;;	Range_PIDErrPrev = Range_PIDError;
                                 8255   CLINEA 0000H 0001H 0A5EH 0002H 0023H
00:00C0 13-90 00-00'             8256   	st	er0,	NEAR _Range_PIDErrPrev
00:00C4 13-92 00-00'             8257   	st	er2,	NEAR _Range_PIDErrPrev+02h
                                 8258   
                                 8259   ;;	Range_PIDOutput = (Range_PID_kp*Range_PIDError) + (Range_PID_ki*Range_PIDErrSum) + (Range_PID_kd*Range_PIDdErr);
                                 8260   CLINEA 0000H 0001H 0A61H 0002H 0071H
00:00C8 6E-F0                    8261   	push	xr0
00:00CA 12-90 00-00'             8262   	l	er0,	NEAR _Range_PID_kp
00:00CE 12-92 00-00'             8263   	l	er2,	NEAR _Range_PID_kp+02h
00:00D2 6E-F0                    8264   	push	xr0
00:00D4 01-F0'00-00'             8265   	bl	__fmulu8sw
00:00D8 04 E1                    8266   	add	sp,	#4 
00:00DA 2E-F0                    8267   	pop	xr0
00:00DC 12-94 00-00'             8268   	l	er4,	NEAR _Range_PIDErrSum
00:00E0 12-96 00-00'             8269   	l	er6,	NEAR _Range_PIDErrSum+02h
00:00E4 6E-F4                    8270   	push	xr4
00:00E6 12-94 00-00'             8271   	l	er4,	NEAR _Range_PID_ki
00:00EA 12-96 00-00'             8272   	l	er6,	NEAR _Range_PID_ki+02h
00:00EE 6E-F4                    8273   	push	xr4
00:00F0 01-F0'00-00'             8274   	bl	__fmulu8sw
00:00F4 04 E1                    8275   	add	sp,	#4 
00:00F6 2E-F4                    8276   	pop	xr4
00:00F8 6E-F0                    8277   	push	xr0
00:00FA 6E-F4                    8278   	push	xr4
00:00FC 01-F0'00-00'             8279   	bl	__faddu8sw
00:0100 04 E1                    8280   	add	sp,	#4 
00:0102 2E-F0                    8281   	pop	xr0
00:0104 12-94 00-00'             8282   	l	er4,	NEAR _Range_PID_kd
00:0108 12-96 00-00'             8283   	l	er6,	NEAR _Range_PID_kd+02h
00:010C 6E-F4                    8284   	push	xr4
00:010E 12-94 00-00'             8285   	l	er4,	NEAR _Range_PIDdErr
00:0112 12-96 00-00'             8286   	l	er6,	NEAR _Range_PIDdErr+02h
00:0116 6E-F4                    8287   	push	xr4
00:0118 01-F0'00-00'             8288   	bl	__fmulu8sw
00:011C 04 E1                    8289   	add	sp,	#4 
00:011E 2E-F4                    8290   	pop	xr4
00:0120 6E-F0                    8291   	push	xr0
00:0122 6E-F4                    8292   	push	xr4
00:0124 01-F0'00-00'             8293   	bl	__faddu8sw
00:0128 04 E1                    8294   	add	sp,	#4 
00:012A 2E-F0                    8295   	pop	xr0
00:012C 13-90 00-00'             8296   	st	er0,	NEAR _Range_PIDOutput
00:0130 13-92 00-00'             8297   	st	er2,	NEAR _Range_PIDOutput+02h
                                 8298   
                                 8299   ;;	PFRUN = 0;	//Turn OFF PWM
                                 8300   CLINEA 0000H 0001H 0A65H 0002H 001AH
00:0134 82-A0 73-F9              8301   	rb	0f973h.0
                                 8302   
                                 8303   ;;	PERUN = 0;
                                 8304   CLINEA 0000H 0001H 0A66H 0002H 000BH
00:0138 82-A0 37-F9              8305   	rb	0f937h.0
                                 8306   
                                 8307   ;;	PDRUN = 0;
                                 8308   CLINEA 0000H 0001H 0A67H 0002H 000BH
00:013C 82-A0 27-F9              8309   	rb	0f927h.0
                                 8310   
                                 8311   ;;	PCRUN = 0;
                                 8312   CLINEA 0000H 0001H 0A68H 0002H 000BH
00:0140 82-A0 17-F9              8313   	rb	0f917h.0
                                 8314   
                                 8315   ;;	PWF0D += Range_PIDOutput; 		//Can't be running to change (Only this variable)
                                 8316   CLINEA 0000H 0001H 0A69H 0002H 004EH
00:0144 12-90 62-F9              8317   	l	er0,	0f962h
00:0148 00 E2                    8318   	mov	er2,	#0 
00:014A 6E-F0                    8319   	push	xr0
00:014C 01-F0'00-00'             8320   	bl	__fuldu8sw
00:0150 12-90 00-00'             8321   	l	er0,	NEAR _Range_PIDOutput
00:0154 12-92 00-00'             8322   	l	er2,	NEAR _Range_PIDOutput+02h
00:0158 6E-F0                    8323   	push	xr0
00:015A 01-F0'00-00'             8324   	bl	__faddu8sw
00:015E 04 E1                    8325   	add	sp,	#4 
00:0160 01-F0'00-00'             8326   	bl	__ftolu8sw
00:0164 1E-F0                    8327   	pop	er0
00:0166 02 E1                    8328   	add	sp,	#2 
00:0168 13-90 62-F9              8329   	st	er0,	0f962h
                                 8330   
                                 8331   ;;	PWED += Range_PIDOutput;	
                                 8332   CLINEA 0000H 0001H 0A6AH 0002H 001AH
00:016C 12-90 32-F9              8333   	l	er0,	0f932h
00:0170 00 E2                    8334   	mov	er2,	#0 
00:0172 6E-F0                    8335   	push	xr0
00:0174 01-F0'00-00'             8336   	bl	__fuldu8sw
00:0178 12-90 00-00'             8337   	l	er0,	NEAR _Range_PIDOutput
00:017C 12-92 00-00'             8338   	l	er2,	NEAR _Range_PIDOutput+02h
00:0180 6E-F0                    8339   	push	xr0
00:0182 01-F0'00-00'             8340   	bl	__faddu8sw
00:0186 04 E1                    8341   	add	sp,	#4 
00:0188 01-F0'00-00'             8342   	bl	__ftolu8sw
00:018C 1E-F0                    8343   	pop	er0
00:018E 02 E1                    8344   	add	sp,	#2 
00:0190 13-90 32-F9              8345   	st	er0,	0f932h
                                 8346   
                                 8347   ;;	PWDD += Range_PIDOutput;	
                                 8348   CLINEA 0000H 0001H 0A6BH 0002H 001AH
00:0194 12-90 22-F9              8349   	l	er0,	0f922h
00:0198 00 E2                    8350   	mov	er2,	#0 
00:019A 6E-F0                    8351   	push	xr0
00:019C 01-F0'00-00'             8352   	bl	__fuldu8sw
00:01A0 12-90 00-00'             8353   	l	er0,	NEAR _Range_PIDOutput
00:01A4 12-92 00-00'             8354   	l	er2,	NEAR _Range_PIDOutput+02h
00:01A8 6E-F0                    8355   	push	xr0
00:01AA 01-F0'00-00'             8356   	bl	__faddu8sw
00:01AE 04 E1                    8357   	add	sp,	#4 
00:01B0 01-F0'00-00'             8358   	bl	__ftolu8sw
00:01B4 1E-F0                    8359   	pop	er0
00:01B6 02 E1                    8360   	add	sp,	#2 
00:01B8 13-90 22-F9              8361   	st	er0,	0f922h
                                 8362   
                                 8363   ;;	PWCD += Range_PIDOutput;
                                 8364   CLINEA 0000H 0001H 0A6CH 0002H 0019H
00:01BC 12-90 12-F9              8365   	l	er0,	0f912h
00:01C0 00 E2                    8366   	mov	er2,	#0 
00:01C2 6E-F0                    8367   	push	xr0
00:01C4 01-F0'00-00'             8368   	bl	__fuldu8sw
00:01C8 12-90 00-00'             8369   	l	er0,	NEAR _Range_PIDOutput
00:01CC 12-92 00-00'             8370   	l	er2,	NEAR _Range_PIDOutput+02h
00:01D0 6E-F0                    8371   	push	xr0
00:01D2 01-F0'00-00'             8372   	bl	__faddu8sw
00:01D6 04 E1                    8373   	add	sp,	#4 
00:01D8 01-F0'00-00'             8374   	bl	__ftolu8sw
00:01DC 1E-F0                    8375   	pop	er0
00:01DE 02 E1                    8376   	add	sp,	#2 
00:01E0 13-90 12-F9              8377   	st	er0,	0f912h
                                 8378   
                                 8379   ;;	CheckSafetyLimit();
                                 8380   CLINEA 0000H 0001H 0A6DH 0002H 0014H
00:01E4 01-F0'00-00'             8381   	bl	_CheckSafetyLimit
                                 8382   
                                 8383   ;;	PFRUN = 1;	//Turn ON PWM
                                 8384   CLINEA 0000H 0001H 0A6EH 0002H 0019H
00:01E8 80-A0 73-F9              8385   	sb	0f973h.0
                                 8386   
                                 8387   ;;	PERUN = 1;
                                 8388   CLINEA 0000H 0001H 0A6FH 0002H 000BH
00:01EC 80-A0 37-F9              8389   	sb	0f937h.0
                                 8390   
                                 8391   ;;	PDRUN = 1;
                                 8392   CLINEA 0000H 0001H 0A70H 0002H 000BH
00:01F0 80-A0 27-F9              8393   	sb	0f927h.0
                                 8394   
                                 8395   ;;	PCRUN = 1;
                                 8396   CLINEA 0000H 0001H 0A71H 0002H 000BH
00:01F4 80-A0 17-F9              8397   	sb	0f917h.0
                                 8398   
                                 8399   ;;	for(i = 0; i<150; i++)
                                 8400   CLINEA 0000H 0001H 0A73H 0002H 0017H
00:01F8 00 E0                    8401   	mov	er0,	#0 
00:01FA                          8402   _$L526 :
                                 8403   CBLOCK 239 3 2676
                                 8404   
                                 8405   ;;		SensorReturn[i] = 0x20;
                                 8406   CLINEA 0000H 0001H 0A75H 0003H 0019H
00:01FA 20 02                    8407   	mov	r2,	#020h
00:01FC 09-92 00-00'             8408   	st	r2,	NEAR _SensorReturn[er0]
                                 8409   CBLOCKEND 239 3 2678
                                 8410   
                                 8411   ;;	for(i = 0; i<150; i++)
                                 8412   CLINEA 0000H 0000H 0A73H 0002H 0017H
00:0200 81 E0                    8413   	add	er0,	#1 
                                 8414   
                                 8415   ;;	for(i = 0; i<150; i++)
                                 8416   CLINEA 0000H 0000H 0A73H 000EH 0013H
00:0202 96 70                    8417   	cmp	r0,	#096h
00:0204 00 51                    8418   	cmpc	r1,	#00h
00:0206 F9 C5                    8419   	blts	_$L526
                                 8420   
                                 8421   ;;	sprintf(SensorReturn, "%f,%f,%f", Range_out, Range_PIDCurrentCount,Range_PIDOutput);
                                 8422   CLINEA 0000H 0001H 0A79H 0002H 0055H
00:0208 12-90 00-00'             8423   	l	er0,	NEAR _Range_PIDOutput
00:020C 12-92 00-00'             8424   	l	er2,	NEAR _Range_PIDOutput+02h
00:0210 6E-F0                    8425   	push	xr0
00:0212 FC E1                    8426   	add	sp,	#-4
00:0214 01-F0'00-00'             8427   	bl	__ftodu8sw
00:0218 12-90 00-00'             8428   	l	er0,	NEAR _Range_PIDCurrentCount
00:021C 12-92 00-00'             8429   	l	er2,	NEAR _Range_PIDCurrentCount+02h
00:0220 6E-F0                    8430   	push	xr0
00:0222 FC E1                    8431   	add	sp,	#-4
00:0224 01-F0'00-00'             8432   	bl	__ftodu8sw
00:0228 12-90 00-00'             8433   	l	er0,	NEAR _Range_out
00:022C 5E-F0                    8434   	push	er0
00:022E 00'00                    8435   	mov	r0,	#BYTE1 OFFSET $$S203
00:0230 00'01                    8436   	mov	r1,	#BYTE2 OFFSET $$S203
00:0232 5E-F0                    8437   	push	er0
00:0234 00'00                    8438   	mov	r0,	#BYTE1 OFFSET _SensorReturn
00:0236 00'01                    8439   	mov	r1,	#BYTE2 OFFSET _SensorReturn
00:0238 5E-F0                    8440   	push	er0
00:023A 01-F0'00-00'             8441   	bl	_sprintf_nn
00:023E 16 E1                    8442   	add	sp,	#22
                                 8443   
                                 8444   ;;	SensorReturn[148] = 0x0D;
                                 8445   CLINEA 0000H 0001H 0A7BH 0002H 001AH
00:0240 0D 00                    8446   	mov	r0,	#0dh
00:0242 11-90 00-00'             8447   	st	r0,	NEAR _SensorReturn+094h
                                 8448   
                                 8449   ;;	SensorReturn[149] = 0x0A;
                                 8450   CLINEA 0000H 0001H 0A7CH 0002H 001AH
00:0246 0A 00                    8451   	mov	r0,	#0ah
00:0248 11-90 00-00'             8452   	st	r0,	NEAR _SensorReturn+095h
                                 8453   
                                 8454   ;;	_flgUartFin = 0;
                                 8455   CLINEA 0000H 0001H 0A7FH 0002H 0011H
00:024C 00 00                    8456   	mov	r0,	#00h
00:024E 11-90 00-00'             8457   	st	r0,	NEAR __flgUartFin
                                 8458   
                                 8459   ;;	uart_stop();
                                 8460   CLINEA 0000H 0001H 0A80H 0002H 000DH
00:0252 01-F0'00-00'             8461   	bl	_uart_stop
                                 8462   
                                 8463   ;;	uart_startSend(SensorReturn, 150, _funcUartFin);
                                 8464   CLINEA 0000H 0001H 0A81H 0002H 0031H
00:0256 00'00                    8465   	mov	r0,	#BYTE1 OFFSET __funcUartFin
00:0258 00'01                    8466   	mov	r1,	#BYTE2 OFFSET __funcUartFin
00:025A 5E-F0                    8467   	push	er0
00:025C 96 02                    8468   	mov	r2,	#096h
00:025E 00 03                    8469   	mov	r3,	#00h
00:0260 00'00                    8470   	mov	r0,	#BYTE1 OFFSET _SensorReturn
00:0262 00'01                    8471   	mov	r1,	#BYTE2 OFFSET _SensorReturn
00:0264 01-F0'00-00'             8472   	bl	_uart_startSend
00:0268 02 E1                    8473   	add	sp,	#2 
                                 8474   
                                 8475   ;;	while(_flgUartFin != 1){
                                 8476   CLINEA 0000H 0000H 0A82H 0001H 0001H
00:026A 02 CE                    8477   	bal	_$L534
                                 8478   
                                 8479   ;;	while(_flgUartFin != 1){
                                 8480   CLINEA 0000H 0000H 0A82H 0002H 0019H
00:026C                          8481   _$L532 :
                                 8482   CBLOCK 239 4 2690
                                 8483   
                                 8484   ;;		main_clrWDT();
                                 8485   CLINEA 0000H 0001H 0A83H 0003H 0010H
00:026C 01-F0'00-00'             8486   	bl	_main_clrWDT
                                 8487   CBLOCKEND 239 4 2692
                                 8488   
                                 8489   ;;	while(_flgUartFin != 1){
                                 8490   CLINEA 0000H 0000H 0A82H 0001H 0001H
00:0270                          8491   _$L534 :
                                 8492   
                                 8493   ;;	while(_flgUartFin != 1){
                                 8494   CLINEA 0000H 0000H 0A82H 000EH 0013H
00:0270 10-90 00-00'             8495   	l	r0,	NEAR __flgUartFin
00:0274 01 70                    8496   	cmp	r0,	#01h
00:0276 FA C8                    8497   	bne	_$L532
                                 8498   CBLOCKEND 239 2 2694
                                 8499   
                                 8500   ;;}
                                 8501   CLINEA 0000H 0001H 0A86H 0001H 0001H
00:0278 2E-F4                    8502   	pop	xr4
00:027A 2E-F8                    8503   	pop	xr8
00:027C 8E-F2                    8504   	pop	pc
                                 8505   CBLOCKEND 239 1 2694
                                 8506   CFUNCTIONEND 239
                                 8507   
                                 8508   
  --------------------------     8509   	rseg $$CheckSafetyLimit$main
                                 8510   CFUNCTION 240
                                 8511   
00:0000                          8512   _CheckSafetyLimit	:
                                 8513   CBLOCK 240 1 2696
                                 8514   
                                 8515   ;;void CheckSafetyLimit(void){	
                                 8516   CLINEA 0000H 0001H 0A88H 0001H 001DH
                                 8517   CBLOCK 240 2 2696
                                 8518   
                                 8519   ;;	if(PWED > PWMUpperDutyLimitRun){
                                 8520   CLINEA 0000H 0001H 0A8AH 0002H 0021H
00:0000 12-90 32-F9              8521   	l	er0,	0f932h
00:0004 12-92 00-00'             8522   	l	er2,	NEAR _PWMUpperDutyLimitRun
00:0008 27-F0                    8523   	cmp	er0,	er2
00:000A 02 C3                    8524   	ble	_$L536
                                 8525   CBLOCK 240 3 2698
                                 8526   
                                 8527   ;;		PWED = PWMUpperDutyLimitRun;
                                 8528   CLINEA 0000H 0001H 0A8BH 0003H 001EH
00:000C 13-92 32-F9              8529   	st	er2,	0f932h
                                 8530   CBLOCKEND 240 3 2700
                                 8531   
                                 8532   ;;	}
                                 8533   CLINEA 0000H 0000H 0A8CH 0002H 0002H
00:0010                          8534   _$L536 :
                                 8535   
                                 8536   ;;	if(PWED < PWMLowerDutyLimitRun){
                                 8537   CLINEA 0000H 0001H 0A8DH 0002H 0021H
00:0010 12-90 32-F9              8538   	l	er0,	0f932h
00:0014 12-92 00-00'             8539   	l	er2,	NEAR _PWMLowerDutyLimitRun
00:0018 27-F0                    8540   	cmp	er0,	er2
00:001A 02 C0                    8541   	bge	_$L538
                                 8542   CBLOCK 240 4 2701
                                 8543   
                                 8544   ;;		PWED = PWMLowerDutyLimitRun;
                                 8545   CLINEA 0000H 0001H 0A8EH 0003H 001EH
00:001C 13-92 32-F9              8546   	st	er2,	0f932h
                                 8547   CBLOCKEND 240 4 2703
                                 8548   
                                 8549   ;;	}
                                 8550   CLINEA 0000H 0000H 0A8FH 0002H 0002H
00:0020                          8551   _$L538 :
                                 8552   
                                 8553   ;;	if(PWF0D > PWMUpperDutyLimitRun){
                                 8554   CLINEA 0000H 0001H 0A90H 0002H 0022H
00:0020 12-90 62-F9              8555   	l	er0,	0f962h
00:0024 12-92 00-00'             8556   	l	er2,	NEAR _PWMUpperDutyLimitRun
00:0028 27-F0                    8557   	cmp	er0,	er2
00:002A 02 C3                    8558   	ble	_$L540
                                 8559   CBLOCK 240 5 2704
                                 8560   
                                 8561   ;;		PWF0D = PWMUpperDutyLimitRun;
                                 8562   CLINEA 0000H 0001H 0A91H 0003H 001FH
00:002C 13-92 62-F9              8563   	st	er2,	0f962h
                                 8564   CBLOCKEND 240 5 2706
                                 8565   
                                 8566   ;;	}
                                 8567   CLINEA 0000H 0000H 0A92H 0002H 0002H
00:0030                          8568   _$L540 :
                                 8569   
                                 8570   ;;	if(PWF0D < PWMLowerDutyLimitRun){
                                 8571   CLINEA 0000H 0001H 0A93H 0002H 0022H
00:0030 12-90 62-F9              8572   	l	er0,	0f962h
00:0034 12-92 00-00'             8573   	l	er2,	NEAR _PWMLowerDutyLimitRun
00:0038 27-F0                    8574   	cmp	er0,	er2
00:003A 02 C0                    8575   	bge	_$L542
                                 8576   CBLOCK 240 6 2707
                                 8577   
                                 8578   ;;		PWF0D = PWMLowerDutyLimitRun;
                                 8579   CLINEA 0000H 0001H 0A94H 0003H 001FH
00:003C 13-92 62-F9              8580   	st	er2,	0f962h
                                 8581   CBLOCKEND 240 6 2709
                                 8582   
                                 8583   ;;	}
                                 8584   CLINEA 0000H 0000H 0A95H 0002H 0002H
00:0040                          8585   _$L542 :
                                 8586   
                                 8587   ;;	if(PWDD > PWMUpperDutyLimitRun){
                                 8588   CLINEA 0000H 0001H 0A96H 0002H 0021H
00:0040 12-90 22-F9              8589   	l	er0,	0f922h
00:0044 12-92 00-00'             8590   	l	er2,	NEAR _PWMUpperDutyLimitRun
00:0048 27-F0                    8591   	cmp	er0,	er2
00:004A 02 C3                    8592   	ble	_$L544
                                 8593   CBLOCK 240 7 2710
                                 8594   
                                 8595   ;;		PWDD = PWMUpperDutyLimitRun;
                                 8596   CLINEA 0000H 0001H 0A97H 0003H 001EH
00:004C 13-92 22-F9              8597   	st	er2,	0f922h
                                 8598   CBLOCKEND 240 7 2712
                                 8599   
                                 8600   ;;	}
                                 8601   CLINEA 0000H 0000H 0A98H 0002H 0002H
00:0050                          8602   _$L544 :
                                 8603   
                                 8604   ;;	if(PWDD < PWMLowerDutyLimitRun){
                                 8605   CLINEA 0000H 0001H 0A99H 0002H 0021H
00:0050 12-90 22-F9              8606   	l	er0,	0f922h
00:0054 12-92 00-00'             8607   	l	er2,	NEAR _PWMLowerDutyLimitRun
00:0058 27-F0                    8608   	cmp	er0,	er2
00:005A 02 C0                    8609   	bge	_$L546
                                 8610   CBLOCK 240 8 2713
                                 8611   
                                 8612   ;;		PWDD = PWMLowerDutyLimitRun;
                                 8613   CLINEA 0000H 0001H 0A9AH 0003H 001EH
00:005C 13-92 22-F9              8614   	st	er2,	0f922h
                                 8615   CBLOCKEND 240 8 2715
                                 8616   
                                 8617   ;;	}
                                 8618   CLINEA 0000H 0000H 0A9BH 0002H 0002H
00:0060                          8619   _$L546 :
                                 8620   
                                 8621   ;;	if(PWCD > PWMUpperDutyLimitRun){
                                 8622   CLINEA 0000H 0001H 0A9CH 0002H 0021H
00:0060 12-90 12-F9              8623   	l	er0,	0f912h
00:0064 12-92 00-00'             8624   	l	er2,	NEAR _PWMUpperDutyLimitRun
00:0068 27-F0                    8625   	cmp	er0,	er2
00:006A 02 C3                    8626   	ble	_$L548
                                 8627   CBLOCK 240 9 2716
                                 8628   
                                 8629   ;;		PWCD = PWMUpperDutyLimitRun;
                                 8630   CLINEA 0000H 0001H 0A9DH 0003H 001EH
00:006C 13-92 12-F9              8631   	st	er2,	0f912h
                                 8632   CBLOCKEND 240 9 2718
                                 8633   
                                 8634   ;;	}
                                 8635   CLINEA 0000H 0000H 0A9EH 0002H 0002H
00:0070                          8636   _$L548 :
                                 8637   
                                 8638   ;;	if(PWCD < PWMLowerDutyLimitRun){
                                 8639   CLINEA 0000H 0001H 0A9FH 0002H 0021H
00:0070 12-90 12-F9              8640   	l	er0,	0f912h
00:0074 12-92 00-00'             8641   	l	er2,	NEAR _PWMLowerDutyLimitRun
00:0078 27-F0                    8642   	cmp	er0,	er2
00:007A 02 C0                    8643   	bge	_$L550
                                 8644   CBLOCK 240 10 2719
                                 8645   
                                 8646   ;;		PWCD = PWMLowerDutyLimitRun;
                                 8647   CLINEA 0000H 0001H 0AA0H 0003H 001EH
00:007C 13-92 12-F9              8648   	st	er2,	0f912h
                                 8649   CBLOCKEND 240 10 2721
                                 8650   
                                 8651   ;;	}
                                 8652   CLINEA 0000H 0000H 0AA1H 0002H 0002H
00:0080                          8653   _$L550 :
                                 8654   CBLOCKEND 240 2 2722
                                 8655   
                                 8656   ;;}
                                 8657   CLINEA 0000H 0001H 0AA2H 0001H 0001H
00:0080 1F-FE                    8658   	rt
                                 8659   CBLOCKEND 240 1 2722
                                 8660   CFUNCTIONEND 240
                                 8661   
                                 8662   
  --------------------------     8663   	rseg $$CheckSafetyLimitUnscaled$main
                                 8664   CFUNCTION 241
                                 8665   
00:0000                          8666   _CheckSafetyLimitUnscaled	:
                                 8667   CBLOCK 241 1 2724
                                 8668   
                                 8669   ;;void CheckSafetyLimitUnscaled(void){	
                                 8670   CLINEA 0000H 0001H 0AA4H 0001H 0025H
                                 8671   CBLOCK 241 2 2724
                                 8672   
                                 8673   ;;	if(Accel_PID_Motor1 > (49151)){
                                 8674   CLINEA 0000H 0001H 0AA6H 0002H 0020H
00:0000 12-90 00-00'             8675   	l	er0,	NEAR _Accel_PID_Motor1
00:0004 00 E2                    8676   	mov	er2,	#0 
00:0006 FF 70                    8677   	cmp	r0,	#0ffh
00:0008 BF 51                    8678   	cmpc	r1,	#0bfh
00:000A 00 52                    8679   	cmpc	r2,	#00h
00:000C 00 53                    8680   	cmpc	r3,	#00h
00:000E 04 C7                    8681   	bles	_$L553
                                 8682   CBLOCK 241 3 2726
                                 8683   
                                 8684   ;;		Accel_PID_Motor1 = 49151;
                                 8685   CLINEA 0000H 0001H 0AA7H 0003H 001BH
00:0010 FF 00                    8686   	mov	r0,	#0ffh
00:0012 BF 01                    8687   	mov	r1,	#0bfh
00:0014 13-90 00-00'             8688   	st	er0,	NEAR _Accel_PID_Motor1
                                 8689   CBLOCKEND 241 3 2728
                                 8690   
                                 8691   ;;	}
                                 8692   CLINEA 0000H 0000H 0AA8H 0002H 0002H
00:0018                          8693   _$L553 :
                                 8694   
                                 8695   ;;	if(Accel_PID_Motor1 < 16383){
                                 8696   CLINEA 0000H 0001H 0AA9H 0002H 001EH
00:0018 12-90 00-00'             8697   	l	er0,	NEAR _Accel_PID_Motor1
00:001C FF 70                    8698   	cmp	r0,	#0ffh
00:001E 3F 51                    8699   	cmpc	r1,	#03fh
00:0020 04 C0                    8700   	bge	_$L555
                                 8701   CBLOCK 241 4 2729
                                 8702   
                                 8703   ;;		Accel_PID_Motor1 = 16383;
                                 8704   CLINEA 0000H 0001H 0AAAH 0003H 001BH
00:0022 FF 00                    8705   	mov	r0,	#0ffh
00:0024 3F 01                    8706   	mov	r1,	#03fh
00:0026 13-90 00-00'             8707   	st	er0,	NEAR _Accel_PID_Motor1
                                 8708   CBLOCKEND 241 4 2731
                                 8709   
                                 8710   ;;	}
                                 8711   CLINEA 0000H 0000H 0AABH 0002H 0002H
00:002A                          8712   _$L555 :
                                 8713   
                                 8714   ;;	if(Accel_PID_Motor2 > (49151)){
                                 8715   CLINEA 0000H 0001H 0AACH 0002H 0020H
00:002A 12-90 00-00'             8716   	l	er0,	NEAR _Accel_PID_Motor2
00:002E 00 E2                    8717   	mov	er2,	#0 
00:0030 FF 70                    8718   	cmp	r0,	#0ffh
00:0032 BF 51                    8719   	cmpc	r1,	#0bfh
00:0034 00 52                    8720   	cmpc	r2,	#00h
00:0036 00 53                    8721   	cmpc	r3,	#00h
00:0038 04 C7                    8722   	bles	_$L557
                                 8723   CBLOCK 241 5 2732
                                 8724   
                                 8725   ;;		Accel_PID_Motor2 = 49151;
                                 8726   CLINEA 0000H 0001H 0AADH 0003H 001BH
00:003A FF 00                    8727   	mov	r0,	#0ffh
00:003C BF 01                    8728   	mov	r1,	#0bfh
00:003E 13-90 00-00'             8729   	st	er0,	NEAR _Accel_PID_Motor2
                                 8730   CBLOCKEND 241 5 2734
                                 8731   
                                 8732   ;;	}
                                 8733   CLINEA 0000H 0000H 0AAEH 0002H 0002H
00:0042                          8734   _$L557 :
                                 8735   
                                 8736   ;;	if(Accel_PID_Motor2 < (16383)){
                                 8737   CLINEA 0000H 0001H 0AAFH 0002H 0020H
00:0042 12-90 00-00'             8738   	l	er0,	NEAR _Accel_PID_Motor2
00:0046 FF 70                    8739   	cmp	r0,	#0ffh
00:0048 3F 51                    8740   	cmpc	r1,	#03fh
00:004A 04 C0                    8741   	bge	_$L559
                                 8742   CBLOCK 241 6 2735
                                 8743   
                                 8744   ;;		Accel_PID_Motor2 = 16383;
                                 8745   CLINEA 0000H 0001H 0AB0H 0003H 001BH
00:004C FF 00                    8746   	mov	r0,	#0ffh
00:004E 3F 01                    8747   	mov	r1,	#03fh
00:0050 13-90 00-00'             8748   	st	er0,	NEAR _Accel_PID_Motor2
                                 8749   CBLOCKEND 241 6 2737
                                 8750   
                                 8751   ;;	}
                                 8752   CLINEA 0000H 0000H 0AB1H 0002H 0002H
00:0054                          8753   _$L559 :
                                 8754   
                                 8755   ;;	if(Accel_PID_Motor3 > (49151)){
                                 8756   CLINEA 0000H 0001H 0AB2H 0002H 0020H
00:0054 12-90 00-00'             8757   	l	er0,	NEAR _Accel_PID_Motor3
00:0058 00 E2                    8758   	mov	er2,	#0 
00:005A FF 70                    8759   	cmp	r0,	#0ffh
00:005C BF 51                    8760   	cmpc	r1,	#0bfh
00:005E 00 52                    8761   	cmpc	r2,	#00h
00:0060 00 53                    8762   	cmpc	r3,	#00h
00:0062 04 C7                    8763   	bles	_$L561
                                 8764   CBLOCK 241 7 2738
                                 8765   
                                 8766   ;;		Accel_PID_Motor3 = 49151;
                                 8767   CLINEA 0000H 0001H 0AB3H 0003H 001BH
00:0064 FF 00                    8768   	mov	r0,	#0ffh
00:0066 BF 01                    8769   	mov	r1,	#0bfh
00:0068 13-90 00-00'             8770   	st	er0,	NEAR _Accel_PID_Motor3
                                 8771   CBLOCKEND 241 7 2740
                                 8772   
                                 8773   ;;	}
                                 8774   CLINEA 0000H 0000H 0AB4H 0002H 0002H
00:006C                          8775   _$L561 :
                                 8776   
                                 8777   ;;	if(Accel_PID_Motor3 < (16383)){
                                 8778   CLINEA 0000H 0001H 0AB5H 0002H 0020H
00:006C 12-90 00-00'             8779   	l	er0,	NEAR _Accel_PID_Motor3
00:0070 FF 70                    8780   	cmp	r0,	#0ffh
00:0072 3F 51                    8781   	cmpc	r1,	#03fh
00:0074 04 C0                    8782   	bge	_$L563
                                 8783   CBLOCK 241 8 2741
                                 8784   
                                 8785   ;;		Accel_PID_Motor3 = 16383;
                                 8786   CLINEA 0000H 0001H 0AB6H 0003H 001BH
00:0076 FF 00                    8787   	mov	r0,	#0ffh
00:0078 3F 01                    8788   	mov	r1,	#03fh
00:007A 13-90 00-00'             8789   	st	er0,	NEAR _Accel_PID_Motor3
                                 8790   CBLOCKEND 241 8 2743
                                 8791   
                                 8792   ;;	}
                                 8793   CLINEA 0000H 0000H 0AB7H 0002H 0002H
00:007E                          8794   _$L563 :
                                 8795   
                                 8796   ;;	if(Accel_PID_Motor4 > (49151)){
                                 8797   CLINEA 0000H 0001H 0AB8H 0002H 0020H
00:007E 12-90 00-00'             8798   	l	er0,	NEAR _Accel_PID_Motor4
00:0082 00 E2                    8799   	mov	er2,	#0 
00:0084 FF 70                    8800   	cmp	r0,	#0ffh
00:0086 BF 51                    8801   	cmpc	r1,	#0bfh
00:0088 00 52                    8802   	cmpc	r2,	#00h
00:008A 00 53                    8803   	cmpc	r3,	#00h
00:008C 04 C7                    8804   	bles	_$L565
                                 8805   CBLOCK 241 9 2744
                                 8806   
                                 8807   ;;		Accel_PID_Motor4 = 49151;
                                 8808   CLINEA 0000H 0001H 0AB9H 0003H 001BH
00:008E FF 00                    8809   	mov	r0,	#0ffh
00:0090 BF 01                    8810   	mov	r1,	#0bfh
00:0092 13-90 00-00'             8811   	st	er0,	NEAR _Accel_PID_Motor4
                                 8812   CBLOCKEND 241 9 2746
                                 8813   
                                 8814   ;;	}
                                 8815   CLINEA 0000H 0000H 0ABAH 0002H 0002H
00:0096                          8816   _$L565 :
                                 8817   
                                 8818   ;;	if(Accel_PID_Motor4 < (16383)){
                                 8819   CLINEA 0000H 0001H 0ABBH 0002H 0020H
00:0096 12-90 00-00'             8820   	l	er0,	NEAR _Accel_PID_Motor4
00:009A FF 70                    8821   	cmp	r0,	#0ffh
00:009C 3F 51                    8822   	cmpc	r1,	#03fh
00:009E 04 C0                    8823   	bge	_$L567
                                 8824   CBLOCK 241 10 2747
                                 8825   
                                 8826   ;;		Accel_PID_Motor4 = 16383;
                                 8827   CLINEA 0000H 0001H 0ABCH 0003H 001BH
00:00A0 FF 00                    8828   	mov	r0,	#0ffh
00:00A2 3F 01                    8829   	mov	r1,	#03fh
00:00A4 13-90 00-00'             8830   	st	er0,	NEAR _Accel_PID_Motor4
                                 8831   CBLOCKEND 241 10 2749
                                 8832   
                                 8833   ;;	}
                                 8834   CLINEA 0000H 0000H 0ABDH 0002H 0002H
00:00A8                          8835   _$L567 :
                                 8836   CBLOCKEND 241 2 2750
                                 8837   
                                 8838   ;;}
                                 8839   CLINEA 0000H 0001H 0ABEH 0001H 0001H
00:00A8 1F-FE                    8840   	rt
                                 8841   CBLOCKEND 241 1 2750
                                 8842   CFUNCTIONEND 241
                                 8843   
                                 8844   
  --------------------------     8845   	rseg $$Shutdown$main
                                 8846   CFUNCTION 242
                                 8847   
00:0000                          8848   _Shutdown	:
                                 8849   CBLOCK 242 1 2752
                                 8850   
                                 8851   ;;void Shutdown(void){
                                 8852   CLINEA 0000H 0001H 0AC0H 0001H 0014H
00:0000 CE-F8                    8853   	push	lr
                                 8854   CBLOCK 242 2 2752
                                 8855   CRET 0000H
                                 8856   
                                 8857   ;;	if((PWED > PWMSafeDuty)||(PWF0D > PWMSafeDuty)||(PWDD > PWMSafeDuty)||(PWCD > PWMSafeDuty)){
                                 8858   CLINEA 0000H 0001H 0AC1H 0002H 005DH
00:0002 12-90 32-F9              8859   	l	er0,	0f932h
00:0006 12-92 00-00'             8860   	l	er2,	NEAR _PWMSafeDuty
00:000A 27-F0                    8861   	cmp	er0,	er2
00:000C 0E C2                    8862   	bgt	_$L571
00:000E 12-90 62-F9              8863   	l	er0,	0f962h
00:0012 27-F0                    8864   	cmp	er0,	er2
00:0014 0A C2                    8865   	bgt	_$L571
00:0016 12-90 22-F9              8866   	l	er0,	0f922h
00:001A 27-F0                    8867   	cmp	er0,	er2
00:001C 06 C2                    8868   	bgt	_$L571
00:001E 12-90 12-F9              8869   	l	er0,	0f912h
00:0022 27-F0                    8870   	cmp	er0,	er2
00:0024 02 C2                    8871   	bgt	_$M36
00:0026 00-F0'00-00'             8872   	b	_$L584
00:002A                          8873   _$M36 :
00:002A                          8874   _$L571 :
                                 8875   CBLOCK 242 3 2753
                                 8876   CBLOCK 242 4 2754
                                 8877   
                                 8878   ;;			main_clrWDT();					
                                 8879   CLINEA 0000H 0001H 0AC3H 0004H 0016H
00:002A 01-F0'00-00'             8880   	bl	_main_clrWDT
                                 8881   
                                 8882   ;;			PFRUN = 0;	//Turn OFF PWM
                                 8883   CLINEA 0000H 0001H 0AC4H 0004H 001CH
00:002E 82-A0 73-F9              8884   	rb	0f973h.0
                                 8885   
                                 8886   ;;			PERUN = 0;
                                 8887   CLINEA 0000H 0001H 0AC5H 0004H 000DH
00:0032 82-A0 37-F9              8888   	rb	0f937h.0
                                 8889   
                                 8890   ;;			PDRUN = 0;
                                 8891   CLINEA 0000H 0001H 0AC6H 0004H 000DH
00:0036 82-A0 27-F9              8892   	rb	0f927h.0
                                 8893   
                                 8894   ;;			PCRUN = 0;
                                 8895   CLINEA 0000H 0001H 0AC7H 0004H 000DH
00:003A 82-A0 17-F9              8896   	rb	0f917h.0
                                 8897   
                                 8898   ;;			PWF0D -= 10; //Can't be running to change (Only this variable)
                                 8899   CLINEA 0000H 0001H 0AC8H 0004H 0041H
00:003E 12-90 62-F9              8900   	l	er0,	0f962h
00:0042 F6 E0                    8901   	add	er0,	#-10
00:0044 13-90 62-F9              8902   	st	er0,	0f962h
                                 8903   
                                 8904   ;;			PWED -= 10;
                                 8905   CLINEA 0000H 0001H 0AC9H 0004H 000EH
00:0048 12-90 32-F9              8906   	l	er0,	0f932h
00:004C F6 E0                    8907   	add	er0,	#-10
00:004E 13-90 32-F9              8908   	st	er0,	0f932h
                                 8909   
                                 8910   ;;			PWDD -= 10;
                                 8911   CLINEA 0000H 0001H 0ACAH 0004H 000EH
00:0052 12-90 22-F9              8912   	l	er0,	0f922h
00:0056 F6 E0                    8913   	add	er0,	#-10
00:0058 13-90 22-F9              8914   	st	er0,	0f922h
                                 8915   
                                 8916   ;;			PWCD -= 10;
                                 8917   CLINEA 0000H 0001H 0ACBH 0004H 000EH
00:005C 12-90 12-F9              8918   	l	er0,	0f912h
00:0060 F6 E0                    8919   	add	er0,	#-10
00:0062 13-90 12-F9              8920   	st	er0,	0f912h
                                 8921   
                                 8922   ;;			PFRUN = 1;	//Turn ON PWM
                                 8923   CLINEA 0000H 0001H 0ACCH 0004H 001BH
00:0066 80-A0 73-F9              8924   	sb	0f973h.0
                                 8925   
                                 8926   ;;			PERUN = 1;
                                 8927   CLINEA 0000H 0001H 0ACDH 0004H 000DH
00:006A 80-A0 37-F9              8928   	sb	0f937h.0
                                 8929   
                                 8930   ;;			PDRUN = 1;
                                 8931   CLINEA 0000H 0001H 0ACEH 0004H 000DH
00:006E 80-A0 27-F9              8932   	sb	0f927h.0
                                 8933   
                                 8934   ;;			PCRUN = 1;
                                 8935   CLINEA 0000H 0001H 0ACFH 0004H 000DH
00:0072 80-A0 17-F9              8936   	sb	0f917h.0
                                 8937   
                                 8938   ;;			NOPms(100);
                                 8939   CLINEA 0000H 0001H 0AD0H 0004H 000EH
00:0076 64 00                    8940   	mov	r0,	#064h
00:0078 00 01                    8941   	mov	r1,	#00h
00:007A 01-F0'00-00'             8942   	bl	_NOPms
                                 8943   
                                 8944   ;;			if(PWED <= PWMSafeDuty){
                                 8945   CLINEA 0000H 0001H 0AD2H 0004H 001BH
00:007E 12-90 32-F9              8946   	l	er0,	0f932h
00:0082 12-92 00-00'             8947   	l	er2,	NEAR _PWMSafeDuty
00:0086 27-F0                    8948   	cmp	er0,	er2
00:0088 02 C2                    8949   	bgt	_$L587
                                 8950   CBLOCK 242 5 2770
                                 8951   
                                 8952   ;;				PWED = PWMSafeDuty;
                                 8953   CLINEA 0000H 0001H 0AD3H 0005H 0017H
00:008A 13-92 32-F9              8954   	st	er2,	0f932h
                                 8955   CBLOCKEND 242 5 2772
                                 8956   
                                 8957   ;;			}
                                 8958   CLINEA 0000H 0000H 0AD4H 0004H 0004H
00:008E                          8959   _$L587 :
                                 8960   
                                 8961   ;;			if(PWF0D <= PWMSafeDuty){
                                 8962   CLINEA 0000H 0001H 0AD5H 0004H 001CH
00:008E 12-90 62-F9              8963   	l	er0,	0f962h
00:0092 27-F0                    8964   	cmp	er0,	er2
00:0094 02 C2                    8965   	bgt	_$L589
                                 8966   CBLOCK 242 6 2773
                                 8967   
                                 8968   ;;				PWF0D = PWMSafeDuty;
                                 8969   CLINEA 0000H 0001H 0AD6H 0005H 0018H
00:0096 13-92 62-F9              8970   	st	er2,	0f962h
                                 8971   CBLOCKEND 242 6 2775
                                 8972   
                                 8973   ;;			}
                                 8974   CLINEA 0000H 0000H 0AD7H 0004H 0004H
00:009A                          8975   _$L589 :
                                 8976   
                                 8977   ;;			if(PWDD <= PWMSafeDuty){
                                 8978   CLINEA 0000H 0001H 0AD8H 0004H 001BH
00:009A 12-90 22-F9              8979   	l	er0,	0f922h
00:009E 27-F0                    8980   	cmp	er0,	er2
00:00A0 02 C2                    8981   	bgt	_$L591
                                 8982   CBLOCK 242 7 2776
                                 8983   
                                 8984   ;;				PWDD = PWMSafeDuty;
                                 8985   CLINEA 0000H 0001H 0AD9H 0005H 0017H
00:00A2 13-92 22-F9              8986   	st	er2,	0f922h
                                 8987   CBLOCKEND 242 7 2778
                                 8988   
                                 8989   ;;			}
                                 8990   CLINEA 0000H 0000H 0ADAH 0004H 0004H
00:00A6                          8991   _$L591 :
                                 8992   
                                 8993   ;;			if(PWCD <= PWMSafeDuty){
                                 8994   CLINEA 0000H 0001H 0ADBH 0004H 001BH
00:00A6 12-90 12-F9              8995   	l	er0,	0f912h
00:00AA 27-F0                    8996   	cmp	er0,	er2
00:00AC 02 C2                    8997   	bgt	_$L593
                                 8998   CBLOCK 242 8 2779
                                 8999   
                                 9000   ;;				PWCD = PWMSafeDuty;
                                 9001   CLINEA 0000H 0001H 0ADCH 0005H 0017H
00:00AE 13-92 12-F9              9002   	st	er2,	0f912h
                                 9003   CBLOCKEND 242 8 2781
                                 9004   
                                 9005   ;;			}
                                 9006   CLINEA 0000H 0000H 0ADDH 0004H 0004H
00:00B2                          9007   _$L593 :
                                 9008   CBLOCKEND 242 4 2783
                                 9009   
                                 9010   ;;		}while((PWED > PWMSafeDuty)||(PWF0D > PWMSafeDuty)||(PWDD > PWMSafeDuty)||(PWCD > PWMSafeDuty));
                                 9011   CLINEA 0000H 0000H 0ADFH 0003H 0062H
00:00B2 12-90 32-F9              9012   	l	er0,	0f932h
00:00B6 27-F0                    9013   	cmp	er0,	er2
00:00B8 02 C3                    9014   	ble	_$M37
00:00BA 00-F0'00-00'             9015   	b	_$L571
00:00BE                          9016   _$M37 :
00:00BE 12-90 62-F9              9017   	l	er0,	0f962h
00:00C2 27-F0                    9018   	cmp	er0,	er2
00:00C4 02 C3                    9019   	ble	_$M38
00:00C6 00-F0'00-00'             9020   	b	_$L571
00:00CA                          9021   _$M38 :
00:00CA 12-90 22-F9              9022   	l	er0,	0f922h
00:00CE 27-F0                    9023   	cmp	er0,	er2
00:00D0 02 C3                    9024   	ble	_$M39
00:00D2 00-F0'00-00'             9025   	b	_$L571
00:00D6                          9026   _$M39 :
00:00D6 12-90 12-F9              9027   	l	er0,	0f912h
00:00DA 27-F0                    9028   	cmp	er0,	er2
00:00DC 02 C3                    9029   	ble	_$M40
00:00DE 00-F0'00-00'             9030   	b	_$L571
00:00E2                          9031   _$M40 :
00:00E2                          9032   _$L584 :
                                 9033   CBLOCKEND 242 3 2784
                                 9034   
                                 9035   ;;	Accel_PID_Motor1 = 16383;
                                 9036   CLINEA 0000H 0001H 0AE1H 0002H 001AH
00:00E2 FF 00                    9037   	mov	r0,	#0ffh
00:00E4 3F 01                    9038   	mov	r1,	#03fh
00:00E6 13-90 00-00'             9039   	st	er0,	NEAR _Accel_PID_Motor1
                                 9040   
                                 9041   ;;	Accel_PID_Motor2 = 16383;
                                 9042   CLINEA 0000H 0001H 0AE2H 0002H 001AH
00:00EA 13-90 00-00'             9043   	st	er0,	NEAR _Accel_PID_Motor2
                                 9044   
                                 9045   ;;	Accel_PID_Motor3 = 16383;
                                 9046   CLINEA 0000H 0001H 0AE3H 0002H 001AH
00:00EE 13-90 00-00'             9047   	st	er0,	NEAR _Accel_PID_Motor3
                                 9048   
                                 9049   ;;	Accel_PID_Motor4 = 16383;
                                 9050   CLINEA 0000H 0001H 0AE4H 0002H 001AH
00:00F2 13-90 00-00'             9051   	st	er0,	NEAR _Accel_PID_Motor4
                                 9052   CBLOCKEND 242 2 2790
                                 9053   
                                 9054   ;;}
                                 9055   CLINEA 0000H 0001H 0AE6H 0001H 0001H
00:00F6 8E-F2                    9056   	pop	pc
                                 9057   CBLOCKEND 242 1 2790
                                 9058   CFUNCTIONEND 242
                                 9059   
                                 9060   
  --------------------------     9061   	rseg $$ESC1_PWM$main
                                 9062   CFUNCTION 215
                                 9063   
00:0000                          9064   _ESC1_PWM	:
                                 9065   CBLOCK 215 1 2794
                                 9066   
                                 9067   ;;void ESC1_PWM(void){
                                 9068   CLINEA 0000H 0001H 0AEAH 0001H 0014H
                                 9069   CBLOCK 215 2 2794
                                 9070   
                                 9071   ;;      PC0DIR = 0;       // PortB Bit0 set to Output Mode...
                                 9072   CLINEA 0000H 0001H 0AF9H 0007H 003BH
00:0000 82-A0 61-F2              9073   	rb	0f261h.0
                                 9074   
                                 9075   ;;      PC0C1  = 1;       // PortB Bit0 set to CMOS Output...
                                 9076   CLINEA 0000H 0001H 0AFCH 0007H 003BH
00:0004 80-A0 63-F2              9077   	sb	0f263h.0
                                 9078   
                                 9079   ;;      PC0C0  = 1;       
                                 9080   CLINEA 0000H 0001H 0AFDH 0007H 0018H
00:0008 80-A0 62-F2              9081   	sb	0f262h.0
                                 9082   
                                 9083   ;;      PC0MD1  = 1;            // PortC Bit0 set to PWM Output (1,0)...
                                 9084   CLINEA 0000H 0001H 0B00H 0007H 0046H
00:000C 80-A0 65-F2              9085   	sb	0f265h.0
                                 9086   
                                 9087   ;;      PC0MD0  = 0;      
                                 9088   CLINEA 0000H 0001H 0B01H 0007H 0018H
00:0010 82-A0 64-F2              9089   	rb	0f264h.0
                                 9090   
                                 9091   ;;      PFCS1 = 0;        //00= LS; 01=HS; 10=PLL
                                 9092   CLINEA 0000H 0001H 0B05H 0007H 002FH
00:0014 92-A0 72-F9              9093   	rb	0f972h.1
                                 9094   
                                 9095   ;;      PFCS0 = 1;
                                 9096   CLINEA 0000H 0001H 0B06H 0007H 0010H
00:0018 80-A0 72-F9              9097   	sb	0f972h.0
                                 9098   
                                 9099   ;;      PWFP = PWMPeriod;            // Init Period to (1=255kHz; 10=46kHz; 50=10kHz; 200=2.5kH; ; 3185 = 160Hz; 3400=150Hz; 4250=120Hz; 5000=102Hz)
                                 9100   CLINEA 0000H 0001H 0B09H 0007H 0092H
00:001C 12-90 00-00'             9101   	l	er0,	NEAR _PWMPeriod
00:0020 13-90 60-F9              9102   	st	er0,	0f960h
                                 9103   
                                 9104   ;;      PWF0D =    PWMSafeDuty;           //12    ~  0.25 % duty cycle @ 160Hz
                                 9105   CLINEA 0000H 0001H 0B13H 0007H 004CH
00:0024 12-90 00-00'             9106   	l	er0,	NEAR _PWMSafeDuty
00:0028 13-90 62-F9              9107   	st	er0,	0f962h
                                 9108   
                                 9109   ;;      PFRUN = 0;        // OFF to start
                                 9110   CLINEA 0000H 0001H 0B15H 0007H 0027H
00:002C 82-A0 73-F9              9111   	rb	0f973h.0
                                 9112   CBLOCKEND 215 2 2838
                                 9113   
                                 9114   ;;}
                                 9115   CLINEA 0000H 0001H 0B16H 0001H 0001H
00:0030 1F-FE                    9116   	rt
                                 9117   CBLOCKEND 215 1 2838
                                 9118   CFUNCTIONEND 215
                                 9119   
                                 9120   
  --------------------------     9121   	rseg $$ESC2_PWM$main
                                 9122   CFUNCTION 216
                                 9123   
00:0000                          9124   _ESC2_PWM	:
                                 9125   CBLOCK 216 1 2843
                                 9126   
                                 9127   ;;void ESC2_PWM(void){
                                 9128   CLINEA 0000H 0001H 0B1BH 0001H 0014H
                                 9129   CBLOCK 216 2 2843
                                 9130   
                                 9131   ;;      PB2DIR = 0;       // PortB Bit0 set to Output Mode...
                                 9132   CLINEA 0000H 0001H 0B2AH 0007H 003BH
00:0000 A2-A0 59-F2              9133   	rb	0f259h.2
                                 9134   
                                 9135   ;;      PB2C1  = 1;       // PortB Bit0 set to CMOS Output...
                                 9136   CLINEA 0000H 0001H 0B2DH 0007H 003BH
00:0004 A0-A0 5B-F2              9137   	sb	0f25bh.2
                                 9138   
                                 9139   ;;      PB2C0  = 1;       
                                 9140   CLINEA 0000H 0001H 0B2EH 0007H 0018H
00:0008 A0-A0 5A-F2              9141   	sb	0f25ah.2
                                 9142   
                                 9143   ;;      PB2MD1  = 0;            // PortB Bit0 set to PWM Output (0,1)...
                                 9144   CLINEA 0000H 0001H 0B31H 0007H 0046H
00:000C A2-A0 5D-F2              9145   	rb	0f25dh.2
                                 9146   
                                 9147   ;;      PB2MD0  = 1;      
                                 9148   CLINEA 0000H 0001H 0B32H 0007H 0018H
00:0010 A0-A0 5C-F2              9149   	sb	0f25ch.2
                                 9150   
                                 9151   ;;      PECS1 = 0;        //00= LS; 01=HS; 10=PLL
                                 9152   CLINEA 0000H 0001H 0B36H 0007H 002FH
00:0014 92-A0 36-F9              9153   	rb	0f936h.1
                                 9154   
                                 9155   ;;      PECS0 = 1;
                                 9156   CLINEA 0000H 0001H 0B37H 0007H 0010H
00:0018 80-A0 36-F9              9157   	sb	0f936h.0
                                 9158   
                                 9159   ;;      PWEP = PWMPeriod;            // Init Period to (1=255kHz; 10=46kHz; 50=10kHz; 200=2.5kH; ; 3185 = 160Hz; 3400=150Hz; 4250=120Hz; 5000=102Hz)
                                 9160   CLINEA 0000H 0001H 0B3AH 0007H 0092H
00:001C 12-90 00-00'             9161   	l	er0,	NEAR _PWMPeriod
00:0020 13-90 30-F9              9162   	st	er0,	0f930h
                                 9163   
                                 9164   ;;      PWED =    PWMSafeDuty;           //12    ~  0.25 % duty cycle @ 160Hz
                                 9165   CLINEA 0000H 0001H 0B44H 0007H 004BH
00:0024 12-90 00-00'             9166   	l	er0,	NEAR _PWMSafeDuty
00:0028 13-90 32-F9              9167   	st	er0,	0f932h
                                 9168   
                                 9169   ;;      PERUN = 0;        // OFF to start
                                 9170   CLINEA 0000H 0001H 0B46H 0007H 0027H
00:002C 82-A0 37-F9              9171   	rb	0f937h.0
                                 9172   CBLOCKEND 216 2 2887
                                 9173   
                                 9174   ;;}
                                 9175   CLINEA 0000H 0001H 0B47H 0001H 0001H
00:0030 1F-FE                    9176   	rt
                                 9177   CBLOCKEND 216 1 2887
                                 9178   CFUNCTIONEND 216
                                 9179   
                                 9180   
  --------------------------     9181   	rseg $$ESC3_PWM$main
                                 9182   CFUNCTION 217
                                 9183   
00:0000                          9184   _ESC3_PWM	:
                                 9185   CBLOCK 217 1 2893
                                 9186   
                                 9187   ;;void ESC3_PWM(void){
                                 9188   CLINEA 0000H 0001H 0B4DH 0001H 0014H
                                 9189   CBLOCK 217 2 2893
                                 9190   
                                 9191   ;;      PA1DIR = 0;       // PortB Bit0 set to Output Mode...
                                 9192   CLINEA 0000H 0001H 0B5CH 0007H 003BH
00:0000 92-A0 51-F2              9193   	rb	0f251h.1
                                 9194   
                                 9195   ;;      PA1C1  = 1;       // PortB Bit0 set to CMOS Output...
                                 9196   CLINEA 0000H 0001H 0B5FH 0007H 003BH
00:0004 90-A0 53-F2              9197   	sb	0f253h.1
                                 9198   
                                 9199   ;;      PA1C0  = 1;       
                                 9200   CLINEA 0000H 0001H 0B60H 0007H 0018H
00:0008 90-A0 52-F2              9201   	sb	0f252h.1
                                 9202   
                                 9203   ;;      PA1MD1  = 0;            // PortB Bit0 set to PWM Output (0,1)...
                                 9204   CLINEA 0000H 0001H 0B63H 0007H 0046H
00:000C 92-A0 55-F2              9205   	rb	0f255h.1
                                 9206   
                                 9207   ;;      PA1MD0  = 1;      
                                 9208   CLINEA 0000H 0001H 0B64H 0007H 0018H
00:0010 90-A0 54-F2              9209   	sb	0f254h.1
                                 9210   
                                 9211   ;;      PDCS1 = 0;        //00= LS; 01=HS; 10=PLL
                                 9212   CLINEA 0000H 0001H 0B68H 0007H 002FH
00:0014 92-A0 26-F9              9213   	rb	0f926h.1
                                 9214   
                                 9215   ;;      PDCS0 = 1;
                                 9216   CLINEA 0000H 0001H 0B69H 0007H 0010H
00:0018 80-A0 26-F9              9217   	sb	0f926h.0
                                 9218   
                                 9219   ;;      PWDP = PWMPeriod;            // Init Period to (1=255kHz; 10=46kHz; 50=10kHz; 200=2.5kH; ; 3185 = 160Hz; 3400=150Hz; 4250=120Hz; 5000=102Hz)
                                 9220   CLINEA 0000H 0001H 0B6CH 0007H 0092H
00:001C 12-90 00-00'             9221   	l	er0,	NEAR _PWMPeriod
00:0020 13-90 20-F9              9222   	st	er0,	0f920h
                                 9223   
                                 9224   ;;      PWDD =    PWMSafeDuty;           //12    ~  0.25 % duty cycle @ 160Hz
                                 9225   CLINEA 0000H 0001H 0B76H 0007H 004BH
00:0024 12-90 00-00'             9226   	l	er0,	NEAR _PWMSafeDuty
00:0028 13-90 22-F9              9227   	st	er0,	0f922h
                                 9228   
                                 9229   ;;      PDRUN = 0;        // OFF to start
                                 9230   CLINEA 0000H 0001H 0B78H 0007H 0027H
00:002C 82-A0 27-F9              9231   	rb	0f927h.0
                                 9232   CBLOCKEND 217 2 2937
                                 9233   
                                 9234   ;;}
                                 9235   CLINEA 0000H 0001H 0B79H 0001H 0001H
00:0030 1F-FE                    9236   	rt
                                 9237   CBLOCKEND 217 1 2937
                                 9238   CFUNCTIONEND 217
                                 9239   
                                 9240   
  --------------------------     9241   	rseg $$ESC4_PWM$main
                                 9242   CFUNCTION 218
                                 9243   
00:0000                          9244   _ESC4_PWM	:
                                 9245   CBLOCK 218 1 2944
                                 9246   
                                 9247   ;;void ESC4_PWM(void){
                                 9248   CLINEA 0000H 0001H 0B80H 0001H 0014H
                                 9249   CBLOCK 218 2 2944
                                 9250   
                                 9251   ;;      PA0DIR = 0;       // PortB Bit0 set to Output Mode...
                                 9252   CLINEA 0000H 0001H 0B8FH 0007H 003BH
00:0000 82-A0 51-F2              9253   	rb	0f251h.0
                                 9254   
                                 9255   ;;      PA0C1  = 1;       // PortB Bit0 set to CMOS Output...
                                 9256   CLINEA 0000H 0001H 0B92H 0007H 003BH
00:0004 80-A0 53-F2              9257   	sb	0f253h.0
                                 9258   
                                 9259   ;;      PA0C0  = 1;       
                                 9260   CLINEA 0000H 0001H 0B93H 0007H 0018H
00:0008 80-A0 52-F2              9261   	sb	0f252h.0
                                 9262   
                                 9263   ;;      PA0MD1  = 0;            // PortB Bit0 set to PWM Output (0,1)...
                                 9264   CLINEA 0000H 0001H 0B96H 0007H 0046H
00:000C 82-A0 55-F2              9265   	rb	0f255h.0
                                 9266   
                                 9267   ;;      PA0MD0  = 1;      
                                 9268   CLINEA 0000H 0001H 0B97H 0007H 0018H
00:0010 80-A0 54-F2              9269   	sb	0f254h.0
                                 9270   
                                 9271   ;;      PCCS1 = 0;        //00= LS; 01=HS; 10=PLL
                                 9272   CLINEA 0000H 0001H 0B9BH 0007H 002FH
00:0014 92-A0 16-F9              9273   	rb	0f916h.1
                                 9274   
                                 9275   ;;      PCCS0 = 1;
                                 9276   CLINEA 0000H 0001H 0B9CH 0007H 0010H
00:0018 80-A0 16-F9              9277   	sb	0f916h.0
                                 9278   
                                 9279   ;;      PWCP = PWMPeriod;            // Init Period to (1=255kHz; 10=46kHz; 50=10kHz; 200=2.5kH; ; 3185 = 160Hz; 3400=150Hz; 4250=120Hz; 5000=102Hz)
                                 9280   CLINEA 0000H 0001H 0B9FH 0007H 0092H
00:001C 12-90 00-00'             9281   	l	er0,	NEAR _PWMPeriod
00:0020 13-90 10-F9              9282   	st	er0,	0f910h
                                 9283   
                                 9284   ;;      PWCD =    PWMSafeDuty;           //12    ~  0.25 % duty cycle @ 160Hz
                                 9285   CLINEA 0000H 0001H 0BAAH 0007H 004BH
00:0024 12-90 00-00'             9286   	l	er0,	NEAR _PWMSafeDuty
00:0028 13-90 12-F9              9287   	st	er0,	0f912h
                                 9288   
                                 9289   ;;      PCRUN = 0;        // OFF to start
                                 9290   CLINEA 0000H 0001H 0BAEH 0007H 0027H
00:002C 82-A0 17-F9              9291   	rb	0f917h.0
                                 9292   CBLOCKEND 218 2 2991
                                 9293   
                                 9294   ;;}
                                 9295   CLINEA 0000H 0001H 0BAFH 0001H 0001H
00:0030 1F-FE                    9296   	rt
                                 9297   CBLOCKEND 218 1 2991
                                 9298   CFUNCTIONEND 218
                                 9299   
                                 9300   
  --------------------------     9301   	rseg $$TBC_ISR$main
                                 9302   CFUNCTION 253
                                 9303   
00:0000                          9304   _TBC_ISR	:
                                 9305   CBLOCK 253 1 2996
                                 9306   
                                 9307   ;;{
                                 9308   CLINEA 0000H 0001H 0BB4H 0001H 0001H
                                 9309   CBLOCK 253 2 2996
                                 9310   
                                 9311   ;;	E128H = 0;	//Turn OFF TBC Interrupt
                                 9312   CLINEA 0000H 0001H 0BB5H 0002H 0024H
00:0000 D2-A0 16-F0              9313   	rb	0f016h.5
                                 9314   
                                 9315   ;;	E128H = 1;	//Turn ON TBC Interrupt
                                 9316   CLINEA 0000H 0001H 0BB6H 0002H 0023H
00:0004 D0-A0 16-F0              9317   	sb	0f016h.5
                                 9318   CBLOCKEND 253 2 2999
                                 9319   
                                 9320   ;;}
                                 9321   CLINEA 0000H 0001H 0BB7H 0001H 0001H
00:0008 1F-FE                    9322   	rt
                                 9323   CBLOCKEND 253 1 2999
                                 9324   CFUNCTIONEND 253
                                 9325   
                                 9326   
  --------------------------     9327   	rseg $$TMR89_ISR$main
                                 9328   CFUNCTION 254
                                 9329   
00:0000                          9330   _TMR89_ISR	:
                                 9331   CBLOCK 254 1 3004
                                 9332   
                                 9333   ;;{
                                 9334   CLINEA 0000H 0001H 0BBCH 0001H 0001H
00:0000 CE-F8                    9335   	push	lr
                                 9336   CBLOCK 254 2 3004
                                 9337   CRET 0000H
                                 9338   
                                 9339   ;;	LED_1 ^= 1;
                                 9340   CLINEA 0000H 0001H 0BBDH 0002H 000CH
00:0002 A1-A0 50-F2              9341   	tb	0f250h.2
00:0006 03 C9                    9342   	beq	_$M47
00:0008 A2-A0 50-F2              9343   	rb	0f250h.2
00:000C 02 CE                    9344   	bal	_$M48
00:000E                          9345   _$M47 :
00:000E A0-A0 50-F2              9346   	sb	0f250h.2
00:0012                          9347   _$M48 :
                                 9348   
                                 9349   ;;	Mag_PIDCounter++;
                                 9350   CLINEA 0000H 0000H 0BBEH 0002H 0012H
00:0012 12-90 00-00'             9351   	l	er0,	NEAR _Mag_PIDCounter
00:0016 81 E0                    9352   	add	er0,	#1 
00:0018 13-90 00-00'             9353   	st	er0,	NEAR _Mag_PIDCounter
                                 9354   
                                 9355   ;;	if(Mag_PIDCounter >= 65535){
                                 9356   CLINEA 0000H 0001H 0BBFH 0002H 001DH
00:001C 00 E2                    9357   	mov	er2,	#0 
00:001E FF 70                    9358   	cmp	r0,	#0ffh
00:0020 FF 51                    9359   	cmpc	r1,	#0ffh
00:0022 00 52                    9360   	cmpc	r2,	#00h
00:0024 00 53                    9361   	cmpc	r3,	#00h
00:0026 03 C5                    9362   	blts	_$L612
                                 9363   CBLOCK 254 3 3007
                                 9364   
                                 9365   ;;		Mag_PIDCounter = 0;
                                 9366   CLINEA 0000H 0001H 0BC0H 0003H 0015H
00:0028 00 E0                    9367   	mov	er0,	#0 
00:002A 13-90 00-00'             9368   	st	er0,	NEAR _Mag_PIDCounter
                                 9369   CBLOCKEND 254 3 3009
                                 9370   
                                 9371   ;;	}
                                 9372   CLINEA 0000H 0000H 0BC1H 0002H 0002H
00:002E                          9373   _$L612 :
                                 9374   
                                 9375   ;;	Accel_PID_Counter++;
                                 9376   CLINEA 0000H 0000H 0BC2H 0002H 0015H
00:002E 12-90 00-00'             9377   	l	er0,	NEAR _Accel_PID_Counter
00:0032 81 E0                    9378   	add	er0,	#1 
00:0034 13-90 00-00'             9379   	st	er0,	NEAR _Accel_PID_Counter
                                 9380   
                                 9381   ;;	if(Accel_PID_Counter >= 65535){
                                 9382   CLINEA 0000H 0001H 0BC3H 0002H 0020H
00:0038 00 E2                    9383   	mov	er2,	#0 
00:003A FF 70                    9384   	cmp	r0,	#0ffh
00:003C FF 51                    9385   	cmpc	r1,	#0ffh
00:003E 00 52                    9386   	cmpc	r2,	#00h
00:0040 00 53                    9387   	cmpc	r3,	#00h
00:0042 03 C5                    9388   	blts	_$L614
                                 9389   CBLOCK 254 4 3011
                                 9390   
                                 9391   ;;		Accel_PID_Counter = 0;
                                 9392   CLINEA 0000H 0001H 0BC4H 0003H 0018H
00:0044 00 E0                    9393   	mov	er0,	#0 
00:0046 13-90 00-00'             9394   	st	er0,	NEAR _Accel_PID_Counter
                                 9395   CBLOCKEND 254 4 3013
                                 9396   
                                 9397   ;;	}
                                 9398   CLINEA 0000H 0000H 0BC5H 0002H 0002H
00:004A                          9399   _$L614 :
                                 9400   
                                 9401   ;;	Accel_PID_XRollCounter++;
                                 9402   CLINEA 0000H 0000H 0BC6H 0002H 001AH
00:004A 12-90 00-00'             9403   	l	er0,	NEAR _Accel_PID_XRollCounter
00:004E 81 E0                    9404   	add	er0,	#1 
00:0050 13-90 00-00'             9405   	st	er0,	NEAR _Accel_PID_XRollCounter
                                 9406   
                                 9407   ;;	if(Accel_PID_XRollCounter >= 65535){
                                 9408   CLINEA 0000H 0001H 0BC7H 0002H 0025H
00:0054 00 E2                    9409   	mov	er2,	#0 
00:0056 FF 70                    9410   	cmp	r0,	#0ffh
00:0058 FF 51                    9411   	cmpc	r1,	#0ffh
00:005A 00 52                    9412   	cmpc	r2,	#00h
00:005C 00 53                    9413   	cmpc	r3,	#00h
00:005E 03 C5                    9414   	blts	_$L616
                                 9415   CBLOCK 254 5 3015
                                 9416   
                                 9417   ;;		Accel_PID_XRollCounter = 0;
                                 9418   CLINEA 0000H 0001H 0BC8H 0003H 001DH
00:0060 00 E0                    9419   	mov	er0,	#0 
00:0062 13-90 00-00'             9420   	st	er0,	NEAR _Accel_PID_XRollCounter
                                 9421   CBLOCKEND 254 5 3017
                                 9422   
                                 9423   ;;	}
                                 9424   CLINEA 0000H 0000H 0BC9H 0002H 0002H
00:0066                          9425   _$L616 :
                                 9426   
                                 9427   ;;	Accel_PID_YPitchCounter++;
                                 9428   CLINEA 0000H 0000H 0BCAH 0002H 001BH
00:0066 12-90 00-00'             9429   	l	er0,	NEAR _Accel_PID_YPitchCounter
00:006A 81 E0                    9430   	add	er0,	#1 
00:006C 13-90 00-00'             9431   	st	er0,	NEAR _Accel_PID_YPitchCounter
                                 9432   
                                 9433   ;;	if(Accel_PID_YPitchCounter >= 65535){
                                 9434   CLINEA 0000H 0001H 0BCBH 0002H 0026H
00:0070 00 E2                    9435   	mov	er2,	#0 
00:0072 FF 70                    9436   	cmp	r0,	#0ffh
00:0074 FF 51                    9437   	cmpc	r1,	#0ffh
00:0076 00 52                    9438   	cmpc	r2,	#00h
00:0078 00 53                    9439   	cmpc	r3,	#00h
00:007A 03 C5                    9440   	blts	_$L618
                                 9441   CBLOCK 254 6 3019
                                 9442   
                                 9443   ;;		Accel_PID_YPitchCounter = 0;
                                 9444   CLINEA 0000H 0001H 0BCCH 0003H 001EH
00:007C 00 E0                    9445   	mov	er0,	#0 
00:007E 13-90 00-00'             9446   	st	er0,	NEAR _Accel_PID_YPitchCounter
                                 9447   CBLOCKEND 254 6 3021
                                 9448   
                                 9449   ;;	}
                                 9450   CLINEA 0000H 0000H 0BCDH 0002H 0002H
00:0082                          9451   _$L618 :
                                 9452   
                                 9453   ;;	Range_PIDCounter++;
                                 9454   CLINEA 0000H 0000H 0BCEH 0002H 0014H
00:0082 12-90 00-00'             9455   	l	er0,	NEAR _Range_PIDCounter
00:0086 81 E0                    9456   	add	er0,	#1 
00:0088 13-90 00-00'             9457   	st	er0,	NEAR _Range_PIDCounter
                                 9458   
                                 9459   ;;	if(Range_PIDCounter >= 65535){
                                 9460   CLINEA 0000H 0001H 0BCFH 0002H 001FH
00:008C 00 E2                    9461   	mov	er2,	#0 
00:008E FF 70                    9462   	cmp	r0,	#0ffh
00:0090 FF 51                    9463   	cmpc	r1,	#0ffh
00:0092 00 52                    9464   	cmpc	r2,	#00h
00:0094 00 53                    9465   	cmpc	r3,	#00h
00:0096 03 C5                    9466   	blts	_$L620
                                 9467   CBLOCK 254 7 3023
                                 9468   
                                 9469   ;;		Range_PIDCounter = 0;
                                 9470   CLINEA 0000H 0001H 0BD0H 0003H 0017H
00:0098 00 E0                    9471   	mov	er0,	#0 
00:009A 13-90 00-00'             9472   	st	er0,	NEAR _Range_PIDCounter
                                 9473   CBLOCKEND 254 7 3025
                                 9474   
                                 9475   ;;	}
                                 9476   CLINEA 0000H 0000H 0BD1H 0002H 0002H
00:009E                          9477   _$L620 :
                                 9478   
                                 9479   ;;	CF_Gyro_Counter++;
                                 9480   CLINEA 0000H 0000H 0BD2H 0002H 0013H
00:009E 12-90 00-00'             9481   	l	er0,	NEAR _CF_Gyro_Counter
00:00A2 12-92 00-00'             9482   	l	er2,	NEAR _CF_Gyro_Counter+02h
00:00A6 6E-F0                    9483   	push	xr0
00:00A8 00 E0                    9484   	mov	er0,	#0 
00:00AA 80 02                    9485   	mov	r2,	#080h
00:00AC 3F 03                    9486   	mov	r3,	#03fh
00:00AE 6E-F0                    9487   	push	xr0
00:00B0 01-F0'00-00'             9488   	bl	__faddu8sw
00:00B4 04 E1                    9489   	add	sp,	#4 
00:00B6 2E-F0                    9490   	pop	xr0
00:00B8 13-90 00-00'             9491   	st	er0,	NEAR _CF_Gyro_Counter
00:00BC 13-92 00-00'             9492   	st	er2,	NEAR _CF_Gyro_Counter+02h
                                 9493   
                                 9494   ;;	if(CF_Gyro_Counter >= 65535){
                                 9495   CLINEA 0000H 0001H 0BD3H 0002H 001EH
00:00C0 6E-F0                    9496   	push	xr0
00:00C2 00 00                    9497   	mov	r0,	#00h
00:00C4 FF 01                    9498   	mov	r1,	#0ffh
00:00C6 7F 02                    9499   	mov	r2,	#07fh
00:00C8 47 03                    9500   	mov	r3,	#047h
00:00CA 6E-F0                    9501   	push	xr0
00:00CC 01-F0'00-00'             9502   	bl	__fcmpu8sw
00:00D0 08 E1                    9503   	add	sp,	#8 
00:00D2 0B-A0                    9504   	mov	psw,	r0
00:00D4 05 C1                    9505   	blt	_$L622
                                 9506   CBLOCK 254 8 3027
                                 9507   
                                 9508   ;;		CF_Gyro_Counter = 0;
                                 9509   CLINEA 0000H 0001H 0BD4H 0003H 0016H
00:00D6 00 E0                    9510   	mov	er0,	#0 
00:00D8 13-90 00-00'             9511   	st	er0,	NEAR _CF_Gyro_Counter
00:00DC 13-90 00-00'             9512   	st	er0,	NEAR _CF_Gyro_Counter+02h
                                 9513   CBLOCKEND 254 8 3029
                                 9514   
                                 9515   ;;	}
                                 9516   CLINEA 0000H 0000H 0BD5H 0002H 0002H
00:00E0                          9517   _$L622 :
                                 9518   
                                 9519   ;;	MotorTimerUT++;
                                 9520   CLINEA 0000H 0000H 0BD7H 0002H 0010H
00:00E0 12-90 00-00'             9521   	l	er0,	NEAR _MotorTimerUT
00:00E4 81 E0                    9522   	add	er0,	#1 
00:00E6 13-90 00-00'             9523   	st	er0,	NEAR _MotorTimerUT
                                 9524   
                                 9525   ;;	if(MotorTimerUT >= 65535){
                                 9526   CLINEA 0000H 0001H 0BD8H 0002H 001BH
00:00EA 00 E2                    9527   	mov	er2,	#0 
00:00EC FF 70                    9528   	cmp	r0,	#0ffh
00:00EE FF 51                    9529   	cmpc	r1,	#0ffh
00:00F0 00 52                    9530   	cmpc	r2,	#00h
00:00F2 00 53                    9531   	cmpc	r3,	#00h
00:00F4 03 C5                    9532   	blts	_$L624
                                 9533   CBLOCK 254 9 3032
                                 9534   
                                 9535   ;;		MotorTimerUT = 0;
                                 9536   CLINEA 0000H 0001H 0BD9H 0003H 0013H
00:00F6 00 E0                    9537   	mov	er0,	#0 
00:00F8 13-90 00-00'             9538   	st	er0,	NEAR _MotorTimerUT
                                 9539   CBLOCKEND 254 9 3034
                                 9540   
                                 9541   ;;	}
                                 9542   CLINEA 0000H 0000H 0BDAH 0002H 0002H
00:00FC                          9543   _$L624 :
                                 9544   CBLOCKEND 254 2 3036
                                 9545   
                                 9546   ;;}
                                 9547   CLINEA 0000H 0001H 0BDCH 0001H 0001H
00:00FC 8E-F2                    9548   	pop	pc
                                 9549   CBLOCKEND 254 1 3036
                                 9550   CFUNCTIONEND 254
                                 9551   
                                 9552   
  --------------------------     9553   	rseg $$AccelGyroDataReady_ISR$main
                                 9554   CFUNCTION 255
                                 9555   
00:0000                          9556   _AccelGyroDataReady_ISR	:
                                 9557   CBLOCK 255 1 3040
                                 9558   
                                 9559   ;;{
                                 9560   CLINEA 0000H 0001H 0BE0H 0001H 0001H
                                 9561   CBLOCK 255 2 3040
                                 9562   
                                 9563   ;;	if(AccGyro_ReadFlag == 1){
                                 9564   CLINEA 0000H 0001H 0BE1H 0002H 001BH
00:0000 10-90 00-00'             9565   	l	r0,	NEAR _AccGyro_ReadFlag
00:0004 01 70                    9566   	cmp	r0,	#01h
00:0006 05 C8                    9567   	bne	_$L627
                                 9568   CBLOCK 255 3 3041
                                 9569   
                                 9570   ;;		AccGyro_MissedIntCount++;
                                 9571   CLINEA 0000H 0000H 0BE2H 0003H 001BH
00:0008 12-90 00-00'             9572   	l	er0,	NEAR _AccGyro_MissedIntCount
00:000C 81 E0                    9573   	add	er0,	#1 
00:000E 13-90 00-00'             9574   	st	er0,	NEAR _AccGyro_MissedIntCount
                                 9575   CBLOCKEND 255 3 3043
                                 9576   
                                 9577   ;;	}
                                 9578   CLINEA 0000H 0000H 0BE3H 0002H 0002H
00:0012                          9579   _$L627 :
                                 9580   
                                 9581   ;;	AccGyro_ReadFlag = 1;
                                 9582   CLINEA 0000H 0001H 0BE4H 0002H 0016H
00:0012 01 00                    9583   	mov	r0,	#01h
00:0014 11-90 00-00'             9584   	st	r0,	NEAR _AccGyro_ReadFlag
                                 9585   CBLOCKEND 255 2 3045
                                 9586   
                                 9587   ;;}
                                 9588   CLINEA 0000H 0001H 0BE5H 0001H 0001H
00:0018 1F-FE                    9589   	rt
                                 9590   CBLOCKEND 255 1 3045
                                 9591   CFUNCTIONEND 255
                                 9592   
                                 9593   
  --------------------------     9594   	rseg $$_funcUartFin$main
                                 9595   CFUNCTION 243
                                 9596   
00:0000                          9597   __funcUartFin	:
                                 9598   CBLOCK 243 1 3056
                                 9599   
                                 9600   ;;{
                                 9601   CLINEA 0000H 0001H 0BF0H 0001H 0001H
00:0000 CE-F8                    9602   	push	lr
                                 9603   CBLOCK 243 2 3056
                                 9604   CRET 0000H
                                 9605   CARGUMENT 46H 0002H 0000H "size" 02H 00H 01H
                                 9606   CARGUMENT 46H 0001H 0000H "errStat" 02H 00H 00H
                                 9607   
                                 9608   ;;	uart_continue();					// Function in UART.c: process to continue send and receive...
                                 9609   CLINEA 0000H 0001H 0BF1H 0002H 0054H
00:0002 01-F0'00-00'             9610   	bl	_uart_continue
                                 9611   
                                 9612   ;;	_flgUartFin = (unsigned char)FLG_SET;
                                 9613   CLINEA 0000H 0001H 0BF2H 0002H 0026H
00:0006 01 00                    9614   	mov	r0,	#01h
00:0008 11-90 00-00'             9615   	st	r0,	NEAR __flgUartFin
                                 9616   CBLOCKEND 243 2 3060
                                 9617   
                                 9618   ;;}
                                 9619   CLINEA 0000H 0001H 0BF4H 0001H 0001H
00:000C 8E-F2                    9620   	pop	pc
                                 9621   CBLOCKEND 243 1 3060
                                 9622   CFUNCTIONEND 243
                                 9623   
                                 9624   
  --------------------------     9625   	rseg $$_funcI2CFin$main
                                 9626   CFUNCTION 244
                                 9627   
00:0000                          9628   __funcI2CFin	:
                                 9629   CBLOCK 244 1 3071
                                 9630   
                                 9631   ;;{
                                 9632   CLINEA 0000H 0001H 0BFFH 0001H 0001H
00:0000 CE-F8                    9633   	push	lr
                                 9634   CBLOCK 244 2 3071
                                 9635   CRET 0000H
                                 9636   CARGUMENT 46H 0002H 0000H "size" 02H 00H 01H
                                 9637   CARGUMENT 46H 0001H 0000H "errStat" 02H 00H 00H
                                 9638   
                                 9639   ;;	i2c_continue();					// Function in UART.c: process to continue send and receive...
                                 9640   CLINEA 0000H 0001H 0C00H 0002H 0053H
00:0002 01-F0'00-00'             9641   	bl	_i2c_continue
                                 9642   
                                 9643   ;;	_flgI2CFin = (unsigned char)FLG_SET;
                                 9644   CLINEA 0000H 0001H 0C01H 0002H 0025H
00:0006 01 00                    9645   	mov	r0,	#01h
00:0008 11-90 00-00'             9646   	st	r0,	NEAR __flgI2CFin
                                 9647   CBLOCKEND 244 2 3075
                                 9648   
                                 9649   ;;}
                                 9650   CLINEA 0000H 0001H 0C03H 0001H 0001H
00:000C 8E-F2                    9651   	pop	pc
                                 9652   CBLOCKEND 244 1 3075
                                 9653   CFUNCTIONEND 244
                                 9654   
                                 9655   
  --------------------------     9656   	rseg $$_intI2c$main
                                 9657   CFUNCTION 248
                                 9658   
00:0000                          9659   __intI2c	:
                                 9660   CBLOCK 248 1 3085
                                 9661   
                                 9662   ;;{
                                 9663   CLINEA 0000H 0001H 0C0DH 0001H 0001H
                                 9664   CBLOCK 248 2 3085
                                 9665   
                                 9666   ;;	i2c_continue();
                                 9667   CLINEA 0000H 0001H 0C0EH 0002H 0010H
00:0000 00-F0'00-00'             9668   	b	_i2c_continue
                                 9669   CBLOCKEND 248 2 3088
                                 9670   CLINEA 0000H 0001H 0C10H 0001H 0001H
                                 9671   CBLOCKEND 248 1 3088
                                 9672   CFUNCTIONEND 248
                                 9673   
                                 9674   
  --------------------------     9675   	rseg $$checkI2C$main
                                 9676   CFUNCTION 245
                                 9677   
00:0000                          9678   _checkI2C	:
                                 9679   CBLOCK 245 1 3098
                                 9680   
                                 9681   ;;{
                                 9682   CLINEA 0000H 0001H 0C1AH 0001H 0001H
00:0000 CE-F8                    9683   	push	lr
                                 9684   CBLOCK 245 2 3098
                                 9685   CRET 0000H
                                 9686   CLOCAL 47H 0002H 0024H 0002H "ret" 02H 00H 01H
                                 9687   
                                 9688   ;;	while (ret != 1) {
                                 9689   CLINEA 0000H 0000H 0C1FH 0002H 0013H
00:0002                          9690   _$L635 :
                                 9691   CBLOCK 245 3 3103
                                 9692   
                                 9693   ;;		ret = i2c_continue();
                                 9694   CLINEA 0000H 0000H 0C20H 0003H 0017H
00:0002 01-F0'00-00'             9695   	bl	_i2c_continue
                                 9696   CBLOCK 245 4 3105
                                 9697   CBLOCKEND 245 4 3107
                                 9698   CBLOCKEND 245 3 3108
                                 9699   
                                 9700   ;;	while (ret != 1) {
                                 9701   CLINEA 0000H 0000H 0C1FH 000EH 0013H
00:0006 01 70                    9702   	cmp	r0,	#01h
00:0008 00 51                    9703   	cmpc	r1,	#00h
00:000A FB C8                    9704   	bne	_$L635
                                 9705   CBLOCKEND 245 2 3109
                                 9706   
                                 9707   ;;}
                                 9708   CLINEA 0000H 0001H 0C25H 0001H 0001H
00:000C 8E-F2                    9709   	pop	pc
                                 9710   CBLOCKEND 245 1 3109
                                 9711   CFUNCTIONEND 245
                                 9712   
                                 9713   
  --------------------------     9714   	rseg $$main_reqNotHalt$main
                                 9715   CFUNCTION 246
                                 9716   
00:0000                          9717   _main_reqNotHalt	:
                                 9718   CBLOCK 246 1 3119
                                 9719   
                                 9720   ;;{
                                 9721   CLINEA 0000H 0001H 0C2FH 0001H 0001H
                                 9722   CBLOCK 246 2 3119
                                 9723   
                                 9724   ;;	_reqNotHalt = (unsigned char)FLG_SET;
                                 9725   CLINEA 0000H 0001H 0C30H 0002H 0026H
00:0000 01 00                    9726   	mov	r0,	#01h
00:0002 11-90 00-00'             9727   	st	r0,	NEAR __reqNotHalt
                                 9728   CBLOCKEND 246 2 3121
                                 9729   
                                 9730   ;;}
                                 9731   CLINEA 0000H 0001H 0C31H 0001H 0001H
00:0006 1F-FE                    9732   	rt
                                 9733   CBLOCKEND 246 1 3121
                                 9734   CFUNCTIONEND 246
                                 9735   
                                 9736   
  --------------------------     9737   	rseg $$_intUart$main
                                 9738   CFUNCTION 247
                                 9739   
00:0000                          9740   __intUart	:
                                 9741   CBLOCK 247 1 3131
                                 9742   
                                 9743   ;;{
                                 9744   CLINEA 0000H 0001H 0C3BH 0001H 0001H
                                 9745   CBLOCK 247 2 3131
                                 9746   
                                 9747   ;;		uart_continue(); //in UART.c: process to continue send and receive...
                                 9748   CLINEA 0000H 0001H 0C3CH 0003H 0047H
00:0000 00-F0'00-00'             9749   	b	_uart_continue
                                 9750   CBLOCKEND 247 2 3133
                                 9751   CLINEA 0000H 0001H 0C3DH 0001H 0001H
                                 9752   CBLOCKEND 247 1 3133
                                 9753   CFUNCTIONEND 247
                                 9754   
                                 9755   
  --------------------------     9756   	rseg $$SetOSC$main
                                 9757   CFUNCTION 208
                                 9758   
00:0000                          9759   _SetOSC	:
                                 9760   CBLOCK 208 1 3138
                                 9761   
                                 9762   ;;static void SetOSC(void){
                                 9763   CLINEA 0000H 0001H 0C42H 0001H 0019H
                                 9764   CBLOCK 208 2 3138
                                 9765   
                                 9766   ;;	SYSC0 = 0;			// Used to select the frequency of the HSCLK => 00=8.192MHz.
                                 9767   CLINEA 0000H 0001H 0C45H 0002H 004AH
00:0000 82-A0 02-F0              9768   	rb	0f002h.0
                                 9769   
                                 9770   ;;	SYSC1 = 0;
                                 9771   CLINEA 0000H 0001H 0C46H 0002H 000BH
00:0004 92-A0 02-F0              9772   	rb	0f002h.1
                                 9773   
                                 9774   ;;	OSCM1 = 1;			// 10 => Built-in PLL oscillation mode
                                 9775   CLINEA 0000H 0001H 0C48H 0002H 0034H
00:0008 B0-A0 02-F0              9776   	sb	0f002h.3
                                 9777   
                                 9778   ;;	OSCM0 = 0;
                                 9779   CLINEA 0000H 0001H 0C49H 0002H 000BH
00:000C A2-A0 02-F0              9780   	rb	0f002h.2
                                 9781   
                                 9782   ;;	ENOSC = 1;			//1=Enable High Speed Oscillator...
                                 9783   CLINEA 0000H 0001H 0C4BH 0002H 0031H
00:0010 90-A0 03-F0              9784   	sb	0f003h.1
                                 9785   
                                 9786   ;;	SYSCLK = 1;			//1=HSCLK; 0=LSCLK 
                                 9787   CLINEA 0000H 0001H 0C4CH 0002H 0022H
00:0014 80-A0 03-F0              9788   	sb	0f003h.0
                                 9789   
                                 9790   ;;	LPLL = 1;			//1=Enables the use of PLL oscillation - ADDED 4/30/2013
                                 9791   CLINEA 0000H 0001H 0C4EH 0002H 0045H
00:0018 F0-A0 03-F0              9792   	sb	0f003h.7
                                 9793   
                                 9794   ;;	__EI();			//INT enable
                                 9795   CLINEA 0000H 0001H 0C50H 0002H 0017H
00:001C 08-ED                    9796   	ei
                                 9797   CBLOCKEND 208 2 3153
                                 9798   
                                 9799   ;;}
                                 9800   CLINEA 0000H 0001H 0C51H 0001H 0001H
00:001E 1F-FE                    9801   	rt
                                 9802   CBLOCKEND 208 1 3153
                                 9803   CFUNCTIONEND 208
                                 9804   
                                 9805   
  --------------------------     9806   	rseg $$analog_comparator$main
                                 9807   CFUNCTION 209
                                 9808   
00:0000                          9809   _analog_comparator	:
                                 9810   CBLOCK 209 1 3160
                                 9811   
                                 9812   ;;void analog_comparator(void){
                                 9813   CLINEA 0000H 0001H 0C58H 0001H 001DH
                                 9814   CBLOCK 209 2 3160
                                 9815   
                                 9816   ;;	CMP0EN  = 0x01; 	// Comparator ON...
                                 9817   CLINEA 0000H 0001H 0C6EH 0002H 0025H
00:0000 80-A0 50-F9              9818   	sb	0f950h.0
                                 9819   
                                 9820   ;;	CMP0E1  = 0x00; 	// No Interupt...
                                 9821   CLINEA 0000H 0001H 0C6FH 0002H 0023H
00:0004 92-A0 51-F9              9822   	rb	0f951h.1
                                 9823   
                                 9824   ;;	CMP0E0  = 0x00;
                                 9825   CLINEA 0000H 0001H 0C70H 0002H 0010H
00:0008 82-A0 51-F9              9826   	rb	0f951h.0
                                 9827   
                                 9828   ;;	CMP0SM1 = 0x00; 	// Detect without Sampling... 
                                 9829   CLINEA 0000H 0001H 0C71H 0002H 0030H
00:000C B2-A0 51-F9              9830   	rb	0f951h.3
                                 9831   
                                 9832   ;;	CMP0RFS = 0x01; 	// Differential Input on B5
                                 9833   CLINEA 0000H 0001H 0C72H 0002H 002DH
00:0010 C0-A0 51-F9              9834   	sb	0f951h.4
                                 9835   
                                 9836   ;;	CMP0EN  = 0x00;
                                 9837   CLINEA 0000H 0001H 0C75H 0002H 0010H
00:0014 82-A0 50-F9              9838   	rb	0f950h.0
                                 9839   CBLOCKEND 209 2 3192
                                 9840   
                                 9841   ;;}
                                 9842   CLINEA 0000H 0001H 0C78H 0001H 0001H
00:0018 1F-FE                    9843   	rt
                                 9844   CBLOCKEND 209 1 3192
                                 9845   CFUNCTIONEND 209
                                 9846   
                                 9847   
  --------------------------     9848   	rseg $$PortA_Low$main
                                 9849   CFUNCTION 210
                                 9850   
00:0000                          9851   _PortA_Low	:
                                 9852   CBLOCK 210 1 3200
                                 9853   
                                 9854   ;;void PortA_Low(void){
                                 9855   CLINEA 0000H 0001H 0C80H 0001H 0015H
                                 9856   CBLOCK 210 2 3200
                                 9857   
                                 9858   ;;	PA0DIR = 0;		// PortA Bit0 set to Output Mode...
                                 9859   CLINEA 0000H 0001H 0C8AH 0002H 0031H
00:0000 82-A0 51-F2              9860   	rb	0f251h.0
                                 9861   
                                 9862   ;;	PA1DIR = 0;		// PortA Bit1 set to Output Mode...
                                 9863   CLINEA 0000H 0001H 0C8BH 0002H 0031H
00:0004 92-A0 51-F2              9864   	rb	0f251h.1
                                 9865   
                                 9866   ;;	PA2DIR = 0;		// PortA Bit2 set to Output Mode...
                                 9867   CLINEA 0000H 0001H 0C8CH 0002H 0031H
00:0008 A2-A0 51-F2              9868   	rb	0f251h.2
                                 9869   
                                 9870   ;;	PA0C1  = 1;		// PortA Bit0 set to CMOS Output...
                                 9871   CLINEA 0000H 0001H 0C8FH 0002H 0031H
00:000C 80-A0 53-F2              9872   	sb	0f253h.0
                                 9873   
                                 9874   ;;	PA0C0  = 1;		
                                 9875   CLINEA 0000H 0001H 0C90H 0002H 000EH
00:0010 80-A0 52-F2              9876   	sb	0f252h.0
                                 9877   
                                 9878   ;;	PA1C1  = 1;		// PortA Bit1 set to CMOS Output...
                                 9879   CLINEA 0000H 0001H 0C91H 0002H 0031H
00:0014 90-A0 53-F2              9880   	sb	0f253h.1
                                 9881   
                                 9882   ;;	PA1C0  = 1;	
                                 9883   CLINEA 0000H 0001H 0C92H 0002H 000DH
00:0018 90-A0 52-F2              9884   	sb	0f252h.1
                                 9885   
                                 9886   ;;	PA2C1  = 1;		// PortA Bit2 set to CMOS Output...
                                 9887   CLINEA 0000H 0001H 0C93H 0002H 0031H
00:001C A0-A0 53-F2              9888   	sb	0f253h.2
                                 9889   
                                 9890   ;;	PA2C0  = 1;	
                                 9891   CLINEA 0000H 0001H 0C94H 0002H 000DH
00:0020 A0-A0 52-F2              9892   	sb	0f252h.2
                                 9893   
                                 9894   ;;	PA0MD1  = 0;	// PortA Bit0 set to General Purpose Output...
                                 9895   CLINEA 0000H 0001H 0C97H 0002H 003CH
00:0024 82-A0 55-F2              9896   	rb	0f255h.0
                                 9897   
                                 9898   ;;	PA0MD0  = 0;	
                                 9899   CLINEA 0000H 0001H 0C98H 0002H 000EH
00:0028 82-A0 54-F2              9900   	rb	0f254h.0
                                 9901   
                                 9902   ;;	PA1MD1  = 0;	// PortA Bit1 set to General Purpose Output...
                                 9903   CLINEA 0000H 0001H 0C99H 0002H 003CH
00:002C 92-A0 55-F2              9904   	rb	0f255h.1
                                 9905   
                                 9906   ;;	PA1MD0  = 0;	
                                 9907   CLINEA 0000H 0001H 0C9AH 0002H 000EH
00:0030 92-A0 54-F2              9908   	rb	0f254h.1
                                 9909   
                                 9910   ;;	PA2MD1  = 0;	// PortA Bit2 set to General Purpose Output...
                                 9911   CLINEA 0000H 0001H 0C9BH 0002H 003CH
00:0034 A2-A0 55-F2              9912   	rb	0f255h.2
                                 9913   
                                 9914   ;;	PA2MD0  = 0;	
                                 9915   CLINEA 0000H 0001H 0C9CH 0002H 000EH
00:0038 A2-A0 54-F2              9916   	rb	0f254h.2
                                 9917   
                                 9918   ;;	PA0D = 0;		// A.0 Output OFF....
                                 9919   CLINEA 0000H 0001H 0C9FH 0002H 0021H
00:003C 82-A0 50-F2              9920   	rb	0f250h.0
                                 9921   
                                 9922   ;;	PA1D = 0;		// A.1 Output OFF....
                                 9923   CLINEA 0000H 0001H 0CA0H 0002H 0021H
00:0040 92-A0 50-F2              9924   	rb	0f250h.1
                                 9925   
                                 9926   ;;	PA2D = 0;		// A.2 Output OFF....
                                 9927   CLINEA 0000H 0001H 0CA1H 0002H 0021H
00:0044 A2-A0 50-F2              9928   	rb	0f250h.2
                                 9929   
                                 9930   ;;	main_clrWDT(); 	// Clear WDT
                                 9931   CLINEA 0000H 0001H 0CA3H 0002H 001DH
00:0048 00-F0'00-00'             9932   	b	_main_clrWDT
                                 9933   CBLOCKEND 210 2 3237
                                 9934   CLINEA 0000H 0001H 0CA5H 0001H 0001H
                                 9935   CBLOCKEND 210 1 3237
                                 9936   CFUNCTIONEND 210
                                 9937   
                                 9938   
  --------------------------     9939   	rseg $$PortB_Low$main
                                 9940   CFUNCTION 211
                                 9941   
00:0000                          9942   _PortB_Low	:
                                 9943   CBLOCK 211 1 3243
                                 9944   
                                 9945   ;;void PortB_Low(void){
                                 9946   CLINEA 0000H 0001H 0CABH 0001H 0015H
                                 9947   CBLOCK 211 2 3243
                                 9948   
                                 9949   ;;	PB0DIR = 0;		// PortB Bit0 set to Output Mode...
                                 9950   CLINEA 0000H 0001H 0CB5H 0002H 0031H
00:0000 82-A0 59-F2              9951   	rb	0f259h.0
                                 9952   
                                 9953   ;;	PB1DIR = 0;		// PortB Bit1 set to Output Mode...
                                 9954   CLINEA 0000H 0001H 0CB6H 0002H 0031H
00:0004 92-A0 59-F2              9955   	rb	0f259h.1
                                 9956   
                                 9957   ;;	PB2DIR = 0;		// PortB Bit2 set to Output Mode...
                                 9958   CLINEA 0000H 0001H 0CB7H 0002H 0031H
00:0008 A2-A0 59-F2              9959   	rb	0f259h.2
                                 9960   
                                 9961   ;;	PB3DIR = 0;		// PortB Bit3 set to Output Mode...
                                 9962   CLINEA 0000H 0001H 0CB8H 0002H 0031H
00:000C B2-A0 59-F2              9963   	rb	0f259h.3
                                 9964   
                                 9965   ;;	PB4DIR = 0;		// PortB Bit4 set to Output Mode...
                                 9966   CLINEA 0000H 0001H 0CB9H 0002H 0031H
00:0010 C2-A0 59-F2              9967   	rb	0f259h.4
                                 9968   
                                 9969   ;;	PB5DIR = 0;		// PortB Bit5 set to Output Mode...
                                 9970   CLINEA 0000H 0001H 0CBAH 0002H 0031H
00:0014 D2-A0 59-F2              9971   	rb	0f259h.5
                                 9972   
                                 9973   ;;	PB6DIR = 0;		// PortB Bit6 set to Output Mode...
                                 9974   CLINEA 0000H 0001H 0CBBH 0002H 0031H
00:0018 E2-A0 59-F2              9975   	rb	0f259h.6
                                 9976   
                                 9977   ;;	PB7DIR = 0;		// PortB Bit7 set to Output Mode...
                                 9978   CLINEA 0000H 0001H 0CBCH 0002H 0031H
00:001C F2-A0 59-F2              9979   	rb	0f259h.7
                                 9980   
                                 9981   ;;	PB0C1  = 1;		// PortB Bit0 set to CMOS Output...
                                 9982   CLINEA 0000H 0001H 0CBFH 0002H 0031H
00:0020 80-A0 5B-F2              9983   	sb	0f25bh.0
                                 9984   
                                 9985   ;;	PB0C0  = 1;		
                                 9986   CLINEA 0000H 0001H 0CC0H 0002H 000EH
00:0024 80-A0 5A-F2              9987   	sb	0f25ah.0
                                 9988   
                                 9989   ;;	PB1C1  = 1;		// PortB Bit1 set to CMOS Output...
                                 9990   CLINEA 0000H 0001H 0CC1H 0002H 0031H
00:0028 90-A0 5B-F2              9991   	sb	0f25bh.1
                                 9992   
                                 9993   ;;	PB1C0  = 1;	
                                 9994   CLINEA 0000H 0001H 0CC2H 0002H 000DH
00:002C 90-A0 5A-F2              9995   	sb	0f25ah.1
                                 9996   
                                 9997   ;;	PB2C1  = 1;		// PortB Bit2 set to CMOS Output...
                                 9998   CLINEA 0000H 0001H 0CC3H 0002H 0031H
00:0030 A0-A0 5B-F2              9999   	sb	0f25bh.2
                                10000   
                                10001   ;;	PB2C0  = 1;	
                                10002   CLINEA 0000H 0001H 0CC4H 0002H 000DH
00:0034 A0-A0 5A-F2             10003   	sb	0f25ah.2
                                10004   
                                10005   ;;	PB3C1  = 1;		// PortB Bit3 set to CMOS Output...
                                10006   CLINEA 0000H 0001H 0CC5H 0002H 0031H
00:0038 B0-A0 5B-F2             10007   	sb	0f25bh.3
                                10008   
                                10009   ;;	PB3C0  = 1;		
                                10010   CLINEA 0000H 0001H 0CC6H 0002H 000EH
00:003C B0-A0 5A-F2             10011   	sb	0f25ah.3
                                10012   
                                10013   ;;	PB4C1  = 1;		// PortB Bit4 set to CMOS Output...
                                10014   CLINEA 0000H 0001H 0CC7H 0002H 0031H
00:0040 C0-A0 5B-F2             10015   	sb	0f25bh.4
                                10016   
                                10017   ;;	PB4C0  = 1;	
                                10018   CLINEA 0000H 0001H 0CC8H 0002H 000DH
00:0044 C0-A0 5A-F2             10019   	sb	0f25ah.4
                                10020   
                                10021   ;;	PB5C1  = 1;		// PortB Bit5 set to CMOS Output...
                                10022   CLINEA 0000H 0001H 0CC9H 0002H 0031H
00:0048 D0-A0 5B-F2             10023   	sb	0f25bh.5
                                10024   
                                10025   ;;	PB5C0  = 1;	
                                10026   CLINEA 0000H 0001H 0CCAH 0002H 000DH
00:004C D0-A0 5A-F2             10027   	sb	0f25ah.5
                                10028   
                                10029   ;;	PB6C1  = 1;		// PortB Bit6 set to CMOS Output...
                                10030   CLINEA 0000H 0001H 0CCBH 0002H 0031H
00:0050 E0-A0 5B-F2             10031   	sb	0f25bh.6
                                10032   
                                10033   ;;	PB6C0  = 1;	
                                10034   CLINEA 0000H 0001H 0CCCH 0002H 000DH
00:0054 E0-A0 5A-F2             10035   	sb	0f25ah.6
                                10036   
                                10037   ;;	PB7C1  = 1;		// PortB Bit7 set to CMOS Output...
                                10038   CLINEA 0000H 0001H 0CCDH 0002H 0031H
00:0058 F0-A0 5B-F2             10039   	sb	0f25bh.7
                                10040   
                                10041   ;;	PB7C0  = 1;	
                                10042   CLINEA 0000H 0001H 0CCEH 0002H 000DH
00:005C F0-A0 5A-F2             10043   	sb	0f25ah.7
                                10044   
                                10045   ;;	PB0MD1  = 0;	// PortB Bit0 set to General Purpose Output...
                                10046   CLINEA 0000H 0001H 0CD1H 0002H 003CH
00:0060 82-A0 5D-F2             10047   	rb	0f25dh.0
                                10048   
                                10049   ;;	PB0MD0  = 0;	
                                10050   CLINEA 0000H 0001H 0CD2H 0002H 000EH
00:0064 82-A0 5C-F2             10051   	rb	0f25ch.0
                                10052   
                                10053   ;;	PB1MD1  = 0;	// PortB Bit1 set to General Purpose Output...
                                10054   CLINEA 0000H 0001H 0CD3H 0002H 003CH
00:0068 92-A0 5D-F2             10055   	rb	0f25dh.1
                                10056   
                                10057   ;;	PB1MD0  = 0;	
                                10058   CLINEA 0000H 0001H 0CD4H 0002H 000EH
00:006C 92-A0 5C-F2             10059   	rb	0f25ch.1
                                10060   
                                10061   ;;	PB2MD1  = 0;	// PortB Bit2 set to General Purpose Output...
                                10062   CLINEA 0000H 0001H 0CD5H 0002H 003CH
00:0070 A2-A0 5D-F2             10063   	rb	0f25dh.2
                                10064   
                                10065   ;;	PB2MD0  = 0;	
                                10066   CLINEA 0000H 0001H 0CD6H 0002H 000EH
00:0074 A2-A0 5C-F2             10067   	rb	0f25ch.2
                                10068   
                                10069   ;;	PB3MD1  = 0;	// PortB Bit3 set to General Purpose Output...
                                10070   CLINEA 0000H 0001H 0CD7H 0002H 003CH
00:0078 B2-A0 5D-F2             10071   	rb	0f25dh.3
                                10072   
                                10073   ;;	PB3MD0  = 0;	
                                10074   CLINEA 0000H 0001H 0CD8H 0002H 000EH
00:007C B2-A0 5C-F2             10075   	rb	0f25ch.3
                                10076   
                                10077   ;;	PB4MD1  = 0;	// PortB Bit4 set to General Purpose Output...
                                10078   CLINEA 0000H 0001H 0CD9H 0002H 003CH
00:0080 C2-A0 5D-F2             10079   	rb	0f25dh.4
                                10080   
                                10081   ;;	PB4MD0  = 0;	
                                10082   CLINEA 0000H 0001H 0CDAH 0002H 000EH
00:0084 C2-A0 5C-F2             10083   	rb	0f25ch.4
                                10084   
                                10085   ;;	PB5MD1  = 0;	// PortB Bit5 set to General Purpose Output...
                                10086   CLINEA 0000H 0001H 0CDBH 0002H 003CH
00:0088 D2-A0 5D-F2             10087   	rb	0f25dh.5
                                10088   
                                10089   ;;	PB5MD0  = 0;
                                10090   CLINEA 0000H 0001H 0CDCH 0002H 000DH
00:008C D2-A0 5C-F2             10091   	rb	0f25ch.5
                                10092   
                                10093   ;;	PB6MD1  = 0;	// PortB Bit6 set to General Purpose Output...
                                10094   CLINEA 0000H 0001H 0CDDH 0002H 003CH
00:0090 E2-A0 5D-F2             10095   	rb	0f25dh.6
                                10096   
                                10097   ;;	PB6MD0  = 0;	
                                10098   CLINEA 0000H 0001H 0CDEH 0002H 000EH
00:0094 E2-A0 5C-F2             10099   	rb	0f25ch.6
                                10100   
                                10101   ;;	PB7MD1  = 0;	// PortB Bit7 set to General Purpose Output...
                                10102   CLINEA 0000H 0001H 0CDFH 0002H 003CH
00:0098 F2-A0 5D-F2             10103   	rb	0f25dh.7
                                10104   
                                10105   ;;	PB7MD0  = 0;
                                10106   CLINEA 0000H 0001H 0CE0H 0002H 000DH
00:009C F2-A0 5C-F2             10107   	rb	0f25ch.7
                                10108   
                                10109   ;;	PB0D = 0;		// B.0 Output OFF....
                                10110   CLINEA 0000H 0001H 0CE3H 0002H 0021H
00:00A0 82-A0 58-F2             10111   	rb	0f258h.0
                                10112   
                                10113   ;;	PB1D = 0;		// B.1 Output OFF....
                                10114   CLINEA 0000H 0001H 0CE4H 0002H 0021H
00:00A4 92-A0 58-F2             10115   	rb	0f258h.1
                                10116   
                                10117   ;;	PB2D = 0;		// B.2 Output OFF....
                                10118   CLINEA 0000H 0001H 0CE5H 0002H 0021H
00:00A8 A2-A0 58-F2             10119   	rb	0f258h.2
                                10120   
                                10121   ;;	PB3D = 0;		// B.3 Output OFF....
                                10122   CLINEA 0000H 0001H 0CE6H 0002H 0021H
00:00AC B2-A0 58-F2             10123   	rb	0f258h.3
                                10124   
                                10125   ;;	PB4D = 0;		// B.4 Output OFF....
                                10126   CLINEA 0000H 0001H 0CE7H 0002H 0021H
00:00B0 C2-A0 58-F2             10127   	rb	0f258h.4
                                10128   
                                10129   ;;	PB5D = 0;		// B.5 Output OFF....
                                10130   CLINEA 0000H 0001H 0CE8H 0002H 0021H
00:00B4 D2-A0 58-F2             10131   	rb	0f258h.5
                                10132   
                                10133   ;;	PB6D = 0;		// B.6 Output OFF....
                                10134   CLINEA 0000H 0001H 0CE9H 0002H 0021H
00:00B8 E2-A0 58-F2             10135   	rb	0f258h.6
                                10136   
                                10137   ;;	PB7D = 0;		// B.7 Output OFF....
                                10138   CLINEA 0000H 0001H 0CEAH 0002H 0021H
00:00BC F2-A0 58-F2             10139   	rb	0f258h.7
                                10140   
                                10141   ;;	main_clrWDT(); 	// Clear WDT
                                10142   CLINEA 0000H 0001H 0CECH 0002H 001DH
00:00C0 00-F0'00-00'            10143   	b	_main_clrWDT
                                10144   CBLOCKEND 211 2 3310
                                10145   CLINEA 0000H 0001H 0CEEH 0001H 0001H
                                10146   CBLOCKEND 211 1 3310
                                10147   CFUNCTIONEND 211
                                10148   
                                10149   
  --------------------------    10150   	rseg $$PortC_Low$main
                                10151   CFUNCTION 212
                                10152   
00:0000                         10153   _PortC_Low	:
                                10154   CBLOCK 212 1 3316
                                10155   
                                10156   ;;void PortC_Low(void){
                                10157   CLINEA 0000H 0001H 0CF4H 0001H 0015H
                                10158   CBLOCK 212 2 3316
                                10159   
                                10160   ;;	PC0DIR = 0;		// PortC Bit0 set to Output Mode...
                                10161   CLINEA 0000H 0001H 0CFEH 0002H 0031H
00:0000 82-A0 61-F2             10162   	rb	0f261h.0
                                10163   
                                10164   ;;	PC1DIR = 0;		// PortC Bit1 set to Output Mode...
                                10165   CLINEA 0000H 0001H 0CFFH 0002H 0031H
00:0004 92-A0 61-F2             10166   	rb	0f261h.1
                                10167   
                                10168   ;;	PC2DIR = 0;		// PortC Bit2 set to Output Mode...
                                10169   CLINEA 0000H 0001H 0D00H 0002H 0031H
00:0008 A2-A0 61-F2             10170   	rb	0f261h.2
                                10171   
                                10172   ;;	PC3DIR = 0;		// PortC Bit3 set to Output Mode...
                                10173   CLINEA 0000H 0001H 0D01H 0002H 0031H
00:000C B2-A0 61-F2             10174   	rb	0f261h.3
                                10175   
                                10176   ;;	PC4DIR = 0;		// PortC Bit4 set to Output Mode...
                                10177   CLINEA 0000H 0001H 0D02H 0002H 0031H
00:0010 C2-A0 61-F2             10178   	rb	0f261h.4
                                10179   
                                10180   ;;	PC5DIR = 0;		// PortC Bit5 set to Output Mode...
                                10181   CLINEA 0000H 0001H 0D03H 0002H 0031H
00:0014 D2-A0 61-F2             10182   	rb	0f261h.5
                                10183   
                                10184   ;;	PC6DIR = 0;		// PortC Bit6 set to Output Mode...
                                10185   CLINEA 0000H 0001H 0D04H 0002H 0031H
00:0018 E2-A0 61-F2             10186   	rb	0f261h.6
                                10187   
                                10188   ;;	PC7DIR = 0;		// PortC Bit7 set to Output Mode...
                                10189   CLINEA 0000H 0001H 0D05H 0002H 0031H
00:001C F2-A0 61-F2             10190   	rb	0f261h.7
                                10191   
                                10192   ;;	PC0C1  = 1;		// PortC Bit0 set to High-Impedance Output...
                                10193   CLINEA 0000H 0001H 0D08H 0002H 003BH
00:0020 80-A0 63-F2             10194   	sb	0f263h.0
                                10195   
                                10196   ;;	PC0C0  = 1;		
                                10197   CLINEA 0000H 0001H 0D09H 0002H 000EH
00:0024 80-A0 62-F2             10198   	sb	0f262h.0
                                10199   
                                10200   ;;	PC1C1  = 1;		// PortC Bit1 set to High-Impedance Output...
                                10201   CLINEA 0000H 0001H 0D0AH 0002H 003BH
00:0028 90-A0 63-F2             10202   	sb	0f263h.1
                                10203   
                                10204   ;;	PC1C0  = 1;	
                                10205   CLINEA 0000H 0001H 0D0BH 0002H 000DH
00:002C 90-A0 62-F2             10206   	sb	0f262h.1
                                10207   
                                10208   ;;	PC2C1  = 1;		// PortC Bit2 set to High-Impedance Output...
                                10209   CLINEA 0000H 0001H 0D0CH 0002H 003BH
00:0030 A0-A0 63-F2             10210   	sb	0f263h.2
                                10211   
                                10212   ;;	PC2C0  = 1;	
                                10213   CLINEA 0000H 0001H 0D0DH 0002H 000DH
00:0034 A0-A0 62-F2             10214   	sb	0f262h.2
                                10215   
                                10216   ;;	PC3C1  = 1;		// PortC Bit3 set to High-Impedance Output...
                                10217   CLINEA 0000H 0001H 0D0EH 0002H 003BH
00:0038 B0-A0 63-F2             10218   	sb	0f263h.3
                                10219   
                                10220   ;;	PC3C0  = 1;		
                                10221   CLINEA 0000H 0001H 0D0FH 0002H 000EH
00:003C B0-A0 62-F2             10222   	sb	0f262h.3
                                10223   
                                10224   ;;	PC4C1  = 1;		// PortC Bit4 set to High-Impedance Output...
                                10225   CLINEA 0000H 0001H 0D10H 0002H 003BH
00:0040 C0-A0 63-F2             10226   	sb	0f263h.4
                                10227   
                                10228   ;;	PC4C0  = 1;	
                                10229   CLINEA 0000H 0001H 0D11H 0002H 000DH
00:0044 C0-A0 62-F2             10230   	sb	0f262h.4
                                10231   
                                10232   ;;	PC5C1  = 1;		// PortC Bit5 set to High-Impedance Output...
                                10233   CLINEA 0000H 0001H 0D12H 0002H 003BH
00:0048 D0-A0 63-F2             10234   	sb	0f263h.5
                                10235   
                                10236   ;;	PC5C0  = 1;	
                                10237   CLINEA 0000H 0001H 0D13H 0002H 000DH
00:004C D0-A0 62-F2             10238   	sb	0f262h.5
                                10239   
                                10240   ;;	PC6C1  = 1;		// PortC Bit6 set to High-Impedance Output...
                                10241   CLINEA 0000H 0001H 0D14H 0002H 003BH
00:0050 E0-A0 63-F2             10242   	sb	0f263h.6
                                10243   
                                10244   ;;	PC6C0  = 1;	
                                10245   CLINEA 0000H 0001H 0D15H 0002H 000DH
00:0054 E0-A0 62-F2             10246   	sb	0f262h.6
                                10247   
                                10248   ;;	PC7C1  = 1;		// PortC Bit7 set to High-Impedance Output...
                                10249   CLINEA 0000H 0001H 0D16H 0002H 003BH
00:0058 F0-A0 63-F2             10250   	sb	0f263h.7
                                10251   
                                10252   ;;	PC7C0  = 1;	
                                10253   CLINEA 0000H 0001H 0D17H 0002H 000DH
00:005C F0-A0 62-F2             10254   	sb	0f262h.7
                                10255   
                                10256   ;;	PC0MD1  = 0;	// PortC Bit0 set to General Purpose Output...
                                10257   CLINEA 0000H 0001H 0D1AH 0002H 003CH
00:0060 82-A0 65-F2             10258   	rb	0f265h.0
                                10259   
                                10260   ;;	PC0MD0  = 0;	
                                10261   CLINEA 0000H 0001H 0D1BH 0002H 000EH
00:0064 82-A0 64-F2             10262   	rb	0f264h.0
                                10263   
                                10264   ;;	PC1MD1  = 0;	// PortC Bit1 set to General Purpose Output...
                                10265   CLINEA 0000H 0001H 0D1CH 0002H 003CH
00:0068 92-A0 65-F2             10266   	rb	0f265h.1
                                10267   
                                10268   ;;	PC1MD0  = 0;	
                                10269   CLINEA 0000H 0001H 0D1DH 0002H 000EH
00:006C 92-A0 64-F2             10270   	rb	0f264h.1
                                10271   
                                10272   ;;	PC2MD1  = 0;	// PortC Bit2 set to General Purpose Output...
                                10273   CLINEA 0000H 0001H 0D1EH 0002H 003CH
00:0070 A2-A0 65-F2             10274   	rb	0f265h.2
                                10275   
                                10276   ;;	PC2MD0  = 0;	
                                10277   CLINEA 0000H 0001H 0D1FH 0002H 000EH
00:0074 A2-A0 64-F2             10278   	rb	0f264h.2
                                10279   
                                10280   ;;	PC3MD1  = 0;	// PortC Bit3 set to General Purpose Output...
                                10281   CLINEA 0000H 0001H 0D20H 0002H 003CH
00:0078 B2-A0 65-F2             10282   	rb	0f265h.3
                                10283   
                                10284   ;;	PC3MD0  = 0;	
                                10285   CLINEA 0000H 0001H 0D21H 0002H 000EH
00:007C B2-A0 64-F2             10286   	rb	0f264h.3
                                10287   
                                10288   ;;	PC4MD1  = 0;	// PortC Bit4 set to General Purpose Output...
                                10289   CLINEA 0000H 0001H 0D22H 0002H 003CH
00:0080 C2-A0 65-F2             10290   	rb	0f265h.4
                                10291   
                                10292   ;;	PC4MD0  = 0;	
                                10293   CLINEA 0000H 0001H 0D23H 0002H 000EH
00:0084 C2-A0 64-F2             10294   	rb	0f264h.4
                                10295   
                                10296   ;;	PC5MD1  = 0;	// PortC Bit5 set to General Purpose Output...
                                10297   CLINEA 0000H 0001H 0D24H 0002H 003CH
00:0088 D2-A0 65-F2             10298   	rb	0f265h.5
                                10299   
                                10300   ;;	PC5MD0  = 0;
                                10301   CLINEA 0000H 0001H 0D25H 0002H 000DH
00:008C D2-A0 64-F2             10302   	rb	0f264h.5
                                10303   
                                10304   ;;	PC6MD1  = 0;	// PortC Bit6 set to General Purpose Output...
                                10305   CLINEA 0000H 0001H 0D26H 0002H 003CH
00:0090 E2-A0 65-F2             10306   	rb	0f265h.6
                                10307   
                                10308   ;;	PC6MD0  = 0;	
                                10309   CLINEA 0000H 0001H 0D27H 0002H 000EH
00:0094 E2-A0 64-F2             10310   	rb	0f264h.6
                                10311   
                                10312   ;;	PC7MD1  = 0;	// PortC Bit7 set to General Purpose Output...
                                10313   CLINEA 0000H 0001H 0D28H 0002H 003CH
00:0098 F2-A0 65-F2             10314   	rb	0f265h.7
                                10315   
                                10316   ;;	PC7MD0  = 0;
                                10317   CLINEA 0000H 0001H 0D29H 0002H 000DH
00:009C F2-A0 64-F2             10318   	rb	0f264h.7
                                10319   
                                10320   ;;	PC0D = 0;		// C.0 Output OFF....
                                10321   CLINEA 0000H 0001H 0D2CH 0002H 0021H
00:00A0 82-A0 60-F2             10322   	rb	0f260h.0
                                10323   
                                10324   ;;	PC1D = 0;		// C.1 Output OFF....
                                10325   CLINEA 0000H 0001H 0D2DH 0002H 0021H
00:00A4 92-A0 60-F2             10326   	rb	0f260h.1
                                10327   
                                10328   ;;	PC2D = 0;		// C.2 Output OFF....
                                10329   CLINEA 0000H 0001H 0D2EH 0002H 0021H
00:00A8 A2-A0 60-F2             10330   	rb	0f260h.2
                                10331   
                                10332   ;;	PC3D = 0;		// C.3 Output OFF....
                                10333   CLINEA 0000H 0001H 0D2FH 0002H 0021H
00:00AC B2-A0 60-F2             10334   	rb	0f260h.3
                                10335   
                                10336   ;;	PC4D = 0;		// C.4 Output OFF....
                                10337   CLINEA 0000H 0001H 0D30H 0002H 0021H
00:00B0 C2-A0 60-F2             10338   	rb	0f260h.4
                                10339   
                                10340   ;;	PC5D = 0;		// C.5 Output OFF....
                                10341   CLINEA 0000H 0001H 0D31H 0002H 0021H
00:00B4 D2-A0 60-F2             10342   	rb	0f260h.5
                                10343   
                                10344   ;;	PC6D = 0;		// C.6 Output OFF....
                                10345   CLINEA 0000H 0001H 0D32H 0002H 0021H
00:00B8 E2-A0 60-F2             10346   	rb	0f260h.6
                                10347   
                                10348   ;;	PC7D = 0;		// C.7 Output OFF....
                                10349   CLINEA 0000H 0001H 0D33H 0002H 0021H
00:00BC F2-A0 60-F2             10350   	rb	0f260h.7
                                10351   
                                10352   ;;	main_clrWDT(); 	// Clear WDT
                                10353   CLINEA 0000H 0001H 0D35H 0002H 001DH
00:00C0 00-F0'00-00'            10354   	b	_main_clrWDT
                                10355   CBLOCKEND 212 2 3383
                                10356   CLINEA 0000H 0001H 0D37H 0001H 0001H
                                10357   CBLOCKEND 212 1 3383
                                10358   CFUNCTIONEND 212
                                10359   
                                10360   
  --------------------------    10361   	rseg $$PortD_Low$main
                                10362   CFUNCTION 213
                                10363   
00:0000                         10364   _PortD_Low	:
                                10365   CBLOCK 213 1 3389
                                10366   
                                10367   ;;void PortD_Low(void){
                                10368   CLINEA 0000H 0001H 0D3DH 0001H 0015H
                                10369   CBLOCK 213 2 3389
                                10370   
                                10371   ;;	PD0DIR = 0;		// PortD Bit0 set to Output Mode...
                                10372   CLINEA 0000H 0001H 0D46H 0002H 0031H
00:0000 82-A0 69-F2             10373   	rb	0f269h.0
                                10374   
                                10375   ;;	PD1DIR = 0;		// PortD Bit1 set to Output Mode...
                                10376   CLINEA 0000H 0001H 0D47H 0002H 0031H
00:0004 92-A0 69-F2             10377   	rb	0f269h.1
                                10378   
                                10379   ;;	PD2DIR = 0;		// PortD Bit2 set to Output Mode...
                                10380   CLINEA 0000H 0001H 0D48H 0002H 0031H
00:0008 A2-A0 69-F2             10381   	rb	0f269h.2
                                10382   
                                10383   ;;	PD3DIR = 0;		// PortD Bit3 set to Output Mode...
                                10384   CLINEA 0000H 0001H 0D49H 0002H 0031H
00:000C B2-A0 69-F2             10385   	rb	0f269h.3
                                10386   
                                10387   ;;	PD4DIR = 0;		// PortD Bit4 set to Output Mode...
                                10388   CLINEA 0000H 0001H 0D4AH 0002H 0031H
00:0010 C2-A0 69-F2             10389   	rb	0f269h.4
                                10390   
                                10391   ;;	PD5DIR = 0;		// PortD Bit5 set to Output Mode...
                                10392   CLINEA 0000H 0001H 0D4BH 0002H 0031H
00:0014 D2-A0 69-F2             10393   	rb	0f269h.5
                                10394   
                                10395   ;;	PD0C1= 1;		// PortD Bit0 set to CMOS Output...
                                10396   CLINEA 0000H 0001H 0D4EH 0002H 002FH
00:0018 80-A0 6B-F2             10397   	sb	0f26bh.0
                                10398   
                                10399   ;;	PD0C0= 1;		
                                10400   CLINEA 0000H 0001H 0D4FH 0002H 000CH
00:001C 80-A0 6A-F2             10401   	sb	0f26ah.0
                                10402   
                                10403   ;;	PD1C1= 1;		// PortD Bit1 set to CMOS Output...
                                10404   CLINEA 0000H 0001H 0D50H 0002H 002FH
00:0020 90-A0 6B-F2             10405   	sb	0f26bh.1
                                10406   
                                10407   ;;	PD1C0= 1;	
                                10408   CLINEA 0000H 0001H 0D51H 0002H 000BH
00:0024 90-A0 6A-F2             10409   	sb	0f26ah.1
                                10410   
                                10411   ;;	PD2C1= 1;		// PortD Bit2 set to CMOS Output...
                                10412   CLINEA 0000H 0001H 0D52H 0002H 002FH
00:0028 A0-A0 6B-F2             10413   	sb	0f26bh.2
                                10414   
                                10415   ;;	PD2C0= 1;	
                                10416   CLINEA 0000H 0001H 0D53H 0002H 000BH
00:002C A0-A0 6A-F2             10417   	sb	0f26ah.2
                                10418   
                                10419   ;;	PD3C1= 1;		// PortD Bit3 set to CMOS Output...
                                10420   CLINEA 0000H 0001H 0D54H 0002H 002FH
00:0030 B0-A0 6B-F2             10421   	sb	0f26bh.3
                                10422   
                                10423   ;;	PD3C0= 1;		
                                10424   CLINEA 0000H 0001H 0D55H 0002H 000CH
00:0034 B0-A0 6A-F2             10425   	sb	0f26ah.3
                                10426   
                                10427   ;;	PD4C1= 1;		// PortD Bit4 set to CMOS Output...
                                10428   CLINEA 0000H 0001H 0D56H 0002H 002FH
00:0038 C0-A0 6B-F2             10429   	sb	0f26bh.4
                                10430   
                                10431   ;;	PD4C0= 1;	
                                10432   CLINEA 0000H 0001H 0D57H 0002H 000BH
00:003C C0-A0 6A-F2             10433   	sb	0f26ah.4
                                10434   
                                10435   ;;	PD5C1= 1;		// PortD Bit5 set to CMOS Output...
                                10436   CLINEA 0000H 0001H 0D58H 0002H 002FH
00:0040 D0-A0 6B-F2             10437   	sb	0f26bh.5
                                10438   
                                10439   ;;	PD5C0= 1;	
                                10440   CLINEA 0000H 0001H 0D59H 0002H 000BH
00:0044 D0-A0 6A-F2             10441   	sb	0f26ah.5
                                10442   
                                10443   ;;	PD0D = 0;		// D.0 Output OFF....
                                10444   CLINEA 0000H 0001H 0D5CH 0002H 0021H
00:0048 82-A0 68-F2             10445   	rb	0f268h.0
                                10446   
                                10447   ;;	PD1D = 0;		// D.1 Output OFF....
                                10448   CLINEA 0000H 0001H 0D5DH 0002H 0021H
00:004C 92-A0 68-F2             10449   	rb	0f268h.1
                                10450   
                                10451   ;;	PD2D = 0;		// D.2 Output OFF....
                                10452   CLINEA 0000H 0001H 0D5EH 0002H 0021H
00:0050 A2-A0 68-F2             10453   	rb	0f268h.2
                                10454   
                                10455   ;;	PD3D = 0;		// D.3 Output OFF....
                                10456   CLINEA 0000H 0001H 0D5FH 0002H 0021H
00:0054 B2-A0 68-F2             10457   	rb	0f268h.3
                                10458   
                                10459   ;;	PD4D = 0;		// D.4 Output OFF....
                                10460   CLINEA 0000H 0001H 0D60H 0002H 0021H
00:0058 C2-A0 68-F2             10461   	rb	0f268h.4
                                10462   
                                10463   ;;	PD5D = 0;		// D.5 Output OFF....
                                10464   CLINEA 0000H 0001H 0D61H 0002H 0021H
00:005C D2-A0 68-F2             10465   	rb	0f268h.5
                                10466   
                                10467   ;;	main_clrWDT(); 	// Clear WDT
                                10468   CLINEA 0000H 0001H 0D64H 0002H 001DH
00:0060 00-F0'00-00'            10469   	b	_main_clrWDT
                                10470   CBLOCKEND 213 2 3430
                                10471   CLINEA 0000H 0001H 0D66H 0001H 0001H
                                10472   CBLOCKEND 213 1 3430
                                10473   CFUNCTIONEND 213
                                10474   
                                10475   
  --------------------------    10476   	rseg $$PortA_Digital_Inputs$main
                                10477   CFUNCTION 214
                                10478   
00:0000                         10479   _PortA_Digital_Inputs	:
                                10480   CBLOCK 214 1 3436
                                10481   
                                10482   ;;void PortA_Digital_Inputs(void){
                                10483   CLINEA 0000H 0001H 0D6CH 0001H 0020H
                                10484   CBLOCK 214 2 3436
                                10485   
                                10486   ;;	PA0DIR = 1;		// PortA Bit0 set to Input Mode...
                                10487   CLINEA 0000H 0001H 0D76H 0002H 0030H
00:0000 80-A0 51-F2             10488   	sb	0f251h.0
                                10489   
                                10490   ;;	PA1DIR = 1;		// PortA Bit1 set to Input Mode...
                                10491   CLINEA 0000H 0001H 0D77H 0002H 0030H
00:0004 90-A0 51-F2             10492   	sb	0f251h.1
                                10493   
                                10494   ;;	PA2DIR = 1;		// PortA Bit2 set to Input Mode...
                                10495   CLINEA 0000H 0001H 0D78H 0002H 0030H
00:0008 A0-A0 51-F2             10496   	sb	0f251h.2
                                10497   
                                10498   ;;	PA0C1  = 1;		// PortA Bit0 set to Input with Pull-Up Resistor...
                                10499   CLINEA 0000H 0001H 0D7CH 0002H 0041H
00:000C 80-A0 53-F2             10500   	sb	0f253h.0
                                10501   
                                10502   ;;	PA0C0  = 0;		
                                10503   CLINEA 0000H 0001H 0D7DH 0002H 000EH
00:0010 82-A0 52-F2             10504   	rb	0f252h.0
                                10505   
                                10506   ;;	PA1C1  = 1;		// PortA Bit1 set to Input with Pull-Up Resistor...
                                10507   CLINEA 0000H 0001H 0D7EH 0002H 0041H
00:0014 90-A0 53-F2             10508   	sb	0f253h.1
                                10509   
                                10510   ;;	PA1C0  = 0;	
                                10511   CLINEA 0000H 0001H 0D7FH 0002H 000DH
00:0018 92-A0 52-F2             10512   	rb	0f252h.1
                                10513   
                                10514   ;;	PA2C1  = 1;		// PortA Bit2 set to Input with Pull-Up Resistor...
                                10515   CLINEA 0000H 0001H 0D80H 0002H 0041H
00:001C A0-A0 53-F2             10516   	sb	0f253h.2
                                10517   
                                10518   ;;	PA2C0  = 0;	
                                10519   CLINEA 0000H 0001H 0D81H 0002H 000DH
00:0020 A2-A0 52-F2             10520   	rb	0f252h.2
                                10521   
                                10522   ;;	PA0MD1  = 0;	// PortA Bit0 set to General Purpose I/O...
                                10523   CLINEA 0000H 0001H 0D84H 0002H 0039H
00:0024 82-A0 55-F2             10524   	rb	0f255h.0
                                10525   
                                10526   ;;	PA0MD0  = 0;	
                                10527   CLINEA 0000H 0001H 0D85H 0002H 000EH
00:0028 82-A0 54-F2             10528   	rb	0f254h.0
                                10529   
                                10530   ;;	PA1MD1  = 0;	// PortA Bit1 set to General Purpose I/O...
                                10531   CLINEA 0000H 0001H 0D86H 0002H 0039H
00:002C 92-A0 55-F2             10532   	rb	0f255h.1
                                10533   
                                10534   ;;	PA1MD0  = 0;	
                                10535   CLINEA 0000H 0001H 0D87H 0002H 000EH
00:0030 92-A0 54-F2             10536   	rb	0f254h.1
                                10537   
                                10538   ;;	PA2MD1  = 0;	// PortA Bit2 set to General Purpose I/O...
                                10539   CLINEA 0000H 0001H 0D88H 0002H 0039H
00:0034 A2-A0 55-F2             10540   	rb	0f255h.2
                                10541   
                                10542   ;;	PA2MD0  = 0;	
                                10543   CLINEA 0000H 0001H 0D89H 0002H 000EH
00:0038 A2-A0 54-F2             10544   	rb	0f254h.2
                                10545   
                                10546   ;;	main_clrWDT(); 	// Clear WDT
                                10547   CLINEA 0000H 0001H 0D8BH 0002H 001DH
00:003C 00-F0'00-00'            10548   	b	_main_clrWDT
                                10549   CBLOCKEND 214 2 3469
                                10550   CLINEA 0000H 0001H 0D8DH 0001H 0001H
                                10551   CBLOCKEND 214 1 3469
                                10552   CFUNCTIONEND 214
                                10553   
                                10554   
  --------------------------    10555   	rseg $$NOP$main
                                10556   CFUNCTION 249
                                10557   
00:0000                         10558   _NOP	:
                                10559   CBLOCK 249 1 3532
                                10560   
                                10561   ;;{
                                10562   CLINEA 0000H 0001H 0DCCH 0001H 0001H
00:0000 CE-F8                   10563   	push	lr
00:0002 6E-F4                   10564   	push	xr4
00:0004 5E-F8                   10565   	push	er8
00:0006 00-88                   10566   	mov	r8,	r0
                                10567   CBLOCK 249 2 3532
                                10568   CRET 0006H
                                10569   CARGUMENT 46H 0001H 001CH "sec" 02H 00H 00H
                                10570   CLOCAL 46H 0002H 0027H 0002H "timerThres" 02H 00H 01H
                                10571   CLOCAL 46H 0001H 0018H 0002H "TimeFlag" 02H 00H 00H
                                10572   CLOCAL 46H 0001H 0016H 0002H "TempSec" 02H 00H 00H
                                10573   CLOCAL 46H 0002H 0024H 0002H "timer" 02H 00H 01H
                                10574   CLOCAL 4AH 0002H 0000H 0002H "timertest" 02H 00H 01H
                                10575   
                                10576   ;;	tm_init(TM_CH_NO_AB);
                                10577   CLINEA 0000H 0001H 0DD3H 0002H 0016H
00:0008 01 00                   10578   	mov	r0,	#01h
00:000A 01-F0'00-00'            10579   	bl	_tm_init
                                10580   
                                10581   ;;	TempSec = sec;
                                10582   CLINEA 0000H 0001H 0DD4H 0002H 000FH
00:000E 80-82                   10583   	mov	r2,	r8
                                10584   
                                10585   ;;	TimeFlag = 0;
                                10586   CLINEA 0000H 0001H 0DD5H 0002H 000EH
00:0010 00 04                   10587   	mov	r4,	#00h
                                10588   
                                10589   ;;	tm_setABSource(TM_CS_LSCLK);
                                10590   CLINEA 0000H 0000H 018DH 0002H 0015H
00:0012 82-A0 EA-F8             10591   	rb	0f8eah.0
                                10592   
                                10593   ;;	tm_setABSource(TM_CS_LSCLK);
                                10594   CLINEA 0000H 0000H 018EH 0002H 001AH
00:0016 92-A0 EA-F8             10595   	rb	0f8eah.1
                                10596   
                                10597   ;;	tm_setABData(0xffff);
                                10598   CLINEA 0000H 0000H 0157H 0002H 0025H
00:001A FF 00                   10599   	mov	r0,	#0ffh
00:001C 11-90 E8-F8             10600   	st	r0,	0f8e8h
                                10601   
                                10602   ;;	tm_setABData(0xffff);
                                10603   CLINEA 0000H 0000H 0158H 0002H 0023H
00:0020 11-90 EC-F8             10604   	st	r0,	0f8ech
                                10605   
                                10606   ;;	if(sec == 1){
                                10607   CLINEA 0000H 0001H 0DDAH 0002H 000EH
00:0024 01 78                   10608   	cmp	r8,	#01h
00:0026 02 C8                   10609   	bne	_$L649
                                10610   CBLOCK 249 3 3546
                                10611   
                                10612   ;;		timerThres = 0x7FFF;
                                10613   CLINEA 0000H 0001H 0DDBH 0003H 0016H
00:0028 FF 06                   10614   	mov	r6,	#0ffh
00:002A 7F 07                   10615   	mov	r7,	#07fh
                                10616   
                                10617   ;;		TimeFlag = 0;
                                10618   CLINEA 0000H 0001H 0DDCH 0003H 000FH
                                10619   CBLOCKEND 249 3 3549
                                10620   
                                10621   ;;	}
                                10622   CLINEA 0000H 0000H 0DDDH 0002H 0002H
00:002C                         10623   _$L649 :
                                10624   
                                10625   ;;	if(sec == 2){
                                10626   CLINEA 0000H 0001H 0DDEH 0002H 000EH
00:002C 02 78                   10627   	cmp	r8,	#02h
00:002E 02 C8                   10628   	bne	_$L651
                                10629   CBLOCK 249 4 3550
                                10630   
                                10631   ;;		timerThres = 0xFFFF;
                                10632   CLINEA 0000H 0001H 0DDFH 0003H 0016H
00:0030 7F E6                   10633   	mov	er6,	#-1
                                10634   
                                10635   ;;		TimeFlag = 0;
                                10636   CLINEA 0000H 0001H 0DE0H 0003H 000FH
00:0032 00 04                   10637   	mov	r4,	#00h
                                10638   CBLOCKEND 249 4 3553
                                10639   
                                10640   ;;	}
                                10641   CLINEA 0000H 0000H 0DE1H 0002H 0002H
00:0034                         10642   _$L651 :
                                10643   
                                10644   ;;	if(sec > 2){
                                10645   CLINEA 0000H 0001H 0DE2H 0002H 000DH
00:0034 02 78                   10646   	cmp	r8,	#02h
00:0036 0C C3                   10647   	ble	_$L661
                                10648   CBLOCK 249 5 3554
                                10649   
                                10650   ;;	while(TempSec > 1){
                                10651   CLINEA 0000H 0000H 0DE3H 0001H 0001H
00:0038 02 CE                   10652   	bal	_$L671
                                10653   
                                10654   ;;	while(TempSec > 1){
                                10655   CLINEA 0000H 0000H 0DE3H 0002H 0014H
00:003A                         10656   _$L657 :
                                10657   CBLOCK 249 6 3555
                                10658   
                                10659   ;;		TempSec -= 2;
                                10660   CLINEA 0000H 0001H 0DE4H 0003H 000FH
00:003A FE 12                   10661   	add	r2,	#0feh
                                10662   
                                10663   ;;		TimeFlag++;
                                10664   CLINEA 0000H 0000H 0DE5H 0003H 000DH
00:003C 01 14                   10665   	add	r4,	#01h
                                10666   CBLOCKEND 249 6 3558
                                10667   
                                10668   ;;	while(TempSec > 1){
                                10669   CLINEA 0000H 0000H 0DE3H 0001H 0001H
00:003E                         10670   _$L671 :
                                10671   
                                10672   ;;	while(TempSec > 1){
                                10673   CLINEA 0000H 0000H 0DE3H 000EH 0013H
00:003E 01 72                   10674   	cmp	r2,	#01h
00:0040 FC C2                   10675   	bgt	_$L657
                                10676   
                                10677   ;;	if(TempSec == 1){
                                10678   CLINEA 0000H 0001H 0DE7H 0002H 0012H
00:0042 01 72                   10679   	cmp	r2,	#01h
00:0044 03 C8                   10680   	bne	_$L659
                                10681   CBLOCK 249 7 3559
                                10682   
                                10683   ;;		timerThres = 0x7FFF;
                                10684   CLINEA 0000H 0001H 0DE8H 0003H 0016H
00:0046 FF 06                   10685   	mov	r6,	#0ffh
00:0048 7F 07                   10686   	mov	r7,	#07fh
                                10687   CBLOCKEND 249 7 3561
                                10688   
                                10689   ;;	else{
                                10690   CLINEA 0000H 0001H 0DEAH 0002H 0006H
00:004A 02 CE                   10691   	bal	_$L661
00:004C                         10692   _$L659 :
                                10693   CBLOCK 249 8 3562
                                10694   
                                10695   ;;		timerThres = 0xFFFF;
                                10696   CLINEA 0000H 0001H 0DEBH 0003H 0016H
00:004C 7F E6                   10697   	mov	er6,	#-1
                                10698   
                                10699   ;;		TimeFlag--;
                                10700   CLINEA 0000H 0000H 0DECH 0003H 000DH
00:004E FF 14                   10701   	add	r4,	#0ffh
                                10702   CBLOCKEND 249 8 3565
                                10703   
                                10704   ;;	}
                                10705   CLINEA 0000H 0000H 0DEDH 0002H 0002H
00:0050                         10706   _$L661 :
                                10707   CBLOCKEND 249 5 3566
                                10708   
                                10709   ;;	main_clrWDT();	
                                10710   CLINEA 0000H 0001H 0DF1H 0002H 0010H
00:0050 01-F0'00-00'            10711   	bl	_main_clrWDT
                                10712   
                                10713   ;;	tm_startAB();
                                10714   CLINEA 0000H 0001H 00D1H 0002H 000AH
00:0054 00 00                   10715   	mov	r0,	#00h
00:0056 11-90 E9-F8             10716   	st	r0,	0f8e9h
                                10717   
                                10718   ;;	tm_startAB();
                                10719   CLINEA 0000H 0000H 00D2H 0002H 000BH
00:005A 80-A0 EB-F8             10720   	sb	0f8ebh.0
                                10721   
                                10722   ;;	timer = tm_getABCounter();
                                10723   CLINEA 0000H 0000H 0120H 0002H 001BH
00:005E 10-90 E9-F8             10724   	l	r0,	0f8e9h
00:0062 00 01                   10725   	mov	r1,	#00h
00:0064 05-F2                   10726   	mov	er2,	er0
                                10727   
                                10728   ;;	timer = tm_getABCounter();
                                10729   CLINEA 0000H 0000H 0121H 0002H 0014H
00:0066 10-90 ED-F8             10730   	l	r0,	0f8edh
00:006A 03-83                   10731   	or	r3,	r0
                                10732   
                                10733   ;;	timer = tm_getABCounter();
                                10734   CLINEA 0000H 0000H 0122H 0002H 000CH
00:006C 25-F0                   10735   	mov	er0,	er2
                                10736   
                                10737   ;;	while(timer < timerThres){
                                10738   CLINEA 0000H 0001H 0DF5H 0002H 001BH
00:006E 08 CE                   10739   	bal	_$L664
00:0070                         10740   _$L666 :
                                10741   CBLOCK 249 9 3573
                                10742   
                                10743   ;;		timer = tm_getABCounter();
                                10744   CLINEA 0000H 0000H 0120H 0002H 001BH
00:0070 10-90 E9-F8             10745   	l	r0,	0f8e9h
00:0074 00 01                   10746   	mov	r1,	#00h
00:0076 05-F2                   10747   	mov	er2,	er0
                                10748   
                                10749   ;;		timer = tm_getABCounter();
                                10750   CLINEA 0000H 0000H 0121H 0002H 0014H
00:0078 10-90 ED-F8             10751   	l	r0,	0f8edh
00:007C 03-83                   10752   	or	r3,	r0
                                10753   
                                10754   ;;		timer = tm_getABCounter();
                                10755   CLINEA 0000H 0000H 0122H 0002H 000CH
00:007E 25-F0                   10756   	mov	er0,	er2
                                10757   
                                10758   ;;		timer = tm_getABCounter();
                                10759   CLINEA 0000H 0000H 0DF6H 0003H 001CH
                                10760   CBLOCKEND 249 9 3576
                                10761   
                                10762   ;;	}
                                10763   CLINEA 0000H 0000H 0DF8H 0002H 0002H
00:0080                         10764   _$L664 :
                                10765   
                                10766   ;;	while(timer < timerThres){
                                10767   CLINEA 0000H 0000H 0DF5H 000EH 0013H
00:0080 67-F0                   10768   	cmp	er0,	er6
00:0082 F6 C1                   10769   	blt	_$L666
                                10770   
                                10771   ;;	if(TimeFlag !=0){
                                10772   CLINEA 0000H 0001H 0DF9H 0002H 0012H
00:0084 00 74                   10773   	cmp	r4,	#00h
00:0086 05 C9                   10774   	beq	_$L669
                                10775   
                                10776   ;;		tm_stopAB();
                                10777   CLINEA 0000H 0001H 0105H 0002H 000BH
00:0088 82-A0 EB-F8             10778   	rb	0f8ebh.0
                                10779   
                                10780   ;;		TimeFlag--;
                                10781   CLINEA 0000H 0000H 0DFBH 0003H 000DH
00:008C FF 14                   10782   	add	r4,	#0ffh
                                10783   
                                10784   ;;		timerThres = 0xFFFF;
                                10785   CLINEA 0000H 0001H 0DFCH 0003H 0016H
00:008E 7F E6                   10786   	mov	er6,	#-1
                                10787   
                                10788   ;;		goto TimerRestart;
                                10789   CLINEA 0000H 0001H 0DFDH 0003H 0014H
00:0090 DF CE                   10790   	bal	_$L661
                                10791   
                                10792   ;;	}
                                10793   CLINEA 0000H 0000H 0DFEH 0002H 0002H
00:0092                         10794   _$L669 :
                                10795   CBLOCKEND 249 2 3583
                                10796   
                                10797   ;;}
                                10798   CLINEA 0000H 0001H 0DFFH 0001H 0001H
00:0092 1E-F8                   10799   	pop	er8
00:0094 2E-F4                   10800   	pop	xr4
00:0096 8E-F2                   10801   	pop	pc
                                10802   CBLOCKEND 249 1 3583
                                10803   CFUNCTIONEND 249
                                10804   
                                10805   
  --------------------------    10806   	rseg $$NOPms$main
                                10807   CFUNCTION 250
                                10808   
00:0000                         10809   _NOPms	:
                                10810   CBLOCK 250 1 3596
                                10811   
                                10812   ;;{
                                10813   CLINEA 0000H 0001H 0E0CH 0001H 0001H
00:0000 CE-F8                   10814   	push	lr
00:0002 6E-F4                   10815   	push	xr4
00:0004 5E-FC                   10816   	push	bp
00:0006 5E-F8                   10817   	push	er8
00:0008 05-F8                   10818   	mov	er8,	er0
                                10819   CBLOCK 250 2 3596
                                10820   CRET 0008H
                                10821   CARGUMENT 46H 0002H 0028H "ms" 02H 00H 01H
                                10822   CLOCAL 46H 0002H 002AH 0002H "timerThres" 02H 00H 01H
                                10823   CLOCAL 46H 0001H 001AH 0002H "TimeFlag" 02H 00H 00H
                                10824   CLOCAL 46H 0002H 0026H 0002H "TempSec" 02H 00H 01H
                                10825   CLOCAL 46H 0002H 0024H 0002H "timer" 02H 00H 01H
                                10826   CLOCAL 4AH 0002H 0000H 0002H "timertest" 02H 00H 01H
                                10827   
                                10828   ;;TempSec = ms;
                                10829   CLINEA 0000H 0001H 0E13H 0001H 000DH
00:000A 05-F4                   10830   	mov	er4,	er0
                                10831   
                                10832   ;;TimeFlag = 0;
                                10833   CLINEA 0000H 0001H 0E14H 0001H 000DH
00:000C 00 06                   10834   	mov	r6,	#00h
                                10835   
                                10836   ;;tm_init(TM_CH_NO_AB);
                                10837   CLINEA 0000H 0001H 0E16H 0001H 0015H
00:000E 01 00                   10838   	mov	r0,	#01h
00:0010 01-F0'00-00'            10839   	bl	_tm_init
                                10840   
                                10841   ;;tm_setABSource(TM_CS_HTBCLK);
                                10842   CLINEA 0000H 0000H 018DH 0002H 0015H
00:0014 80-A0 EA-F8             10843   	sb	0f8eah.0
                                10844   
                                10845   ;;tm_setABSource(TM_CS_HTBCLK);
                                10846   CLINEA 0000H 0000H 018EH 0002H 001AH
00:0018 92-A0 EA-F8             10847   	rb	0f8eah.1
                                10848   
                                10849   ;;tm_setABData(0xffff);
                                10850   CLINEA 0000H 0000H 0157H 0002H 0025H
00:001C FF 00                   10851   	mov	r0,	#0ffh
00:001E 11-90 E8-F8             10852   	st	r0,	0f8e8h
                                10853   
                                10854   ;;tm_setABData(0xffff);
                                10855   CLINEA 0000H 0000H 0158H 0002H 0023H
00:0022 11-90 EC-F8             10856   	st	r0,	0f8ech
                                10857   
                                10858   ;;if(ms < 128){
                                10859   CLINEA 0000H 0001H 0E1AH 0001H 000DH
00:0026 85-F0                   10860   	mov	er0,	er8
00:0028 80 78                   10861   	cmp	r8,	#080h
00:002A 00 59                   10862   	cmpc	r9,	#00h
00:002C 07 C0                   10863   	bge	_$L673
                                10864   CBLOCK 250 3 3610
                                10865   
                                10866   ;;	timerThres = 0x1FF * ms;
                                10867   CLINEA 0000H 0001H 0E1BH 0002H 0019H
00:002E 7B-91                   10868   	sllc	r1,	#07h
00:0030 7A-90                   10869   	sll	r0,	#07h
00:0032 2B-91                   10870   	sllc	r1,	#02h
00:0034 2A-90                   10871   	sll	r0,	#02h
00:0036 88-80                   10872   	sub	r0,	r8
00:0038 99-81                   10873   	subc	r1,	r9
00:003A 05-FC                   10874   	mov	bp,	er0
                                10875   
                                10876   ;;	TimeFlag = 0;
                                10877   CLINEA 0000H 0001H 0E1CH 0002H 000EH
                                10878   CBLOCKEND 250 3 3613
                                10879   
                                10880   ;;}
                                10881   CLINEA 0000H 0000H 0E1DH 0001H 0001H
00:003C                         10882   _$L673 :
                                10883   
                                10884   ;;if(ms == 128){
                                10885   CLINEA 0000H 0001H 0E1EH 0001H 000EH
00:003C 80 78                   10886   	cmp	r8,	#080h
00:003E 00 59                   10887   	cmpc	r9,	#00h
00:0040 02 C8                   10888   	bne	_$L675
                                10889   CBLOCK 250 4 3614
                                10890   
                                10891   ;;	timerThres = 0xFFFF;
                                10892   CLINEA 0000H 0001H 0E1FH 0002H 0015H
00:0042 7F EC                   10893   	mov	bp,	#-1
                                10894   
                                10895   ;;	TimeFlag = 0;
                                10896   CLINEA 0000H 0001H 0E20H 0002H 000EH
00:0044 00 06                   10897   	mov	r6,	#00h
                                10898   CBLOCKEND 250 4 3617
                                10899   
                                10900   ;;}
                                10901   CLINEA 0000H 0000H 0E21H 0001H 0001H
00:0046                         10902   _$L675 :
                                10903   
                                10904   ;;if(ms > 128){
                                10905   CLINEA 0000H 0001H 0E22H 0001H 000DH
00:0046 80 78                   10906   	cmp	r8,	#080h
00:0048 00 59                   10907   	cmpc	r9,	#00h
00:004A 15 C3                   10908   	ble	_$L685
                                10909   CBLOCK 250 5 3618
                                10910   
                                10911   ;;	while(TempSec > 128){
                                10912   CLINEA 0000H 0000H 0E23H 0001H 0001H
00:004C 04 CE                   10913   	bal	_$L695
                                10914   
                                10915   ;;	while(TempSec > 128){
                                10916   CLINEA 0000H 0000H 0E23H 0002H 0016H
00:004E                         10917   _$L681 :
                                10918   CBLOCK 250 6 3619
                                10919   
                                10920   ;;		TempSec -= 128;
                                10921   CLINEA 0000H 0001H 0E24H 0003H 0011H
00:004E 80 10                   10922   	add	r0,	#080h
00:0050 FF 61                   10923   	addc	r1,	#0ffh
00:0052 05-F4                   10924   	mov	er4,	er0
                                10925   
                                10926   ;;		TimeFlag++;
                                10927   CLINEA 0000H 0000H 0E25H 0003H 000DH
00:0054 01 16                   10928   	add	r6,	#01h
                                10929   CBLOCKEND 250 6 3622
                                10930   
                                10931   ;;	while(TempSec > 128){
                                10932   CLINEA 0000H 0000H 0E23H 0001H 0001H
00:0056                         10933   _$L695 :
                                10934   
                                10935   ;;	while(TempSec > 128){
                                10936   CLINEA 0000H 0000H 0E23H 000EH 0013H
00:0056 45-F0                   10937   	mov	er0,	er4
00:0058 80 74                   10938   	cmp	r4,	#080h
00:005A 00 55                   10939   	cmpc	r5,	#00h
00:005C F8 C2                   10940   	bgt	_$L681
                                10941   
                                10942   ;;	if(TempSec != 0){
                                10943   CLINEA 0000H 0001H 0E27H 0002H 0012H
00:005E 45-F4                   10944   	mov	er4,	er4
00:0060 08 C9                   10945   	beq	_$L683
                                10946   CBLOCK 250 7 3623
                                10947   
                                10948   ;;		timerThres = 0x1FF * TempSec;
                                10949   CLINEA 0000H 0001H 0E28H 0003H 001FH
00:0062 7B-91                   10950   	sllc	r1,	#07h
00:0064 7A-90                   10951   	sll	r0,	#07h
00:0066 2B-91                   10952   	sllc	r1,	#02h
00:0068 2A-90                   10953   	sll	r0,	#02h
00:006A 48-80                   10954   	sub	r0,	r4
00:006C 59-81                   10955   	subc	r1,	r5
00:006E 05-FC                   10956   	mov	bp,	er0
                                10957   CBLOCKEND 250 7 3625
                                10958   
                                10959   ;;	else{
                                10960   CLINEA 0000H 0001H 0E2AH 0002H 0006H
00:0070 02 CE                   10961   	bal	_$L685
00:0072                         10962   _$L683 :
                                10963   CBLOCK 250 8 3626
                                10964   
                                10965   ;;		timerThres = 0xFFFF;
                                10966   CLINEA 0000H 0001H 0E2BH 0003H 0016H
00:0072 7F EC                   10967   	mov	bp,	#-1
                                10968   
                                10969   ;;		TimeFlag--;
                                10970   CLINEA 0000H 0000H 0E2CH 0003H 000DH
00:0074 FF 16                   10971   	add	r6,	#0ffh
                                10972   CBLOCKEND 250 8 3629
                                10973   
                                10974   ;;	}
                                10975   CLINEA 0000H 0000H 0E2DH 0002H 0002H
00:0076                         10976   _$L685 :
                                10977   CBLOCKEND 250 5 3630
                                10978   
                                10979   ;;	main_clrWDT();	
                                10980   CLINEA 0000H 0001H 0E31H 0002H 0010H
00:0076 01-F0'00-00'            10981   	bl	_main_clrWDT
                                10982   
                                10983   ;;	tm_startAB();
                                10984   CLINEA 0000H 0001H 00D1H 0002H 000AH
00:007A 00 00                   10985   	mov	r0,	#00h
00:007C 11-90 E9-F8             10986   	st	r0,	0f8e9h
                                10987   
                                10988   ;;	tm_startAB();
                                10989   CLINEA 0000H 0000H 00D2H 0002H 000BH
00:0080 80-A0 EB-F8             10990   	sb	0f8ebh.0
                                10991   
                                10992   ;;	timer = tm_getABCounter();
                                10993   CLINEA 0000H 0000H 0120H 0002H 001BH
00:0084 10-90 E9-F8             10994   	l	r0,	0f8e9h
00:0088 00 01                   10995   	mov	r1,	#00h
00:008A 05-F2                   10996   	mov	er2,	er0
                                10997   
                                10998   ;;	timer = tm_getABCounter();
                                10999   CLINEA 0000H 0000H 0121H 0002H 0014H
00:008C 10-90 ED-F8             11000   	l	r0,	0f8edh
00:0090 03-83                   11001   	or	r3,	r0
                                11002   
                                11003   ;;	timer = tm_getABCounter();
                                11004   CLINEA 0000H 0000H 0122H 0002H 000CH
00:0092 25-F0                   11005   	mov	er0,	er2
                                11006   
                                11007   ;;	while(timer < timerThres){
                                11008   CLINEA 0000H 0001H 0E35H 0002H 001BH
00:0094 08 CE                   11009   	bal	_$L688
00:0096                         11010   _$L690 :
                                11011   CBLOCK 250 9 3637
                                11012   
                                11013   ;;		timer = tm_getABCounter();
                                11014   CLINEA 0000H 0000H 0120H 0002H 001BH
00:0096 10-90 E9-F8             11015   	l	r0,	0f8e9h
00:009A 00 01                   11016   	mov	r1,	#00h
00:009C 05-F2                   11017   	mov	er2,	er0
                                11018   
                                11019   ;;		timer = tm_getABCounter();
                                11020   CLINEA 0000H 0000H 0121H 0002H 0014H
00:009E 10-90 ED-F8             11021   	l	r0,	0f8edh
00:00A2 03-83                   11022   	or	r3,	r0
                                11023   
                                11024   ;;		timer = tm_getABCounter();
                                11025   CLINEA 0000H 0000H 0122H 0002H 000CH
00:00A4 25-F0                   11026   	mov	er0,	er2
                                11027   
                                11028   ;;		timer = tm_getABCounter();
                                11029   CLINEA 0000H 0000H 0E36H 0003H 001CH
                                11030   CBLOCKEND 250 9 3640
                                11031   
                                11032   ;;	}
                                11033   CLINEA 0000H 0000H 0E38H 0002H 0002H
00:00A6                         11034   _$L688 :
                                11035   
                                11036   ;;	while(timer < timerThres){
                                11037   CLINEA 0000H 0000H 0E35H 000EH 0013H
00:00A6 C7-F0                   11038   	cmp	er0,	bp
00:00A8 F6 C1                   11039   	blt	_$L690
                                11040   
                                11041   ;;	if(TimeFlag !=0){
                                11042   CLINEA 0000H 0001H 0E39H 0002H 0012H
00:00AA 00 76                   11043   	cmp	r6,	#00h
00:00AC 05 C9                   11044   	beq	_$L693
                                11045   
                                11046   ;;		tm_stopAB();
                                11047   CLINEA 0000H 0001H 0105H 0002H 000BH
00:00AE 82-A0 EB-F8             11048   	rb	0f8ebh.0
                                11049   
                                11050   ;;		TimeFlag--;
                                11051   CLINEA 0000H 0000H 0E3BH 0003H 000DH
00:00B2 FF 16                   11052   	add	r6,	#0ffh
                                11053   
                                11054   ;;		timerThres = 0xFFFF;
                                11055   CLINEA 0000H 0001H 0E3CH 0003H 0016H
00:00B4 7F EC                   11056   	mov	bp,	#-1
                                11057   
                                11058   ;;		goto TimerRestart;
                                11059   CLINEA 0000H 0001H 0E3DH 0003H 0014H
00:00B6 DF CE                   11060   	bal	_$L685
                                11061   
                                11062   ;;	}
                                11063   CLINEA 0000H 0000H 0E3EH 0002H 0002H
00:00B8                         11064   _$L693 :
                                11065   CBLOCKEND 250 2 3648
                                11066   
                                11067   ;;}
                                11068   CLINEA 0000H 0001H 0E40H 0001H 0001H
00:00B8 1E-F8                   11069   	pop	er8
00:00BA 1E-FC                   11070   	pop	bp
00:00BC 2E-F4                   11071   	pop	xr4
00:00BE 8E-F2                   11072   	pop	pc
                                11073   CBLOCKEND 250 1 3648
                                11074   CFUNCTIONEND 250
                                11075   
                                11076   
  --------------------------    11077   	rseg $$NOPus$main
                                11078   CFUNCTION 251
                                11079   
00:0000                         11080   _NOPus	:
                                11081   CBLOCK 251 1 3658
                                11082   
                                11083   ;;{
                                11084   CLINEA 0000H 0001H 0E4AH 0001H 0001H
                                11085   CBLOCK 251 2 3658
                                11086   
                                11087   ;;	timer_us = 0;
                                11088   CLINEA 0000H 0001H 0E4BH 0002H 000EH
00:0000 00 E0                   11089   	mov	er0,	#0 
00:0002 13-90 00-00'            11090   	st	er0,	NEAR _timer_us
                                11091   
                                11092   ;;	TM8C = 0x00;
                                11093   CLINEA 0000H 0001H 0E4CH 0002H 000DH
00:0006 11-90 E1-F8             11094   	st	r0,	0f8e1h
                                11095   
                                11096   ;;	ETM8 = 1;
                                11097   CLINEA 0000H 0001H 0E4DH 0002H 000AH
00:000A A0-A0 13-F0             11098   	sb	0f013h.2
                                11099   
                                11100   ;;	while(timer_us == 0);
                                11101   CLINEA 0000H 0000H 0E4EH 0002H 0016H
00:000E                         11102   _$L699 :
                                11103   
                                11104   ;;	while(timer_us == 0);
                                11105   CLINEA 0000H 0000H 0E4EH 000EH 0013H
00:000E 12-90 00-00'            11106   	l	er0,	NEAR _timer_us
00:0012 FD C9                   11107   	beq	_$L699
                                11108   CBLOCKEND 251 2 3663
                                11109   
                                11110   ;;}
                                11111   CLINEA 0000H 0001H 0E4FH 0001H 0001H
00:0014 1F-FE                   11112   	rt
                                11113   CBLOCKEND 251 1 3663
                                11114   CFUNCTIONEND 251
                                11115   
                                11116   
  --------------------------    11117   	rseg $$NOP1000$main
                                11118   CFUNCTION 252
                                11119   
00:0000                         11120   _NOP1000	:
                                11121   CBLOCK 252 1 3666
                                11122   
                                11123   ;;{
                                11124   CLINEA 0000H 0001H 0E52H 0001H 0001H
                                11125   CBLOCK 252 2 3666
                                11126   CLOCAL 4AH 0002H 0000H 0002H "ONCNT" 02H 00H 01H
                                11127   CBLOCKEND 252 2 3672
                                11128   
                                11129   ;;}
                                11130   CLINEA 0000H 0001H 0E58H 0001H 0001H
00:0000 1F-FE                   11131   	rt
                                11132   CBLOCKEND 252 1 3672
                                11133   CFUNCTIONEND 252
                                11134   
                                11135   
  --------------------------    11136   	rseg $$approx_arctan2$main
                                11137   CFUNCTION 309
                                11138   
00:0000                         11139   _approx_arctan2	:
                                11140   CBLOCK 309 1 3675
                                11141   
                                11142   ;;{
                                11143   CLINEA 0000H 0001H 0E5BH 0001H 0001H
00:0000 CE-F8                   11144   	push	lr
00:0002 5E-FE                   11145   	push	fp
00:0004 1A-AE                   11146   	mov	fp,	sp
00:0006 E4 E1                   11147   	add	sp,	#-028
00:0008 6E-F8                   11148   	push	xr8
00:000A 6E-F4                   11149   	push	xr4
00:000C 05-F8                   11150   	mov	er8,	er0
00:000E 25-FA                   11151   	mov	er10,	er2
                                11152   CBLOCK 309 2 3675
                                11153   CRET 0026H
                                11154   CARGUMENT 47H 0004H 2928H "y" 02H 00H 03H
                                11155   CARGUMENT 43H 0004H 0004H "x" 02H 00H 03H
                                11156   CLOCAL 43H 0004H 001CH 0002H "YoverX" 02H 00H 03H
                                11157   CLOCAL 47H 0004H 2726H 0002H "result" 02H 00H 03H
                                11158   
                                11159   ;;	float YoverX = y/x;
                                11160   CLINEA 0000H 0001H 0E5CH 0002H 0014H
00:0010 6E-F0                   11161   	push	xr0
00:0012 44 B0                   11162   	l	er0,	4[fp]
00:0014 46 B2                   11163   	l	er2,	6[fp]
00:0016 6E-F0                   11164   	push	xr0
00:0018 01-F0'00-00'            11165   	bl	__fdivu8sw
00:001C 04 E1                   11166   	add	sp,	#4 
00:001E 2E-F0                   11167   	pop	xr0
00:0020 E4 B0                   11168   	st	er0,	-28[fp]
00:0022 E6 B2                   11169   	st	er2,	-26[fp]
                                11170   
                                11171   ;;	float result = 0;
                                11172   CLINEA 0000H 0001H 0E5DH 0002H 0012H
00:0024 00 E4                   11173   	mov	er4,	#0 
00:0026 00 E6                   11174   	mov	er6,	#0 
                                11175   
                                11176   ;;	if(x>0){
                                11177   CLINEA 0000H 0001H 0E5FH 0002H 0009H
00:0028 44 B0                   11178   	l	er0,	4[fp]
00:002A 46 B2                   11179   	l	er2,	6[fp]
00:002C 6E-F0                   11180   	push	xr0
00:002E 00 E0                   11181   	mov	er0,	#0 
00:0030 00 E2                   11182   	mov	er2,	#0 
00:0032 6E-F0                   11183   	push	xr0
00:0034 01-F0'00-00'            11184   	bl	__fcmpu8sw
00:0038 08 E1                   11185   	add	sp,	#8 
00:003A 0B-A0                   11186   	mov	psw,	r0
00:003C 02 C2                   11187   	bgt	_$M68
00:003E 00-F0'00-00'            11188   	b	_$L707
00:0042                         11189   _$M68 :
                                11190   CBLOCK 309 3 3679
                                11191   
                                11192   ;;		result = (0.97239*YoverX)-(0.19195*pow(YoverX,3));
                                11193   CLINEA 0000H 0000H 0E60H 0003H 0034H
00:0042 64 B0                   11194   	l	er0,	-28[fp]
00:0044 66 B2                   11195   	l	er2,	-26[fp]
00:0046 6E-F0                   11196   	push	xr0
00:0048 FC E1                   11197   	add	sp,	#-4
00:004A 01-F0'00-00'            11198   	bl	__ftodu8sw
00:004E 3E-F0                   11199   	pop	qr0
00:0050 EB-F0 F8-FF             11200   	lea	-8[fp]
00:0054 37-90                   11201   	st	qr0,	[ea]
00:0056 7E-F0                   11202   	push	qr0
00:0058 59 00                   11203   	mov	r0,	#059h
00:005A A3 01                   11204   	mov	r1,	#0a3h
00:005C 1E 02                   11205   	mov	r2,	#01eh
00:005E A2 03                   11206   	mov	r3,	#0a2h
00:0060 D1 04                   11207   	mov	r4,	#0d1h
00:0062 1D 05                   11208   	mov	r5,	#01dh
00:0064 EF 06                   11209   	mov	r6,	#0efh
00:0066 3F 07                   11210   	mov	r7,	#03fh
00:0068 7E-F0                   11211   	push	qr0
00:006A 01-F0'00-00'            11212   	bl	__dmulu8sw
00:006E 08 E1                   11213   	add	sp,	#8 
00:0070 3E-F0                   11214   	pop	qr0
00:0072 EB-F0 F0-FF             11215   	lea	-16[fp]
00:0076 37-90                   11216   	st	qr0,	[ea]
00:0078 00 E0                   11217   	mov	er0,	#0 
00:007A 00 E2                   11218   	mov	er2,	#0 
00:007C 00 E4                   11219   	mov	er4,	#0 
00:007E 08 06                   11220   	mov	r6,	#08h
00:0080 40 07                   11221   	mov	r7,	#040h
00:0082 7E-F0                   11222   	push	qr0
00:0084 EB-F0 F8-FF             11223   	lea	-8[fp]
00:0088 36-90                   11224   	l	qr0,	[ea]
00:008A 7E-F0                   11225   	push	qr0
00:008C E5-F0                   11226   	mov	er0,	fp
00:008E E8 E0                   11227   	add	er0,	#-24
00:0090 01-F0'00-00'            11228   	bl	_pow
00:0094 10 E1                   11229   	add	sp,	#16
00:0096 EB-F0 F0-FF             11230   	lea	-16[fp]
00:009A 36-90                   11231   	l	qr0,	[ea]
00:009C 7E-F0                   11232   	push	qr0
00:009E EB-F0 E8-FF             11233   	lea	-24[fp]
00:00A2 36-90                   11234   	l	qr0,	[ea]
00:00A4 7E-F0                   11235   	push	qr0
00:00A6 36 00                   11236   	mov	r0,	#036h
00:00A8 CD 01                   11237   	mov	r1,	#0cdh
00:00AA 3B 02                   11238   	mov	r2,	#03bh
00:00AC 4E 03                   11239   	mov	r3,	#04eh
00:00AE D1 04                   11240   	mov	r4,	#0d1h
00:00B0 91 05                   11241   	mov	r5,	#091h
00:00B2 C8 06                   11242   	mov	r6,	#0c8h
00:00B4 3F 07                   11243   	mov	r7,	#03fh
00:00B6 7E-F0                   11244   	push	qr0
00:00B8 01-F0'00-00'            11245   	bl	__dmulu8sw
00:00BC 08 E1                   11246   	add	sp,	#8 
00:00BE 01-F0'00-00'            11247   	bl	__dsubu8sw
00:00C2 08 E1                   11248   	add	sp,	#8 
00:00C4 01-F0'00-00'            11249   	bl	__dtofu8sw
00:00C8 04 E1                   11250   	add	sp,	#4 
00:00CA 2E-F0                   11251   	pop	xr0
00:00CC 05-F4                   11252   	mov	er4,	er0
00:00CE 25-F6                   11253   	mov	er6,	er2
                                11254   CBLOCKEND 309 3 3681
                                11255   
                                11256   ;;	}
                                11257   CLINEA 0000H 0000H 0E61H 0002H 0002H
00:00D0                         11258   _$L707 :
                                11259   
                                11260   ;;	if((x<0)&&(y>=0)){
                                11261   CLINEA 0000H 0001H 0E62H 0002H 0013H
00:00D0 44 B0                   11262   	l	er0,	4[fp]
00:00D2 46 B2                   11263   	l	er2,	6[fp]
00:00D4 6E-F0                   11264   	push	xr0
00:00D6 00 E0                   11265   	mov	er0,	#0 
00:00D8 00 E2                   11266   	mov	er2,	#0 
00:00DA 6E-F0                   11267   	push	xr0
00:00DC 01-F0'00-00'            11268   	bl	__fcmpu8sw
00:00E0 08 E1                   11269   	add	sp,	#8 
00:00E2 0B-A0                   11270   	mov	psw,	r0
00:00E4 02 C1                   11271   	blt	_$M69
00:00E6 00-F0'00-00'            11272   	b	_$L709
00:00EA                         11273   _$M69 :
00:00EA 6E-F8                   11274   	push	xr8
00:00EC 00 E0                   11275   	mov	er0,	#0 
00:00EE 00 E2                   11276   	mov	er2,	#0 
00:00F0 6E-F0                   11277   	push	xr0
00:00F2 01-F0'00-00'            11278   	bl	__fcmpu8sw
00:00F6 08 E1                   11279   	add	sp,	#8 
00:00F8 0B-A0                   11280   	mov	psw,	r0
00:00FA 02 C0                   11281   	bge	_$M70
00:00FC 00-F0'00-00'            11282   	b	_$L709
00:0100                         11283   _$M70 :
                                11284   CBLOCK 309 4 3682
                                11285   
                                11286   ;;		result = (0.97239*YoverX)-(0.19195*pow(YoverX,3))+3.14;
                                11287   CLINEA 0000H 0000H 0E63H 0003H 0039H
00:0100 64 B0                   11288   	l	er0,	-28[fp]
00:0102 66 B2                   11289   	l	er2,	-26[fp]
00:0104 6E-F0                   11290   	push	xr0
00:0106 FC E1                   11291   	add	sp,	#-4
00:0108 01-F0'00-00'            11292   	bl	__ftodu8sw
00:010C 3E-F0                   11293   	pop	qr0
00:010E EB-F0 F8-FF             11294   	lea	-8[fp]
00:0112 37-90                   11295   	st	qr0,	[ea]
00:0114 7E-F0                   11296   	push	qr0
00:0116 59 00                   11297   	mov	r0,	#059h
00:0118 A3 01                   11298   	mov	r1,	#0a3h
00:011A 1E 02                   11299   	mov	r2,	#01eh
00:011C A2 03                   11300   	mov	r3,	#0a2h
00:011E D1 04                   11301   	mov	r4,	#0d1h
00:0120 1D 05                   11302   	mov	r5,	#01dh
00:0122 EF 06                   11303   	mov	r6,	#0efh
00:0124 3F 07                   11304   	mov	r7,	#03fh
00:0126 7E-F0                   11305   	push	qr0
00:0128 01-F0'00-00'            11306   	bl	__dmulu8sw
00:012C 08 E1                   11307   	add	sp,	#8 
00:012E 3E-F0                   11308   	pop	qr0
00:0130 EB-F0 F0-FF             11309   	lea	-16[fp]
00:0134 37-90                   11310   	st	qr0,	[ea]
00:0136 00 E0                   11311   	mov	er0,	#0 
00:0138 00 E2                   11312   	mov	er2,	#0 
00:013A 00 E4                   11313   	mov	er4,	#0 
00:013C 08 06                   11314   	mov	r6,	#08h
00:013E 40 07                   11315   	mov	r7,	#040h
00:0140 7E-F0                   11316   	push	qr0
00:0142 EB-F0 F8-FF             11317   	lea	-8[fp]
00:0146 36-90                   11318   	l	qr0,	[ea]
00:0148 7E-F0                   11319   	push	qr0
00:014A E5-F0                   11320   	mov	er0,	fp
00:014C E8 E0                   11321   	add	er0,	#-24
00:014E 01-F0'00-00'            11322   	bl	_pow
00:0152 10 E1                   11323   	add	sp,	#16
00:0154 EB-F0 F0-FF             11324   	lea	-16[fp]
00:0158 36-90                   11325   	l	qr0,	[ea]
00:015A 7E-F0                   11326   	push	qr0
00:015C EB-F0 E8-FF             11327   	lea	-24[fp]
00:0160 36-90                   11328   	l	qr0,	[ea]
00:0162 7E-F0                   11329   	push	qr0
00:0164 36 00                   11330   	mov	r0,	#036h
00:0166 CD 01                   11331   	mov	r1,	#0cdh
00:0168 3B 02                   11332   	mov	r2,	#03bh
00:016A 4E 03                   11333   	mov	r3,	#04eh
00:016C D1 04                   11334   	mov	r4,	#0d1h
00:016E 91 05                   11335   	mov	r5,	#091h
00:0170 C8 06                   11336   	mov	r6,	#0c8h
00:0172 3F 07                   11337   	mov	r7,	#03fh
00:0174 7E-F0                   11338   	push	qr0
00:0176 01-F0'00-00'            11339   	bl	__dmulu8sw
00:017A 08 E1                   11340   	add	sp,	#8 
00:017C 01-F0'00-00'            11341   	bl	__dsubu8sw
00:0180 08 E1                   11342   	add	sp,	#8 
00:0182 1F 00                   11343   	mov	r0,	#01fh
00:0184 85 01                   11344   	mov	r1,	#085h
00:0186 EB 02                   11345   	mov	r2,	#0ebh
00:0188 51 03                   11346   	mov	r3,	#051h
00:018A B8 04                   11347   	mov	r4,	#0b8h
00:018C 1E 05                   11348   	mov	r5,	#01eh
00:018E 09 06                   11349   	mov	r6,	#09h
00:0190 40 07                   11350   	mov	r7,	#040h
00:0192 7E-F0                   11351   	push	qr0
00:0194 01-F0'00-00'            11352   	bl	__daddu8sw
00:0198 08 E1                   11353   	add	sp,	#8 
00:019A 01-F0'00-00'            11354   	bl	__dtofu8sw
00:019E 04 E1                   11355   	add	sp,	#4 
00:01A0 2E-F0                   11356   	pop	xr0
00:01A2 05-F4                   11357   	mov	er4,	er0
00:01A4 25-F6                   11358   	mov	er6,	er2
                                11359   CBLOCKEND 309 4 3684
                                11360   
                                11361   ;;	}	
                                11362   CLINEA 0000H 0000H 0E64H 0002H 0003H
00:01A6                         11363   _$L709 :
                                11364   
                                11365   ;;	if((y<0)&&(x<0)){
                                11366   CLINEA 0000H 0001H 0E65H 0002H 0012H
00:01A6 6E-F8                   11367   	push	xr8
00:01A8 00 E0                   11368   	mov	er0,	#0 
00:01AA 00 E2                   11369   	mov	er2,	#0 
00:01AC 6E-F0                   11370   	push	xr0
00:01AE 01-F0'00-00'            11371   	bl	__fcmpu8sw
00:01B2 08 E1                   11372   	add	sp,	#8 
00:01B4 0B-A0                   11373   	mov	psw,	r0
00:01B6 02 C1                   11374   	blt	_$M71
00:01B8 00-F0'00-00'            11375   	b	_$L716
00:01BC                         11376   _$M71 :
00:01BC 44 B0                   11377   	l	er0,	4[fp]
00:01BE 46 B2                   11378   	l	er2,	6[fp]
00:01C0 6E-F0                   11379   	push	xr0
00:01C2 00 E0                   11380   	mov	er0,	#0 
00:01C4 00 E2                   11381   	mov	er2,	#0 
00:01C6 6E-F0                   11382   	push	xr0
00:01C8 01-F0'00-00'            11383   	bl	__fcmpu8sw
00:01CC 08 E1                   11384   	add	sp,	#8 
00:01CE 0B-A0                   11385   	mov	psw,	r0
00:01D0 02 C1                   11386   	blt	_$M72
00:01D2 00-F0'00-00'            11387   	b	_$L716
00:01D6                         11388   _$M72 :
                                11389   CBLOCK 309 5 3685
                                11390   
                                11391   ;;		result = (0.97239*YoverX)-(0.19195*pow(YoverX,3))-3.14;
                                11392   CLINEA 0000H 0000H 0E66H 0003H 0039H
00:01D6 64 B0                   11393   	l	er0,	-28[fp]
00:01D8 66 B2                   11394   	l	er2,	-26[fp]
00:01DA 6E-F0                   11395   	push	xr0
00:01DC FC E1                   11396   	add	sp,	#-4
00:01DE 01-F0'00-00'            11397   	bl	__ftodu8sw
00:01E2 3E-F0                   11398   	pop	qr0
00:01E4 EB-F0 F8-FF             11399   	lea	-8[fp]
00:01E8 37-90                   11400   	st	qr0,	[ea]
00:01EA 7E-F0                   11401   	push	qr0
00:01EC 59 00                   11402   	mov	r0,	#059h
00:01EE A3 01                   11403   	mov	r1,	#0a3h
00:01F0 1E 02                   11404   	mov	r2,	#01eh
00:01F2 A2 03                   11405   	mov	r3,	#0a2h
00:01F4 D1 04                   11406   	mov	r4,	#0d1h
00:01F6 1D 05                   11407   	mov	r5,	#01dh
00:01F8 EF 06                   11408   	mov	r6,	#0efh
00:01FA 3F 07                   11409   	mov	r7,	#03fh
00:01FC 7E-F0                   11410   	push	qr0
00:01FE 01-F0'00-00'            11411   	bl	__dmulu8sw
00:0202 08 E1                   11412   	add	sp,	#8 
00:0204 3E-F0                   11413   	pop	qr0
00:0206 EB-F0 F0-FF             11414   	lea	-16[fp]
00:020A 37-90                   11415   	st	qr0,	[ea]
00:020C 00 E0                   11416   	mov	er0,	#0 
00:020E 00 E2                   11417   	mov	er2,	#0 
00:0210 00 E4                   11418   	mov	er4,	#0 
00:0212 08 06                   11419   	mov	r6,	#08h
00:0214 40 07                   11420   	mov	r7,	#040h
00:0216 7E-F0                   11421   	push	qr0
00:0218 EB-F0 F8-FF             11422   	lea	-8[fp]
00:021C 36-90                   11423   	l	qr0,	[ea]
00:021E 7E-F0                   11424   	push	qr0
00:0220 E5-F0                   11425   	mov	er0,	fp
00:0222 E8 E0                   11426   	add	er0,	#-24
00:0224 01-F0'00-00'            11427   	bl	_pow
00:0228 10 E1                   11428   	add	sp,	#16
00:022A EB-F0 F0-FF             11429   	lea	-16[fp]
00:022E 36-90                   11430   	l	qr0,	[ea]
00:0230 7E-F0                   11431   	push	qr0
00:0232 EB-F0 E8-FF             11432   	lea	-24[fp]
00:0236 36-90                   11433   	l	qr0,	[ea]
00:0238 7E-F0                   11434   	push	qr0
00:023A 36 00                   11435   	mov	r0,	#036h
00:023C CD 01                   11436   	mov	r1,	#0cdh
00:023E 3B 02                   11437   	mov	r2,	#03bh
00:0240 4E 03                   11438   	mov	r3,	#04eh
00:0242 D1 04                   11439   	mov	r4,	#0d1h
00:0244 91 05                   11440   	mov	r5,	#091h
00:0246 C8 06                   11441   	mov	r6,	#0c8h
00:0248 3F 07                   11442   	mov	r7,	#03fh
00:024A 7E-F0                   11443   	push	qr0
00:024C 01-F0'00-00'            11444   	bl	__dmulu8sw
00:0250 08 E1                   11445   	add	sp,	#8 
00:0252 01-F0'00-00'            11446   	bl	__dsubu8sw
00:0256 08 E1                   11447   	add	sp,	#8 
00:0258 1F 00                   11448   	mov	r0,	#01fh
00:025A 85 01                   11449   	mov	r1,	#085h
00:025C EB 02                   11450   	mov	r2,	#0ebh
00:025E 51 03                   11451   	mov	r3,	#051h
00:0260 B8 04                   11452   	mov	r4,	#0b8h
00:0262 1E 05                   11453   	mov	r5,	#01eh
00:0264 09 06                   11454   	mov	r6,	#09h
00:0266 C0 07                   11455   	mov	r7,	#0c0h
00:0268 7E-F0                   11456   	push	qr0
00:026A 01-F0'00-00'            11457   	bl	__daddu8sw
00:026E 08 E1                   11458   	add	sp,	#8 
00:0270 01-F0'00-00'            11459   	bl	__dtofu8sw
00:0274 04 E1                   11460   	add	sp,	#4 
00:0276 2E-F0                   11461   	pop	xr0
00:0278 05-F4                   11462   	mov	er4,	er0
00:027A 25-F6                   11463   	mov	er6,	er2
                                11464   CBLOCKEND 309 5 3687
                                11465   
                                11466   ;;	}
                                11467   CLINEA 0000H 0000H 0E67H 0002H 0002H
00:027C                         11468   _$L716 :
                                11469   
                                11470   ;;	if((y>0)&&(x==0)){
                                11471   CLINEA 0000H 0001H 0E68H 0002H 0013H
00:027C 6E-F8                   11472   	push	xr8
00:027E 00 E0                   11473   	mov	er0,	#0 
00:0280 00 E2                   11474   	mov	er2,	#0 
00:0282 6E-F0                   11475   	push	xr0
00:0284 01-F0'00-00'            11476   	bl	__fcmpu8sw
00:0288 08 E1                   11477   	add	sp,	#8 
00:028A 0B-A0                   11478   	mov	psw,	r0
00:028C 11 C3                   11479   	ble	_$L723
00:028E 44 B0                   11480   	l	er0,	4[fp]
00:0290 46 B2                   11481   	l	er2,	6[fp]
00:0292 6E-F0                   11482   	push	xr0
00:0294 00 E0                   11483   	mov	er0,	#0 
00:0296 00 E2                   11484   	mov	er2,	#0 
00:0298 6E-F0                   11485   	push	xr0
00:029A 01-F0'00-00'            11486   	bl	__fcmpu8sw
00:029E 08 E1                   11487   	add	sp,	#8 
00:02A0 0B-A0                   11488   	mov	psw,	r0
00:02A2 06 C8                   11489   	bne	_$L723
                                11490   CBLOCK 309 6 3688
                                11491   
                                11492   ;;		result = 1.57;
                                11493   CLINEA 0000H 0001H 0E69H 0003H 0010H
00:02A4 C3 00                   11494   	mov	r0,	#0c3h
00:02A6 F5 01                   11495   	mov	r1,	#0f5h
00:02A8 C8 02                   11496   	mov	r2,	#0c8h
00:02AA 3F 03                   11497   	mov	r3,	#03fh
00:02AC 05-F4                   11498   	mov	er4,	er0
00:02AE 25-F6                   11499   	mov	er6,	er2
                                11500   CBLOCKEND 309 6 3690
                                11501   
                                11502   ;;	}
                                11503   CLINEA 0000H 0000H 0E6AH 0002H 0002H
00:02B0                         11504   _$L723 :
                                11505   
                                11506   ;;	if((y<0)&&(x==0)){
                                11507   CLINEA 0000H 0001H 0E6BH 0002H 0013H
00:02B0 6E-F8                   11508   	push	xr8
00:02B2 00 E0                   11509   	mov	er0,	#0 
00:02B4 00 E2                   11510   	mov	er2,	#0 
00:02B6 6E-F0                   11511   	push	xr0
00:02B8 01-F0'00-00'            11512   	bl	__fcmpu8sw
00:02BC 08 E1                   11513   	add	sp,	#8 
00:02BE 0B-A0                   11514   	mov	psw,	r0
00:02C0 11 C0                   11515   	bge	_$L730
00:02C2 44 B0                   11516   	l	er0,	4[fp]
00:02C4 46 B2                   11517   	l	er2,	6[fp]
00:02C6 6E-F0                   11518   	push	xr0
00:02C8 00 E0                   11519   	mov	er0,	#0 
00:02CA 00 E2                   11520   	mov	er2,	#0 
00:02CC 6E-F0                   11521   	push	xr0
00:02CE 01-F0'00-00'            11522   	bl	__fcmpu8sw
00:02D2 08 E1                   11523   	add	sp,	#8 
00:02D4 0B-A0                   11524   	mov	psw,	r0
00:02D6 06 C8                   11525   	bne	_$L730
                                11526   CBLOCK 309 7 3691
                                11527   
                                11528   ;;		result = -1.57;
                                11529   CLINEA 0000H 0001H 0E6CH 0003H 0011H
00:02D8 C3 00                   11530   	mov	r0,	#0c3h
00:02DA F5 01                   11531   	mov	r1,	#0f5h
00:02DC C8 02                   11532   	mov	r2,	#0c8h
00:02DE BF 03                   11533   	mov	r3,	#0bfh
00:02E0 05-F4                   11534   	mov	er4,	er0
00:02E2 25-F6                   11535   	mov	er6,	er2
                                11536   CBLOCKEND 309 7 3693
                                11537   
                                11538   ;;	}
                                11539   CLINEA 0000H 0000H 0E6DH 0002H 0002H
00:02E4                         11540   _$L730 :
                                11541   
                                11542   ;;	if((x==0)&&(y==0)){			//we made this up....
                                11543   CLINEA 0000H 0001H 0E6EH 0002H 002CH
00:02E4 44 B0                   11544   	l	er0,	4[fp]
00:02E6 46 B2                   11545   	l	er2,	6[fp]
00:02E8 6E-F0                   11546   	push	xr0
00:02EA 00 E0                   11547   	mov	er0,	#0 
00:02EC 00 E2                   11548   	mov	er2,	#0 
00:02EE 6E-F0                   11549   	push	xr0
00:02F0 01-F0'00-00'            11550   	bl	__fcmpu8sw
00:02F4 08 E1                   11551   	add	sp,	#8 
00:02F6 0B-A0                   11552   	mov	psw,	r0
00:02F8 38 C8                   11553   	bne	_$L737
00:02FA 6E-F8                   11554   	push	xr8
00:02FC 00 E0                   11555   	mov	er0,	#0 
00:02FE 00 E2                   11556   	mov	er2,	#0 
00:0300 6E-F0                   11557   	push	xr0
00:0302 01-F0'00-00'            11558   	bl	__fcmpu8sw
00:0306 08 E1                   11559   	add	sp,	#8 
00:0308 0B-A0                   11560   	mov	psw,	r0
00:030A 2F C8                   11561   	bne	_$L737
                                11562   CBLOCK 309 8 3694
                                11563   
                                11564   ;;		result = (0.97239*YoverX)-(0.19195*pow(YoverX,3));
                                11565   CLINEA 0000H 0000H 0E72H 0003H 0034H
00:030C 00 E0                   11566   	mov	er0,	#0 
00:030E 00 E2                   11567   	mov	er2,	#0 
00:0310 00 E4                   11568   	mov	er4,	#0 
00:0312 08 06                   11569   	mov	r6,	#08h
00:0314 40 07                   11570   	mov	r7,	#040h
00:0316 7E-F0                   11571   	push	qr0
00:0318 F0 06                   11572   	mov	r6,	#0f0h
00:031A 3F 07                   11573   	mov	r7,	#03fh
00:031C 7E-F0                   11574   	push	qr0
00:031E E5-F0                   11575   	mov	er0,	fp
00:0320 F0 E0                   11576   	add	er0,	#-16
00:0322 01-F0'00-00'            11577   	bl	_pow
00:0326 10 E1                   11578   	add	sp,	#16
00:0328 59 00                   11579   	mov	r0,	#059h
00:032A A3 01                   11580   	mov	r1,	#0a3h
00:032C 1E 02                   11581   	mov	r2,	#01eh
00:032E A2 03                   11582   	mov	r3,	#0a2h
00:0330 D1 04                   11583   	mov	r4,	#0d1h
00:0332 1D 05                   11584   	mov	r5,	#01dh
00:0334 EF 06                   11585   	mov	r6,	#0efh
00:0336 7E-F0                   11586   	push	qr0
00:0338 EB-F0 F0-FF             11587   	lea	-16[fp]
00:033C 36-90                   11588   	l	qr0,	[ea]
00:033E 7E-F0                   11589   	push	qr0
00:0340 36 00                   11590   	mov	r0,	#036h
00:0342 CD 01                   11591   	mov	r1,	#0cdh
00:0344 3B 02                   11592   	mov	r2,	#03bh
00:0346 4E 03                   11593   	mov	r3,	#04eh
00:0348 D1 04                   11594   	mov	r4,	#0d1h
00:034A 91 05                   11595   	mov	r5,	#091h
00:034C C8 06                   11596   	mov	r6,	#0c8h
00:034E 3F 07                   11597   	mov	r7,	#03fh
00:0350 7E-F0                   11598   	push	qr0
00:0352 01-F0'00-00'            11599   	bl	__dmulu8sw
00:0356 08 E1                   11600   	add	sp,	#8 
00:0358 01-F0'00-00'            11601   	bl	__dsubu8sw
00:035C 08 E1                   11602   	add	sp,	#8 
00:035E 01-F0'00-00'            11603   	bl	__dtofu8sw
00:0362 04 E1                   11604   	add	sp,	#4 
00:0364 2E-F0                   11605   	pop	xr0
00:0366 05-F4                   11606   	mov	er4,	er0
00:0368 25-F6                   11607   	mov	er6,	er2
                                11608   CBLOCKEND 309 8 3699
                                11609   
                                11610   ;;	}
                                11611   CLINEA 0000H 0000H 0E73H 0002H 0002H
00:036A                         11612   _$L737 :
                                11613   
                                11614   ;;	result *= 57.29;
                                11615   CLINEA 0000H 0001H 0E74H 0002H 0011H
00:036A 6E-F4                   11616   	push	xr4
00:036C FC E1                   11617   	add	sp,	#-4
00:036E 01-F0'00-00'            11618   	bl	__ftodu8sw
00:0372 85 00                   11619   	mov	r0,	#085h
00:0374 EB 01                   11620   	mov	r1,	#0ebh
00:0376 51 02                   11621   	mov	r2,	#051h
00:0378 B8 03                   11622   	mov	r3,	#0b8h
00:037A 1E 04                   11623   	mov	r4,	#01eh
00:037C A5 05                   11624   	mov	r5,	#0a5h
00:037E 4C 06                   11625   	mov	r6,	#04ch
00:0380 40 07                   11626   	mov	r7,	#040h
00:0382 7E-F0                   11627   	push	qr0
00:0384 01-F0'00-00'            11628   	bl	__dmulu8sw
00:0388 08 E1                   11629   	add	sp,	#8 
00:038A 01-F0'00-00'            11630   	bl	__dtofu8sw
00:038E 04 E1                   11631   	add	sp,	#4 
00:0390 2E-F0                   11632   	pop	xr0
00:0392 05-F4                   11633   	mov	er4,	er0
00:0394 25-F6                   11634   	mov	er6,	er2
                                11635   
                                11636   ;;	if(result > 45){
                                11637   CLINEA 0000H 0001H 0E76H 0002H 0011H
00:0396 6E-F0                   11638   	push	xr0
00:0398 00 E0                   11639   	mov	er0,	#0 
00:039A 34 02                   11640   	mov	r2,	#034h
00:039C 42 03                   11641   	mov	r3,	#042h
00:039E 6E-F0                   11642   	push	xr0
00:03A0 01-F0'00-00'            11643   	bl	__fcmpu8sw
00:03A4 08 E1                   11644   	add	sp,	#8 
00:03A6 0B-A0                   11645   	mov	psw,	r0
00:03A8 04 C3                   11646   	ble	_$L744
                                11647   CBLOCK 309 9 3702
                                11648   
                                11649   ;;		result = 45;
                                11650   CLINEA 0000H 0001H 0E77H 0003H 000EH
00:03AA 34 02                   11651   	mov	r2,	#034h
00:03AC 42 03                   11652   	mov	r3,	#042h
00:03AE 00 E4                   11653   	mov	er4,	#0 
00:03B0 25-F6                   11654   	mov	er6,	er2
                                11655   CBLOCKEND 309 9 3704
                                11656   
                                11657   ;;	}
                                11658   CLINEA 0000H 0000H 0E78H 0002H 0002H
00:03B2                         11659   _$L744 :
                                11660   
                                11661   ;;	if(result < -45){
                                11662   CLINEA 0000H 0001H 0E79H 0002H 0012H
00:03B2 6E-F4                   11663   	push	xr4
00:03B4 00 E0                   11664   	mov	er0,	#0 
00:03B6 34 02                   11665   	mov	r2,	#034h
00:03B8 C2 03                   11666   	mov	r3,	#0c2h
00:03BA 6E-F0                   11667   	push	xr0
00:03BC 01-F0'00-00'            11668   	bl	__fcmpu8sw
00:03C0 08 E1                   11669   	add	sp,	#8 
00:03C2 0B-A0                   11670   	mov	psw,	r0
00:03C4 04 C0                   11671   	bge	_$L746
                                11672   CBLOCK 309 10 3705
                                11673   
                                11674   ;;		result = -45;
                                11675   CLINEA 0000H 0001H 0E7AH 0003H 000FH
00:03C6 34 02                   11676   	mov	r2,	#034h
00:03C8 C2 03                   11677   	mov	r3,	#0c2h
00:03CA 00 E4                   11678   	mov	er4,	#0 
00:03CC 25-F6                   11679   	mov	er6,	er2
                                11680   CBLOCKEND 309 10 3707
                                11681   
                                11682   ;;	}
                                11683   CLINEA 0000H 0000H 0E7BH 0002H 0002H
00:03CE                         11684   _$L746 :
                                11685   
                                11686   ;;	return(result);
                                11687   CLINEA 0000H 0001H 0E7DH 0002H 0010H
00:03CE 45-F0                   11688   	mov	er0,	er4
00:03D0 65-F2                   11689   	mov	er2,	er6
                                11690   CBLOCKEND 309 2 3710
                                11691   
                                11692   ;;}
                                11693   CLINEA 0000H 0000H 0E7EH 0001H 0001H
00:03D2 2E-F4                   11694   	pop	xr4
00:03D4 2E-F8                   11695   	pop	xr8
00:03D6 EA-A1                   11696   	mov	sp,	fp
00:03D8 1E-FE                   11697   	pop	fp
00:03DA 8E-F2                   11698   	pop	pc
                                11699   CBLOCKEND 309 1 3710
                                11700   CFUNCTIONEND 309
                                11701   
                                11702   
  --------------------------    11703   	rseg $$Debug_STEPTest$main
                                11704   CFUNCTION 256
                                11705   
00:0000                         11706   _Debug_STEPTest	:
                                11707   CBLOCK 256 1 3715
                                11708   
                                11709   ;;{
                                11710   CLINEA 0000H 0001H 0E83H 0001H 0001H
00:0000 CE-F8                   11711   	push	lr
                                11712   CBLOCK 256 2 3715
                                11713   CRET 0000H
                                11714   CLOCAL 47H 0002H 0024H 0002H "i" 02H 00H 01H
                                11715   
                                11716   ;;	if(MotorStepCount < 1){
                                11717   CLINEA 0000H 0001H 0E8BH 0002H 0018H
00:0002 10-90 00-00'            11718   	l	r0,	NEAR _MotorStepCount
00:0006 01 70                   11719   	cmp	r0,	#01h
00:0008 02 C1                   11720   	blt	_$M74
00:000A 00-F0'00-00'            11721   	b	_$L749
00:000E                         11722   _$M74 :
                                11723   CBLOCK 256 3 3723
                                11724   
                                11725   ;;		MotorStepCount++;
                                11726   CLINEA 0000H 0000H 0E8CH 0003H 0013H
00:000E 01 10                   11727   	add	r0,	#01h
00:0010 11-90 00-00'            11728   	st	r0,	NEAR _MotorStepCount
                                11729   
                                11730   ;;		if(MotorStepUpDnFlg == 0){
                                11731   CLINEA 0000H 0001H 0E8DH 0003H 001CH
00:0014 10-90 00-00'            11732   	l	r0,	NEAR _MotorStepUpDnFlg
00:0018 29 C8                   11733   	bne	_$L751
                                11734   CBLOCK 256 4 3725
                                11735   
                                11736   ;;			PFRUN = 0;	//Turn OFF PWM
                                11737   CLINEA 0000H 0001H 0E8EH 0004H 001CH
00:001A 82-A0 73-F9             11738   	rb	0f973h.0
                                11739   
                                11740   ;;			PERUN = 0;
                                11741   CLINEA 0000H 0001H 0E8FH 0004H 000DH
00:001E 82-A0 37-F9             11742   	rb	0f937h.0
                                11743   
                                11744   ;;			PDRUN = 0;
                                11745   CLINEA 0000H 0001H 0E90H 0004H 000DH
00:0022 82-A0 27-F9             11746   	rb	0f927h.0
                                11747   
                                11748   ;;			PCRUN = 0;
                                11749   CLINEA 0000H 0001H 0E91H 0004H 000DH
00:0026 82-A0 17-F9             11750   	rb	0f917h.0
                                11751   
                                11752   ;;			PWF0D = StepTestNominal+MotorSpeedChange; 		//Can't be running to change (Only this variable)
                                11753   CLINEA 0000H 0001H 0E94H 0004H 0060H
00:002A 12-90 00-00'            11754   	l	er0,	NEAR _MotorSpeedChange
00:002E 86 10                   11755   	add	r0,	#086h
00:0030 24 61                   11756   	addc	r1,	#024h
00:0032 13-90 62-F9             11757   	st	er0,	0f962h
                                11758   
                                11759   ;;			PWED = StepTestNominal;
                                11760   CLINEA 0000H 0001H 0E95H 0004H 001AH
00:0036 86 00                   11761   	mov	r0,	#086h
00:0038 24 01                   11762   	mov	r1,	#024h
00:003A 13-90 32-F9             11763   	st	er0,	0f932h
                                11764   
                                11765   ;;			PWDD = StepTestNominal;
                                11766   CLINEA 0000H 0001H 0E96H 0004H 001AH
00:003E 13-90 22-F9             11767   	st	er0,	0f922h
                                11768   
                                11769   ;;			PWCD = StepTestNominal+MotorSpeedChange;	
                                11770   CLINEA 0000H 0001H 0E97H 0004H 002CH
00:0042 12-90 00-00'            11771   	l	er0,	NEAR _MotorSpeedChange
00:0046 86 10                   11772   	add	r0,	#086h
00:0048 24 61                   11773   	addc	r1,	#024h
00:004A 13-90 12-F9             11774   	st	er0,	0f912h
                                11775   
                                11776   ;;			CheckSafetyLimit();
                                11777   CLINEA 0000H 0001H 0EACH 0004H 0016H
00:004E 01-F0'00-00'            11778   	bl	_CheckSafetyLimit
                                11779   
                                11780   ;;			PFRUN = 1;	//Turn ON PWM
                                11781   CLINEA 0000H 0001H 0EADH 0004H 001BH
00:0052 80-A0 73-F9             11782   	sb	0f973h.0
                                11783   
                                11784   ;;			PERUN = 1;
                                11785   CLINEA 0000H 0001H 0EAEH 0004H 000DH
00:0056 80-A0 37-F9             11786   	sb	0f937h.0
                                11787   
                                11788   ;;			PDRUN = 1;
                                11789   CLINEA 0000H 0001H 0EAFH 0004H 000DH
00:005A 80-A0 27-F9             11790   	sb	0f927h.0
                                11791   
                                11792   ;;			PCRUN = 1;
                                11793   CLINEA 0000H 0001H 0EB0H 0004H 000DH
00:005E 80-A0 17-F9             11794   	sb	0f917h.0
                                11795   
                                11796   ;;			MotorSpeedUT = StepTestNominal+MotorSpeedChange;
                                11797   CLINEA 0000H 0001H 0EB1H 0004H 0033H
00:0062 12-90 00-00'            11798   	l	er0,	NEAR _MotorSpeedChange
00:0066 86 10                   11799   	add	r0,	#086h
00:0068 24 61                   11800   	addc	r1,	#024h
                                11801   CBLOCKEND 256 4 3762
                                11802   
                                11803   ;;		else{
                                11804   CLINEA 0000H 0001H 0EB3H 0003H 0007H
00:006A 2A CE                   11805   	bal	_$L753
00:006C                         11806   _$L751 :
                                11807   CBLOCK 256 5 3763
                                11808   
                                11809   ;;			PFRUN = 0;	//Turn OFF PWM
                                11810   CLINEA 0000H 0001H 0EB4H 0004H 001CH
00:006C 82-A0 73-F9             11811   	rb	0f973h.0
                                11812   
                                11813   ;;			PERUN = 0;
                                11814   CLINEA 0000H 0001H 0EB5H 0004H 000DH
00:0070 82-A0 37-F9             11815   	rb	0f937h.0
                                11816   
                                11817   ;;			PDRUN = 0;
                                11818   CLINEA 0000H 0001H 0EB6H 0004H 000DH
00:0074 82-A0 27-F9             11819   	rb	0f927h.0
                                11820   
                                11821   ;;			PCRUN = 0;
                                11822   CLINEA 0000H 0001H 0EB7H 0004H 000DH
00:0078 82-A0 17-F9             11823   	rb	0f917h.0
                                11824   
                                11825   ;;			PWF0D = StepTestNominal-MotorSpeedChange; 		//Can't be running to change (Only this variable)
                                11826   CLINEA 0000H 0001H 0EBAH 0004H 0060H
00:007C 86 00                   11827   	mov	r0,	#086h
00:007E 24 01                   11828   	mov	r1,	#024h
00:0080 12-92 00-00'            11829   	l	er2,	NEAR _MotorSpeedChange
00:0084 28-80                   11830   	sub	r0,	r2
00:0086 39-81                   11831   	subc	r1,	r3
00:0088 13-90 62-F9             11832   	st	er0,	0f962h
                                11833   
                                11834   ;;			PWED = StepTestNominal;
                                11835   CLINEA 0000H 0001H 0EBBH 0004H 001AH
00:008C 86 00                   11836   	mov	r0,	#086h
00:008E 24 01                   11837   	mov	r1,	#024h
00:0090 13-90 32-F9             11838   	st	er0,	0f932h
                                11839   
                                11840   ;;			PWDD = StepTestNominal;
                                11841   CLINEA 0000H 0001H 0EBCH 0004H 001AH
00:0094 13-90 22-F9             11842   	st	er0,	0f922h
                                11843   
                                11844   ;;			PWCD = StepTestNominal-MotorSpeedChange;	
                                11845   CLINEA 0000H 0001H 0EBDH 0004H 002CH
00:0098 28-80                   11846   	sub	r0,	r2
00:009A 39-81                   11847   	subc	r1,	r3
00:009C 13-90 12-F9             11848   	st	er0,	0f912h
                                11849   
                                11850   ;;			CheckSafetyLimit();
                                11851   CLINEA 0000H 0001H 0ED2H 0004H 0016H
00:00A0 01-F0'00-00'            11852   	bl	_CheckSafetyLimit
                                11853   
                                11854   ;;			PFRUN = 1;	//Turn ON PWM
                                11855   CLINEA 0000H 0001H 0ED3H 0004H 001BH
00:00A4 80-A0 73-F9             11856   	sb	0f973h.0
                                11857   
                                11858   ;;			PERUN = 1;
                                11859   CLINEA 0000H 0001H 0ED4H 0004H 000DH
00:00A8 80-A0 37-F9             11860   	sb	0f937h.0
                                11861   
                                11862   ;;			PDRUN = 1;
                                11863   CLINEA 0000H 0001H 0ED5H 0004H 000DH
00:00AC 80-A0 27-F9             11864   	sb	0f927h.0
                                11865   
                                11866   ;;			PCRUN = 1;
                                11867   CLINEA 0000H 0001H 0ED6H 0004H 000DH
00:00B0 80-A0 17-F9             11868   	sb	0f917h.0
                                11869   
                                11870   ;;			MotorSpeedUT = StepTestNominal-MotorSpeedChange;
                                11871   CLINEA 0000H 0001H 0ED7H 0004H 0033H
00:00B4 86 00                   11872   	mov	r0,	#086h
00:00B6 24 01                   11873   	mov	r1,	#024h
00:00B8 12-92 00-00'            11874   	l	er2,	NEAR _MotorSpeedChange
00:00BC 28-80                   11875   	sub	r0,	r2
00:00BE 39-81                   11876   	subc	r1,	r3
                                11877   CBLOCKEND 256 5 3800
                                11878   
                                11879   ;;		}
                                11880   CLINEA 0000H 0000H 0ED8H 0003H 0003H
00:00C0                         11881   _$L753 :
00:00C0 13-90 00-00'            11882   	st	er0,	NEAR _MotorSpeedUT
                                11883   
                                11884   ;;		MotorStepUpDnFlg ^= 1;
                                11885   CLINEA 0000H 0001H 0ED9H 0003H 0018H
00:00C4 10-90 00-00'            11886   	l	r0,	NEAR _MotorStepUpDnFlg
00:00C8 01 40                   11887   	xor	r0,	#01h
00:00CA 11-90 00-00'            11888   	st	r0,	NEAR _MotorStepUpDnFlg
                                11889   
                                11890   ;;	else{
                                11891   CLINEA 0000H 0001H 0EDBH 0002H 0006H
00:00CE 2C CE                   11892   	bal	_$L757
00:00D0                         11893   _$L749 :
                                11894   CBLOCK 256 6 3803
                                11895   
                                11896   ;;		MotorStepCount++;
                                11897   CLINEA 0000H 0000H 0EDCH 0003H 0013H
00:00D0 01 10                   11898   	add	r0,	#01h
00:00D2 11-90 00-00'            11899   	st	r0,	NEAR _MotorStepCount
                                11900   
                                11901   ;;		if(MotorStepCount == 9){
                                11902   CLINEA 0000H 0001H 0EDDH 0003H 001AH
00:00D6 09 70                   11903   	cmp	r0,	#09h
00:00D8 20 C8                   11904   	bne	_$L755
                                11905   CBLOCK 256 7 3805
                                11906   
                                11907   ;;			PFRUN = 0;	//Turn OFF PWM
                                11908   CLINEA 0000H 0001H 0EDEH 0004H 001CH
00:00DA 82-A0 73-F9             11909   	rb	0f973h.0
                                11910   
                                11911   ;;			PERUN = 0;
                                11912   CLINEA 0000H 0001H 0EDFH 0004H 000DH
00:00DE 82-A0 37-F9             11913   	rb	0f937h.0
                                11914   
                                11915   ;;			PDRUN = 0;
                                11916   CLINEA 0000H 0001H 0EE0H 0004H 000DH
00:00E2 82-A0 27-F9             11917   	rb	0f927h.0
                                11918   
                                11919   ;;			PCRUN = 0;
                                11920   CLINEA 0000H 0001H 0EE1H 0004H 000DH
00:00E6 82-A0 17-F9             11921   	rb	0f917h.0
                                11922   
                                11923   ;;			PWF0D = StepTestNominal; 		//Can't be running to change (Only this variable)
                                11924   CLINEA 0000H 0001H 0EE2H 0004H 004FH
00:00EA 86 00                   11925   	mov	r0,	#086h
00:00EC 24 01                   11926   	mov	r1,	#024h
00:00EE 13-90 62-F9             11927   	st	er0,	0f962h
                                11928   
                                11929   ;;			PWED = StepTestNominal;
                                11930   CLINEA 0000H 0001H 0EE3H 0004H 001AH
00:00F2 13-90 32-F9             11931   	st	er0,	0f932h
                                11932   
                                11933   ;;			PWDD = StepTestNominal;
                                11934   CLINEA 0000H 0001H 0EE4H 0004H 001AH
00:00F6 13-90 22-F9             11935   	st	er0,	0f922h
                                11936   
                                11937   ;;			PWCD = StepTestNominal;	
                                11938   CLINEA 0000H 0001H 0EE5H 0004H 001BH
00:00FA 13-90 12-F9             11939   	st	er0,	0f912h
                                11940   
                                11941   ;;			CheckSafetyLimit();
                                11942   CLINEA 0000H 0001H 0EE6H 0004H 0016H
00:00FE 01-F0'00-00'            11943   	bl	_CheckSafetyLimit
                                11944   
                                11945   ;;			PFRUN = 1;	//Turn ON PWM
                                11946   CLINEA 0000H 0001H 0EE7H 0004H 001BH
00:0102 80-A0 73-F9             11947   	sb	0f973h.0
                                11948   
                                11949   ;;			PERUN = 1;
                                11950   CLINEA 0000H 0001H 0EE8H 0004H 000DH
00:0106 80-A0 37-F9             11951   	sb	0f937h.0
                                11952   
                                11953   ;;			PDRUN = 1;
                                11954   CLINEA 0000H 0001H 0EE9H 0004H 000DH
00:010A 80-A0 27-F9             11955   	sb	0f927h.0
                                11956   
                                11957   ;;			PCRUN = 1;
                                11958   CLINEA 0000H 0001H 0EEAH 0004H 000DH
00:010E 80-A0 17-F9             11959   	sb	0f917h.0
                                11960   
                                11961   ;;			MotorSpeedUT = StepTestNominal;
                                11962   CLINEA 0000H 0001H 0EEBH 0004H 0022H
00:0112 86 00                   11963   	mov	r0,	#086h
00:0114 24 01                   11964   	mov	r1,	#024h
00:0116 13-90 00-00'            11965   	st	er0,	NEAR _MotorSpeedUT
                                11966   CBLOCKEND 256 7 3820
                                11967   
                                11968   ;;		}
                                11969   CLINEA 0000H 0000H 0EECH 0003H 0003H
00:011A                         11970   _$L755 :
                                11971   
                                11972   ;;		if(MotorStepCount == 18){
                                11973   CLINEA 0000H 0001H 0EEDH 0003H 001BH
00:011A 10-90 00-00'            11974   	l	r0,	NEAR _MotorStepCount
00:011E 12 70                   11975   	cmp	r0,	#012h
00:0120 03 C8                   11976   	bne	_$L757
                                11977   CBLOCK 256 8 3821
                                11978   
                                11979   ;;			MotorStepCount = 0;
                                11980   CLINEA 0000H 0001H 0EEEH 0004H 0016H
00:0122 00 00                   11981   	mov	r0,	#00h
00:0124 11-90 00-00'            11982   	st	r0,	NEAR _MotorStepCount
                                11983   CBLOCKEND 256 8 3823
                                11984   
                                11985   ;;		}
                                11986   CLINEA 0000H 0000H 0EEFH 0003H 0003H
00:0128                         11987   _$L757 :
                                11988   CBLOCKEND 256 6 3824
                                11989   
                                11990   ;;	main_clrWDT();
                                11991   CLINEA 0000H 0001H 0EF2H 0002H 000FH
00:0128 01-F0'00-00'            11992   	bl	_main_clrWDT
                                11993   CBLOCKEND 256 3 3843
                                11994   
                                11995   ;;	for(i = 0; i<200; i++)
                                11996   CLINEA 0000H 0001H 0EF3H 0002H 0017H
00:012C 00 E0                   11997   	mov	er0,	#0 
00:012E                         11998   _$L761 :
                                11999   CBLOCK 256 9 3828
                                12000   
                                12001   ;;		SensorReturn[i] = 0x20;
                                12002   CLINEA 0000H 0001H 0EF5H 0003H 0019H
00:012E 20 02                   12003   	mov	r2,	#020h
00:0130 09-92 00-00'            12004   	st	r2,	NEAR _SensorReturn[er0]
                                12005   CBLOCKEND 256 9 3830
                                12006   
                                12007   ;;	for(i = 0; i<200; i++)
                                12008   CLINEA 0000H 0000H 0EF3H 0002H 0017H
00:0134 81 E0                   12009   	add	er0,	#1 
                                12010   
                                12011   ;;	for(i = 0; i<200; i++)
                                12012   CLINEA 0000H 0000H 0EF3H 000EH 0013H
00:0136 C8 70                   12013   	cmp	r0,	#0c8h
00:0138 00 51                   12014   	cmpc	r1,	#00h
00:013A F9 C5                   12015   	blts	_$L761
                                12016   
                                12017   ;;	MotorIndex++;
                                12018   CLINEA 0000H 0000H 0EF7H 0002H 000EH
00:013C 12-90 00-00'            12019   	l	er0,	NEAR _MotorIndex
00:0140 81 E0                   12020   	add	er0,	#1 
00:0142 13-90 00-00'            12021   	st	er0,	NEAR _MotorIndex
                                12022   
                                12023   ;;	sprintf(SensorReturn, "%u,%f,%f,%u,%u", MotorIndex,CF_XRoll,CF_YPitch,MotorTimerUT,MotorSpeedUT);
                                12024   CLINEA 0000H 0001H 0EF8H 0002H 0062H
00:0146 12-90 00-00'            12025   	l	er0,	NEAR _MotorSpeedUT
00:014A 5E-F0                   12026   	push	er0
00:014C 12-90 00-00'            12027   	l	er0,	NEAR _MotorTimerUT
00:0150 5E-F0                   12028   	push	er0
00:0152 12-90 00-00'            12029   	l	er0,	NEAR _CF_YPitch
00:0156 12-92 00-00'            12030   	l	er2,	NEAR _CF_YPitch+02h
00:015A 6E-F0                   12031   	push	xr0
00:015C FC E1                   12032   	add	sp,	#-4
00:015E 01-F0'00-00'            12033   	bl	__ftodu8sw
00:0162 12-90 00-00'            12034   	l	er0,	NEAR _CF_XRoll
00:0166 12-92 00-00'            12035   	l	er2,	NEAR _CF_XRoll+02h
00:016A 6E-F0                   12036   	push	xr0
00:016C FC E1                   12037   	add	sp,	#-4
00:016E 01-F0'00-00'            12038   	bl	__ftodu8sw
00:0172 12-90 00-00'            12039   	l	er0,	NEAR _MotorIndex
00:0176 5E-F0                   12040   	push	er0
00:0178 00'00                   12041   	mov	r0,	#BYTE1 OFFSET $$S765
00:017A 00'01                   12042   	mov	r1,	#BYTE2 OFFSET $$S765
00:017C 5E-F0                   12043   	push	er0
00:017E 00'00                   12044   	mov	r0,	#BYTE1 OFFSET _SensorReturn
00:0180 00'01                   12045   	mov	r1,	#BYTE2 OFFSET _SensorReturn
00:0182 5E-F0                   12046   	push	er0
00:0184 01-F0'00-00'            12047   	bl	_sprintf_nn
00:0188 1A E1                   12048   	add	sp,	#26
                                12049   
                                12050   ;;	SensorReturn[198] = 0x0D;
                                12051   CLINEA 0000H 0001H 0EF9H 0002H 001AH
00:018A 0D 00                   12052   	mov	r0,	#0dh
00:018C 11-90 00-00'            12053   	st	r0,	NEAR _SensorReturn+0c6h
                                12054   
                                12055   ;;	SensorReturn[199] = 0x0A;
                                12056   CLINEA 0000H 0001H 0EFAH 0002H 001AH
00:0190 0A 00                   12057   	mov	r0,	#0ah
00:0192 11-90 00-00'            12058   	st	r0,	NEAR _SensorReturn+0c7h
                                12059   
                                12060   ;;	_flgUartFin = 0;
                                12061   CLINEA 0000H 0001H 0EFCH 0002H 0011H
00:0196 00 00                   12062   	mov	r0,	#00h
00:0198 11-90 00-00'            12063   	st	r0,	NEAR __flgUartFin
                                12064   
                                12065   ;;	uart_stop();
                                12066   CLINEA 0000H 0001H 0EFDH 0002H 000DH
00:019C 01-F0'00-00'            12067   	bl	_uart_stop
                                12068   
                                12069   ;;	uart_startSend(SensorReturn, 200, _funcUartFin);
                                12070   CLINEA 0000H 0001H 0EFEH 0002H 0031H
00:01A0 00'00                   12071   	mov	r0,	#BYTE1 OFFSET __funcUartFin
00:01A2 00'01                   12072   	mov	r1,	#BYTE2 OFFSET __funcUartFin
00:01A4 5E-F0                   12073   	push	er0
00:01A6 C8 02                   12074   	mov	r2,	#0c8h
00:01A8 00 03                   12075   	mov	r3,	#00h
00:01AA 00'00                   12076   	mov	r0,	#BYTE1 OFFSET _SensorReturn
00:01AC 00'01                   12077   	mov	r1,	#BYTE2 OFFSET _SensorReturn
00:01AE 01-F0'00-00'            12078   	bl	_uart_startSend
00:01B2 02 E1                   12079   	add	sp,	#2 
                                12080   
                                12081   ;;	while(_flgUartFin != 1){
                                12082   CLINEA 0000H 0000H 0EFFH 0002H 0019H
00:01B4                         12083   _$L768 :
                                12084   CBLOCK 256 10 3839
                                12085   CBLOCKEND 256 10 3841
                                12086   
                                12087   ;;	while(_flgUartFin != 1){
                                12088   CLINEA 0000H 0000H 0EFFH 000EH 0013H
00:01B4 10-90 00-00'            12089   	l	r0,	NEAR __flgUartFin
00:01B8 01 70                   12090   	cmp	r0,	#01h
00:01BA FC C8                   12091   	bne	_$L768
                                12092   CBLOCKEND 256 2 3843
                                12093   
                                12094   ;;}
                                12095   CLINEA 0000H 0001H 0F03H 0001H 0001H
00:01BC 8E-F2                   12096   	pop	pc
                                12097   CBLOCKEND 256 1 3843
                                12098   CFUNCTIONEND 256
                                12099   
                                12100   	public _Shutdown
                                12101   	public _NOPms
                                12102   	public _NOPus
                                12103   	public _approx_arctan2
                                12104   	public _checkI2C
                                12105   	public _main_clrWDT
                                12106   	public _Accel_PID_XYChangeFlag
                                12107   	public _main_reqNotHalt
                                12108   	public _ReturnMagData
                                12109   	public _DistanceSensorControl
                                12110   	public _AccelSensorControlPID
                                12111   	public _RangeSensorControlPID
                                12112   	public _PortA_Digital_Inputs
                                12113   	public _MagSensorControl
                                12114   	public _ESC2_PWM
                                12115   	public _Get_AccGyroData
                                12116   	public _main
                                12117   	public _MagSensorControlPID
                                12118   	public _ClearVariables
                                12119   	public _PortD_Low
                                12120   	public _NOP1000
                                12121   	public _ESC1_PWM
                                12122   	public _CheckSafetyLimitUnscaled
                                12123   	public _CalibrateAccel
                                12124   	public _Get_RangeData
                                12125   	public _PortC_Low
                                12126   	public _CheckSafetyLimit
                                12127   	public _ESC4_PWM
                                12128   	public _Get_MagData
                                12129   	public _UARTTunePID
                                12130   	public _Get_PingData
                                12131   	public _SerialOutCoefficients
                                12132   	public _PortB_Low
                                12133   	public _CalibrateMotors
                                12134   	public _ReturnAccelData
                                12135   	public _ESC3_PWM
                                12136   	public _CalibrateGyro
                                12137   	public _RampUpMotorTest
                                12138   	public _NOP
                                12139   	public _PortA_Low
                                12140   	public _analog_comparator
                                12141   	public _Run_AccGyroCF
                                12142   	public _SoftStart
                                12143   	public _ReturnSensorData
                                12144   	public _Debug_STEPTest
                                12145   	__flgUartFin comm data 01h #00h
                                12146   	__flgI2CFin comm data 01h #00h
                                12147   	__reqNotHalt comm data 01h #00h
                                12148   	extrn code near : _abs
                                12149   	extrn code near : _irq_init
                                12150   	extrn code near : _uart_PortSet
                                12151   	extrn code near : _i2c_stop
                                12152   	extrn code near : _i2c_startReceive
                                12153   	extrn code near : _uart_startReceive
                                12154   	extrn code near : _pow
                                12155   	extrn code near : _atan
                                12156   	extrn code near : _uart_init
                                12157   	extrn code near : _i2c_continue
                                12158   	extrn code near : _irq_di
                                12159   	extrn code near : _irq_ei
                                12160   	extrn code near : _sscanf_nn
                                12161   	extrn code near : _irq_setHdr
                                12162   	extrn code near : _sprintf_nn
                                12163   	extrn code near : _uart_stop
                                12164   	extrn code near : _uart_startSend
                                12165   	extrn code near : _i2c_startSend
                                12166   	extrn code near : _uart_continue
                                12167   	extrn code near : _atan2
                                12168   	extrn code near : _i2c_init
                                12169   	extrn code near : _tm_init
                                12170   	extrn code : $$start_up
                                12171   
  --------------------------    12172   	cseg #00h at 02h
00:0002 00-00'                  12173   	dw	$$start_up
                                12174   
  --------------------------    12175   	rseg $$NINITTAB
??:0000 68                      12176   	db	068h
??:0001 6B                      12177   	db	06bh
??:0002 00                      12178   	db	00h
??:0003 1C                      12179   	db	01ch
??:0004 00                      12180   	db	00h
??:0005 00                      12181   	align
??:0006 00-00                   12182   	dw	00h
??:0008 80-46                   12183   	dw	04680h
??:000A 1B                      12184   	db	01bh
??:000B 08                      12185   	db	08h
??:000C 6F-12                   12186   	dw	0126fh
??:000E 83-42                   12187   	dw	04283h
??:0010 1A                      12188   	db	01ah
??:0011 04                      12189   	db	04h
??:0012 19                      12190   	db	019h
??:0013 0B                      12191   	db	0bh
??:0014 38                      12192   	db	038h
??:0015 01                      12193   	db	01h
??:0016 00                      12194   	db	00h
??:0017 00                      12195   	db	00h
??:0018 00-00                   12196   	dw	00h
??:001A 3B                      12197   	db	03bh
??:001B 00                      12198   	align
??:001C 00-00                   12199   	dw	00h
??:001E 00-00                   12200   	dw	00h
??:0020 00                      12201   	db	00h
??:0021 00                      12202   	db	00h
??:0022 00                      12203   	db	00h
??:0023 00                      12204   	align
??:0024 00-00                   12205   	dw	00h
??:0026 00-00                   12206   	dw	00h
??:0028 00-00                   12207   	dw	00h
??:002A 00-00                   12208   	dw	00h
??:002C 00-00                   12209   	dw	00h
??:002E 00-00                   12210   	dw	00h
??:0030 00-00                   12211   	dw	00h
??:0032 00-00                   12212   	dw	00h
??:0034 00-00                   12213   	dw	00h
??:0036 00-00                   12214   	dw	00h
??:0038 00-00                   12215   	dw	00h
??:003A 00-00                   12216   	dw	00h
??:003C 00-00                   12217   	dw	00h
??:003E 00-00                   12218   	dw	00h
??:0040 00-00                   12219   	dw	00h
??:0042 00-00                   12220   	dw	00h
??:0044 00-00                   12221   	dw	00h
??:0046 00-00                   12222   	dw	00h
??:0048 1E                      12223   	db	01eh
??:0049 00                      12224   	db	00h
??:004A 78                      12225   	db	078h
??:004B 01                      12226   	db	01h
??:004C 60                      12227   	db	060h
??:004D 02                      12228   	db	02h
??:004E 01                      12229   	db	01h
??:004F 03                      12230   	db	03h
??:0050 09                      12231   	db	09h
??:0051 00                      12232   	align
??:0052 00-00                   12233   	dw	00h
??:0054 00-00                   12234   	dw	00h
??:0056 00-00                   12235   	dw	00h
??:0058 00-00                   12236   	dw	00h
??:005A 00-00                   12237   	dw	00h
??:005C 00-00                   12238   	dw	00h
??:005E 00-00                   12239   	dw	00h
??:0060 00-00                   12240   	dw	00h
??:0062 5C-8F                   12241   	dw	08f5ch
??:0064 C2-3F                   12242   	dw	03fc2h
??:0066 6F-12                   12243   	dw	0126fh
??:0068 03-BE                   12244   	dw	0be03h
??:006A 00-00                   12245   	dw	00h
??:006C 00-00                   12246   	dw	00h
??:006E 00-00                   12247   	dw	00h
??:0070 00-00                   12248   	dw	00h
??:0072 70                      12249   	db	070h
??:0073 51                      12250   	db	051h
??:0074 00-00                   12251   	dw	00h
??:0076 0A-00                   12252   	dw	0ah
??:0078 0A-00                   12253   	dw	0ah
??:007A 00-00                   12254   	dw	00h
??:007C 8C-42                   12255   	dw	0428ch
??:007E 00-00                   12256   	dw	00h
??:0080 48-42                   12257   	dw	04248h
??:0082 00-00                   12258   	dw	00h
??:0084 70-43                   12259   	dw	04370h
??:0086 AE-47                   12260   	dw	047aeh
??:0088 E1-BD                   12261   	dw	0bde1h
??:008A AE-47                   12262   	dw	047aeh
??:008C E1-3D                   12263   	dw	03de1h
??:008E AE-47                   12264   	dw	047aeh
??:0090 E1-BD                   12265   	dw	0bde1h
??:0092 AE-47                   12266   	dw	047aeh
??:0094 E1-3D                   12267   	dw	03de1h
??:0096 00-00                   12268   	dw	00h
??:0098 80-3F                   12269   	dw	03f80h
??:009A 00-80                   12270   	dw	08000h
??:009C B3-43                   12271   	dw	043b3h
??:009E 00-00                   12272   	dw	00h
??:00A0 34-43                   12273   	dw	04334h
??:00A2 00-00                   12274   	dw	00h
??:00A4 00-00                   12275   	dw	00h
??:00A6 00-00                   12276   	dw	00h
??:00A8 00-00                   12277   	dw	00h
??:00AA 00-00                   12278   	dw	00h
??:00AC 00-00                   12279   	dw	00h
??:00AE 00-00                   12280   	dw	00h
??:00B0 00-00                   12281   	dw	00h
??:00B2 00-00                   12282   	dw	00h
??:00B4 00-00                   12283   	dw	00h
??:00B6 00-00                   12284   	dw	00h
??:00B8 00-00                   12285   	dw	00h
??:00BA 00-00                   12286   	dw	00h
??:00BC 00-00                   12287   	dw	00h
??:00BE 00-00                   12288   	dw	00h
??:00C0 00-00                   12289   	dw	00h
??:00C2 00-00                   12290   	dw	00h
??:00C4 00-00                   12291   	dw	00h
??:00C6 C0-3E                   12292   	dw	03ec0h
??:00C8 00-00                   12293   	dw	00h
??:00CA 00-00                   12294   	dw	00h
??:00CC 9A-99                   12295   	dw	0999ah
??:00CE 59-3F                   12296   	dw	03f59h
??:00D0 00-00                   12297   	dw	00h
??:00D2 00-00                   12298   	dw	00h
??:00D4 00-00                   12299   	dw	00h
??:00D6 00-00                   12300   	dw	00h
??:00D8 00-00                   12301   	dw	00h
??:00DA 00-00                   12302   	dw	00h
??:00DC 00-00                   12303   	dw	00h
??:00DE 00-00                   12304   	dw	00h
??:00E0 EC-51                   12305   	dw	051ech
??:00E2 78-3F                   12306   	dw	03f78h
??:00E4 8F-C2                   12307   	dw	0c28fh
??:00E6 F5-3C                   12308   	dw	03cf5h
??:00E8 00                      12309   	db	00h
??:00E9 00                      12310   	db	00h
??:00EA 00-00                   12311   	dw	00h
??:00EC 00-00                   12312   	dw	00h
??:00EE 00-00                   12313   	dw	00h
??:00F0 00-00                   12314   	dw	00h
??:00F2 01                      12315   	db	01h
??:00F3 00                      12316   	align
??:00F4 00-00                   12317   	dw	00h
??:00F6 00-00                   12318   	dw	00h
??:00F8 00-00                   12319   	dw	00h
??:00FA 00-00                   12320   	dw	00h
??:00FC 00-00                   12321   	dw	00h
??:00FE 00-00                   12322   	dw	00h
??:0100 00-00                   12323   	dw	00h
??:0102 00-00                   12324   	dw	00h
??:0104 00-00                   12325   	dw	00h
??:0106 00-00                   12326   	dw	00h
??:0108 00-00                   12327   	dw	00h
??:010A 00-00                   12328   	dw	00h
??:010C 00-00                   12329   	dw	00h
??:010E 00-00                   12330   	dw	00h
??:0110 00-00                   12331   	dw	00h
??:0112 00-00                   12332   	dw	00h
??:0114 00-00                   12333   	dw	00h
??:0116 00-00                   12334   	dw	00h
??:0118 00-00                   12335   	dw	00h
??:011A 00-00                   12336   	dw	00h
??:011C 00-00                   12337   	dw	00h
??:011E 00-00                   12338   	dw	00h
??:0120 00-00                   12339   	dw	00h
??:0122 80-3F                   12340   	dw	03f80h
??:0124 00-00                   12341   	dw	00h
??:0126 00-00                   12342   	dw	00h
??:0128 00-00                   12343   	dw	00h
??:012A 00-00                   12344   	dw	00h
??:012C 00-00                   12345   	dw	00h
??:012E 00-00                   12346   	dw	00h
??:0130 00-00                   12347   	dw	00h
??:0132 00-00                   12348   	dw	00h
??:0134 00-00                   12349   	dw	00h
??:0136 00-00                   12350   	dw	00h
??:0138 00-00                   12351   	dw	00h
??:013A A0-40                   12352   	dw	040a0h
??:013C 00-00                   12353   	dw	00h
??:013E 00-00                   12354   	dw	00h
??:0140 00-00                   12355   	dw	00h
??:0142 00-00                   12356   	dw	00h
??:0144 00-00                   12357   	dw	00h
??:0146 A0-40                   12358   	dw	040a0h
??:0148 00-00                   12359   	dw	00h
??:014A 00-00                   12360   	dw	00h
??:014C 00-00                   12361   	dw	00h
??:014E 00-00                   12362   	dw	00h
??:0150 00                      12363   	db	00h
??:0151 00                      12364   	align
??:0152 00-00                   12365   	dw	00h
??:0154 FF-3F                   12366   	dw	03fffh
??:0156 FF-3F                   12367   	dw	03fffh
??:0158 FF-3F                   12368   	dw	03fffh
??:015A FF-3F                   12369   	dw	03fffh
??:015C 00                      12370   	db	00h
??:015D 00                      12371   	align
??:015E 00-00                   12372   	dw	00h
??:0160 8C-42                   12373   	dw	0428ch
??:0162 00-00                   12374   	dw	00h
??:0164 00-00                   12375   	dw	00h
??:0166 00-00                   12376   	dw	00h
??:0168 00-00                   12377   	dw	00h
??:016A 00-00                   12378   	dw	00h
??:016C 00-00                   12379   	dw	00h
??:016E 00-00                   12380   	dw	00h
??:0170 00-00                   12381   	dw	00h
??:0172 00-00                   12382   	dw	00h
??:0174 00-00                   12383   	dw	00h
??:0176 00-00                   12384   	dw	00h
??:0178 00-00                   12385   	dw	00h
??:017A 00-00                   12386   	dw	00h
??:017C 00-00                   12387   	dw	00h
??:017E 00-00                   12388   	dw	00h
??:0180 00-00                   12389   	dw	00h
??:0182 00-00                   12390   	dw	00h
??:0184 00-00                   12391   	dw	00h
??:0186 00-00                   12392   	dw	00h
??:0188 00-00                   12393   	dw	00h
??:018A 00-00                   12394   	dw	00h
??:018C 00                      12395   	db	00h
??:018D 00                      12396   	align
??:018E 00-00                   12397   	dw	00h
??:0190 20-03                   12398   	dw	0320h
??:0192 00-00                   12399   	dw	00h
??:0194 00-00                   12400   	dw	00h
??:0196 00                      12401   	db	00h
??:0197 00                      12402   	db	00h
??:0198 98-3A                   12403   	dw	03a98h
??:019A 40-1F                   12404   	dw	01f40h
??:019C 02-21                   12405   	dw	02102h
??:019E 68-42                   12406   	dw	04268h
??:01A0 00                      12407   	db	00h
??:01A1 00                      12408   	db	00h
??:01A2 00-00                   12409   	dw	00h
??:01A4 04-29                   12410   	dw	02904h
??:01A6 40-1F                   12411   	dw	01f40h
??:01A8 00-00                   12412   	dw	00h
??:01AA 00                      12413   	db	00h
??:01AB 00                      12414   	align
??:01AC 00-00                   12415   	dw	00h
??:01AE 00-00                   12416   	dw	00h
??:01B0 00-00                   12417   	dw	00h
??:01B2 00-00                   12418   	dw	00h
??:01B4 00-00                   12419   	dw	00h
??:01B6 00-00                   12420   	dw	00h
??:01B8 00-00                   12421   	dw	00h
??:01BA 00-00                   12422   	dw	00h
??:01BC 00-00                   12423   	dw	00h
??:01BE 00-00                   12424   	dw	00h
??:01C0 00-00                   12425   	dw	00h
??:01C2 00-00                   12426   	dw	00h
??:01C4 00-00                   12427   	dw	00h
??:01C6 00-00                   12428   	dw	00h
??:01C8 00-00                   12429   	dw	00h
??:01CA 00-00                   12430   	dw	00h
??:01CC 00-00                   12431   	dw	00h
??:01CE 00-00                   12432   	dw	00h
??:01D0 00-00                   12433   	dw	00h
??:01D2 00-00                   12434   	dw	00h
??:01D4 00-00                   12435   	dw	00h
??:01D6 00-00                   12436   	dw	00h
??:01D8 00-00                   12437   	dw	00h
??:01DA 00-00                   12438   	dw	00h
??:01DC 00-00                   12439   	dw	00h
??:01DE 00-00                   12440   	dw	00h
??:01E0 00-00                   12441   	dw	00h
??:01E2 00-00                   12442   	dw	00h
??:01E4 00-00                   12443   	dw	00h
??:01E6 00-00                   12444   	dw	00h
??:01E8 00-00                   12445   	dw	00h
??:01EA 00-00                   12446   	dw	00h
                                12447   
  --------------------------    12448   	rseg $$TAB_uartSetParam$main
00:0000                         12449   __uartSetParam :
00:0000 00-E8                   12450   	dw	0e800h
00:0002 03-00                   12451   	dw	03h
00:0004 00                      12452   	db	00h
00:0005 02                      12453   	db	02h
00:0006 00                      12454   	db	00h
00:0007 00                      12455   	db	00h
00:0008 00                      12456   	db	00h
00:0009 00                      12457   	align
                                12458   
  --------------------------    12459   	rseg $$TAB$$S44$main
00:0000                         12460   $$S44 :
00:0000 49 6E 64 65 78 2C 43 46 12461   	DB	"Index,CFx,CFy,Timer,MotSpeed"
00:0008 78 2C 43 46 79 2C 54 69   >>>   
00:0010 6D 65 72 2C 4D 6F 74 53   >>>   
00:0018 70 65 65 64 00            >>>   , 00H
                                12462   
  --------------------------    12463   	rseg $$TAB$$S190$main
00:0000                         12464   $$S190 :
00:0000 25 66 2C 25 66 2C 25 66 12465   	DB	"%f,%f,%f,%f,%f,%f,%f,%u"
00:0008 2C 25 66 2C 25 66 2C 25   >>>   
00:0010 66 2C 25 66 2C 25 75 00   >>>   , 00H
                                12466   
  --------------------------    12467   	rseg $$TAB$$S203$main
00:0000                         12468   $$S203 :
00:0000 25 66 2C 25 66 2C 25 66 12469   	DB	"%f,%f,%f",
00:0008 00                        >>>    00H
                                12470   
  --------------------------    12471   	rseg $$TAB$$S216$main
00:0000                         12472   $$S216 :
00:0000 25 66 00                12473   	DB	"%f", 00H
                                12474   
  --------------------------    12475   	rseg $$TAB$$S229$main
00:0000                         12476   $$S229 :
00:0000 4D 6F 74 6F 72 20 43 61 12477   	DB	"Motor Calibration Started!"
00:0008 6C 69 62 72 61 74 69 6F   >>>   
00:0010 6E 20 53 74 61 72 74 65   >>>   
00:0018 64 21 00                  >>>   , 00H
                                12478   
  --------------------------    12479   	rseg $$TAB$$S240$main
00:0000                         12480   $$S240 :
00:0000 4D 6F 74 6F 72 20 43 61 12481   	DB	"Motor Calibration Complete!"
00:0008 6C 69 62 72 61 74 69 6F   >>>   
00:0010 6E 20 43 6F 6D 70 6C 65   >>>   
00:0018 74 65 21 00               >>>   , 00H
                                12482   
  --------------------------    12483   	rseg $$TAB$$S254$main
00:0000                         12484   $$S254 :
00:0000 47 79 72 6F 20 43 61 6C 12485   	DB	"Gyro Calibration: Please Keep the Quad Flat and Return Any 2 chars to Start"
00:0008 69 62 72 61 74 69 6F 6E   >>>   
00:0010 3A 20 50 6C 65 61 73 65   >>>   
00:0018 20 4B 65 65 70 20 74 68   >>>   
00:0020 65 20 51 75 61 64 20 46   >>>   
00:0028 6C 61 74 20 61 6E 64 20   >>>   
00:0030 52 65 74 75 72 6E 20 41   >>>   
00:0038 6E 79 20 32 20 63 68 61   >>>   
00:0040 72 73 20 74 6F 20 53 74   >>>   
00:0048 61 72 74 00               >>>   , 00H
                                12486   
  --------------------------    12487   	rseg $$TAB$$S279$main
00:0000                         12488   $$S279 :
00:0000 47 79 72 6F 20 43 61 6C 12489   	DB	"Gyro Calibration Complete!"
00:0008 69 62 72 61 74 69 6F 6E   >>>   
00:0010 20 43 6F 6D 70 6C 65 74   >>>   
00:0018 65 21 00                  >>>   , 00H
                                12490   
  --------------------------    12491   	rseg $$TAB$$S295$main
00:0000                         12492   $$S295 :
00:0000 41 63 63 65 6C 20 43 61 12493   	DB	"Accel Calibration: Keep Quad Flat! Return any 2 chars to Start"
00:0008 6C 69 62 72 61 74 69 6F   >>>   
00:0010 6E 3A 20 4B 65 65 70 20   >>>   
00:0018 51 75 61 64 20 46 6C 61   >>>   
00:0020 74 21 20 52 65 74 75 72   >>>   
00:0028 6E 20 61 6E 79 20 32 20   >>>   
00:0030 63 68 61 72 73 20 74 6F   >>>   
00:0038 20 53 74 61 72 74 00      >>>   , 00H
                                12494   
  --------------------------    12495   	rseg $$TAB$$S326$main
00:0000                         12496   $$S326 :
00:0000 41 63 63 65 6C 20 43 61 12497   	DB	"Accel Calibration: Tilt the Quad 90deg in the ROLL Direction! Return any 2 chars to Start"
00:0008 6C 69 62 72 61 74 69 6F   >>>   
00:0010 6E 3A 20 54 69 6C 74 20   >>>   
00:0018 74 68 65 20 51 75 61 64   >>>   
00:0020 20 39 30 64 65 67 20 69   >>>   
00:0028 6E 20 74 68 65 20 52 4F   >>>   
00:0030 4C 4C 20 44 69 72 65 63   >>>   
00:0038 74 69 6F 6E 21 20 52 65   >>>   
00:0040 74 75 72 6E 20 61 6E 79   >>>   
00:0048 20 32 20 63 68 61 72 73   >>>   
00:0050 20 74 6F 20 53 74 61 72   >>>   
00:0058 74 00                     >>>   , 00H
                                12498   
  --------------------------    12499   	rseg $$TAB$$S351$main
00:0000                         12500   $$S351 :
00:0000 41 63 63 65 6C 20 43 61 12501   	DB	"Accel Calibration: Tilt the Quad 90deg in the PITCH direction! Return any 2 chars to Start"
00:0008 6C 69 62 72 61 74 69 6F   >>>   
00:0010 6E 3A 20 54 69 6C 74 20   >>>   
00:0018 74 68 65 20 51 75 61 64   >>>   
00:0020 20 39 30 64 65 67 20 69   >>>   
00:0028 6E 20 74 68 65 20 50 49   >>>   
00:0030 54 43 48 20 64 69 72 65   >>>   
00:0038 63 74 69 6F 6E 21 20 52   >>>   
00:0040 65 74 75 72 6E 20 61 6E   >>>   
00:0048 79 20 32 20 63 68 61 72   >>>   
00:0050 73 20 74 6F 20 53 74 61   >>>   
00:0058 72 74 00                  >>>   , 00H
                                12502   
  --------------------------    12503   	rseg $$TAB$$S376$main
00:0000                         12504   $$S376 :
00:0000 41 63 63 65 6C 20 43 61 12505   	DB	"Accel Calibration Complete!"
00:0008 6C 69 62 72 61 74 69 6F   >>>   
00:0010 6E 20 43 6F 6D 70 6C 65   >>>   
00:0018 74 65 21 00               >>>   , 00H
                                12506   
  --------------------------    12507   	rseg $$TAB$$S398$main
00:0000                         12508   $$S398 :
00:0000 43 75 72 72 65 6E 74 20 12509   	DB	"Current Settings: kp=%f,ki=%f,kd=%f,a1=%f,a2=%f"
00:0008 53 65 74 74 69 6E 67 73   >>>   
00:0010 3A 20 6B 70 3D 25 66 2C   >>>   
00:0018 6B 69 3D 25 66 2C 6B 64   >>>   
00:0020 3D 25 66 2C 61 31 3D 25   >>>   
00:0028 66 2C 61 32 3D 25 66 00   >>>   , 00H
                                12510   
  --------------------------    12511   	rseg $$TAB$$S442$main
00:0000                         12512   $$S442 :
00:0000 4E 65 77 20 53 65 74 74 12513   	DB	"New Settings: kp=%f,ki=%f,kd=%f,a1=%f,a2=%f"
00:0008 69 6E 67 73 3A 20 6B 70   >>>   
00:0010 3D 25 66 2C 6B 69 3D 25   >>>   
00:0018 66 2C 6B 64 3D 25 66 2C   >>>   
00:0020 61 31 3D 25 66 2C 61 32   >>>   
00:0028 3D 25 66 00               >>>   , 00H
                                12514   
  --------------------------    12515   	rseg $$TAB$$S509$main
00:0000                         12516   $$S509 :
00:0000 25 66 2C 25 66 2C 25 66 12517   	DB	"%f,%f,%f,%f"
00:0008 2C 25 66 00               >>>   , 00H
                                12518   
  --------------------------    12519   	rseg $$TAB$$S765$main
00:0000                         12520   $$S765 :
00:0000 25 75 2C 25 66 2C 25 66 12521   	DB	"%u,%f,%f,%u,%u"
00:0008 2C 25 75 2C 25 75 00      >>>   , 00H
                                12522   
  --------------------------    12523   	rseg $$NINITVAR
00:0000                         12524   _MPU6050Address :
00:0000                         12525   	ds	01h
00:0001                         12526   _AccGyro_PWRMGMT1REG :
00:0001                         12527   	ds	01h
00:0002                         12528   _AccGyro_PWRMGMT1REG_Contents :
00:0002                         12529   	ds	01h
00:0003                         12530   _AccGyro_AccelConfig :
00:0003                         12531   	ds	01h
00:0004                         12532   _AccGyro_AccelConfig_Contents :
00:0004                         12533   	ds	01h
00:0005                         12534   	align
00:0006                         12535   _AccGyro_AccelScaling :
00:0006                         12536   	ds	04h
00:000A                         12537   _AccGyro_GyroConfig :
00:000A                         12538   	ds	01h
00:000B                         12539   _AccGyro_GyroConfig_Contents :
00:000B                         12540   	ds	01h
00:000C                         12541   _AccGyro_GyroScaling :
00:000C                         12542   	ds	04h
00:0010                         12543   _AccGyro_GyroAccelLPF :
00:0010                         12544   	ds	01h
00:0011                         12545   _AccGyro_GyroAccelLPF_Contents :
00:0011                         12546   	ds	01h
00:0012                         12547   _AccGyro_GyroAccel_SMPRTDIV :
00:0012                         12548   	ds	01h
00:0013                         12549   _AccGyro_GyroAccelLPF_SMPRTDIVCo :
00:0013                         12550   	ds	01h
00:0014                         12551   _AccGyro_INTENABLEReg :
00:0014                         12552   	ds	01h
00:0015                         12553   _AccGyro_INTENABLEReg_contents :
00:0015                         12554   	ds	01h
00:0016                         12555   _AccGYRO_Test :
00:0016                         12556   	ds	01h
00:0017                         12557   _AccGyro_ReadFlag :
00:0017                         12558   	ds	01h
00:0018                         12559   _AccGyro_MissedIntCount :
00:0018                         12560   	ds	02h
00:001A                         12561   _AccGyro_ReadData :
00:001A                         12562   	ds	01h
00:001B                         12563   	align
00:001C                         12564   _Temp_out :
00:001C                         12565   	ds	04h
00:0020                         12566   _Accel_SavIndex :
00:0020                         12567   	ds	01h
00:0021                         12568   _Accel_RetIndex :
00:0021                         12569   	ds	01h
00:0022                         12570   _AccGyro_CF_FlagCounter :
00:0022                         12571   	ds	01h
00:0023                         12572   	align
00:0024                         12573   _CF_Accel_XRoll :
00:0024                         12574   	ds	04h
00:0028                         12575   _CF_Accel_YPitch :
00:0028                         12576   	ds	04h
00:002C                         12577   _CF_Gyro_XRoll :
00:002C                         12578   	ds	04h
00:0030                         12579   _CF_Gyro_YPitch :
00:0030                         12580   	ds	04h
00:0034                         12581   _CF_Accel_ForceMagApprox :
00:0034                         12582   	ds	04h
00:0038                         12583   _CF_Gyro_CurrentCount :
00:0038                         12584   	ds	04h
00:003C                         12585   _Gyro_Xcal :
00:003C                         12586   	ds	04h
00:0040                         12587   _Gyro_Ycal :
00:0040                         12588   	ds	04h
00:0044                         12589   _Gyro_Zcal :
00:0044                         12590   	ds	04h
00:0048                         12591   _HMC5883Address :
00:0048                         12592   	ds	01h
00:0049                         12593   _Mag_ConfigA :
00:0049                         12594   	ds	01h
00:004A                         12595   _Mag_ConfigA_Contents :
00:004A                         12596   	ds	01h
00:004B                         12597   _Mag_ConfigB :
00:004B                         12598   	ds	01h
00:004C                         12599   _Mag_ConfigB_Contents :
00:004C                         12600   	ds	01h
00:004D                         12601   _Mag_ModeReg :
00:004D                         12602   	ds	01h
00:004E                         12603   _Mag_ModeReg_Contents :
00:004E                         12604   	ds	01h
00:004F                         12605   _Mag_ReadData :
00:004F                         12606   	ds	01h
00:0050                         12607   _Mag_Status :
00:0050                         12608   	ds	01h
00:0051                         12609   	align
00:0052                         12610   _Mag_Xout :
00:0052                         12611   	ds	04h
00:0056                         12612   _Mag_Yout :
00:0056                         12613   	ds	04h
00:005A                         12614   _Mag_Zout :
00:005A                         12615   	ds	04h
00:005E                         12616   _Mag_Angle :
00:005E                         12617   	ds	04h
00:0062                         12618   _Mag_GainFactor :
00:0062                         12619   	ds	04h
00:0066                         12620   _Mag_DeclinationAngle :
00:0066                         12621   	ds	04h
00:006A                         12622   _timer_us :
00:006A                         12623   	ds	02h
00:006C                         12624   _Ping_timer :
00:006C                         12625   	ds	02h
00:006E                         12626   _Ping_out :
00:006E                         12627   	ds	04h
00:0072                         12628   _Range_Address :
00:0072                         12629   	ds	01h
00:0073                         12630   _Range_TakeRangeReading :
00:0073                         12631   	ds	01h
00:0074                         12632   _Range_out :
00:0074                         12633   	ds	02h
00:0076                         12634   _MotorStep :
00:0076                         12635   	ds	02h
00:0078                         12636   _Mag_MotorStep :
00:0078                         12637   	ds	02h
00:007A                         12638   _Range_ZHiThres :
00:007A                         12639   	ds	04h
00:007E                         12640   _Range_ZLoThres :
00:007E                         12641   	ds	04h
00:0082                         12642   _Range_Ceiling :
00:0082                         12643   	ds	04h
00:0086                         12644   _Accel_XLoThres :
00:0086                         12645   	ds	04h
00:008A                         12646   _Accel_XHiThres :
00:008A                         12647   	ds	04h
00:008E                         12648   _Accel_YLoThres :
00:008E                         12649   	ds	04h
00:0092                         12650   _Accel_YHiThres :
00:0092                         12651   	ds	04h
00:0096                         12652   _Mag_CWThres :
00:0096                         12653   	ds	04h
00:009A                         12654   _Mag_CCWThres :
00:009A                         12655   	ds	04h
00:009E                         12656   _Mag_OpposingPole :
00:009E                         12657   	ds	04h
00:00A2                         12658   _Mag_PIDSetpoint :
00:00A2                         12659   	ds	04h
00:00A6                         12660   _Mag_PIDCorrectionFactor :
00:00A6                         12661   	ds	04h
00:00AA                         12662   _Mag_PIDAngleScaled :
00:00AA                         12663   	ds	04h
00:00AE                         12664   _Mag_PIDError :
00:00AE                         12665   	ds	04h
00:00B2                         12666   _Mag_PIDCounter :
00:00B2                         12667   	ds	02h
00:00B4                         12668   _Mag_PIDCurrentCount :
00:00B4                         12669   	ds	04h
00:00B8                         12670   _Mag_PIDErrSum :
00:00B8                         12671   	ds	04h
00:00BC                         12672   _Mag_PIDdErr :
00:00BC                         12673   	ds	04h
00:00C0                         12674   _Mag_PIDErrPrev :
00:00C0                         12675   	ds	04h
00:00C4                         12676   _Mag_PID_kp :
00:00C4                         12677   	ds	04h
00:00C8                         12678   _Mag_PID_ki :
00:00C8                         12679   	ds	04h
00:00CC                         12680   _Mag_PID_kd :
00:00CC                         12681   	ds	04h
00:00D0                         12682   _Mag_PIDOutput :
00:00D0                         12683   	ds	04h
00:00D4                         12684   _CF_Gyro_Counter :
00:00D4                         12685   	ds	04h
00:00D8                         12686   _CF_YPitch :
00:00D8                         12687   	ds	04h
00:00DC                         12688   _CF_XRoll :
00:00DC                         12689   	ds	04h
00:00E0                         12690   _CF_HPF :
00:00E0                         12691   	ds	04h
00:00E4                         12692   _CF_LPF :
00:00E4                         12693   	ds	04h
00:00E8                         12694   _CF_UseFlag :
00:00E8                         12695   	ds	01h
00:00E9                         12696   _CF_Counter :
00:00E9                         12697   	ds	01h
00:00EA                         12698   _CF_YPitch_avg :
00:00EA                         12699   	ds	04h
00:00EE                         12700   _CF_XRoll_avg :
00:00EE                         12701   	ds	04h
00:00F2                         12702   _CF_highlow_flag :
00:00F2                         12703   	ds	01h
00:00F3                         12704   	align
00:00F4                         12705   _CF_YPitch_high :
00:00F4                         12706   	ds	04h
00:00F8                         12707   _CF_XRoll_high :
00:00F8                         12708   	ds	04h
00:00FC                         12709   _CF_YPitch_low :
00:00FC                         12710   	ds	04h
00:0100                         12711   _CF_XRoll_low :
00:0100                         12712   	ds	04h
00:0104                         12713   _CF_avgCnt :
00:0104                         12714   	ds	04h
00:0108                         12715   _CF_StdDev_M_X :
00:0108                         12716   	ds	04h
00:010C                         12717   _CF_StdDev_M_Y :
00:010C                         12718   	ds	04h
00:0110                         12719   _CF_StdDev_Mtmp_X :
00:0110                         12720   	ds	04h
00:0114                         12721   _CF_StdDev_Mtmp_Y :
00:0114                         12722   	ds	04h
00:0118                         12723   _CF_StdDev_S_X :
00:0118                         12724   	ds	04h
00:011C                         12725   _CF_StdDev_S_Y :
00:011C                         12726   	ds	04h
00:0120                         12727   _CF_StdDev_K :
00:0120                         12728   	ds	04h
00:0124                         12729   _Accel_PID_XRollCounter :
00:0124                         12730   	ds	02h
00:0126                         12731   _Accel_PID_XRollErrSum :
00:0126                         12732   	ds	04h
00:012A                         12733   _Accel_PID_XRollErrPrev :
00:012A                         12734   	ds	04h
00:012E                         12735   _Accel_PID_YPitchCounter :
00:012E                         12736   	ds	02h
00:0130                         12737   _Accel_PID_YPitchErrSum :
00:0130                         12738   	ds	04h
00:0134                         12739   _Accel_PID_YPitchErrPrev :
00:0134                         12740   	ds	04h
00:0138                         12741   _Accel_PID_XRoll_kp :
00:0138                         12742   	ds	04h
00:013C                         12743   _Accel_PID_XRoll_ki :
00:013C                         12744   	ds	04h
00:0140                         12745   _Accel_PID_XRoll_kd :
00:0140                         12746   	ds	04h
00:0144                         12747   _Accel_PID_YPitch_kp :
00:0144                         12748   	ds	04h
00:0148                         12749   _Accel_PID_YPitch_ki :
00:0148                         12750   	ds	04h
00:014C                         12751   _Accel_PID_YPitch_kd :
00:014C                         12752   	ds	04h
00:0150                         12753   _Accel_PID_XYChangeFlag :
00:0150                         12754   	ds	01h
00:0151                         12755   	align
00:0152                         12756   _Accel_PID_Counter :
00:0152                         12757   	ds	02h
00:0154                         12758   _Accel_PID_Motor1 :
00:0154                         12759   	ds	02h
00:0156                         12760   _Accel_PID_Motor2 :
00:0156                         12761   	ds	02h
00:0158                         12762   _Accel_PID_Motor3 :
00:0158                         12763   	ds	02h
00:015A                         12764   _Accel_PID_Motor4 :
00:015A                         12765   	ds	02h
00:015C                         12766   _Accel_PID_GoCounter :
00:015C                         12767   	ds	01h
00:015D                         12768   	align
00:015E                         12769   _Range_PIDSetpoint :
00:015E                         12770   	ds	04h
00:0162                         12771   _Range_PIDError :
00:0162                         12772   	ds	04h
00:0166                         12773   _Range_PIDCounter :
00:0166                         12774   	ds	02h
00:0168                         12775   _Range_PIDCurrentCount :
00:0168                         12776   	ds	04h
00:016C                         12777   _Range_PIDErrSum :
00:016C                         12778   	ds	04h
00:0170                         12779   _Range_PIDdErr :
00:0170                         12780   	ds	04h
00:0174                         12781   _Range_PIDErrPrev :
00:0174                         12782   	ds	04h
00:0178                         12783   _Range_PIDOutput :
00:0178                         12784   	ds	04h
00:017C                         12785   _Range_PID_kp :
00:017C                         12786   	ds	04h
00:0180                         12787   _Range_PID_ki :
00:0180                         12788   	ds	04h
00:0184                         12789   _Range_PID_kd :
00:0184                         12790   	ds	04h
00:0188                         12791   _TestingEndTimer :
00:0188                         12792   	ds	02h
00:018A                         12793   _Timer8Counter :
00:018A                         12794   	ds	02h
00:018C                         12795   _MotorStepCount :
00:018C                         12796   	ds	01h
00:018D                         12797   	align
00:018E                         12798   _MotorSpeedUT :
00:018E                         12799   	ds	02h
00:0190                         12800   _MotorSpeedChange :
00:0190                         12801   	ds	02h
00:0192                         12802   _MotorIndex :
00:0192                         12803   	ds	02h
00:0194                         12804   _MotorTimerUT :
00:0194                         12805   	ds	02h
00:0196                         12806   _MotorStepUpDnFlg :
00:0196                         12807   	ds	01h
00:0197                         12808   _PWMflag :
00:0197                         12809   	ds	01h
00:0198                         12810   _PWMUpperDutyLimitCalib :
00:0198                         12811   	ds	02h
00:019A                         12812   _PWMLowerDutyLimitCalib :
00:019A                         12813   	ds	02h
00:019C                         12814   _PWMSafeDuty :
00:019C                         12815   	ds	02h
00:019E                         12816   _PWMPeriod :
00:019E                         12817   	ds	02h
00:01A0                         12818   _PWMCounter :
00:01A0                         12819   	ds	01h
00:01A1                         12820   _PWMSensorResPerInc :
00:01A1                         12821   	ds	01h
00:01A2                         12822   _PWMUpperLowerDiff :
00:01A2                         12823   	ds	02h
00:01A4                         12824   _PWMUpperDutyLimitRun :
00:01A4                         12825   	ds	02h
00:01A6                         12826   _PWMLowerDutyLimitRun :
00:01A6                         12827   	ds	02h
00:01A8                         12828   _$ST0 :
00:01A8                         12829   	ds	02h
00:01AA                         12830   _$ST1 :
00:01AA                         12831   	ds	01h
00:01AB                         12832   	align
00:01AC                         12833   _$ST2 :
00:01AC                         12834   	ds	04h
00:01B0                         12835   _$ST3 :
00:01B0                         12836   	ds	04h
00:01B4                         12837   _$ST4 :
00:01B4                         12838   	ds	04h
00:01B8                         12839   _$ST5 :
00:01B8                         12840   	ds	04h
00:01BC                         12841   _$ST6 :
00:01BC                         12842   	ds	04h
00:01C0                         12843   _$ST7 :
00:01C0                         12844   	ds	04h
00:01C4                         12845   _$ST8 :
00:01C4                         12846   	ds	04h
00:01C8                         12847   _$ST9 :
00:01C8                         12848   	ds	04h
00:01CC                         12849   _$ST10 :
00:01CC                         12850   	ds	04h
00:01D0                         12851   _$ST11 :
00:01D0                         12852   	ds	04h
00:01D4                         12853   _$ST12 :
00:01D4                         12854   	ds	04h
00:01D8                         12855   _$ST13 :
00:01D8                         12856   	ds	04h
00:01DC                         12857   _$ST14 :
00:01DC                         12858   	ds	04h
00:01E0                         12859   _$ST15 :
00:01E0                         12860   	ds	04h
00:01E4                         12861   _$ST16 :
00:01E4                         12862   	ds	04h
00:01E8                         12863   _$ST17 :
00:01E8                         12864   	ds	04h
                                12865   
  --------------------------    12866   	rseg $$NVARmain
00:0000                         12867   _RecWorld :
00:0000                         12868   	ds	08h
00:0008                         12869   _SensorReturn :
00:0008                         12870   	ds	0c8h
00:00D0                         12871   _Gyro_Zout :
00:00D0                         12872   	ds	028h
00:00F8                         12873   _Gyro_Yout :
00:00F8                         12874   	ds	028h
00:0120                         12875   _NewVar_Str :
00:0120                         12876   	ds	06h
00:0126                         12877   _NewVar :
00:0126                         12878   	ds	04h
00:012A                         12879   _AccGyro_Data :
00:012A                         12880   	ds	0eh
00:0138                         12881   _Range_Output :
00:0138                         12882   	ds	02h
00:013A                         12883   _Accel_Zcal :
00:013A                         12884   	ds	0ch
00:0146                         12885   _Accel_Xcal :
00:0146                         12886   	ds	0ch
00:0152                         12887   _Mag_Data :
00:0152                         12888   	ds	06h
00:0158                         12889   _Accel_Xout :
00:0158                         12890   	ds	028h
00:0180                         12891   _Accel_Ycal :
00:0180                         12892   	ds	0ch
00:018C                         12893   _SensorReturnSM :
00:018C                         12894   	ds	032h
00:01BE                         12895   _Accel_Yout :
00:01BE                         12896   	ds	028h
00:01E6                         12897   _Accel_Zout :
00:01E6                         12898   	ds	028h
00:020E                         12899   _Gyro_Xout :
00:020E                         12900   	ds	028h
                                12901   	extrn code : __faddu8sw
                                12902   	extrn code : __fsubu8sw
                                12903   	extrn code : __fnegu8sw
                                12904   	extrn code : __fcmpu8sw
                                12905   	extrn code : __fmulu8sw
                                12906   	extrn code : __fdivu8sw
                                12907   	extrn code : __fildu8sw
                                12908   	extrn code : __ftolu8sw
                                12909   	extrn code : __ftodu8sw
                                12910   	extrn code : __daddu8sw
                                12911   	extrn code : __dsubu8sw
                                12912   	extrn code : __dmulu8sw
                                12913   	extrn code : __dildu8sw
                                12914   	extrn code : __dtofu8sw
                                12915   	extrn code : __fuldu8sw
                                12916   
                                12917   	end



  Target       : ML610112 (nX-U8/100)
  Memory Model : SMALL
  Data   Model : NEAR
  ROM WINDOW   : (not specified)
  Internal RAM : E000H to EFFFH

  Errors   : 0
  Warnings : 0  (/Wrpeast)
  Lines    : 12917
