RASU8(ML610112)Relocatable Assembler, Ver.1.61.2    assemble list. page:   1 
 Source File: _output\_obj\main.asm
 Object File: _output\_obj\main.obj
 Date  : 2014/06/11 Wed.[14:29]
 Title : 
## Loc. Object                   Line   Source Statements

                                    1   ;; Compile Options : /TML610112 /MS /near /Icommon /Imain /Iirq /Itimer /Iclock /Itbc /Iuart /Ii2c /SS 256 /SD /Oa /Ot /W 3 /Wc /Fa_output\_obj\ 
                                    2   ;; Version Number  : Ver.3.41.8
                                    3   ;; File Name       : main.c
                                    4   
                                    5   	type (ML610112) 
                                    6   	model small, near
                                    7   	$$NVARmain segment data 2h #0h
                                    8   	$$NINITVAR segment data 2h #0h
                                    9   	$$NINITTAB segment table 2h any
                                   10   	$$AccelGyroDataReady_ISR$main segment code 2h #0h
                                   11   	$$AccelSensorControlPID$main segment code 2h #0h
                                   12   	$$CalibrateAccel$main segment code 2h #0h
                                   13   	$$CalibrateGyro$main segment code 2h #0h
                                   14   	$$CalibrateMotors$main segment code 2h #0h
                                   15   	$$CheckSafetyLimit$main segment code 2h #0h
                                   16   	$$CheckSafetyLimitUnscaled$main segment code 2h #0h
                                   17   	$$ClearVariables$main segment code 2h #0h
                                   18   	$$DistanceSensorControl$main segment code 2h #0h
                                   19   	$$ESC1_PWM$main segment code 2h #0h
                                   20   	$$ESC2_PWM$main segment code 2h #0h
                                   21   	$$ESC3_PWM$main segment code 2h #0h
                                   22   	$$ESC4_PWM$main segment code 2h #0h
                                   23   	$$Get_AccGyroData$main segment code 2h #0h
                                   24   	$$Get_MagData$main segment code 2h #0h
                                   25   	$$Get_PingData$main segment code 2h #0h
                                   26   	$$Get_RangeData$main segment code 2h #0h
                                   27   	$$Initialization$main segment code 2h #0h
                                   28   	$$MagSensorControl$main segment code 2h #0h
                                   29   	$$MagSensorControlPID$main segment code 2h #0h
                                   30   	$$NOP$main segment code 2h #0h
                                   31   	$$NOP1000$main segment code 2h #0h
                                   32   	$$NOPms$main segment code 2h #0h
                                   33   	$$NOPus$main segment code 2h #0h
                                   34   	$$PortA_Digital_Inputs$main segment code 2h #0h
                                   35   	$$PortA_Low$main segment code 2h #0h
                                   36   	$$PortB_Low$main segment code 2h #0h
                                   37   	$$PortC_Low$main segment code 2h #0h
                                   38   	$$PortD_Low$main segment code 2h #0h
                                   39   	$$RampUpMotorTest$main segment code 2h #0h
                                   40   	$$RangeSensorControlPID$main segment code 2h #0h
                                   41   	$$ReturnAccelData$main segment code 2h #0h
                                   42   	$$ReturnMagData$main segment code 2h #0h
                                   43   	$$ReturnSensorData$main segment code 2h #0h
                                   44   	$$Run_AccGyroCF$main segment code 2h #0h
                                   45   	$$SerialOutCoefficients$main segment code 2h #0h
                                   46   	$$SetOSC$main segment code 2h #0h
                                   47   	$$Shutdown$main segment code 2h #0h
                                   48   	$$SoftStart$main segment code 2h #0h
                                   49   	$$TAB$$S185$main segment table 2h #0h
                                   50   	$$TAB$$S198$main segment table 2h #0h
                                   51   	$$TAB$$S211$main segment table 2h #0h
                                   52   	$$TAB$$S225$main segment table 2h #0h
                                   53   	$$TAB$$S250$main segment table 2h #0h
                                   54   	$$TAB$$S266$main segment table 2h #0h
                                   55   	$$TAB$$S297$main segment table 2h #0h
                                   56   	$$TAB$$S322$main segment table 2h #0h
                                   57   	$$TAB$$S347$main segment table 2h #0h
                                   58   	$$TAB$$S369$main segment table 2h #0h
                                   59   	$$TAB$$S419$main segment table 2h #0h
                                   60   	$$TAB$$S486$main segment table 2h #0h
                                   61   	$$TAB_uartSetParam$main segment table 2h #0h
                                   62   	$$TBC_ISR$main segment code 2h #0h
                                   63   	$$TMR89_ISR$main segment code 2h #0h
                                   64   	$$UARTTunePID$main segment code 2h #0h
                                   65   	$$_funcI2CFin$main segment code 2h #0h
                                   66   	$$_funcUartFin$main segment code 2h #0h
                                   67   	$$_intI2c$main segment code 2h #0h
                                   68   	$$_intUart$main segment code 2h #0h
                                   69   	$$analog_comparator$main segment code 2h #0h
                                   70   	$$approx_arctan2$main segment code 2h #0h
                                   71   	$$checkI2C$main segment code 2h #0h
                                   72   	$$main$main segment code 2h #0h
                                   73   	$$main_clrWDT$main segment code 2h #0h
                                   74   	$$main_reqNotHalt$main segment code 2h #0h
                                   75   	STACKSEG 0100h
                                   76   CVERSION 3.41.8
                                   77   CGLOBAL 01H 03H 0000H "Shutdown" 08H 02H 0F2H 00H 81H 02H 00H 00H 07H
                                   78   CSGLOBAL 03H 0000H "TBC_ISR" 08H 02H 0FEH 00H 80H 00H 00H 00H 07H
                                   79   CGLOBAL 01H 03H 0000H "NOPms" 08H 02H 0FAH 00H 81H 0aH 00H 00H 07H
                                   80   CGLOBAL 01H 03H 0000H "NOPus" 08H 02H 0FBH 00H 80H 00H 00H 00H 07H
                                   81   CGLOBAL 01H 03H 0000H "approx_arctan2" 08H 02H 0FDH 00H 83H 40H 00H 00H 03H
                                   82   CGLOBAL 01H 03H 0000H "checkI2C" 08H 02H 0F5H 00H 81H 02H 00H 00H 07H
                                   83   CGLOBAL 01H 03H 0000H "main_clrWDT" 08H 02H 0CEH 00H 80H 00H 00H 00H 07H
                                   84   CSGLOBAL 03H 0000H "_funcUartFin" 08H 02H 0F3H 00H 81H 02H 00H 00H 07H
                                   85   CGLOBAL 01H 03H 0000H "main_reqNotHalt" 08H 02H 0F6H 00H 80H 00H 00H 00H 07H
                                   86   CGLOBAL 01H 03H 0000H "ReturnMagData" 08H 02H 0E3H 00H 81H 0eH 00H 00H 07H
                                   87   CGLOBAL 01H 03H 0000H "DistanceSensorControl" 08H 02H 0EBH 00H 81H 0aH 00H 00H 07H
                                   88   CGLOBAL 01H 03H 0000H "AccelSensorControlPID" 08H 02H 0EEH 00H 81H 1aH 00H 00H 07H
                                   89   CSGLOBAL 03H 0000H "Initialization" 08H 02H 0CFH 00H 81H 0aH 00H 00H 07H
                                   90   CGLOBAL 01H 03H 0000H "RangeSensorControlPID" 08H 02H 0EFH 00H 81H 20H 00H 00H 07H
                                   91   CGLOBAL 01H 03H 0000H "PortA_Digital_Inputs" 08H 02H 0D6H 00H 80H 00H 00H 00H 07H
                                   92   CGLOBAL 01H 03H 0000H "MagSensorControl" 08H 02H 0ECH 00H 81H 0aH 00H 00H 07H
                                   93   CGLOBAL 01H 03H 0000H "ESC2_PWM" 08H 02H 0D8H 00H 80H 00H 00H 00H 07H
                                   94   CGLOBAL 01H 03H 0000H "Get_AccGyroData" 08H 02H 0DDH 00H 81H 0cH 00H 00H 07H
                                   95   CGLOBAL 01H 03H 0000H "main" 08H 02H 01H 01H 80H 00H 00H 00H 01H
                                   96   CGLOBAL 01H 03H 0000H "MagSensorControlPID" 08H 02H 0EDH 00H 81H 2aH 00H 00H 07H
                                   97   CSGLOBAL 03H 0000H "_intUart" 08H 02H 0F7H 00H 80H 00H 00H 00H 07H
                                   98   CGLOBAL 01H 03H 0000H "ClearVariables" 08H 02H 0E0H 00H 80H 00H 00H 00H 07H
                                   99   CGLOBAL 01H 03H 0000H "PortD_Low" 08H 02H 0D5H 00H 80H 00H 00H 00H 07H
                                  100   CGLOBAL 01H 03H 0000H "NOP1000" 08H 02H 0FCH 00H 80H 00H 00H 00H 07H
                                  101   CGLOBAL 01H 03H 0000H "ESC1_PWM" 08H 02H 0D7H 00H 80H 00H 00H 00H 07H
                                  102   CSGLOBAL 03H 0000H "_intI2c" 08H 02H 0F8H 00H 80H 00H 00H 00H 07H
                                  103   CGLOBAL 01H 03H 0000H "CheckSafetyLimitUnscaled" 08H 02H 0F1H 00H 80H 00H 00H 00H 07H
                                  104   CSGLOBAL 03H 0000H "SetOSC" 08H 02H 0D0H 00H 80H 00H 00H 00H 07H
                                  105   CGLOBAL 01H 03H 0000H "CalibrateAccel" 08H 02H 0E6H 00H 81H 0cH 00H 00H 07H
                                  106   CSGLOBAL 03H 0000H "AccelGyroDataReady_ISR" 08H 02H 00H 01H 80H 00H 00H 00H 07H
                                  107   CGLOBAL 01H 03H 0000H "Get_RangeData" 08H 02H 0DBH 00H 81H 0aH 00H 00H 07H
                                  108   CGLOBAL 01H 03H 0000H "PortC_Low" 08H 02H 0D4H 00H 80H 00H 00H 00H 07H
                                  109   CSGLOBAL 03H 0000H "TMR89_ISR" 08H 02H 0FFH 00H 81H 0aH 00H 00H 07H
                                  110   CGLOBAL 01H 03H 0000H "CheckSafetyLimit" 08H 02H 0F0H 00H 80H 00H 00H 00H 07H
                                  111   CGLOBAL 01H 03H 0000H "ESC4_PWM" 08H 02H 0DAH 00H 80H 00H 00H 00H 07H
                                  112   CGLOBAL 01H 03H 0000H "Get_MagData" 08H 02H 0DFH 00H 83H 28H 00H 00H 07H
                                  113   CGLOBAL 01H 03H 0000H "UARTTunePID" 08H 02H 0E8H 00H 81H 2eH 00H 00H 07H
                                  114   CGLOBAL 01H 03H 0000H "Get_PingData" 08H 02H 0DCH 00H 81H 16H 00H 00H 07H
                                  115   CGLOBAL 01H 03H 0000H "SerialOutCoefficients" 08H 02H 0E7H 00H 81H 2eH 00H 00H 07H
                                  116   CGLOBAL 01H 03H 0000H "PortB_Low" 08H 02H 0D3H 00H 80H 00H 00H 00H 07H
                                  117   CGLOBAL 01H 03H 0000H "CalibrateMotors" 08H 02H 0E4H 00H 80H 00H 00H 00H 07H
                                  118   CGLOBAL 01H 03H 0000H "ReturnAccelData" 08H 02H 0E2H 00H 81H 0cH 00H 00H 07H
                                  119   CGLOBAL 01H 03H 0000H "ESC3_PWM" 08H 02H 0D9H 00H 80H 00H 00H 00H 07H
                                  120   CGLOBAL 01H 03H 0000H "CalibrateGyro" 08H 02H 0E5H 00H 81H 0cH 00H 00H 07H
                                  121   CGLOBAL 01H 03H 0000H "RampUpMotorTest" 08H 02H 0EAH 00H 80H 00H 00H 00H 07H
                                  122   CGLOBAL 01H 03H 0000H "NOP" 08H 02H 0F9H 00H 81H 08H 00H 00H 07H
                                  123   CGLOBAL 01H 03H 0000H "PortA_Low" 08H 02H 0D2H 00H 80H 00H 00H 00H 07H
                                  124   CGLOBAL 01H 03H 0000H "analog_comparator" 08H 02H 0D1H 00H 80H 00H 00H 00H 07H
                                  125   CGLOBAL 01H 03H 0000H "Run_AccGyroCF" 08H 02H 0DEH 00H 83H 24H 00H 00H 07H
                                  126   CSGLOBAL 03H 0000H "_funcI2CFin" 08H 02H 0F4H 00H 81H 02H 00H 00H 07H
                                  127   CGLOBAL 01H 03H 0000H "SoftStart" 08H 02H 0E9H 00H 81H 02H 00H 00H 07H
                                  128   CGLOBAL 01H 03H 0000H "ReturnSensorData" 08H 02H 0E1H 00H 81H 1cH 00H 00H 07H
                                  129   CSTRUCTTAG 0000H 0000H 0005H 000CH 00000016H "_Notag"
                                  130   CSTRUCTMEM 42H 00000002H 00000000H "_Mode" 02H 00H 08H
                                  131   CSTRUCTMEM 43H 00000002H 00000002H "_Handle" 02H 00H 08H
                                  132   CSTRUCTMEM 42H 00000002H 00000004H "_Buf" 04H 03H 00H 00H 00H
                                  133   CSTRUCTMEM 42H 00000002H 00000006H "_Bend" 04H 03H 00H 00H 00H
                                  134   CSTRUCTMEM 42H 00000002H 00000008H "_Next" 04H 03H 00H 00H 00H
                                  135   CSTRUCTMEM 42H 00000002H 0000000AH "_Rend" 04H 03H 00H 00H 00H
                                  136   CSTRUCTMEM 42H 00000002H 0000000CH "_Rsave" 04H 03H 00H 00H 00H
                                  137   CSTRUCTMEM 42H 00000002H 0000000EH "_Wend" 04H 03H 00H 00H 00H
                                  138   CSTRUCTMEM 42H 00000002H 00000010H "_Back" 05H 01H 02H 00H 00H 00H
                                  139   CSTRUCTMEM 42H 00000001H 00000012H "_Cbuf" 02H 00H 00H
                                  140   CSTRUCTMEM 42H 00000001H 00000013H "_Nback" 02H 00H 00H
                                  141   CSTRUCTMEM 43H 00000002H 00000014H "_Tmpnam" 04H 03H 00H 00H 00H
                                  142   CSTRUCTTAG 0000H 0000H 0004H 0001H 00000004H "_Notag"
                                  143   CSTRUCTMEM 42H 00000004H 00000000H "_Off" 02H 00H 02H
                                  144   CSTRUCTTAG 0000H 0000H 0003H 0006H 0000000AH "_Notag"
                                  145   CSTRUCTMEM 42H 00000004H 00000000H "br" 02H 00H 02H
                                  146   CSTRUCTMEM 42H 00000001H 00000004H "lg" 02H 00H 00H
                                  147   CSTRUCTMEM 42H 00000001H 00000005H "pt" 02H 00H 00H
                                  148   CSTRUCTMEM 42H 00000001H 00000006H "stp" 02H 00H 00H
                                  149   CSTRUCTMEM 42H 00000001H 00000007H "neg" 02H 00H 00H
                                  150   CSTRUCTMEM 42H 00000001H 00000008H "dir" 02H 00H 00H
                                  151   CSTRUCTTAG 0000H 0000H 0002H 0002H 00000008H "_Notag"
                                  152   CSTRUCTMEM 43H 00000004H 00000000H "quot" 02H 00H 02H
                                  153   CSTRUCTMEM 43H 00000004H 00000004H "rem" 02H 00H 02H
                                  154   CSTRUCTTAG 0000H 0000H 0001H 0002H 00000004H "_Notag"
                                  155   CSTRUCTMEM 43H 00000002H 00000000H "quot" 02H 00H 01H
                                  156   CSTRUCTMEM 43H 00000002H 00000002H "rem" 02H 00H 01H
                                  157   CSTRUCTTAG 0000H 0000H 0000H 0008H 00000001H "_Notag"
                                  158   CSTRUCTMEM 52H 00000001H 00000000H "b0" 02H 00H 00H
                                  159   CSTRUCTMEM 52H 00000001H 00000001H "b1" 02H 00H 00H
                                  160   CSTRUCTMEM 52H 00000001H 00000002H "b2" 02H 00H 00H
                                  161   CSTRUCTMEM 52H 00000001H 00000003H "b3" 02H 00H 00H
                                  162   CSTRUCTMEM 52H 00000001H 00000004H "b4" 02H 00H 00H
                                  163   CSTRUCTMEM 52H 00000001H 00000005H "b5" 02H 00H 00H
                                  164   CSTRUCTMEM 52H 00000001H 00000006H "b6" 02H 00H 00H
                                  165   CSTRUCTMEM 52H 00000001H 00000007H "b7" 02H 00H 00H
                                  166   CUNIONTAG 0000H 0000H 0006H 0002H 00000008H "_Notag"
                                  167   CUNIONMEM 42H 00000008H "_W" 05H 01H 04H 00H 00H 08H
                                  168   CUNIONMEM 43H 00000008H "_D" 02H 00H 04H
                                  169   CTYPEDEF 0000H 0000H 01H "_Dconst" 04H 00H 06H 06H 00H
                                  170   CTYPEDEF 0000H 0000H 43H "_Ptrdifft" 02H 00H 01H
                                  171   CTYPEDEF 0000H 0000H 42H "_Sizet" 02H 00H 01H
                                  172   CTYPEDEF 0000H 0000H 43H "tUartSetParam" 04H 00H 05H 03H 00H
                                  173   CTYPEDEF 0000H 0000H 42H "size_t" 02H 00H 01H
                                  174   CTYPEDEF 0000H 0000H 43H "cbfUart" 0AH 03H 00H 02H 2EH 00H 00H 00H 00H 00H 07H
                                  175   CTYPEDEF 0000H 0000H 43H "fpos_t" 04H 00H 05H 04H 00H
                                  176   CTYPEDEF 0000H 0000H 43H "cbfI2c" 0AH 03H 00H 02H 43H 00H 00H 00H 00H 00H 07H
                                  177   CTYPEDEF 0000H 0000H 03H "_Cmpfun_nf" 08H 02H 01H 00H 00H 00H 00H 00H 01H
                                  178   CTYPEDEF 0000H 0000H 03H "_Cmpfun_nn" 08H 02H 00H 00H 00H 00H 00H 00H 01H
                                  179   CTYPEDEF 0000H 0000H 03H "_Cmpfun_ff" 08H 02H 03H 00H 00H 00H 00H 00H 01H
                                  180   CTYPEDEF 0000H 0000H 03H "_Cmpfun_fn" 08H 02H 02H 00H 00H 00H 00H 00H 01H
                                  181   CTYPEDEF 0000H 0000H 43H "FILE" 04H 00H 05H 05H 00H
                                  182   CTYPEDEF 0000H 0000H 43H "div_t" 04H 00H 05H 01H 00H
                                  183   CTYPEDEF 0000H 0000H 43H "ldiv_t" 04H 00H 05H 02H 00H
                                  184   CTYPEDEF 0000H 0000H 43H "_BYTE_FIELD" 04H 00H 05H 00H 00H
                                  185   CSGLOBAL 43H 0004H "CF_LPF" 02H 00H 03H
                                  186   CSGLOBAL 43H 0004H "Mag_OpposingPole" 02H 00H 03H
                                  187   CSGLOBAL 42H 0001H "AccGyro_GyroAccel_SMPRTDIV" 02H 00H 00H
                                  188   CSGLOBAL 43H 0004H "Mag_PIDOutput" 02H 00H 03H
                                  189   CSGLOBAL 42H 0008H "RecWorld" 05H 01H 08H 00H 00H 00H
                                  190   CGLOBAL 00H 42H 0001H "_flgUartFin" 02H 00H 00H
                                  191   CSGLOBAL 42H 0002H "Accel_PID_Motor4" 02H 00H 01H
                                  192   CSGLOBAL 42H 0002H "Accel_PID_Motor1" 02H 00H 01H
                                  193   CSGLOBAL 42H 0002H "Accel_PID_Motor2" 02H 00H 01H
                                  194   CSGLOBAL 42H 0002H "Accel_PID_Motor3" 02H 00H 01H
                                  195   CSGLOBAL 42H 0002H "PWMIdleDutyRun" 02H 00H 01H
                                  196   CSGLOBAL 42H 0002H "Mag_PIDCounter" 02H 00H 01H
                                  197   CSGLOBAL 43H 0004H "CF_YPitch_high" 02H 00H 03H
                                  198   CSGLOBAL 43H 0004H "Mag_CWThres" 02H 00H 03H
                                  199   CSGLOBAL 43H 0004H "Ping_out" 02H 00H 03H
                                  200   CSGLOBAL 42H 00C8H "SensorReturn" 05H 01H 0C8H 00H 00H 00H
                                  201   CSGLOBAL 42H 0001H "PWMCounter" 02H 00H 00H
                                  202   CSGLOBAL 42H 0001H "AccGyro_PWRMGMT1REG_Contents" 02H 00H 00H
                                  203   CSGLOBAL 42H 0001H "Accel_RetIndex" 02H 00H 00H
                                  204   CSGLOBAL 42H 0001H "Accel_SavIndex" 02H 00H 00H
                                  205   CSGLOBAL 42H 0001H "AccGyro_ReadData" 02H 00H 00H
                                  206   CSGLOBAL 43H 0004H "Mag_PIDError" 02H 00H 03H
                                  207   CSGLOBAL 43H 0004H "CF_Gyro_YPitch" 02H 00H 03H
                                  208   CSGLOBAL 43H 0004H "Mag_PID_kd" 02H 00H 03H
                                  209   CSGLOBAL 43H 0004H "Mag_PID_ki" 02H 00H 03H
                                  210   CSGLOBAL 43H 0004H "Mag_PID_kp" 02H 00H 03H
                                  211   CSGLOBAL 43H 0004H "Mag_Xout" 02H 00H 03H
                                  212   CSGLOBAL 42H 0002H "PWMPeriod" 02H 00H 01H
                                  213   CSGLOBAL 43H 0004H "CF_YPitch_low" 02H 00H 03H
                                  214   CSGLOBAL 43H 0028H "Gyro_Zout" 05H 01H 0AH 00H 00H 03H
                                  215   CSGLOBAL 43H 0004H "Accel_PID_XRollErrPrev" 02H 00H 03H
                                  216   CSGLOBAL 42H 0002H "Range_out" 02H 00H 01H
                                  217   CSGLOBAL 42H 0002H "Accel_PID_YPitchCounter" 02H 00H 01H
                                  218   CSGLOBAL 43H 0004H "Range_PIDError" 02H 00H 03H
                                  219   CSGLOBAL 43H 0028H "Gyro_Yout" 05H 01H 0AH 00H 00H 03H
                                  220   CSGLOBAL 43H 0004H "Range_PIDOutput" 02H 00H 03H
                                  221   CSGLOBAL 42H 0006H "NewVar_Str" 05H 01H 06H 00H 00H 00H
                                  222   CSGLOBAL 42H 0001H "AccGyro_AccelConfig" 02H 00H 00H
                                  223   CSGLOBAL 42H 0002H "PWMLowerDutyLimitCalib" 02H 00H 01H
                                  224   CSGLOBAL 43H 0004H "Accel_PID_XRoll_ki" 02H 00H 03H
                                  225   CGLOBAL 01H 42H 0001H "Accel_PID_XYChangeFlag" 02H 00H 00H
                                  226   CSGLOBAL 43H 0004H "Accel_PID_XRoll_kd" 02H 00H 03H
                                  227   CSGLOBAL 43H 0004H "Accel_PID_XRoll_kp" 02H 00H 03H
                                  228   CSGLOBAL 42H 0001H "AccGyro_CF_FlagCounter" 02H 00H 00H
                                  229   CSGLOBAL 42H 0001H "AccGyro_ReadFlag" 02H 00H 00H
                                  230   CSGLOBAL 43H 0004H "Mag_PIDErrSum" 02H 00H 03H
                                  231   CSGLOBAL 43H 0004H "Range_PIDSetpoint" 02H 00H 03H
                                  232   CSGLOBAL 42H 0001H "Mag_ModeReg_Contents" 02H 00H 00H
                                  233   CSGLOBAL 43H 0004H "NewVar" 02H 00H 03H
                                  234   CSGLOBAL 43H 0004H "Mag_Yout" 02H 00H 03H
                                  235   CSGLOBAL 43H 0004H "CF_Gyro_Counter" 02H 00H 03H
                                  236   CSGLOBAL 43H 0004H "CF_XRoll" 02H 00H 03H
                                  237   CSGLOBAL 42H 0002H "Mag_MotorStep" 02H 00H 01H
                                  238   CSGLOBAL 42H 0001H "AccGyro_GyroAccelLPF_SMPRTDIVCo" 02H 00H 00H
                                  239   CSGLOBAL 43H 0004H "CF_Accel_ForceMagApprox" 02H 00H 03H
                                  240   CSGLOBAL 43H 0004H "Mag_Zout" 02H 00H 03H
                                  241   CSGLOBAL 43H 0004H "Accel_PID_XRollErrSum" 02H 00H 03H
                                  242   CSGLOBAL 42H 0001H "Accel_PID_GoCounter" 02H 00H 00H
                                  243   CSGLOBAL 43H 0004H "CF_StdDev_Mtmp_X" 02H 00H 03H
                                  244   CSGLOBAL 43H 0004H "CF_StdDev_Mtmp_Y" 02H 00H 03H
                                  245   CSGLOBAL 43H 0004H "CF_StdDev_K" 02H 00H 03H
                                  246   CSGLOBAL 43H 0004H "Mag_PIDCurrentCount" 02H 00H 03H
                                  247   CSGLOBAL 42H 000EH "AccGyro_Data" 05H 01H 0EH 00H 00H 00H
                                  248   CSGLOBAL 43H 0004H "CF_XRoll_avg" 02H 00H 03H
                                  249   CSGLOBAL 43H 0004H "Accel_PID_YPitch_kp" 02H 00H 03H
                                  250   CSGLOBAL 43H 0004H "Accel_PID_YPitch_ki" 02H 00H 03H
                                  251   CSGLOBAL 43H 0004H "Accel_PID_YPitch_kd" 02H 00H 03H
                                  252   CSGLOBAL 43H 0004H "Mag_PIDdErr" 02H 00H 03H
                                  253   CSGLOBAL 42H 0001H "PWMflag" 02H 00H 00H
                                  254   CSGLOBAL 42H 0001H "AccGyro_INTENABLEReg_contents" 02H 00H 00H
                                  255   CSGLOBAL 42H 0001H "AccGyro_GyroConfig_Contents" 02H 00H 00H
                                  256   CSGLOBAL 42H 0001H "HMC5883Address" 02H 00H 00H
                                  257   CSGLOBAL 42H 0001H "PWMSensorResPerInc" 02H 00H 00H
                                  258   CSGLOBAL 43H 0004H "CF_Gyro_XRoll" 02H 00H 03H
                                  259   CSGLOBAL 42H 0001H "MPU6050Address" 02H 00H 00H
                                  260   CSGLOBAL 42H 0002H "PWMUpperLowerDiff" 02H 00H 01H
                                  261   CSGLOBAL 01H 000AH "_uartSetParam" 04H 00H 05H 03H 00H
                                  262   CSGLOBAL 43H 0004H "Range_PIDdErr" 02H 00H 03H
                                  263   CSGLOBAL 42H 0002H "PWMSafeDuty" 02H 00H 01H
                                  264   CSGLOBAL 43H 0004H "CF_StdDev_M_X" 02H 00H 03H
                                  265   CSGLOBAL 43H 0004H "CF_StdDev_M_Y" 02H 00H 03H
                                  266   CSGLOBAL 43H 0004H "Accel_PID_YPitchErrPrev" 02H 00H 03H
                                  267   CSGLOBAL 43H 0004H "CF_XRoll_low" 02H 00H 03H
                                  268   CSGLOBAL 43H 0004H "CF_StdDev_S_X" 02H 00H 03H
                                  269   CSGLOBAL 43H 0004H "CF_StdDev_S_Y" 02H 00H 03H
                                  270   CSGLOBAL 42H 0002H "Accel_PID_XRollCounter" 02H 00H 01H
                                  271   CSGLOBAL 42H 0001H "Mag_ModeReg" 02H 00H 00H
                                  272   CSGLOBAL 42H 0001H "Mag_ConfigB_Contents" 02H 00H 00H
                                  273   CSGLOBAL 43H 0004H "Temp_out" 02H 00H 03H
                                  274   CSGLOBAL 42H 0001H "AccGyro_PWRMGMT1REG" 02H 00H 00H
                                  275   CSGLOBAL 42H 0001H "Mag_ConfigA_Contents" 02H 00H 00H
                                  276   CSGLOBAL 42H 0001H "AccGyro_GyroConfig" 02H 00H 00H
                                  277   CSGLOBAL 43H 0004H "Range_PIDErrSum" 02H 00H 03H
                                  278   CSGLOBAL 43H 0004H "CF_YPitch" 02H 00H 03H
                                  279   CSGLOBAL 42H 0002H "Range_Output" 05H 01H 02H 00H 00H 00H
                                  280   CSGLOBAL 42H 0002H "PWMLowerDutyLimitRun" 02H 00H 01H
                                  281   CSGLOBAL 43H 0004H "CF_avgCnt" 02H 00H 03H
                                  282   CSGLOBAL 42H 0001H "PrePIDCount" 02H 00H 00H
                                  283   CSGLOBAL 42H 0001H "AccGyro_GyroAccelLPF" 02H 00H 00H
                                  284   CSGLOBAL 42H 0001H "Range_Address" 02H 00H 00H
                                  285   CSGLOBAL 43H 0004H "Mag_DeclinationAngle" 02H 00H 03H
                                  286   CSGLOBAL 42H 0001H "CF_Counter" 02H 00H 00H
                                  287   CSGLOBAL 43H 0004H "Range_PIDCurrentCount" 02H 00H 03H
                                  288   CSGLOBAL 43H 0004H "Range_ZHiThres" 02H 00H 03H
                                  289   CSGLOBAL 43H 0004H "Range_ZLoThres" 02H 00H 03H
                                  290   CSGLOBAL 43H 0004H "Mag_PIDAngleScaled" 02H 00H 03H
                                  291   CSGLOBAL 42H 0002H "Range_PIDCounter" 02H 00H 01H
                                  292   CSGLOBAL 42H 0002H "PWMUpperDutyLimitRun" 02H 00H 01H
                                  293   CSGLOBAL 43H 0004H "Range_Ceiling" 02H 00H 03H
                                  294   CSGLOBAL 43H 0004H "Accel_PID_YPitchErrSum" 02H 00H 03H
                                  295   CSGLOBAL 43H 0004H "CF_XRoll_high" 02H 00H 03H
                                  296   CSGLOBAL 43H 0004H "Mag_CCWThres" 02H 00H 03H
                                  297   CSGLOBAL 43H 000CH "Accel_Zcal" 05H 01H 03H 00H 00H 03H
                                  298   CSGLOBAL 42H 0001H "Mag_Status" 02H 00H 00H
                                  299   CSGLOBAL 42H 0001H "AccGyro_AccelConfig_Contents" 02H 00H 00H
                                  300   CSGLOBAL 43H 0004H "Mag_PIDCorrectionFactor" 02H 00H 03H
                                  301   CGLOBAL 00H 42H 0001H "_flgI2CFin" 02H 00H 00H
                                  302   CSGLOBAL 43H 000CH "Accel_Xcal" 05H 01H 03H 00H 00H 03H
                                  303   CSGLOBAL 43H 0004H "AccGyro_GyroScaling" 02H 00H 03H
                                  304   CSGLOBAL 43H 0004H "CF_Accel_XRoll" 02H 00H 03H
                                  305   CSGLOBAL 42H 0006H "Mag_Data" 05H 01H 06H 00H 00H 00H
                                  306   CSGLOBAL 43H 0028H "Accel_Xout" 05H 01H 0AH 00H 00H 03H
                                  307   CSGLOBAL 42H 0001H "CF_highlow_flag" 02H 00H 00H
                                  308   CSGLOBAL 43H 000CH "Accel_Ycal" 05H 01H 03H 00H 00H 03H
                                  309   CSGLOBAL 42H 0001H "AccGYRO_Test" 02H 00H 00H
                                  310   CSGLOBAL 42H 0032H "SensorReturnSM" 05H 01H 32H 00H 00H 00H
                                  311   CSGLOBAL 43H 0004H "CF_Gyro_CurrentCount" 02H 00H 03H
                                  312   CSGLOBAL 43H 0004H "Mag_PIDErrPrev" 02H 00H 03H
                                  313   CGLOBAL 00H 42H 0001H "_reqNotHalt" 02H 00H 00H
                                  314   CSGLOBAL 42H 0001H "CF_UseFlag" 02H 00H 00H
                                  315   CSGLOBAL 42H 0002H "TestingEndTimer" 02H 00H 01H
                                  316   CSGLOBAL 43H 0004H "CF_Accel_YPitch" 02H 00H 03H
                                  317   CSGLOBAL 43H 0004H "Mag_Angle" 02H 00H 03H
                                  318   CSGLOBAL 43H 0004H "Mag_GainFactor" 02H 00H 03H
                                  319   CSGLOBAL 42H 0001H "AccGyro_INTENABLEReg" 02H 00H 00H
                                  320   CSGLOBAL 42H 0002H "PWMUpperDutyLimitCalib" 02H 00H 01H
                                  321   CSGLOBAL 43H 0004H "Mag_PIDSetpoint" 02H 00H 03H
                                  322   CSGLOBAL 43H 0004H "AccGyro_AccelScaling" 02H 00H 03H
                                  323   CSGLOBAL 43H 0004H "Accel_XLoThres" 02H 00H 03H
                                  324   CSGLOBAL 43H 0004H "Accel_YHiThres" 02H 00H 03H
                                  325   CSGLOBAL 43H 0004H "Range_PID_kp" 02H 00H 03H
                                  326   CSGLOBAL 43H 0004H "Accel_XHiThres" 02H 00H 03H
                                  327   CSGLOBAL 42H 0001H "Range_TakeRangeReading" 02H 00H 00H
                                  328   CSGLOBAL 43H 0004H "Range_PID_kd" 02H 00H 03H
                                  329   CSGLOBAL 43H 0028H "Accel_Yout" 05H 01H 0AH 00H 00H 03H
                                  330   CSGLOBAL 43H 0004H "Range_PID_ki" 02H 00H 03H
                                  331   CSGLOBAL 42H 0002H "MotorStep" 02H 00H 01H
                                  332   CSGLOBAL 43H 0028H "Accel_Zout" 05H 01H 0AH 00H 00H 03H
                                  333   CSGLOBAL 42H 0002H "Timer8Counter" 02H 00H 01H
                                  334   CSGLOBAL 42H 0001H "AccGyro_GyroAccelLPF_Contents" 02H 00H 00H
                                  335   CSGLOBAL 43H 0004H "Gyro_Zcal" 02H 00H 03H
                                  336   CSGLOBAL 42H 0001H "Mag_ConfigA" 02H 00H 00H
                                  337   CSGLOBAL 42H 0001H "Mag_ConfigB" 02H 00H 00H
                                  338   CSGLOBAL 42H 0001H "Mag_ReadData" 02H 00H 00H
                                  339   CSGLOBAL 43H 0004H "Accel_YLoThres" 02H 00H 03H
                                  340   CSGLOBAL 42H 0002H "Accel_PID_Counter" 02H 00H 01H
                                  341   CSGLOBAL 43H 0004H "Gyro_Ycal" 02H 00H 03H
                                  342   CSGLOBAL 42H 0002H "timer_us" 02H 00H 01H
                                  343   CSGLOBAL 43H 0028H "Gyro_Xout" 05H 01H 0AH 00H 00H 03H
                                  344   CSGLOBAL 43H 0004H "Gyro_Xcal" 02H 00H 03H
                                  345   CSGLOBAL 43H 0004H "CF_YPitch_avg" 02H 00H 03H
                                  346   CSGLOBAL 43H 0004H "CF_HPF" 02H 00H 03H
                                  347   CSGLOBAL 43H 0004H "Range_PIDErrPrev" 02H 00H 03H
                                  348   CSGLOBAL 42H 0002H "Ping_timer" 02H 00H 01H
                                  349   CFILE 0001H 0000085AH "main\\ML610112.H"
                                  350   CFILE 0002H 000000D8H "main\\stdlib.h"
                                  351   CFILE 0003H 0000007AH "main\\yvals.h"
                                  352   CFILE 0004H 0000006BH "uart\\uart.h"
                                  353   CFILE 0005H 00000027H "common\\common.h"
                                  354   CFILE 0006H 00000057H "irq\\irq.h"
                                  355   CFILE 0007H 00000023H "main\\mcu.h"
                                  356   CFILE 0008H 00000045H "i2c\\i2c.h"
                                  357   CFILE 0009H 000000EEH "main\\stdio.h"
                                  358   CFILE 000AH 00000046H "tbc\\tbc.h"
                                  359   CFILE 000BH 000001B8H "timer\\timer.h"
                                  360   CFILE 000CH 0000004FH "main\\math.h"
                                  361   CFILE 0000H 00000EFEH "main\\main.c"
                                  362   
  --------------------------      363   	rseg $$main$main
                                  364   CFUNCTION 257
                                  365   
00:0000                           366   _main	:
                                  367   CBLOCK 257 1 522
                                  368   
                                  369   ;;{
                                  370   CLINEA 0000H 0001H 020AH 0001H 0001H
                                  371   CBLOCK 257 2 522
                                  372   CLOCAL 47H 0002H 0026H 0002H "i" 02H 00H 01H
                                  373   CLOCAL 4AH 0001H 0000H 0002H "flag" 02H 00H 00H
                                  374   
                                  375   ;;		Initialization(); 			//Ports, UART, Timers, Oscillator, Comparators, etc.
                                  376   CLINEA 0000H 0001H 020FH 0003H 004BH
00:0000 01-F0'00-00'              377   	bl	_Initialization
                                  378   
                                  379   ;;		main_clrWDT();				//kick the dog...1.34uS duration
                                  380   CLINEA 0000H 0001H 0210H 0003H 0034H
00:0004 01-F0'00-00'              381   	bl	_main_clrWDT
                                  382   
                                  383   ;;		CalibrateMotors();			//Time-consuming ~6s
                                  384   CLINEA 0000H 0001H 0211H 0003H 002BH
00:0008 01-F0'00-00'              385   	bl	_CalibrateMotors
                                  386   
                                  387   ;;		CalibrateGyro();			//Enter Calibration Sequence for Gyro
                                  388   CLINEA 0000H 0001H 0212H 0003H 003AH
00:000C 01-F0'00-00'              389   	bl	_CalibrateGyro
                                  390   
                                  391   ;;			Accel_Zcal[0] = -162;
                                  392   CLINEA 0000H 0001H 0219H 0004H 0018H
00:0010 00 E0                     393   	mov	er0,	#0 
00:0012 22 02                     394   	mov	r2,	#022h
00:0014 C3 03                     395   	mov	r3,	#0c3h
00:0016 13-90 00-00'              396   	st	er0,	NEAR _Accel_Zcal
00:001A 13-92 00-00'              397   	st	er2,	NEAR _Accel_Zcal+02h
                                  398   
                                  399   ;;Main_Loop:
                                  400   CLINEA 0000H 0001H 0222H 0001H 000AH
                                  401   CLABEL 001FH "Main_Loop"
00:001E                           402   _$L31 :
                                  403   
                                  404   ;;		SerialOutCoefficients();	//~23ms when PID is Triggered as well..13.8ms otherwise
                                  405   CLINEA 0000H 0001H 0223H 0003H 0052H
00:001E 01-F0'00-00'              406   	bl	_SerialOutCoefficients
                                  407   
                                  408   ;;		PrePIDCount = 0;
                                  409   CLINEA 0000H 0001H 0224H 0003H 0012H
00:0022 00 00                     410   	mov	r0,	#00h
00:0024 11-90 00-00'              411   	st	r0,	NEAR _PrePIDCount
                                  412   
                                  413   ;;		UARTTunePID();				//Allow PID & CF Constant changes over UART
                                  414   CLINEA 0000H 0001H 0225H 0003H 003FH
00:0028 01-F0'00-00'              415   	bl	_UARTTunePID
                                  416   
                                  417   ;;		main_clrWDT();				//kick the dog...1.34uS duration.
                                  418   CLINEA 0000H 0001H 0226H 0003H 0035H
00:002C 01-F0'00-00'              419   	bl	_main_clrWDT
                                  420   
                                  421   ;;		Accel_SavIndex = 0;			//Reset Circular Buffer for Accel/Gyro Measurements
                                  422   CLINEA 0000H 0001H 0228H 0003H 004BH
00:0030 00 00                     423   	mov	r0,	#00h
00:0032 11-90 00-00'              424   	st	r0,	NEAR _Accel_SavIndex
                                  425   
                                  426   ;;		Accel_RetIndex = 0;
                                  427   CLINEA 0000H 0001H 0229H 0003H 0015H
00:0036 11-90 00-00'              428   	st	r0,	NEAR _Accel_RetIndex
                                  429   
                                  430   ;;		for(i=0; i<10; i++){
                                  431   CLINEA 0000H 0001H 022AH 0003H 0016H
00:003A 00 E4                     432   	mov	er4,	#0 
00:003C                           433   _$L34 :
                                  434   CBLOCK 257 3 554
                                  435   
                                  436   ;;			Accel_Xout[i] = 0;
                                  437   CLINEA 0000H 0001H 022BH 0004H 0015H
00:003C 45-F0                     438   	mov	er0,	er4
00:003E 2B-91                     439   	sllc	r1,	#02h
00:0040 2A-90                     440   	sll	r0,	#02h
00:0042 00 E2                     441   	mov	er2,	#0 
00:0044 09-A2 00-00'              442   	st	er2,	NEAR _Accel_Xout[er0]
00:0048 09-A2 00-00'              443   	st	er2,	NEAR _Accel_Xout+02h[er0]
                                  444   
                                  445   ;;			Accel_Yout[i] = 0;
                                  446   CLINEA 0000H 0001H 022CH 0004H 0015H
00:004C 45-F0                     447   	mov	er0,	er4
00:004E 2B-91                     448   	sllc	r1,	#02h
00:0050 2A-90                     449   	sll	r0,	#02h
00:0052 09-A2 00-00'              450   	st	er2,	NEAR _Accel_Yout[er0]
00:0056 09-A2 00-00'              451   	st	er2,	NEAR _Accel_Yout+02h[er0]
                                  452   
                                  453   ;;			Accel_Zout[i] = 0;
                                  454   CLINEA 0000H 0001H 022DH 0004H 0015H
00:005A 45-F0                     455   	mov	er0,	er4
00:005C 2B-91                     456   	sllc	r1,	#02h
00:005E 2A-90                     457   	sll	r0,	#02h
00:0060 09-A2 00-00'              458   	st	er2,	NEAR _Accel_Zout[er0]
00:0064 09-A2 00-00'              459   	st	er2,	NEAR _Accel_Zout+02h[er0]
                                  460   
                                  461   ;;			Gyro_Xout[i] = 0;
                                  462   CLINEA 0000H 0001H 022EH 0004H 0014H
00:0068 45-F0                     463   	mov	er0,	er4
00:006A 2B-91                     464   	sllc	r1,	#02h
00:006C 2A-90                     465   	sll	r0,	#02h
00:006E 09-A2 00-00'              466   	st	er2,	NEAR _Gyro_Xout[er0]
00:0072 09-A2 00-00'              467   	st	er2,	NEAR _Gyro_Xout+02h[er0]
                                  468   
                                  469   ;;			Gyro_Yout[i] = 0;
                                  470   CLINEA 0000H 0001H 022FH 0004H 0014H
00:0076 45-F0                     471   	mov	er0,	er4
00:0078 2B-91                     472   	sllc	r1,	#02h
00:007A 2A-90                     473   	sll	r0,	#02h
00:007C 09-A2 00-00'              474   	st	er2,	NEAR _Gyro_Yout[er0]
00:0080 09-A2 00-00'              475   	st	er2,	NEAR _Gyro_Yout+02h[er0]
                                  476   
                                  477   ;;			Gyro_Zout[i] = 0;
                                  478   CLINEA 0000H 0001H 0230H 0004H 0014H
00:0084 45-F0                     479   	mov	er0,	er4
00:0086 2B-91                     480   	sllc	r1,	#02h
00:0088 2A-90                     481   	sll	r0,	#02h
00:008A 09-A2 00-00'              482   	st	er2,	NEAR _Gyro_Zout[er0]
00:008E 09-A2 00-00'              483   	st	er2,	NEAR _Gyro_Zout+02h[er0]
                                  484   CBLOCKEND 257 3 561
                                  485   
                                  486   ;;		for(i=0; i<10; i++){
                                  487   CLINEA 0000H 0000H 022AH 0003H 0016H
00:0092 81 E4                     488   	add	er4,	#1 
00:0094 0A 74                     489   	cmp	r4,	#0ah
00:0096 00 55                     490   	cmpc	r5,	#00h
00:0098 D1 C5                     491   	blts	_$L34
                                  492   
                                  493   ;;		EPB3 = 1;					//Enable Accel/Gyro Interrupt Pin
                                  494   CLINEA 0000H 0001H 0232H 0003H 0031H
00:009A F0-A0 11-F0               495   	sb	0f011h.7
                                  496   
                                  497   ;;		SoftStart();				//Smoothly bring up the Motor RPM
                                  498   CLINEA 0000H 0001H 0234H 0003H 0033H
00:009E 01-F0'00-00'              499   	bl	_SoftStart
                                  500   
                                  501   ;;		while(PrePIDCount < 10){
                                  502   CLINEA 0000H 0000H 0235H 0001H 000BH
00:00A2 20 CE                     503   	bal	_$L58
                                  504   
                                  505   ;;		while(PrePIDCount < 10){
                                  506   CLINEA 0000H 0000H 0235H 0003H 001AH
00:00A4                           507   _$L40 :
                                  508   CBLOCK 257 4 565
                                  509   
                                  510   ;;			if(AccGyro_ReadFlag >= 1){		//Triggered by External Interrupt (flag set in AccelGyroDataReady_ISR)
                                  511   CLINEA 0000H 0001H 0236H 0004H 0065H
00:00A4 10-90 00-00'              512   	l	r0,	NEAR _AccGyro_ReadFlag
00:00A8 01 70                     513   	cmp	r0,	#01h
00:00AA 05 C1                     514   	blt	_$L42
                                  515   CBLOCK 257 5 566
                                  516   
                                  517   ;;				Get_AccGyroData();
                                  518   CLINEA 0000H 0001H 0238H 0005H 0016H
00:00AC 01-F0'00-00'              519   	bl	_Get_AccGyroData
                                  520   
                                  521   ;;				AccGyro_ReadFlag = 0;
                                  522   CLINEA 0000H 0001H 023AH 0005H 0019H
00:00B0 00 00                     523   	mov	r0,	#00h
00:00B2 11-90 00-00'              524   	st	r0,	NEAR _AccGyro_ReadFlag
                                  525   CBLOCKEND 257 5 571
                                  526   
                                  527   ;;			}
                                  528   CLINEA 0000H 0000H 023BH 0004H 0004H
00:00B6                           529   _$L42 :
                                  530   
                                  531   ;;			if(AccGyro_CF_FlagCounter > 0){	//This Value is incremented after Get_AccGyroData(); is called
                                  532   CLINEA 0000H 0001H 023CH 0004H 0061H
00:00B6 10-90 00-00'              533   	l	r0,	NEAR _AccGyro_CF_FlagCounter
00:00BA 00 70                     534   	cmp	r0,	#00h
00:00BC 05 C3                     535   	ble	_$L44
                                  536   CBLOCK 257 6 572
                                  537   
                                  538   ;;				Run_AccGyroCF();
                                  539   CLINEA 0000H 0001H 023EH 0005H 0014H
00:00BE 01-F0'00-00'              540   	bl	_Run_AccGyroCF
                                  541   
                                  542   ;;				AccGyro_CF_FlagCounter--;	//Decremented because this value is not a static 1/0... number shows number of items in buffer that have not gone though the CF yet
                                  543   CLINEA 0000H 0000H 0240H 0005H 00A1H
00:00C2 0C-F0 00-00'              544   	lea	OFFSET _AccGyro_CF_FlagCounter
00:00C6 3F-FE                     545   	dec	[ea]
                                  546   CBLOCKEND 257 6 577
                                  547   
                                  548   ;;			}
                                  549   CLINEA 0000H 0000H 0241H 0004H 0004H
00:00C8                           550   _$L44 :
                                  551   
                                  552   ;;			if(Accel_PID_GoCounter>= 1){		//This increments in the Run_AccGyroCF()... I don't know if this is the best trigger.. but for now, it works.  Calls GetAccGyroData and AccGyroCF once within the routine.
                                  553   CLINEA 0000H 0001H 0242H 0004H 00CBH
00:00C8 10-90 00-00'              554   	l	r0,	NEAR _Accel_PID_GoCounter
00:00CC 01 70                     555   	cmp	r0,	#01h
00:00CE 08 C1                     556   	blt	_$L46
                                  557   CBLOCK 257 7 578
                                  558   
                                  559   ;;				AccelSensorControlPID(); 		
                                  560   CLINEA 0000H 0001H 0244H 0005H 001FH
00:00D0 01-F0'00-00'              561   	bl	_AccelSensorControlPID
                                  562   
                                  563   ;;				Accel_PID_GoCounter = 0;
                                  564   CLINEA 0000H 0001H 0246H 0005H 001CH
00:00D4 00 00                     565   	mov	r0,	#00h
00:00D6 11-90 00-00'              566   	st	r0,	NEAR _Accel_PID_GoCounter
                                  567   
                                  568   ;;				PrePIDCount++;			//Comment this out to always loop (i.e.: no shut-down...)
                                  569   CLINEA 0000H 0000H 0247H 0005H 004EH
00:00DA 0C-F0 00-00'              570   	lea	OFFSET _PrePIDCount
00:00DE 2F-FE                     571   	inc	[ea]
                                  572   CBLOCKEND 257 7 584
                                  573   
                                  574   ;;			}
                                  575   CLINEA 0000H 0000H 0248H 0004H 0004H
00:00E0                           576   _$L46 :
                                  577   
                                  578   ;;			main_clrWDT();
                                  579   CLINEA 0000H 0001H 0249H 0004H 0011H
00:00E0 01-F0'00-00'              580   	bl	_main_clrWDT
                                  581   CBLOCKEND 257 4 586
                                  582   
                                  583   ;;		while(PrePIDCount < 10){
                                  584   CLINEA 0000H 0000H 0235H 0001H 000BH
00:00E4                           585   _$L58 :
00:00E4 10-90 00-00'              586   	l	r0,	NEAR _PrePIDCount
00:00E8 0A 70                     587   	cmp	r0,	#0ah
00:00EA DC C1                     588   	blt	_$L40
                                  589   
                                  590   ;;		Accel_PID_XRollErrSum = 0;
                                  591   CLINEA 0000H 0001H 024BH 0003H 001CH
00:00EC 00 E0                     592   	mov	er0,	#0 
00:00EE 13-90 00-00'              593   	st	er0,	NEAR _Accel_PID_XRollErrSum
00:00F2 13-90 00-00'              594   	st	er0,	NEAR _Accel_PID_XRollErrSum+02h
                                  595   
                                  596   ;;		Accel_PID_YPitchErrSum = 0;
                                  597   CLINEA 0000H 0001H 024CH 0003H 001DH
00:00F6 13-90 00-00'              598   	st	er0,	NEAR _Accel_PID_YPitchErrSum
00:00FA 13-90 00-00'              599   	st	er0,	NEAR _Accel_PID_YPitchErrSum+02h
                                  600   
                                  601   ;;Fast_Loop:							//This loop takes 22.4ms for this loop as of 3/30/2014		
                                  602   CLINEA 0000H 0001H 024EH 0001H 0049H
                                  603   CLABEL 0030H "Fast_Loop"
00:00FE                           604   _$L48 :
                                  605   
                                  606   ;;		main_clrWDT();				//kick the dog...1.34uS duration
                                  607   CLINEA 0000H 0001H 0250H 0003H 0034H
00:00FE 01-F0'00-00'              608   	bl	_main_clrWDT
                                  609   
                                  610   ;;		ClearVariables();			//Fresh start each loop...
                                  611   CLINEA 0000H 0001H 0251H 0003H 0030H
00:0102 01-F0'00-00'              612   	bl	_ClearVariables
                                  613   
                                  614   ;;		if(AccGyro_ReadFlag >= 1){		//Triggered by External Interrupt (flag set in AccelGyroDataReady_ISR)
                                  615   CLINEA 0000H 0001H 0267H 0003H 0064H
00:0106 10-90 00-00'              616   	l	r0,	NEAR _AccGyro_ReadFlag
00:010A 01 70                     617   	cmp	r0,	#01h
00:010C 05 C1                     618   	blt	_$L49
                                  619   CBLOCK 257 8 615
                                  620   
                                  621   ;;			Get_AccGyroData();
                                  622   CLINEA 0000H 0001H 0269H 0004H 0015H
00:010E 01-F0'00-00'              623   	bl	_Get_AccGyroData
                                  624   
                                  625   ;;			AccGyro_ReadFlag = 0;
                                  626   CLINEA 0000H 0001H 026BH 0004H 0018H
00:0112 00 00                     627   	mov	r0,	#00h
00:0114 11-90 00-00'              628   	st	r0,	NEAR _AccGyro_ReadFlag
                                  629   CBLOCKEND 257 8 620
                                  630   
                                  631   ;;		}
                                  632   CLINEA 0000H 0000H 026CH 0003H 0003H
00:0118                           633   _$L49 :
                                  634   
                                  635   ;;		if(AccGyro_CF_FlagCounter > 0){	//This Value is incremented after Get_AccGyroData(); is called
                                  636   CLINEA 0000H 0001H 026DH 0003H 0060H
00:0118 10-90 00-00'              637   	l	r0,	NEAR _AccGyro_CF_FlagCounter
00:011C 00 70                     638   	cmp	r0,	#00h
00:011E 05 C3                     639   	ble	_$L51
                                  640   CBLOCK 257 9 621
                                  641   
                                  642   ;;			Run_AccGyroCF();
                                  643   CLINEA 0000H 0001H 026FH 0004H 0013H
00:0120 01-F0'00-00'              644   	bl	_Run_AccGyroCF
                                  645   
                                  646   ;;			AccGyro_CF_FlagCounter--;	//Decremented because this value is not a static 1/0... number shows number of items in buffer that have not gone though the CF yet
                                  647   CLINEA 0000H 0000H 0271H 0004H 00A0H
00:0124 0C-F0 00-00'              648   	lea	OFFSET _AccGyro_CF_FlagCounter
00:0128 3F-FE                     649   	dec	[ea]
                                  650   CBLOCKEND 257 9 626
                                  651   
                                  652   ;;		}
                                  653   CLINEA 0000H 0000H 0272H 0003H 0003H
00:012A                           654   _$L51 :
                                  655   
                                  656   ;;		if(Accel_PID_GoCounter>= 1){		//This increments in the Run_AccGyroCF()... I don't know if this is the best trigger.. but for now, it works.  Calls GetAccGyroData and AccGyroCF once within the routine.
                                  657   CLINEA 0000H 0001H 0273H 0003H 00CAH
00:012A 10-90 00-00'              658   	l	r0,	NEAR _Accel_PID_GoCounter
00:012E 01 70                     659   	cmp	r0,	#01h
00:0130 0A C1                     660   	blt	_$L53
                                  661   CBLOCK 257 10 627
                                  662   
                                  663   ;;			AccelSensorControlPID(); 		
                                  664   CLINEA 0000H 0001H 0275H 0004H 001EH
00:0132 01-F0'00-00'              665   	bl	_AccelSensorControlPID
                                  666   
                                  667   ;;			Accel_PID_GoCounter = 0;
                                  668   CLINEA 0000H 0001H 0277H 0004H 001BH
00:0136 00 00                     669   	mov	r0,	#00h
00:0138 11-90 00-00'              670   	st	r0,	NEAR _Accel_PID_GoCounter
                                  671   
                                  672   ;;			TestingEndTimer++;			//Comment this out to always loop (i.e.: no shut-down...)
                                  673   CLINEA 0000H 0000H 0278H 0004H 0051H
00:013C 12-90 00-00'              674   	l	er0,	NEAR _TestingEndTimer
00:0140 81 E0                     675   	add	er0,	#1 
00:0142 13-90 00-00'              676   	st	er0,	NEAR _TestingEndTimer
                                  677   CBLOCKEND 257 10 633
                                  678   
                                  679   ;;		}
                                  680   CLINEA 0000H 0000H 0279H 0003H 0003H
00:0146                           681   _$L53 :
                                  682   
                                  683   ;;		if(TestingEndTimer < 500){		//50 == 3secs = 250 = 15 seconds
                                  684   CLINEA 0000H 0001H 028BH 0003H 003EH
00:0146 12-90 00-00'              685   	l	er0,	NEAR _TestingEndTimer
00:014A F4 70                     686   	cmp	r0,	#0f4h
00:014C 01 51                     687   	cmpc	r1,	#01h
00:014E D7 C1                     688   	blt	_$L48
                                  689   CBLOCK 257 11 651
                                  690   
                                  691   ;;			goto Fast_Loop;
                                  692   CLINEA 0000H 0001H 028DH 0004H 0012H
                                  693   CBLOCKEND 257 11 654
                                  694   
                                  695   ;;		else{
                                  696   CLINEA 0000H 0000H 028FH 0003H 0007H
                                  697   CBLOCK 257 12 655
                                  698   
                                  699   ;;			EPB3 = 0;
                                  700   CLINEA 0000H 0001H 0290H 0004H 000CH
00:0150 F2-A0 11-F0               701   	rb	0f011h.7
                                  702   
                                  703   ;;			Shutdown();
                                  704   CLINEA 0000H 0001H 0293H 0004H 000EH
00:0154 01-F0'00-00'              705   	bl	_Shutdown
                                  706   
                                  707   ;;			TestingEndTimer = 0;
                                  708   CLINEA 0000H 0001H 0294H 0004H 0017H
00:0158 00 E0                     709   	mov	er0,	#0 
00:015A 13-90 00-00'              710   	st	er0,	NEAR _TestingEndTimer
                                  711   
                                  712   ;;			goto Main_Loop;
                                  713   CLINEA 0000H 0001H 0296H 0004H 0012H
00:015E 00-F0'00-00'              714   	b	_$L31
                                  715   CBLOCKEND 257 12 663
                                  716   CBLOCKEND 257 2 665
                                  717   
                                  718   ;;}//end main
                                  719   CLINEA 0000H 0001H 0299H 0001H 000BH
                                  720   CBLOCKEND 257 1 665
                                  721   CFUNCTIONEND 257
                                  722   
                                  723   
  --------------------------      724   	rseg $$main_clrWDT$main
                                  725   CFUNCTION 206
                                  726   
00:0000                           727   _main_clrWDT	:
                                  728   CBLOCK 206 1 846
                                  729   
                                  730   ;;{
                                  731   CLINEA 0000H 0001H 034EH 0001H 0001H
                                  732   CBLOCK 206 2 846
                                  733   
                                  734   ;;	do {
                                  735   CLINEA 0000H 0001H 0352H 0002H 0005H
00:0000                           736   _$L62 :
                                  737   CBLOCK 206 3 850
                                  738   
                                  739   ;;		WDTCON = 0x5Au;
                                  740   CLINEA 0000H 0001H 0353H 0003H 0011H
00:0000 5A 00                     741   	mov	r0,	#05ah
00:0002 11-90 0E-F0               742   	st	r0,	0f00eh
                                  743   CBLOCKEND 206 3 852
                                  744   
                                  745   ;;	} while (WDP != 1);
                                  746   CLINEA 0000H 0000H 0354H 0002H 0014H
00:0006 81-A0 0E-F0               747   	tb	0f00eh.0
00:000A FA C9                     748   	beq	_$L62
                                  749   
                                  750   ;;	WDTCON = 0xA5u;
                                  751   CLINEA 0000H 0001H 0355H 0002H 0010H
00:000C A5 00                     752   	mov	r0,	#0a5h
00:000E 11-90 0E-F0               753   	st	r0,	0f00eh
                                  754   CBLOCKEND 206 2 855
                                  755   
                                  756   ;;}
                                  757   CLINEA 0000H 0001H 0357H 0001H 0001H
00:0012 1F-FE                     758   	rt
                                  759   CBLOCKEND 206 1 855
                                  760   CFUNCTIONEND 206
                                  761   
                                  762   
  --------------------------      763   	rseg $$Initialization$main
                                  764   CFUNCTION 207
                                  765   
00:0000                           766   _Initialization	:
                                  767   CBLOCK 207 1 862
                                  768   
                                  769   ;;static void Initialization(void){
                                  770   CLINEA 0000H 0001H 035EH 0001H 0021H
00:0000 CE-F8                     771   	push	lr
                                  772   CBLOCK 207 2 862
                                  773   CRET 0000H
                                  774   
                                  775   ;;	DSIO0 = 1; // 0=> Enables Synchronous Serial Port 0 (initial value).
                                  776   CLINEA 0000H 0001H 0362H 0002H 0045H
00:0002 80-A0 2A-F0               777   	sb	0f02ah.0
                                  778   
                                  779   ;;	DUA0  = 0; // 0=> Enables the operation of UART0 (initial value).
                                  780   CLINEA 0000H 0001H 0363H 0002H 0042H
00:0006 A2-A0 2A-F0               781   	rb	0f02ah.2
                                  782   
                                  783   ;;	DUA1  = 1; // 0=> Enables Uart1 (initial value). 
                                  784   CLINEA 0000H 0001H 0364H 0002H 0032H
00:000A B0-A0 2A-F0               785   	sb	0f02ah.3
                                  786   
                                  787   ;;	DI2C1 = 1; // 0=> Enables I2C bus Interface (Slave) (initial value).
                                  788   CLINEA 0000H 0001H 0365H 0002H 0045H
00:000E E0-A0 2A-F0               789   	sb	0f02ah.6
                                  790   
                                  791   ;;	DI2C0 = 0; // 0=> Enables I2C bus Interface (Master) (initial value).	
                                  792   CLINEA 0000H 0001H 0366H 0002H 0047H
00:0012 F2-A0 2A-F0               793   	rb	0f02ah.7
                                  794   
                                  795   ;;	BLKCON4 = 0x00; // 0=> Enables SA-ADC
                                  796   CLINEA 0000H 0001H 0368H 0002H 0026H
00:0016 00 00                     797   	mov	r0,	#00h
00:0018 11-90 2C-F0               798   	st	r0,	0f02ch
                                  799   
                                  800   ;;	BLKCON6 = 0x00; // (1=disables; 0=enables) the operation of Timers 8, 9, A, E, F.
                                  801   CLINEA 0000H 0001H 0369H 0002H 0052H
00:001C 11-90 2E-F0               802   	st	r0,	0f02eh
                                  803   
                                  804   ;;	BLKCON7 = 0x00; // (1=disables; 0=enables) the operation of PWM (PWMC, PWMD, PWME, PWMF
                                  805   CLINEA 0000H 0001H 036AH 0002H 0058H
00:0020 11-90 2F-F0               806   	st	r0,	0f02fh
                                  807   
                                  808   ;;	PortA_Low();	//Initialize all 3 Ports of Port A to GPIO-Low
                                  809   CLINEA 0000H 0001H 036DH 0002H 003CH
00:0024 01-F0'00-00'              810   	bl	_PortA_Low
                                  811   
                                  812   ;;	PortB_Low();	//Initialize all 8 Ports of Port B to GPIO-Low
                                  813   CLINEA 0000H 0001H 036EH 0002H 003CH
00:0028 01-F0'00-00'              814   	bl	_PortB_Low
                                  815   
                                  816   ;;	PortC_Low();	//Initialize all 8 Ports of Port C to GPIO-Low
                                  817   CLINEA 0000H 0001H 036FH 0002H 003CH
00:002C 01-F0'00-00'              818   	bl	_PortC_Low
                                  819   
                                  820   ;;	PortD_Low();	//Initialize all 6 Ports of Port D to GPIO-Low
                                  821   CLINEA 0000H 0001H 0370H 0002H 003CH
00:0030 01-F0'00-00'              822   	bl	_PortD_Low
                                  823   
                                  824   ;;    SetOSC();
                                  825   CLINEA 0000H 0001H 0373H 0005H 000DH
00:0034 01-F0'00-00'              826   	bl	_SetOSC
                                  827   
                                  828   ;;	irq_di();	// Disable Interrupts
                                  829   CLINEA 0000H 0001H 0377H 0002H 0020H
00:0038 01-F0'00-00'              830   	bl	_irq_di
                                  831   
                                  832   ;;	irq_init();	// Initialize Interrupts (All Off and NO Requests)
                                  833   CLINEA 0000H 0001H 0378H 0002H 003FH
00:003C 01-F0'00-00'              834   	bl	_irq_init
                                  835   
                                  836   ;;	(void)irq_setHdr( (unsigned char)IRQ_NO_I2CMINT, _intI2c );
                                  837   CLINEA 0000H 0001H 0395H 0002H 003CH
00:0040 00'02                     838   	mov	r2,	#BYTE1 OFFSET __intI2c
00:0042 00'03                     839   	mov	r3,	#BYTE2 OFFSET __intI2c
00:0044 0C 00                     840   	mov	r0,	#0ch
00:0046 01-F0'00-00'              841   	bl	_irq_setHdr
                                  842   
                                  843   ;;		EI2CM = 1;
                                  844   CLINEA 0000H 0001H 0396H 0003H 000CH
00:004A F0-A0 12-F0               845   	sb	0f012h.7
                                  846   
                                  847   ;;	(void)irq_setHdr( (unsigned char)IRQ_NO_UA0INT, _intUart );		
                                  848   CLINEA 0000H 0001H 039AH 0002H 003EH
00:004E 00'02                     849   	mov	r2,	#BYTE1 OFFSET __intUart
00:0050 00'03                     850   	mov	r3,	#BYTE2 OFFSET __intUart
00:0052 0F 00                     851   	mov	r0,	#0fh
00:0054 01-F0'00-00'              852   	bl	_irq_setHdr
                                  853   
                                  854   ;;		EUA0 = 1; // EUA0 is the enable flag for the UART0 interrupt (1=ENABLED)
                                  855   CLINEA 0000H 0001H 039BH 0003H 004AH
00:0058 80-A0 14-F0               856   	sb	0f014h.0
                                  857   
                                  858   ;;	(void)irq_setHdr( (unsigned char)IRQ_NO_TM9INT, TMR89_ISR );  //Clear interrupt request flag
                                  859   CLINEA 0000H 0001H 03A8H 0002H 005DH
00:005C 00'02                     860   	mov	r2,	#BYTE1 OFFSET _TMR89_ISR
00:005E 00'03                     861   	mov	r3,	#BYTE2 OFFSET _TMR89_ISR
00:0060 0E 00                     862   	mov	r0,	#0eh
00:0062 01-F0'00-00'              863   	bl	_irq_setHdr
                                  864   
                                  865   ;;		ETM8 = 1;	  	// Enable timer 8 Interrupt (1=ENABLED
                                  866   CLINEA 0000H 0001H 03A9H 0003H 0035H
00:0066 A0-A0 13-F0               867   	sb	0f013h.2
                                  868   
                                  869   ;;		ETM9 = 1;	  	// Enable timer 9 Interrupt (1=ENABLED)
                                  870   CLINEA 0000H 0001H 03AAH 0003H 0036H
00:006A B0-A0 13-F0               871   	sb	0f013h.3
                                  872   
                                  873   ;;		QTM8 = 1;		// timer 8 IRQ request flag
                                  874   CLINEA 0000H 0001H 03ABH 0003H 0028H
00:006E A0-A0 1B-F0               875   	sb	0f01bh.2
                                  876   
                                  877   ;;		QTM9 = 1;		// timer 9 IRQ request flag
                                  878   CLINEA 0000H 0001H 03ACH 0003H 0028H
00:0072 B0-A0 1B-F0               879   	sb	0f01bh.3
                                  880   
                                  881   ;;		T8CS0 = 1;
                                  882   CLINEA 0000H 0001H 03ADH 0003H 000CH
00:0076 80-A0 E2-F8               883   	sb	0f8e2h.0
                                  884   
                                  885   ;;		T8CS1 = 1;
                                  886   CLINEA 0000H 0001H 03AEH 0003H 000CH
00:007A 90-A0 E2-F8               887   	sb	0f8e2h.1
                                  888   
                                  889   ;;		T8CS2 = 0;
                                  890   CLINEA 0000H 0001H 03AFH 0003H 000CH
00:007E A2-A0 E2-F8               891   	rb	0f8e2h.2
                                  892   
                                  893   ;;		T9CS0 = 1;
                                  894   CLINEA 0000H 0001H 03B0H 0003H 000CH
00:0082 80-A0 E6-F8               895   	sb	0f8e6h.0
                                  896   
                                  897   ;;		T9CS1 = 1;
                                  898   CLINEA 0000H 0001H 03B1H 0003H 000CH
00:0086 90-A0 E6-F8               899   	sb	0f8e6h.1
                                  900   
                                  901   ;;		T9CS2 = 0;
                                  902   CLINEA 0000H 0001H 03B2H 0003H 000CH
00:008A A2-A0 E6-F8               903   	rb	0f8e6h.2
                                  904   
                                  905   ;;		tm_init(TM_CH_NO_89);
                                  906   CLINEA 0000H 0001H 03B3H 0003H 0017H
00:008E 00 00                     907   	mov	r0,	#00h
00:0090 01-F0'00-00'              908   	bl	_tm_init
                                  909   
                                  910   ;;		tm_set89Data(8192);				//A value of 1023 should yield 125us interrupts at 8.192 MHz
                                  911   CLINEA 0000H 0000H 0150H 0002H 0025H
00:0094 00 00                     912   	mov	r0,	#00h
00:0096 11-90 E0-F8               913   	st	r0,	0f8e0h
                                  914   
                                  915   ;;		tm_set89Data(8192);				//A value of 1023 should yield 125us interrupts at 8.192 MHz
                                  916   CLINEA 0000H 0000H 0151H 0002H 0023H
00:009A 20 00                     917   	mov	r0,	#020h
00:009C 11-90 E4-F8               918   	st	r0,	0f8e4h
                                  919   
                                  920   ;;		tm_set89Source(TM_CS_HTBCLK);
                                  921   CLINEA 0000H 0000H 0186H 0002H 0015H
00:00A0 80-A0 E2-F8               922   	sb	0f8e2h.0
                                  923   
                                  924   ;;		tm_set89Source(TM_CS_HTBCLK);
                                  925   CLINEA 0000H 0000H 0187H 0002H 001AH
00:00A4 92-A0 E2-F8               926   	rb	0f8e2h.1
                                  927   
                                  928   ;;		tm_start89();
                                  929   CLINEA 0000H 0001H 00CAH 0002H 000AH
00:00A8 00 00                     930   	mov	r0,	#00h
00:00AA 11-90 E1-F8               931   	st	r0,	0f8e1h
                                  932   
                                  933   ;;		tm_start89();
                                  934   CLINEA 0000H 0000H 00CBH 0002H 000BH
00:00AE 80-A0 E3-F8               935   	sb	0f8e3h.0
                                  936   
                                  937   ;;		T89M16 = 1;
                                  938   CLINEA 0000H 0001H 03B7H 0003H 000DH
00:00B2 D0-A0 E2-F8               939   	sb	0f8e2h.5
                                  940   
                                  941   ;;		HTD3 = 1;
                                  942   CLINEA 0000H 0001H 03B9H 0003H 000BH
00:00B6 B0-A0 0B-F0               943   	sb	0f00bh.3
                                  944   
                                  945   ;;		HTD2 = 1;
                                  946   CLINEA 0000H 0001H 03BAH 0003H 000BH
00:00BA A0-A0 0B-F0               947   	sb	0f00bh.2
                                  948   
                                  949   ;;		HTD1 = 1;
                                  950   CLINEA 0000H 0001H 03BBH 0003H 000BH
00:00BE 90-A0 0B-F0               951   	sb	0f00bh.1
                                  952   
                                  953   ;;		HTD0 = 1; 
                                  954   CLINEA 0000H 0001H 03BCH 0003H 000CH
00:00C2 80-A0 0B-F0               955   	sb	0f00bh.0
                                  956   
                                  957   ;;	PB3DIR = 1;
                                  958   CLINEA 0000H 0001H 03BFH 0002H 000CH
00:00C6 B0-A0 59-F2               959   	sb	0f259h.3
                                  960   
                                  961   ;;	PB3C1 = 0;
                                  962   CLINEA 0000H 0001H 03C0H 0002H 000BH
00:00CA B2-A0 5B-F2               963   	rb	0f25bh.3
                                  964   
                                  965   ;;	PB3C0 = 0;
                                  966   CLINEA 0000H 0001H 03C1H 0002H 000BH
00:00CE B2-A0 5A-F2               967   	rb	0f25ah.3
                                  968   
                                  969   ;;	PB3MD1 = 0;
                                  970   CLINEA 0000H 0001H 03C2H 0002H 000CH
00:00D2 B2-A0 5D-F2               971   	rb	0f25dh.3
                                  972   
                                  973   ;;	PB3MD0 = 0;
                                  974   CLINEA 0000H 0001H 03C3H 0002H 000CH
00:00D6 B2-A0 5C-F2               975   	rb	0f25ch.3
                                  976   
                                  977   ;;	PB3E1 = 1;
                                  978   CLINEA 0000H 0001H 03C4H 0002H 000BH
00:00DA F0-A0 25-F0               979   	sb	0f025h.7
                                  980   
                                  981   ;;	PB3E0 = 0;		//PBnE0-1 are used to choose the Rising-Edge Mode for this interrupt
                                  982   CLINEA 0000H 0001H 03C6H 0002H 0051H
00:00DE F2-A0 24-F0               983   	rb	0f024h.7
                                  984   
                                  985   ;;	PB3SM = 0;
                                  986   CLINEA 0000H 0001H 03C7H 0002H 000BH
00:00E2 F2-A0 26-F0               987   	rb	0f026h.7
                                  988   
                                  989   ;;	(void)irq_setHdr( (unsigned char)IRQ_NO_PB3INT, AccelGyroDataReady_ISR );  //Clear interrupt request flag
                                  990   CLINEA 0000H 0001H 03C9H 0002H 006AH
00:00E6 00'02                     991   	mov	r2,	#BYTE1 OFFSET _AccelGyroDataReady_ISR
00:00E8 00'03                     992   	mov	r3,	#BYTE2 OFFSET _AccelGyroDataReady_ISR
00:00EA 08 00                     993   	mov	r0,	#08h
00:00EC 01-F0'00-00'              994   	bl	_irq_setHdr
                                  995   
                                  996   ;;	EPB3 = 0;	//Enables Interrupt
                                  997   CLINEA 0000H 0001H 03CBH 0002H 001EH
00:00F0 F2-A0 11-F0               998   	rb	0f011h.7
                                  999   
                                 1000   ;;	QPB3 = 0;	//Enables Request Flag (need to set to start using... this is set after the UART control Stuff!)
                                 1001   CLINEA 0000H 0001H 03CCH 0002H 006BH
00:00F4 F2-A0 19-F0              1002   	rb	0f019h.7
                                 1003   
                                 1004   ;;	WDTMOD = 0x03; 	// 0x03=overflow 8sec...
                                 1005   CLINEA 0000H 0001H 03D0H 0002H 0029H
00:00F8 03 00                    1006   	mov	r0,	#03h
00:00FA 11-90 0F-F0              1007   	st	r0,	0f00fh
                                 1008   
                                 1009   ;;	main_clrWDT(); 	// Clear WDT
                                 1010   CLINEA 0000H 0001H 03D1H 0002H 001DH
00:00FE 01-F0'00-00'             1011   	bl	_main_clrWDT
                                 1012   
                                 1013   ;;	(void)i2c_init(I2C_MOD_FST, (unsigned short)HSCLK_KHZ, I2C_SYN_ON);
                                 1014   CLINEA 0000H 0001H 03D5H 0002H 0044H
00:0102 01 00                    1015   	mov	r0,	#01h
00:0104 4E-F0                    1016   	push	r0
00:0106 40 02                    1017   	mov	r2,	#040h
00:0108 1F 03                    1018   	mov	r3,	#01fh
00:010A 01-F0'00-00'             1019   	bl	_i2c_init
00:010E 02 E1                    1020   	add	sp,	#2 
                                 1021   
                                 1022   ;;			     &_uartSetParam );				/* Param... 	 */
                                 1023   CLINEA 0000H 0001H 03DBH 0009H 002DH
00:0110 00'00                    1024   	mov	r0,	#BYTE1 OFFSET __uartSetParam
00:0112 00'01                    1025   	mov	r1,	#BYTE2 OFFSET __uartSetParam
00:0114 5E-F0                    1026   	push	er0
00:0116 40 02                    1027   	mov	r2,	#040h
00:0118 1F 03                    1028   	mov	r3,	#01fh
00:011A 02 00                    1029   	mov	r0,	#02h
00:011C 01-F0'00-00'             1030   	bl	_uart_init
00:0120 02 E1                    1031   	add	sp,	#2 
                                 1032   
                                 1033   ;;		uart_PortSet();
                                 1034   CLINEA 0000H 0001H 03DCH 0003H 0011H
00:0122 01-F0'00-00'             1035   	bl	_uart_PortSet
                                 1036   
                                 1037   ;;		_flgUartFin = 0;
                                 1038   CLINEA 0000H 0001H 03DDH 0003H 0012H
00:0126 00 00                    1039   	mov	r0,	#00h
00:0128 11-90 00-00'             1040   	st	r0,	NEAR __flgUartFin
                                 1041   
                                 1042   ;;		uart_stop();
                                 1043   CLINEA 0000H 0001H 03DEH 0003H 000EH
00:012C 01-F0'00-00'             1044   	bl	_uart_stop
                                 1045   
                                 1046   ;;	irq_ei(); // Enable Interrupts
                                 1047   CLINEA 0000H 0001H 03E0H 0002H 001FH
00:0130 01-F0'00-00'             1048   	bl	_irq_ei
                                 1049   
                                 1050   ;;		ESC1_PWM();
                                 1051   CLINEA 0000H 0001H 03E4H 0003H 000DH
00:0134 01-F0'00-00'             1052   	bl	_ESC1_PWM
                                 1053   
                                 1054   ;;		ESC2_PWM();
                                 1055   CLINEA 0000H 0001H 03E5H 0003H 000DH
00:0138 01-F0'00-00'             1056   	bl	_ESC2_PWM
                                 1057   
                                 1058   ;;		ESC3_PWM();
                                 1059   CLINEA 0000H 0001H 03E6H 0003H 000DH
00:013C 01-F0'00-00'             1060   	bl	_ESC3_PWM
                                 1061   
                                 1062   ;;		ESC4_PWM();
                                 1063   CLINEA 0000H 0001H 03E7H 0003H 000DH
00:0140 01-F0'00-00'             1064   	bl	_ESC4_PWM
                                 1065   
                                 1066   ;;		PD0DIR = 1;
                                 1067   CLINEA 0000H 0001H 03E9H 0003H 000DH
00:0144 80-A0 69-F2              1068   	sb	0f269h.0
                                 1069   
                                 1070   ;;		PD1DIR = 1;
                                 1071   CLINEA 0000H 0001H 03EAH 0003H 000DH
00:0148 90-A0 69-F2              1072   	sb	0f269h.1
                                 1073   
                                 1074   ;;		PD2DIR = 0;
                                 1075   CLINEA 0000H 0001H 03EBH 0003H 000DH
00:014C A2-A0 69-F2              1076   	rb	0f269h.2
                                 1077   
                                 1078   ;;		PWMUpperLowerDiff = PWMUpperDutyLimitRun-PWMLowerDutyLimitRun;
                                 1079   CLINEA 0000H 0001H 03EDH 0003H 0040H
00:0150 12-90 00-00'             1080   	l	er0,	NEAR _PWMUpperDutyLimitRun
00:0154 12-92 00-00'             1081   	l	er2,	NEAR _PWMLowerDutyLimitRun
00:0158 28-80                    1082   	sub	r0,	r2
00:015A 39-81                    1083   	subc	r1,	r3
00:015C 13-90 00-00'             1084   	st	er0,	NEAR _PWMUpperLowerDiff
                                 1085   
                                 1086   ;;	_flgI2CFin = 0;														//reset I2C completed flag
                                 1087   CLINEA 0000H 0001H 03F0H 0002H 0038H
00:0160 00 00                    1088   	mov	r0,	#00h
00:0162 11-90 00-00'             1089   	st	r0,	NEAR __flgI2CFin
                                 1090   
                                 1091   ;;	i2c_stop();															//Make sure I2C is not currently running
                                 1092   CLINEA 0000H 0001H 03F1H 0002H 0043H
00:0166 01-F0'00-00'             1093   	bl	_i2c_stop
                                 1094   
                                 1095   ;;	i2c_startSend( MPU6050Address, &AccGyro_PWRMGMT1REG, 1, &AccGyro_PWRMGMT1REG_Contents, 1, (cbfI2c)_funcI2CFin);		//Begin I2C Receive Command
                                 1096   CLINEA 0000H 0001H 03F2H 0002H 008DH
00:016A 00'00                    1097   	mov	r0,	#BYTE1 OFFSET __funcI2CFin
00:016C 00'01                    1098   	mov	r1,	#BYTE2 OFFSET __funcI2CFin
00:016E 5E-F0                    1099   	push	er0
00:0170 01 E0                    1100   	mov	er0,	#1 
00:0172 5E-F0                    1101   	push	er0
00:0174 00'00                    1102   	mov	r0,	#BYTE1 OFFSET _AccGyro_PWRMGMT1REG_Contents
00:0176 00'01                    1103   	mov	r1,	#BYTE2 OFFSET _AccGyro_PWRMGMT1REG_Contents
00:0178 5E-F0                    1104   	push	er0
00:017A 01 E0                    1105   	mov	er0,	#1 
00:017C 5E-F0                    1106   	push	er0
00:017E 00'02                    1107   	mov	r2,	#BYTE1 OFFSET _AccGyro_PWRMGMT1REG
00:0180 00'03                    1108   	mov	r3,	#BYTE2 OFFSET _AccGyro_PWRMGMT1REG
00:0182 10-90 00-00'             1109   	l	r0,	NEAR _MPU6050Address
00:0186 01-F0'00-00'             1110   	bl	_i2c_startSend
00:018A 08 E1                    1111   	add	sp,	#8 
                                 1112   
                                 1113   ;;	while(_flgI2CFin != 1){												//Wait for I2C commands to finish transfer
                                 1114   CLINEA 0000H 0000H 03F3H 0001H 0015H
00:018C 02 CE                    1115   	bal	_$L105
                                 1116   
                                 1117   ;;	while(_flgI2CFin != 1){												//Wait for I2C commands to finish transfer
                                 1118   CLINEA 0000H 0000H 03F3H 0002H 004EH
00:018E                          1119   _$L67 :
                                 1120   CBLOCK 207 3 1011
                                 1121   
                                 1122   ;;		main_clrWDT();
                                 1123   CLINEA 0000H 0001H 03F4H 0003H 0010H
00:018E 01-F0'00-00'             1124   	bl	_main_clrWDT
                                 1125   CBLOCKEND 207 3 1013
                                 1126   
                                 1127   ;;	while(_flgI2CFin != 1){												//Wait for I2C commands to finish transfer
                                 1128   CLINEA 0000H 0000H 03F3H 0001H 0015H
00:0192                          1129   _$L105 :
00:0192 10-90 00-00'             1130   	l	r0,	NEAR __flgI2CFin
00:0196 01 70                    1131   	cmp	r0,	#01h
00:0198 FA C8                    1132   	bne	_$L67
                                 1133   
                                 1134   ;;	_flgI2CFin = 0;														//reset I2C completed flag
                                 1135   CLINEA 0000H 0001H 03F7H 0002H 0038H
00:019A 00 00                    1136   	mov	r0,	#00h
00:019C 11-90 00-00'             1137   	st	r0,	NEAR __flgI2CFin
                                 1138   
                                 1139   ;;	i2c_stop();															//Make sure I2C is not currently running
                                 1140   CLINEA 0000H 0001H 03F8H 0002H 0043H
00:01A0 01-F0'00-00'             1141   	bl	_i2c_stop
                                 1142   
                                 1143   ;;	i2c_startSend( MPU6050Address, &AccGyro_AccelConfig, 1, &AccGyro_AccelConfig_Contents, 1, (cbfI2c)_funcI2CFin);		//Begin I2C Receive Command
                                 1144   CLINEA 0000H 0001H 03F9H 0002H 008DH
00:01A4 00'00                    1145   	mov	r0,	#BYTE1 OFFSET __funcI2CFin
00:01A6 00'01                    1146   	mov	r1,	#BYTE2 OFFSET __funcI2CFin
00:01A8 5E-F0                    1147   	push	er0
00:01AA 01 E0                    1148   	mov	er0,	#1 
00:01AC 5E-F0                    1149   	push	er0
00:01AE 00'00                    1150   	mov	r0,	#BYTE1 OFFSET _AccGyro_AccelConfig_Contents
00:01B0 00'01                    1151   	mov	r1,	#BYTE2 OFFSET _AccGyro_AccelConfig_Contents
00:01B2 5E-F0                    1152   	push	er0
00:01B4 01 E0                    1153   	mov	er0,	#1 
00:01B6 5E-F0                    1154   	push	er0
00:01B8 00'02                    1155   	mov	r2,	#BYTE1 OFFSET _AccGyro_AccelConfig
00:01BA 00'03                    1156   	mov	r3,	#BYTE2 OFFSET _AccGyro_AccelConfig
00:01BC 10-90 00-00'             1157   	l	r0,	NEAR _MPU6050Address
00:01C0 01-F0'00-00'             1158   	bl	_i2c_startSend
00:01C4 08 E1                    1159   	add	sp,	#8 
                                 1160   
                                 1161   ;;	while(_flgI2CFin != 1){												//Wait for I2C commands to finish transfer
                                 1162   CLINEA 0000H 0000H 03FAH 0001H 0015H
00:01C6 02 CE                    1163   	bal	_$L106
                                 1164   
                                 1165   ;;	while(_flgI2CFin != 1){												//Wait for I2C commands to finish transfer
                                 1166   CLINEA 0000H 0000H 03FAH 0002H 004EH
00:01C8                          1167   _$L71 :
                                 1168   CBLOCK 207 4 1018
                                 1169   
                                 1170   ;;		main_clrWDT();
                                 1171   CLINEA 0000H 0001H 03FBH 0003H 0010H
00:01C8 01-F0'00-00'             1172   	bl	_main_clrWDT
                                 1173   CBLOCKEND 207 4 1020
                                 1174   
                                 1175   ;;	while(_flgI2CFin != 1){												//Wait for I2C commands to finish transfer
                                 1176   CLINEA 0000H 0000H 03FAH 0001H 0015H
00:01CC                          1177   _$L106 :
00:01CC 10-90 00-00'             1178   	l	r0,	NEAR __flgI2CFin
00:01D0 01 70                    1179   	cmp	r0,	#01h
00:01D2 FA C8                    1180   	bne	_$L71
                                 1181   
                                 1182   ;;	_flgI2CFin = 0;														//reset I2C completed flag
                                 1183   CLINEA 0000H 0001H 03FEH 0002H 0038H
00:01D4 00 00                    1184   	mov	r0,	#00h
00:01D6 11-90 00-00'             1185   	st	r0,	NEAR __flgI2CFin
                                 1186   
                                 1187   ;;	i2c_stop();															//Make sure I2C is not currently running
                                 1188   CLINEA 0000H 0001H 03FFH 0002H 0043H
00:01DA 01-F0'00-00'             1189   	bl	_i2c_stop
                                 1190   
                                 1191   ;;	i2c_startSend( MPU6050Address, &AccGyro_GyroConfig, 1, &AccGyro_GyroConfig_Contents, 1, (cbfI2c)_funcI2CFin);		//Begin I2C Receive Command
                                 1192   CLINEA 0000H 0001H 0400H 0002H 008BH
00:01DE 00'00                    1193   	mov	r0,	#BYTE1 OFFSET __funcI2CFin
00:01E0 00'01                    1194   	mov	r1,	#BYTE2 OFFSET __funcI2CFin
00:01E2 5E-F0                    1195   	push	er0
00:01E4 01 E0                    1196   	mov	er0,	#1 
00:01E6 5E-F0                    1197   	push	er0
00:01E8 00'00                    1198   	mov	r0,	#BYTE1 OFFSET _AccGyro_GyroConfig_Contents
00:01EA 00'01                    1199   	mov	r1,	#BYTE2 OFFSET _AccGyro_GyroConfig_Contents
00:01EC 5E-F0                    1200   	push	er0
00:01EE 01 E0                    1201   	mov	er0,	#1 
00:01F0 5E-F0                    1202   	push	er0
00:01F2 00'02                    1203   	mov	r2,	#BYTE1 OFFSET _AccGyro_GyroConfig
00:01F4 00'03                    1204   	mov	r3,	#BYTE2 OFFSET _AccGyro_GyroConfig
00:01F6 10-90 00-00'             1205   	l	r0,	NEAR _MPU6050Address
00:01FA 01-F0'00-00'             1206   	bl	_i2c_startSend
00:01FE 08 E1                    1207   	add	sp,	#8 
                                 1208   
                                 1209   ;;	while(_flgI2CFin != 1){												//Wait for I2C commands to finish transfer
                                 1210   CLINEA 0000H 0000H 0401H 0001H 0015H
00:0200 02 CE                    1211   	bal	_$L107
                                 1212   
                                 1213   ;;	while(_flgI2CFin != 1){												//Wait for I2C commands to finish transfer
                                 1214   CLINEA 0000H 0000H 0401H 0002H 004EH
00:0202                          1215   _$L75 :
                                 1216   CBLOCK 207 5 1025
                                 1217   
                                 1218   ;;		main_clrWDT();
                                 1219   CLINEA 0000H 0001H 0402H 0003H 0010H
00:0202 01-F0'00-00'             1220   	bl	_main_clrWDT
                                 1221   CBLOCKEND 207 5 1027
                                 1222   
                                 1223   ;;	while(_flgI2CFin != 1){												//Wait for I2C commands to finish transfer
                                 1224   CLINEA 0000H 0000H 0401H 0001H 0015H
00:0206                          1225   _$L107 :
00:0206 10-90 00-00'             1226   	l	r0,	NEAR __flgI2CFin
00:020A 01 70                    1227   	cmp	r0,	#01h
00:020C FA C8                    1228   	bne	_$L75
                                 1229   
                                 1230   ;;	_flgI2CFin = 0;														//reset I2C completed flag
                                 1231   CLINEA 0000H 0001H 0406H 0002H 0038H
00:020E 00 00                    1232   	mov	r0,	#00h
00:0210 11-90 00-00'             1233   	st	r0,	NEAR __flgI2CFin
                                 1234   
                                 1235   ;;	i2c_stop();															//Make sure I2C is not currently running
                                 1236   CLINEA 0000H 0001H 0407H 0002H 0043H
00:0214 01-F0'00-00'             1237   	bl	_i2c_stop
                                 1238   
                                 1239   ;;	i2c_startSend( MPU6050Address, &AccGyro_GyroAccel_SMPRTDIV, 1, &AccGyro_GyroAccelLPF_SMPRTDIVContents, 1, (cbfI2c)_funcI2CFin);		//Begin I2C Receive Command
                                 1240   CLINEA 0000H 0001H 0408H 0002H 009DH
00:0218 00'00                    1241   	mov	r0,	#BYTE1 OFFSET __funcI2CFin
00:021A 00'01                    1242   	mov	r1,	#BYTE2 OFFSET __funcI2CFin
00:021C 5E-F0                    1243   	push	er0
00:021E 01 E0                    1244   	mov	er0,	#1 
00:0220 5E-F0                    1245   	push	er0
00:0222 00'00                    1246   	mov	r0,	#BYTE1 OFFSET _AccGyro_GyroAccelLPF_SMPRTDIVCo
00:0224 00'01                    1247   	mov	r1,	#BYTE2 OFFSET _AccGyro_GyroAccelLPF_SMPRTDIVCo
00:0226 5E-F0                    1248   	push	er0
00:0228 01 E0                    1249   	mov	er0,	#1 
00:022A 5E-F0                    1250   	push	er0
00:022C 00'02                    1251   	mov	r2,	#BYTE1 OFFSET _AccGyro_GyroAccel_SMPRTDIV
00:022E 00'03                    1252   	mov	r3,	#BYTE2 OFFSET _AccGyro_GyroAccel_SMPRTDIV
00:0230 10-90 00-00'             1253   	l	r0,	NEAR _MPU6050Address
00:0234 01-F0'00-00'             1254   	bl	_i2c_startSend
00:0238 08 E1                    1255   	add	sp,	#8 
                                 1256   
                                 1257   ;;	while(_flgI2CFin != 1){												//Wait for I2C commands to finish transfer
                                 1258   CLINEA 0000H 0000H 0409H 0001H 0015H
00:023A 02 CE                    1259   	bal	_$L108
                                 1260   
                                 1261   ;;	while(_flgI2CFin != 1){												//Wait for I2C commands to finish transfer
                                 1262   CLINEA 0000H 0000H 0409H 0002H 004EH
00:023C                          1263   _$L79 :
                                 1264   CBLOCK 207 6 1033
                                 1265   
                                 1266   ;;		main_clrWDT();
                                 1267   CLINEA 0000H 0001H 040AH 0003H 0010H
00:023C 01-F0'00-00'             1268   	bl	_main_clrWDT
                                 1269   CBLOCKEND 207 6 1035
                                 1270   
                                 1271   ;;	while(_flgI2CFin != 1){												//Wait for I2C commands to finish transfer
                                 1272   CLINEA 0000H 0000H 0409H 0001H 0015H
00:0240                          1273   _$L108 :
00:0240 10-90 00-00'             1274   	l	r0,	NEAR __flgI2CFin
00:0244 01 70                    1275   	cmp	r0,	#01h
00:0246 FA C8                    1276   	bne	_$L79
                                 1277   
                                 1278   ;;	_flgI2CFin = 0;														//reset I2C completed flag
                                 1279   CLINEA 0000H 0001H 040EH 0002H 0038H
00:0248 00 00                    1280   	mov	r0,	#00h
00:024A 11-90 00-00'             1281   	st	r0,	NEAR __flgI2CFin
                                 1282   
                                 1283   ;;	i2c_stop();															//Make sure I2C is not currently running
                                 1284   CLINEA 0000H 0001H 040FH 0002H 0043H
00:024E 01-F0'00-00'             1285   	bl	_i2c_stop
                                 1286   
                                 1287   ;;	i2c_startSend( MPU6050Address, &AccGyro_GyroAccelLPF, 1, &AccGyro_GyroAccelLPF_Contents, 1, (cbfI2c)_funcI2CFin);		//Begin I2C Receive Command
                                 1288   CLINEA 0000H 0001H 0410H 0002H 008FH
00:0252 00'00                    1289   	mov	r0,	#BYTE1 OFFSET __funcI2CFin
00:0254 00'01                    1290   	mov	r1,	#BYTE2 OFFSET __funcI2CFin
00:0256 5E-F0                    1291   	push	er0
00:0258 01 E0                    1292   	mov	er0,	#1 
00:025A 5E-F0                    1293   	push	er0
00:025C 00'00                    1294   	mov	r0,	#BYTE1 OFFSET _AccGyro_GyroAccelLPF_Contents
00:025E 00'01                    1295   	mov	r1,	#BYTE2 OFFSET _AccGyro_GyroAccelLPF_Contents
00:0260 5E-F0                    1296   	push	er0
00:0262 01 E0                    1297   	mov	er0,	#1 
00:0264 5E-F0                    1298   	push	er0
00:0266 00'02                    1299   	mov	r2,	#BYTE1 OFFSET _AccGyro_GyroAccelLPF
00:0268 00'03                    1300   	mov	r3,	#BYTE2 OFFSET _AccGyro_GyroAccelLPF
00:026A 10-90 00-00'             1301   	l	r0,	NEAR _MPU6050Address
00:026E 01-F0'00-00'             1302   	bl	_i2c_startSend
00:0272 08 E1                    1303   	add	sp,	#8 
                                 1304   
                                 1305   ;;	while(_flgI2CFin != 1){												//Wait for I2C commands to finish transfer
                                 1306   CLINEA 0000H 0000H 0411H 0001H 0015H
00:0274 02 CE                    1307   	bal	_$L109
                                 1308   
                                 1309   ;;	while(_flgI2CFin != 1){												//Wait for I2C commands to finish transfer
                                 1310   CLINEA 0000H 0000H 0411H 0002H 004EH
00:0276                          1311   _$L83 :
                                 1312   CBLOCK 207 7 1041
                                 1313   
                                 1314   ;;		main_clrWDT();
                                 1315   CLINEA 0000H 0001H 0412H 0003H 0010H
00:0276 01-F0'00-00'             1316   	bl	_main_clrWDT
                                 1317   CBLOCKEND 207 7 1043
                                 1318   
                                 1319   ;;	while(_flgI2CFin != 1){												//Wait for I2C commands to finish transfer
                                 1320   CLINEA 0000H 0000H 0411H 0001H 0015H
00:027A                          1321   _$L109 :
00:027A 10-90 00-00'             1322   	l	r0,	NEAR __flgI2CFin
00:027E 01 70                    1323   	cmp	r0,	#01h
00:0280 FA C8                    1324   	bne	_$L83
                                 1325   
                                 1326   ;;	_flgI2CFin = 0;														//reset I2C completed flag
                                 1327   CLINEA 0000H 0001H 0416H 0002H 0038H
00:0282 00 00                    1328   	mov	r0,	#00h
00:0284 11-90 00-00'             1329   	st	r0,	NEAR __flgI2CFin
                                 1330   
                                 1331   ;;	i2c_stop();															//Make sure I2C is not currently running
                                 1332   CLINEA 0000H 0001H 0417H 0002H 0043H
00:0288 01-F0'00-00'             1333   	bl	_i2c_stop
                                 1334   
                                 1335   ;;	i2c_startSend( MPU6050Address, &AccGyro_INTENABLEReg, 1, &AccGyro_INTENABLEReg_contents, 1, (cbfI2c)_funcI2CFin);		//Begin I2C Receive Command
                                 1336   CLINEA 0000H 0001H 0418H 0002H 008FH
00:028C 00'00                    1337   	mov	r0,	#BYTE1 OFFSET __funcI2CFin
00:028E 00'01                    1338   	mov	r1,	#BYTE2 OFFSET __funcI2CFin
00:0290 5E-F0                    1339   	push	er0
00:0292 01 E0                    1340   	mov	er0,	#1 
00:0294 5E-F0                    1341   	push	er0
00:0296 00'00                    1342   	mov	r0,	#BYTE1 OFFSET _AccGyro_INTENABLEReg_contents
00:0298 00'01                    1343   	mov	r1,	#BYTE2 OFFSET _AccGyro_INTENABLEReg_contents
00:029A 5E-F0                    1344   	push	er0
00:029C 01 E0                    1345   	mov	er0,	#1 
00:029E 5E-F0                    1346   	push	er0
00:02A0 00'02                    1347   	mov	r2,	#BYTE1 OFFSET _AccGyro_INTENABLEReg
00:02A2 00'03                    1348   	mov	r3,	#BYTE2 OFFSET _AccGyro_INTENABLEReg
00:02A4 10-90 00-00'             1349   	l	r0,	NEAR _MPU6050Address
00:02A8 01-F0'00-00'             1350   	bl	_i2c_startSend
00:02AC 08 E1                    1351   	add	sp,	#8 
                                 1352   
                                 1353   ;;	while(_flgI2CFin != 1){												//Wait for I2C commands to finish transfer
                                 1354   CLINEA 0000H 0000H 0419H 0001H 0015H
00:02AE 02 CE                    1355   	bal	_$L110
                                 1356   
                                 1357   ;;	while(_flgI2CFin != 1){												//Wait for I2C commands to finish transfer
                                 1358   CLINEA 0000H 0000H 0419H 0002H 004EH
00:02B0                          1359   _$L87 :
                                 1360   CBLOCK 207 8 1049
                                 1361   
                                 1362   ;;		main_clrWDT();
                                 1363   CLINEA 0000H 0001H 041AH 0003H 0010H
00:02B0 01-F0'00-00'             1364   	bl	_main_clrWDT
                                 1365   CBLOCKEND 207 8 1051
                                 1366   
                                 1367   ;;	while(_flgI2CFin != 1){												//Wait for I2C commands to finish transfer
                                 1368   CLINEA 0000H 0000H 0419H 0001H 0015H
00:02B4                          1369   _$L110 :
00:02B4 10-90 00-00'             1370   	l	r0,	NEAR __flgI2CFin
00:02B8 01 70                    1371   	cmp	r0,	#01h
00:02BA FA C8                    1372   	bne	_$L87
                                 1373   
                                 1374   ;;	_flgI2CFin = 0;														//reset I2C completed flag
                                 1375   CLINEA 0000H 0001H 041EH 0002H 0038H
00:02BC 00 00                    1376   	mov	r0,	#00h
00:02BE 11-90 00-00'             1377   	st	r0,	NEAR __flgI2CFin
                                 1378   
                                 1379   ;;	i2c_stop();															//Make sure I2C is not currently running
                                 1380   CLINEA 0000H 0001H 041FH 0002H 0043H
00:02C2 01-F0'00-00'             1381   	bl	_i2c_stop
                                 1382   
                                 1383   ;;	i2c_startSend( HMC5883Address, &Mag_ConfigA, 1, &Mag_ConfigA_Contents, 1, (cbfI2c)_funcI2CFin);		//Begin I2C Receive Command
                                 1384   CLINEA 0000H 0001H 0420H 0002H 007DH
00:02C6 00'00                    1385   	mov	r0,	#BYTE1 OFFSET __funcI2CFin
00:02C8 00'01                    1386   	mov	r1,	#BYTE2 OFFSET __funcI2CFin
00:02CA 5E-F0                    1387   	push	er0
00:02CC 01 E0                    1388   	mov	er0,	#1 
00:02CE 5E-F0                    1389   	push	er0
00:02D0 00'00                    1390   	mov	r0,	#BYTE1 OFFSET _Mag_ConfigA_Contents
00:02D2 00'01                    1391   	mov	r1,	#BYTE2 OFFSET _Mag_ConfigA_Contents
00:02D4 5E-F0                    1392   	push	er0
00:02D6 01 E0                    1393   	mov	er0,	#1 
00:02D8 5E-F0                    1394   	push	er0
00:02DA 00'02                    1395   	mov	r2,	#BYTE1 OFFSET _Mag_ConfigA
00:02DC 00'03                    1396   	mov	r3,	#BYTE2 OFFSET _Mag_ConfigA
00:02DE 10-90 00-00'             1397   	l	r0,	NEAR _HMC5883Address
00:02E2 01-F0'00-00'             1398   	bl	_i2c_startSend
00:02E6 08 E1                    1399   	add	sp,	#8 
                                 1400   
                                 1401   ;;	while(_flgI2CFin != 1){												//Wait for I2C commands to finish transfer
                                 1402   CLINEA 0000H 0000H 0421H 0001H 0015H
00:02E8 02 CE                    1403   	bal	_$L111
                                 1404   
                                 1405   ;;	while(_flgI2CFin != 1){												//Wait for I2C commands to finish transfer
                                 1406   CLINEA 0000H 0000H 0421H 0002H 004EH
00:02EA                          1407   _$L91 :
                                 1408   CBLOCK 207 9 1057
                                 1409   
                                 1410   ;;		main_clrWDT();
                                 1411   CLINEA 0000H 0001H 0422H 0003H 0010H
00:02EA 01-F0'00-00'             1412   	bl	_main_clrWDT
                                 1413   CBLOCKEND 207 9 1059
                                 1414   
                                 1415   ;;	while(_flgI2CFin != 1){												//Wait for I2C commands to finish transfer
                                 1416   CLINEA 0000H 0000H 0421H 0001H 0015H
00:02EE                          1417   _$L111 :
00:02EE 10-90 00-00'             1418   	l	r0,	NEAR __flgI2CFin
00:02F2 01 70                    1419   	cmp	r0,	#01h
00:02F4 FA C8                    1420   	bne	_$L91
                                 1421   
                                 1422   ;;	_flgI2CFin = 0;														//reset I2C completed flag
                                 1423   CLINEA 0000H 0001H 0425H 0002H 0038H
00:02F6 00 00                    1424   	mov	r0,	#00h
00:02F8 11-90 00-00'             1425   	st	r0,	NEAR __flgI2CFin
                                 1426   
                                 1427   ;;	i2c_stop();															//Make sure I2C is not currently running
                                 1428   CLINEA 0000H 0001H 0426H 0002H 0043H
00:02FC 01-F0'00-00'             1429   	bl	_i2c_stop
                                 1430   
                                 1431   ;;	i2c_startSend( HMC5883Address, &Mag_ConfigB, 1, &Mag_ConfigB_Contents, 1, (cbfI2c)_funcI2CFin);		//Begin I2C Receive Command
                                 1432   CLINEA 0000H 0001H 0427H 0002H 007DH
00:0300 00'00                    1433   	mov	r0,	#BYTE1 OFFSET __funcI2CFin
00:0302 00'01                    1434   	mov	r1,	#BYTE2 OFFSET __funcI2CFin
00:0304 5E-F0                    1435   	push	er0
00:0306 01 E0                    1436   	mov	er0,	#1 
00:0308 5E-F0                    1437   	push	er0
00:030A 00'00                    1438   	mov	r0,	#BYTE1 OFFSET _Mag_ConfigB_Contents
00:030C 00'01                    1439   	mov	r1,	#BYTE2 OFFSET _Mag_ConfigB_Contents
00:030E 5E-F0                    1440   	push	er0
00:0310 01 E0                    1441   	mov	er0,	#1 
00:0312 5E-F0                    1442   	push	er0
00:0314 00'02                    1443   	mov	r2,	#BYTE1 OFFSET _Mag_ConfigB
00:0316 00'03                    1444   	mov	r3,	#BYTE2 OFFSET _Mag_ConfigB
00:0318 10-90 00-00'             1445   	l	r0,	NEAR _HMC5883Address
00:031C 01-F0'00-00'             1446   	bl	_i2c_startSend
00:0320 08 E1                    1447   	add	sp,	#8 
                                 1448   
                                 1449   ;;	while(_flgI2CFin != 1){												//Wait for I2C commands to finish transfer
                                 1450   CLINEA 0000H 0000H 0428H 0001H 0015H
00:0322 02 CE                    1451   	bal	_$L112
                                 1452   
                                 1453   ;;	while(_flgI2CFin != 1){												//Wait for I2C commands to finish transfer
                                 1454   CLINEA 0000H 0000H 0428H 0002H 004EH
00:0324                          1455   _$L95 :
                                 1456   CBLOCK 207 10 1064
                                 1457   
                                 1458   ;;		main_clrWDT();
                                 1459   CLINEA 0000H 0001H 0429H 0003H 0010H
00:0324 01-F0'00-00'             1460   	bl	_main_clrWDT
                                 1461   CBLOCKEND 207 10 1066
                                 1462   
                                 1463   ;;	while(_flgI2CFin != 1){												//Wait for I2C commands to finish transfer
                                 1464   CLINEA 0000H 0000H 0428H 0001H 0015H
00:0328                          1465   _$L112 :
00:0328 10-90 00-00'             1466   	l	r0,	NEAR __flgI2CFin
00:032C 01 70                    1467   	cmp	r0,	#01h
00:032E FA C8                    1468   	bne	_$L95
                                 1469   
                                 1470   ;;	_flgI2CFin = 0;														//reset I2C completed flag
                                 1471   CLINEA 0000H 0001H 042CH 0002H 0038H
00:0330 00 00                    1472   	mov	r0,	#00h
00:0332 11-90 00-00'             1473   	st	r0,	NEAR __flgI2CFin
                                 1474   
                                 1475   ;;	i2c_stop();															//Make sure I2C is not currently running
                                 1476   CLINEA 0000H 0001H 042DH 0002H 0043H
00:0336 01-F0'00-00'             1477   	bl	_i2c_stop
                                 1478   
                                 1479   ;;	i2c_startSend( HMC5883Address, &Mag_ModeReg, 1, &Mag_ModeReg_Contents, 1, (cbfI2c)_funcI2CFin);		//Begin I2C Receive Command
                                 1480   CLINEA 0000H 0001H 042EH 0002H 007DH
00:033A 00'00                    1481   	mov	r0,	#BYTE1 OFFSET __funcI2CFin
00:033C 00'01                    1482   	mov	r1,	#BYTE2 OFFSET __funcI2CFin
00:033E 5E-F0                    1483   	push	er0
00:0340 01 E0                    1484   	mov	er0,	#1 
00:0342 5E-F0                    1485   	push	er0
00:0344 00'00                    1486   	mov	r0,	#BYTE1 OFFSET _Mag_ModeReg_Contents
00:0346 00'01                    1487   	mov	r1,	#BYTE2 OFFSET _Mag_ModeReg_Contents
00:0348 5E-F0                    1488   	push	er0
00:034A 01 E0                    1489   	mov	er0,	#1 
00:034C 5E-F0                    1490   	push	er0
00:034E 00'02                    1491   	mov	r2,	#BYTE1 OFFSET _Mag_ModeReg
00:0350 00'03                    1492   	mov	r3,	#BYTE2 OFFSET _Mag_ModeReg
00:0352 10-90 00-00'             1493   	l	r0,	NEAR _HMC5883Address
00:0356 01-F0'00-00'             1494   	bl	_i2c_startSend
00:035A 08 E1                    1495   	add	sp,	#8 
                                 1496   
                                 1497   ;;	while(_flgI2CFin != 1){												//Wait for I2C commands to finish transfer
                                 1498   CLINEA 0000H 0000H 042FH 0001H 0015H
00:035C 02 CE                    1499   	bal	_$L113
                                 1500   
                                 1501   ;;	while(_flgI2CFin != 1){												//Wait for I2C commands to finish transfer
                                 1502   CLINEA 0000H 0000H 042FH 0002H 004EH
00:035E                          1503   _$L99 :
                                 1504   CBLOCK 207 11 1071
                                 1505   
                                 1506   ;;		main_clrWDT();
                                 1507   CLINEA 0000H 0001H 0430H 0003H 0010H
00:035E 01-F0'00-00'             1508   	bl	_main_clrWDT
                                 1509   CBLOCKEND 207 11 1073
                                 1510   
                                 1511   ;;	while(_flgI2CFin != 1){												//Wait for I2C commands to finish transfer
                                 1512   CLINEA 0000H 0000H 042FH 0001H 0015H
00:0362                          1513   _$L113 :
00:0362 10-90 00-00'             1514   	l	r0,	NEAR __flgI2CFin
00:0366 01 70                    1515   	cmp	r0,	#01h
00:0368 FA C8                    1516   	bne	_$L99
                                 1517   
                                 1518   ;;	EPB3 = 0;
                                 1519   CLINEA 0000H 0001H 0434H 0002H 000AH
00:036A F2-A0 11-F0              1520   	rb	0f011h.7
                                 1521   
                                 1522   ;;	_flgI2CFin = 0;																	//reset I2C completed Flag
                                 1523   CLINEA 0000H 0001H 0437H 0002H 003BH
00:036E 00 00                    1524   	mov	r0,	#00h
00:0370 11-90 00-00'             1525   	st	r0,	NEAR __flgI2CFin
                                 1526   
                                 1527   ;;	i2c_stop();																		//Make sure I2C is not currently running
                                 1528   CLINEA 0000H 0001H 0438H 0002H 0046H
00:0374 01-F0'00-00'             1529   	bl	_i2c_stop
                                 1530   
                                 1531   ;;	I20MD = 1;		//Switch to I2C Fast Operation (400kbps)
                                 1532   CLINEA 0000H 0001H 0439H 0002H 0035H
00:0378 90-A0 A4-F2              1533   	sb	0f2a4h.1
                                 1534   
                                 1535   ;;	i2c_startReceive(MPU6050Address, &AccGyro_ReadData, 1, &AccGyro_Data, 14, (cbfI2c)_funcI2CFin);	//Begin I2C Receive Command
                                 1536   CLINEA 0000H 0001H 043AH 0002H 007CH
00:037C 00'00                    1537   	mov	r0,	#BYTE1 OFFSET __funcI2CFin
00:037E 00'01                    1538   	mov	r1,	#BYTE2 OFFSET __funcI2CFin
00:0380 5E-F0                    1539   	push	er0
00:0382 0E E0                    1540   	mov	er0,	#14
00:0384 5E-F0                    1541   	push	er0
00:0386 00'00                    1542   	mov	r0,	#BYTE1 OFFSET _AccGyro_Data
00:0388 00'01                    1543   	mov	r1,	#BYTE2 OFFSET _AccGyro_Data
00:038A 5E-F0                    1544   	push	er0
00:038C 01 E0                    1545   	mov	er0,	#1 
00:038E 5E-F0                    1546   	push	er0
00:0390 00'02                    1547   	mov	r2,	#BYTE1 OFFSET _AccGyro_ReadData
00:0392 00'03                    1548   	mov	r3,	#BYTE2 OFFSET _AccGyro_ReadData
00:0394 10-90 00-00'             1549   	l	r0,	NEAR _MPU6050Address
00:0398 01-F0'00-00'             1550   	bl	_i2c_startReceive
00:039C 08 E1                    1551   	add	sp,	#8 
                                 1552   
                                 1553   ;;	while(_flgI2CFin != 1){															//Wait for I2C commands to finish transfer
                                 1554   CLINEA 0000H 0000H 043BH 0001H 0015H
00:039E 02 CE                    1555   	bal	_$L114
                                 1556   
                                 1557   ;;	while(_flgI2CFin != 1){															//Wait for I2C commands to finish transfer
                                 1558   CLINEA 0000H 0000H 043BH 0002H 0051H
00:03A0                          1559   _$L103 :
                                 1560   CBLOCK 207 12 1083
                                 1561   
                                 1562   ;;		main_clrWDT();
                                 1563   CLINEA 0000H 0001H 043CH 0003H 0010H
00:03A0 01-F0'00-00'             1564   	bl	_main_clrWDT
                                 1565   CBLOCKEND 207 12 1089
                                 1566   
                                 1567   ;;	while(_flgI2CFin != 1){															//Wait for I2C commands to finish transfer
                                 1568   CLINEA 0000H 0000H 043BH 0001H 0015H
00:03A4                          1569   _$L114 :
00:03A4 10-90 00-00'             1570   	l	r0,	NEAR __flgI2CFin
00:03A8 01 70                    1571   	cmp	r0,	#01h
00:03AA FA C8                    1572   	bne	_$L103
                                 1573   
                                 1574   ;;	PD1C1 = 1;
                                 1575   CLINEA 0000H 0001H 0445H 0002H 000BH
00:03AC 90-A0 6B-F2              1576   	sb	0f26bh.1
                                 1577   
                                 1578   ;;	PD1C0 = 1;
                                 1579   CLINEA 0000H 0001H 0446H 0002H 000BH
00:03B0 90-A0 6A-F2              1580   	sb	0f26ah.1
                                 1581   
                                 1582   ;;	PC6DIR = 1;
                                 1583   CLINEA 0000H 0001H 0449H 0002H 000CH
00:03B4 E0-A0 61-F2              1584   	sb	0f261h.6
                                 1585   
                                 1586   ;;	PC6C0 = 1;
                                 1587   CLINEA 0000H 0001H 044AH 0002H 000BH
00:03B8 E0-A0 62-F2              1588   	sb	0f262h.6
                                 1589   
                                 1590   ;;	PC6C1 = 1;
                                 1591   CLINEA 0000H 0001H 044BH 0002H 000BH
00:03BC E0-A0 63-F2              1592   	sb	0f263h.6
                                 1593   
                                 1594   ;;	PC6MD0 = 0;
                                 1595   CLINEA 0000H 0001H 044CH 0002H 000CH
00:03C0 E2-A0 64-F2              1596   	rb	0f264h.6
                                 1597   
                                 1598   ;;	PC6MD1 = 0;
                                 1599   CLINEA 0000H 0001H 044DH 0002H 000CH
00:03C4 E2-A0 65-F2              1600   	rb	0f265h.6
                                 1601   CBLOCKEND 207 2 1105
                                 1602   
                                 1603   ;;}//End Initialization
                                 1604   CLINEA 0000H 0001H 0451H 0001H 0015H
00:03C8 8E-F2                    1605   	pop	pc
                                 1606   CBLOCKEND 207 1 1105
                                 1607   CFUNCTIONEND 207
                                 1608   
                                 1609   
  --------------------------     1610   	rseg $$Get_RangeData$main
                                 1611   CFUNCTION 219
                                 1612   
00:0000                          1613   _Get_RangeData	:
                                 1614   CBLOCK 219 1 1111
                                 1615   
                                 1616   ;;void Get_RangeData(void){
                                 1617   CLINEA 0000H 0001H 0457H 0001H 0019H
00:0000 CE-F8                    1618   	push	lr
                                 1619   CBLOCK 219 2 1111
                                 1620   CRET 0000H
                                 1621   
                                 1622   ;;	_flgI2CFin = 0;														//reset I2C completed flag
                                 1623   CLINEA 0000H 0001H 0459H 0002H 0038H
00:0002 00 00                    1624   	mov	r0,	#00h
00:0004 11-90 00-00'             1625   	st	r0,	NEAR __flgI2CFin
                                 1626   
                                 1627   ;;	i2c_stop();															//Make sure I2C is not currently running
                                 1628   CLINEA 0000H 0001H 045AH 0002H 0043H
00:0008 01-F0'00-00'             1629   	bl	_i2c_stop
                                 1630   
                                 1631   ;;	I20MD = 0;		//Switch to I2C Standard Operation (100kbps)
                                 1632   CLINEA 0000H 0001H 045BH 0002H 0039H
00:000C 92-A0 A4-F2              1633   	rb	0f2a4h.1
                                 1634   
                                 1635   ;;	i2c_startSend( Range_Address, &Range_TakeRangeReading, 1, &AccGyro_PWRMGMT1REG_Contents, 0, (cbfI2c)_funcI2CFin);		//Begin I2C Receive Command
                                 1636   CLINEA 0000H 0001H 045CH 0002H 008FH
00:0010 00'00                    1637   	mov	r0,	#BYTE1 OFFSET __funcI2CFin
00:0012 00'01                    1638   	mov	r1,	#BYTE2 OFFSET __funcI2CFin
00:0014 5E-F0                    1639   	push	er0
00:0016 00 E0                    1640   	mov	er0,	#0 
00:0018 5E-F0                    1641   	push	er0
00:001A 00'00                    1642   	mov	r0,	#BYTE1 OFFSET _AccGyro_PWRMGMT1REG_Contents
00:001C 00'01                    1643   	mov	r1,	#BYTE2 OFFSET _AccGyro_PWRMGMT1REG_Contents
00:001E 5E-F0                    1644   	push	er0
00:0020 01 E0                    1645   	mov	er0,	#1 
00:0022 5E-F0                    1646   	push	er0
00:0024 00'02                    1647   	mov	r2,	#BYTE1 OFFSET _Range_TakeRangeReading
00:0026 00'03                    1648   	mov	r3,	#BYTE2 OFFSET _Range_TakeRangeReading
00:0028 10-90 00-00'             1649   	l	r0,	NEAR _Range_Address
00:002C 01-F0'00-00'             1650   	bl	_i2c_startSend
00:0030 08 E1                    1651   	add	sp,	#8 
                                 1652   
                                 1653   ;;	while(_flgI2CFin != 1){												//Wait for I2C commands to finish transfer
                                 1654   CLINEA 0000H 0000H 045DH 0001H 0001H
00:0032 02 CE                    1655   	bal	_$L128
                                 1656   
                                 1657   ;;	while(_flgI2CFin != 1){												//Wait for I2C commands to finish transfer
                                 1658   CLINEA 0000H 0000H 045DH 0002H 004EH
00:0034                          1659   _$L118 :
                                 1660   CBLOCK 219 3 1117
                                 1661   
                                 1662   ;;		main_clrWDT();
                                 1663   CLINEA 0000H 0001H 045EH 0003H 0010H
00:0034 01-F0'00-00'             1664   	bl	_main_clrWDT
                                 1665   CBLOCKEND 219 3 1119
                                 1666   
                                 1667   ;;	while(_flgI2CFin != 1){												//Wait for I2C commands to finish transfer
                                 1668   CLINEA 0000H 0000H 045DH 0001H 0001H
00:0038                          1669   _$L128 :
00:0038 10-90 00-00'             1670   	l	r0,	NEAR __flgI2CFin
00:003C 01 70                    1671   	cmp	r0,	#01h
00:003E FA C8                    1672   	bne	_$L118
                                 1673   
                                 1674   ;;	}
                                 1675   CLINEA 0000H 0000H 045FH 0002H 0002H
00:0040                          1676   _$L117 :
                                 1677   
                                 1678   ;;	while(RANGE_STAT==1);
                                 1679   CLINEA 0000H 0000H 0460H 0000H 0000H
00:0040 E1-A0 60-F2              1680   	tb	0f260h.6
00:0044 FD C8                    1681   	bne	_$L117
                                 1682   
                                 1683   ;;	_flgI2CFin = 0;																	//reset I2C completed Flag
                                 1684   CLINEA 0000H 0001H 0463H 0002H 003BH
00:0046 00 00                    1685   	mov	r0,	#00h
00:0048 11-90 00-00'             1686   	st	r0,	NEAR __flgI2CFin
                                 1687   
                                 1688   ;;	i2c_stop();																		//Make sure I2C is not currently running
                                 1689   CLINEA 0000H 0001H 0464H 0002H 0046H
00:004C 01-F0'00-00'             1690   	bl	_i2c_stop
                                 1691   
                                 1692   ;;	i2c_startReceive(Range_Address, &Range_TakeRangeReading, 0, &Range_Output, 2, (cbfI2c)_funcI2CFin);	//Begin I2C Receive Command
                                 1693   CLINEA 0000H 0001H 0465H 0002H 0080H
00:0050 00'00                    1694   	mov	r0,	#BYTE1 OFFSET __funcI2CFin
00:0052 00'01                    1695   	mov	r1,	#BYTE2 OFFSET __funcI2CFin
00:0054 5E-F0                    1696   	push	er0
00:0056 02 E0                    1697   	mov	er0,	#2 
00:0058 5E-F0                    1698   	push	er0
00:005A 00'00                    1699   	mov	r0,	#BYTE1 OFFSET _Range_Output
00:005C 00'01                    1700   	mov	r1,	#BYTE2 OFFSET _Range_Output
00:005E 5E-F0                    1701   	push	er0
00:0060 00 E0                    1702   	mov	er0,	#0 
00:0062 5E-F0                    1703   	push	er0
00:0064 00'02                    1704   	mov	r2,	#BYTE1 OFFSET _Range_TakeRangeReading
00:0066 00'03                    1705   	mov	r3,	#BYTE2 OFFSET _Range_TakeRangeReading
00:0068 10-90 00-00'             1706   	l	r0,	NEAR _Range_Address
00:006C 01-F0'00-00'             1707   	bl	_i2c_startReceive
00:0070 08 E1                    1708   	add	sp,	#8 
                                 1709   
                                 1710   ;;	while(_flgI2CFin != 1){															//Wait for I2C commands to finish transfer
                                 1711   CLINEA 0000H 0000H 0466H 0001H 0001H
00:0072 02 CE                    1712   	bal	_$L129
                                 1713   
                                 1714   ;;	while(_flgI2CFin != 1){															//Wait for I2C commands to finish transfer
                                 1715   CLINEA 0000H 0000H 0466H 0002H 0051H
00:0074                          1716   _$L126 :
                                 1717   CBLOCK 219 4 1126
                                 1718   
                                 1719   ;;		main_clrWDT();
                                 1720   CLINEA 0000H 0001H 0467H 0003H 0010H
00:0074 01-F0'00-00'             1721   	bl	_main_clrWDT
                                 1722   CBLOCKEND 219 4 1128
                                 1723   
                                 1724   ;;	while(_flgI2CFin != 1){															//Wait for I2C commands to finish transfer
                                 1725   CLINEA 0000H 0000H 0466H 0001H 0001H
00:0078                          1726   _$L129 :
00:0078 10-90 00-00'             1727   	l	r0,	NEAR __flgI2CFin
00:007C 01 70                    1728   	cmp	r0,	#01h
00:007E FA C8                    1729   	bne	_$L126
                                 1730   
                                 1731   ;;	Range_out = (Range_Output[0]<<8)+(Range_Output[1]);
                                 1732   CLINEA 0000H 0001H 046AH 0002H 0034H
00:0080 10-90 00-00'             1733   	l	r0,	NEAR _Range_Output+01h
00:0084 00 01                    1734   	mov	r1,	#00h
00:0086 10-92 00-00'             1735   	l	r2,	NEAR _Range_Output
00:008A 20-83                    1736   	mov	r3,	r2
00:008C 00 02                    1737   	mov	r2,	#00h
00:008E 26-F0                    1738   	add	er0,	er2
00:0090 13-90 00-00'             1739   	st	er0,	NEAR _Range_out
                                 1740   
                                 1741   ;;	I20MD = 1;		//Switch Back to I2C Fast Operation (400kbps)
                                 1742   CLINEA 0000H 0001H 046BH 0002H 003AH
00:0094 90-A0 A4-F2              1743   	sb	0f2a4h.1
                                 1744   CBLOCKEND 219 2 1132
                                 1745   
                                 1746   ;;}
                                 1747   CLINEA 0000H 0001H 046CH 0001H 0001H
00:0098 8E-F2                    1748   	pop	pc
                                 1749   CBLOCKEND 219 1 1132
                                 1750   CFUNCTIONEND 219
                                 1751   
                                 1752   
  --------------------------     1753   	rseg $$Get_PingData$main
                                 1754   CFUNCTION 220
                                 1755   
00:0000                          1756   _Get_PingData	:
                                 1757   CBLOCK 220 1 1134
                                 1758   
                                 1759   ;;void Get_PingData(void){
                                 1760   CLINEA 0000H 0001H 046EH 0001H 0018H
00:0000 CE-F8                    1761   	push	lr
00:0002 6E-F4                    1762   	push	xr4
                                 1763   CBLOCK 220 2 1134
                                 1764   CRET 0004H
                                 1765   
                                 1766   ;;	PD1DIR = 0;		// PortD Bit0 set to Output Mode...
                                 1767   CLINEA 0000H 0001H 0471H 0002H 0031H
00:0004 92-A0 69-F2              1768   	rb	0f269h.1
                                 1769   
                                 1770   ;;	PingSensor = 1;
                                 1771   CLINEA 0000H 0001H 0472H 0002H 0010H
00:0008 90-A0 68-F2              1772   	sb	0f268h.1
                                 1773   
                                 1774   ;;	NOPus();
                                 1775   CLINEA 0000H 0001H 0473H 0002H 0009H
00:000C 01-F0'00-00'             1776   	bl	_NOPus
                                 1777   
                                 1778   ;;	PingSensor = 0;
                                 1779   CLINEA 0000H 0001H 0474H 0002H 0010H
00:0010 92-A0 68-F2              1780   	rb	0f268h.1
                                 1781   
                                 1782   ;;	PD1DIR = 1;		// PortD Bit0 set to Input Mode...
                                 1783   CLINEA 0000H 0001H 0477H 0002H 0030H
00:0014 90-A0 69-F2              1784   	sb	0f269h.1
                                 1785   
                                 1786   ;;	while(PingSensor == 0){
                                 1787   CLINEA 0000H 0001H 0478H 0002H 0018H
00:0018 02 CE                    1788   	bal	_$L131
00:001A                          1789   _$L133 :
                                 1790   CBLOCK 220 3 1144
                                 1791   
                                 1792   ;;		NOPus();
                                 1793   CLINEA 0000H 0001H 0479H 0003H 000AH
00:001A 01-F0'00-00'             1794   	bl	_NOPus
                                 1795   CBLOCKEND 220 3 1146
                                 1796   
                                 1797   ;;	}
                                 1798   CLINEA 0000H 0000H 047AH 0002H 0002H
00:001E                          1799   _$L131 :
                                 1800   
                                 1801   ;;	while(PingSensor == 0){
                                 1802   CLINEA 0000H 0000H 0478H 0000H 0000H
00:001E 91-A0 68-F2              1803   	tb	0f268h.1
00:0022 FB C9                    1804   	beq	_$L133
                                 1805   
                                 1806   ;;	while(PingSensor ==1){
                                 1807   CLINEA 0000H 0001H 047BH 0002H 0017H
00:0024 07 CE                    1808   	bal	_$L135
00:0026                          1809   _$L137 :
                                 1810   CBLOCK 220 4 1147
                                 1811   
                                 1812   ;;		NOPus();
                                 1813   CLINEA 0000H 0001H 047CH 0003H 000AH
00:0026 01-F0'00-00'             1814   	bl	_NOPus
                                 1815   
                                 1816   ;;		Ping_timer++;
                                 1817   CLINEA 0000H 0000H 047DH 0003H 000FH
00:002A 12-90 00-00'             1818   	l	er0,	NEAR _Ping_timer
00:002E 81 E0                    1819   	add	er0,	#1 
00:0030 13-90 00-00'             1820   	st	er0,	NEAR _Ping_timer
                                 1821   CBLOCKEND 220 4 1150
                                 1822   
                                 1823   ;;	}
                                 1824   CLINEA 0000H 0000H 047EH 0002H 0002H
00:0034                          1825   _$L135 :
                                 1826   
                                 1827   ;;	while(PingSensor ==1){
                                 1828   CLINEA 0000H 0000H 047BH 0000H 0000H
00:0034 91-A0 68-F2              1829   	tb	0f268h.1
00:0038 F6 C8                    1830   	bne	_$L137
                                 1831   
                                 1832   ;;	Ping_timer *= 11;	//Convert the ping timer response to us
                                 1833   CLINEA 0000H 0001H 047FH 0002H 003AH
00:003A 12-90 00-00'             1834   	l	er0,	NEAR _Ping_timer
00:003E 05-F2                    1835   	mov	er2,	er0
00:0040 2B-91                    1836   	sllc	r1,	#02h
00:0042 2A-90                    1837   	sll	r0,	#02h
00:0044 26-F0                    1838   	add	er0,	er2
00:0046 06-F0                    1839   	add	er0,	er0
00:0048 26-F0                    1840   	add	er0,	er2
00:004A 13-90 00-00'             1841   	st	er0,	NEAR _Ping_timer
                                 1842   
                                 1843   ;;	Ping_out = (0.0162*Ping_timer) + 0.1359; //Convert us to distance based on Datasheet
                                 1844   CLINEA 0000H 0001H 0480H 0002H 0055H
00:004E 00 E2                    1845   	mov	er2,	#0 
00:0050 6E-F0                    1846   	push	xr0
00:0052 FC E1                    1847   	add	sp,	#-4
00:0054 01-F0'00-00'             1848   	bl	__dildu8sw
00:0058 82 00                    1849   	mov	r0,	#082h
00:005A E2 01                    1850   	mov	r1,	#0e2h
00:005C C7 02                    1851   	mov	r2,	#0c7h
00:005E 98 03                    1852   	mov	r3,	#098h
00:0060 BB 04                    1853   	mov	r4,	#0bbh
00:0062 96 05                    1854   	mov	r5,	#096h
00:0064 90 06                    1855   	mov	r6,	#090h
00:0066 3F 07                    1856   	mov	r7,	#03fh
00:0068 7E-F0                    1857   	push	qr0
00:006A 01-F0'00-00'             1858   	bl	__dmulu8sw
00:006E 08 E1                    1859   	add	sp,	#8 
00:0070 13 00                    1860   	mov	r0,	#013h
00:0072 61 01                    1861   	mov	r1,	#061h
00:0074 C3 02                    1862   	mov	r2,	#0c3h
00:0076 D3 03                    1863   	mov	r3,	#0d3h
00:0078 2B 04                    1864   	mov	r4,	#02bh
00:007A 65 05                    1865   	mov	r5,	#065h
00:007C C1 06                    1866   	mov	r6,	#0c1h
00:007E 7E-F0                    1867   	push	qr0
00:0080 01-F0'00-00'             1868   	bl	__daddu8sw
00:0084 08 E1                    1869   	add	sp,	#8 
00:0086 01-F0'00-00'             1870   	bl	__dtofu8sw
00:008A 04 E1                    1871   	add	sp,	#4 
00:008C 2E-F0                    1872   	pop	xr0
00:008E 13-90 00-00'             1873   	st	er0,	NEAR _Ping_out
00:0092 13-92 00-00'             1874   	st	er2,	NEAR _Ping_out+02h
                                 1875   CBLOCKEND 220 2 1154
                                 1876   
                                 1877   ;;}
                                 1878   CLINEA 0000H 0001H 0482H 0001H 0001H
00:0096 2E-F4                    1879   	pop	xr4
00:0098 8E-F2                    1880   	pop	pc
                                 1881   CBLOCKEND 220 1 1154
                                 1882   CFUNCTIONEND 220
                                 1883   
                                 1884   
  --------------------------     1885   	rseg $$Get_AccGyroData$main
                                 1886   CFUNCTION 221
                                 1887   
00:0000                          1888   _Get_AccGyroData	:
                                 1889   CBLOCK 221 1 1156
                                 1890   
                                 1891   ;;void Get_AccGyroData(void){
                                 1892   CLINEA 0000H 0001H 0484H 0001H 001BH
00:0000 CE-F8                    1893   	push	lr
00:0002 5E-F4                    1894   	push	er4
                                 1895   CBLOCK 221 2 1156
                                 1896   CRET 0002H
                                 1897   
                                 1898   ;;	LED_4 = 1;		//C2, Pin 14
                                 1899   CLINEA 0000H 0001H 0488H 0002H 0019H
00:0004 A0-A0 60-F2              1900   	sb	0f260h.2
                                 1901   
                                 1902   ;;	LED_2 = 1;			//B7, Pin 11
                                 1903   CLINEA 0000H 0001H 0489H 0002H 001AH
00:0008 F0-A0 58-F2              1904   	sb	0f258h.7
                                 1905   
                                 1906   ;;	EPB3 = 0;		//Turn off Accel/Gyro Interrupt.  This can probably be removed...
                                 1907   CLINEA 0000H 0001H 048BH 0002H 004DH
00:000C F2-A0 11-F0              1908   	rb	0f011h.7
                                 1909   
                                 1910   ;;	_flgI2CFin = 0;																	//reset I2C completed Flag
                                 1911   CLINEA 0000H 0001H 048DH 0002H 003BH
00:0010 00 00                    1912   	mov	r0,	#00h
00:0012 11-90 00-00'             1913   	st	r0,	NEAR __flgI2CFin
                                 1914   
                                 1915   ;;	i2c_stop();																		//Make sure I2C is not currently running
                                 1916   CLINEA 0000H 0001H 048EH 0002H 0046H
00:0016 01-F0'00-00'             1917   	bl	_i2c_stop
                                 1918   
                                 1919   ;;	I20MD = 1;		//Switch to I2C Fast Operation (400kbps)
                                 1920   CLINEA 0000H 0001H 048FH 0002H 0035H
00:001A 90-A0 A4-F2              1921   	sb	0f2a4h.1
                                 1922   
                                 1923   ;;	i2c_startReceive(MPU6050Address, &AccGyro_ReadData, 1, &AccGyro_Data, 14, (cbfI2c)_funcI2CFin);	//Begin I2C Receive Command
                                 1924   CLINEA 0000H 0001H 0490H 0002H 007CH
00:001E 00'00                    1925   	mov	r0,	#BYTE1 OFFSET __funcI2CFin
00:0020 00'01                    1926   	mov	r1,	#BYTE2 OFFSET __funcI2CFin
00:0022 5E-F0                    1927   	push	er0
00:0024 0E E0                    1928   	mov	er0,	#14
00:0026 5E-F0                    1929   	push	er0
00:0028 00'00                    1930   	mov	r0,	#BYTE1 OFFSET _AccGyro_Data
00:002A 00'01                    1931   	mov	r1,	#BYTE2 OFFSET _AccGyro_Data
00:002C 5E-F0                    1932   	push	er0
00:002E 01 E0                    1933   	mov	er0,	#1 
00:0030 5E-F0                    1934   	push	er0
00:0032 00'02                    1935   	mov	r2,	#BYTE1 OFFSET _AccGyro_ReadData
00:0034 00'03                    1936   	mov	r3,	#BYTE2 OFFSET _AccGyro_ReadData
00:0036 10-90 00-00'             1937   	l	r0,	NEAR _MPU6050Address
00:003A 01-F0'00-00'             1938   	bl	_i2c_startReceive
00:003E 08 E1                    1939   	add	sp,	#8 
                                 1940   
                                 1941   ;;	while(_flgI2CFin != 1){															//Wait for I2C commands to finish transfer
                                 1942   CLINEA 0000H 0000H 0491H 0001H 0001H
00:0040 02 CE                    1943   	bal	_$L146
                                 1944   
                                 1945   ;;	while(_flgI2CFin != 1){															//Wait for I2C commands to finish transfer
                                 1946   CLINEA 0000H 0000H 0491H 0002H 0051H
00:0042                          1947   _$L142 :
                                 1948   CBLOCK 221 3 1169
                                 1949   
                                 1950   ;;		main_clrWDT();
                                 1951   CLINEA 0000H 0001H 0492H 0003H 0010H
00:0042 01-F0'00-00'             1952   	bl	_main_clrWDT
                                 1953   CBLOCKEND 221 3 1171
                                 1954   
                                 1955   ;;	while(_flgI2CFin != 1){															//Wait for I2C commands to finish transfer
                                 1956   CLINEA 0000H 0000H 0491H 0001H 0001H
00:0046                          1957   _$L146 :
00:0046 10-90 00-00'             1958   	l	r0,	NEAR __flgI2CFin
00:004A 01 70                    1959   	cmp	r0,	#01h
00:004C FA C8                    1960   	bne	_$L142
                                 1961   
                                 1962   ;;	Accel_Xout[Accel_SavIndex] = (AccGyro_Data[0]<<8)+(AccGyro_Data[1]);
                                 1963   CLINEA 0000H 0001H 0496H 0002H 0045H
00:004E 10-90 00-00'             1964   	l	r0,	NEAR _AccGyro_Data+01h
00:0052 00 01                    1965   	mov	r1,	#00h
00:0054 10-92 00-00'             1966   	l	r2,	NEAR _AccGyro_Data
00:0058 20-83                    1967   	mov	r3,	r2
00:005A 00 02                    1968   	mov	r2,	#00h
00:005C 26-F0                    1969   	add	er0,	er2
00:005E 10-82                    1970   	mov	r2,	r1
00:0060 2F-83                    1971   	extbw	er2
00:0062 30-82                    1972   	mov	r2,	r3
00:0064 6E-F0                    1973   	push	xr0
00:0066 01-F0'00-00'             1974   	bl	__fildu8sw
00:006A 2E-F0                    1975   	pop	xr0
00:006C 10-94 00-00'             1976   	l	r4,	NEAR _Accel_SavIndex
00:0070 00 05                    1977   	mov	r5,	#00h
00:0072 2B-95                    1978   	sllc	r5,	#02h
00:0074 2A-94                    1979   	sll	r4,	#02h
00:0076 49-A0 00-00'             1980   	st	er0,	NEAR _Accel_Xout[er4]
00:007A 49-A2 00-00'             1981   	st	er2,	NEAR _Accel_Xout+02h[er4]
                                 1982   
                                 1983   ;;	Accel_Yout[Accel_SavIndex] = (AccGyro_Data[2]<<8)+(AccGyro_Data[3]);
                                 1984   CLINEA 0000H 0001H 0497H 0002H 0045H
00:007E 10-90 00-00'             1985   	l	r0,	NEAR _AccGyro_Data+02h
00:0082 00 01                    1986   	mov	r1,	#00h
00:0084 00-83                    1987   	mov	r3,	r0
00:0086 00 02                    1988   	mov	r2,	#00h
00:0088 10-90 00-00'             1989   	l	r0,	NEAR _AccGyro_Data+03h
00:008C 26-F0                    1990   	add	er0,	er2
00:008E 10-82                    1991   	mov	r2,	r1
00:0090 2F-83                    1992   	extbw	er2
00:0092 30-82                    1993   	mov	r2,	r3
00:0094 6E-F0                    1994   	push	xr0
00:0096 01-F0'00-00'             1995   	bl	__fildu8sw
00:009A 2E-F0                    1996   	pop	xr0
00:009C 49-A0 00-00'             1997   	st	er0,	NEAR _Accel_Yout[er4]
00:00A0 49-A2 00-00'             1998   	st	er2,	NEAR _Accel_Yout+02h[er4]
                                 1999   
                                 2000   ;;	Accel_Zout[Accel_SavIndex] = (AccGyro_Data[4]<<8)+(AccGyro_Data[5]);
                                 2001   CLINEA 0000H 0001H 0498H 0002H 0045H
00:00A4 10-90 00-00'             2002   	l	r0,	NEAR _AccGyro_Data+04h
00:00A8 00 01                    2003   	mov	r1,	#00h
00:00AA 00-83                    2004   	mov	r3,	r0
00:00AC 00 02                    2005   	mov	r2,	#00h
00:00AE 10-90 00-00'             2006   	l	r0,	NEAR _AccGyro_Data+05h
00:00B2 26-F0                    2007   	add	er0,	er2
00:00B4 10-82                    2008   	mov	r2,	r1
00:00B6 2F-83                    2009   	extbw	er2
00:00B8 30-82                    2010   	mov	r2,	r3
00:00BA 6E-F0                    2011   	push	xr0
00:00BC 01-F0'00-00'             2012   	bl	__fildu8sw
00:00C0 2E-F0                    2013   	pop	xr0
00:00C2 49-A0 00-00'             2014   	st	er0,	NEAR _Accel_Zout[er4]
00:00C6 49-A2 00-00'             2015   	st	er2,	NEAR _Accel_Zout+02h[er4]
                                 2016   
                                 2017   ;;	Gyro_Xout[Accel_SavIndex] = (AccGyro_Data[8]<<8)+(AccGyro_Data[9]);
                                 2018   CLINEA 0000H 0001H 04A1H 0002H 0044H
00:00CA 10-90 00-00'             2019   	l	r0,	NEAR _AccGyro_Data+08h
00:00CE 00 01                    2020   	mov	r1,	#00h
00:00D0 00-83                    2021   	mov	r3,	r0
00:00D2 00 02                    2022   	mov	r2,	#00h
00:00D4 10-90 00-00'             2023   	l	r0,	NEAR _AccGyro_Data+09h
00:00D8 26-F0                    2024   	add	er0,	er2
00:00DA 10-82                    2025   	mov	r2,	r1
00:00DC 2F-83                    2026   	extbw	er2
00:00DE 30-82                    2027   	mov	r2,	r3
00:00E0 6E-F0                    2028   	push	xr0
00:00E2 01-F0'00-00'             2029   	bl	__fildu8sw
00:00E6 2E-F0                    2030   	pop	xr0
00:00E8 49-A0 00-00'             2031   	st	er0,	NEAR _Gyro_Xout[er4]
00:00EC 49-A2 00-00'             2032   	st	er2,	NEAR _Gyro_Xout+02h[er4]
                                 2033   
                                 2034   ;;	Gyro_Yout[Accel_SavIndex] = (AccGyro_Data[10]<<8)+(AccGyro_Data[11]);
                                 2035   CLINEA 0000H 0001H 04A2H 0002H 0046H
00:00F0 10-90 00-00'             2036   	l	r0,	NEAR _AccGyro_Data+0ah
00:00F4 00 01                    2037   	mov	r1,	#00h
00:00F6 00-83                    2038   	mov	r3,	r0
00:00F8 00 02                    2039   	mov	r2,	#00h
00:00FA 10-90 00-00'             2040   	l	r0,	NEAR _AccGyro_Data+0bh
00:00FE 26-F0                    2041   	add	er0,	er2
00:0100 10-82                    2042   	mov	r2,	r1
00:0102 2F-83                    2043   	extbw	er2
00:0104 30-82                    2044   	mov	r2,	r3
00:0106 6E-F0                    2045   	push	xr0
00:0108 01-F0'00-00'             2046   	bl	__fildu8sw
00:010C 2E-F0                    2047   	pop	xr0
00:010E 49-A0 00-00'             2048   	st	er0,	NEAR _Gyro_Yout[er4]
00:0112 49-A2 00-00'             2049   	st	er2,	NEAR _Gyro_Yout+02h[er4]
                                 2050   
                                 2051   ;;	Gyro_Zout[Accel_SavIndex] = (AccGyro_Data[12]<<8)+(AccGyro_Data[13]);
                                 2052   CLINEA 0000H 0001H 04A3H 0002H 0046H
00:0116 10-90 00-00'             2053   	l	r0,	NEAR _AccGyro_Data+0ch
00:011A 00 01                    2054   	mov	r1,	#00h
00:011C 00-83                    2055   	mov	r3,	r0
00:011E 00 02                    2056   	mov	r2,	#00h
00:0120 10-90 00-00'             2057   	l	r0,	NEAR _AccGyro_Data+0dh
00:0124 26-F0                    2058   	add	er0,	er2
00:0126 10-82                    2059   	mov	r2,	r1
00:0128 2F-83                    2060   	extbw	er2
00:012A 30-82                    2061   	mov	r2,	r3
00:012C 6E-F0                    2062   	push	xr0
00:012E 01-F0'00-00'             2063   	bl	__fildu8sw
00:0132 2E-F0                    2064   	pop	xr0
00:0134 49-A0 00-00'             2065   	st	er0,	NEAR _Gyro_Zout[er4]
00:0138 49-A2 00-00'             2066   	st	er2,	NEAR _Gyro_Zout+02h[er4]
                                 2067   
                                 2068   ;;	Accel_Xout[Accel_SavIndex] -= Accel_Xcal[0];
                                 2069   CLINEA 0000H 0001H 04A5H 0002H 002DH
00:013C 48-A0 00-00'             2070   	l	er0,	NEAR _Accel_Xout[er4]
00:0140 48-A2 00-00'             2071   	l	er2,	NEAR _Accel_Xout+02h[er4]
00:0144 6E-F0                    2072   	push	xr0
00:0146 12-90 00-00'             2073   	l	er0,	NEAR _Accel_Xcal
00:014A 12-92 00-00'             2074   	l	er2,	NEAR _Accel_Xcal+02h
00:014E 6E-F0                    2075   	push	xr0
00:0150 01-F0'00-00'             2076   	bl	__fsubu8sw
00:0154 04 E1                    2077   	add	sp,	#4 
00:0156 2E-F0                    2078   	pop	xr0
00:0158 49-A0 00-00'             2079   	st	er0,	NEAR _Accel_Xout[er4]
00:015C 49-A2 00-00'             2080   	st	er2,	NEAR _Accel_Xout+02h[er4]
                                 2081   
                                 2082   ;;	Accel_Yout[Accel_SavIndex] -= Accel_Ycal[0];
                                 2083   CLINEA 0000H 0001H 04A6H 0002H 002DH
00:0160 48-A0 00-00'             2084   	l	er0,	NEAR _Accel_Yout[er4]
00:0164 48-A2 00-00'             2085   	l	er2,	NEAR _Accel_Yout+02h[er4]
00:0168 6E-F0                    2086   	push	xr0
00:016A 12-90 00-00'             2087   	l	er0,	NEAR _Accel_Ycal
00:016E 12-92 00-00'             2088   	l	er2,	NEAR _Accel_Ycal+02h
00:0172 6E-F0                    2089   	push	xr0
00:0174 01-F0'00-00'             2090   	bl	__fsubu8sw
00:0178 04 E1                    2091   	add	sp,	#4 
00:017A 2E-F0                    2092   	pop	xr0
00:017C 49-A0 00-00'             2093   	st	er0,	NEAR _Accel_Yout[er4]
00:0180 49-A2 00-00'             2094   	st	er2,	NEAR _Accel_Yout+02h[er4]
                                 2095   
                                 2096   ;;	Accel_Zout[Accel_SavIndex] -= Accel_Zcal[0];
                                 2097   CLINEA 0000H 0001H 04A7H 0002H 002DH
00:0184 48-A0 00-00'             2098   	l	er0,	NEAR _Accel_Zout[er4]
00:0188 48-A2 00-00'             2099   	l	er2,	NEAR _Accel_Zout+02h[er4]
00:018C 6E-F0                    2100   	push	xr0
00:018E 12-90 00-00'             2101   	l	er0,	NEAR _Accel_Zcal
00:0192 12-92 00-00'             2102   	l	er2,	NEAR _Accel_Zcal+02h
00:0196 6E-F0                    2103   	push	xr0
00:0198 01-F0'00-00'             2104   	bl	__fsubu8sw
00:019C 04 E1                    2105   	add	sp,	#4 
00:019E 2E-F0                    2106   	pop	xr0
00:01A0 49-A0 00-00'             2107   	st	er0,	NEAR _Accel_Zout[er4]
00:01A4 49-A2 00-00'             2108   	st	er2,	NEAR _Accel_Zout+02h[er4]
                                 2109   
                                 2110   ;;	Gyro_Xout[Accel_SavIndex] -= Gyro_Xcal;
                                 2111   CLINEA 0000H 0001H 04A8H 0002H 0028H
00:01A8 48-A0 00-00'             2112   	l	er0,	NEAR _Gyro_Xout[er4]
00:01AC 48-A2 00-00'             2113   	l	er2,	NEAR _Gyro_Xout+02h[er4]
00:01B0 6E-F0                    2114   	push	xr0
00:01B2 12-90 00-00'             2115   	l	er0,	NEAR _Gyro_Xcal
00:01B6 12-92 00-00'             2116   	l	er2,	NEAR _Gyro_Xcal+02h
00:01BA 6E-F0                    2117   	push	xr0
00:01BC 01-F0'00-00'             2118   	bl	__fsubu8sw
00:01C0 04 E1                    2119   	add	sp,	#4 
00:01C2 2E-F0                    2120   	pop	xr0
00:01C4 49-A0 00-00'             2121   	st	er0,	NEAR _Gyro_Xout[er4]
00:01C8 49-A2 00-00'             2122   	st	er2,	NEAR _Gyro_Xout+02h[er4]
                                 2123   
                                 2124   ;;	Gyro_Yout[Accel_SavIndex] -= Gyro_Ycal;
                                 2125   CLINEA 0000H 0001H 04A9H 0002H 0028H
00:01CC 48-A0 00-00'             2126   	l	er0,	NEAR _Gyro_Yout[er4]
00:01D0 48-A2 00-00'             2127   	l	er2,	NEAR _Gyro_Yout+02h[er4]
00:01D4 6E-F0                    2128   	push	xr0
00:01D6 12-90 00-00'             2129   	l	er0,	NEAR _Gyro_Ycal
00:01DA 12-92 00-00'             2130   	l	er2,	NEAR _Gyro_Ycal+02h
00:01DE 6E-F0                    2131   	push	xr0
00:01E0 01-F0'00-00'             2132   	bl	__fsubu8sw
00:01E4 04 E1                    2133   	add	sp,	#4 
00:01E6 2E-F0                    2134   	pop	xr0
00:01E8 49-A0 00-00'             2135   	st	er0,	NEAR _Gyro_Yout[er4]
00:01EC 49-A2 00-00'             2136   	st	er2,	NEAR _Gyro_Yout+02h[er4]
                                 2137   
                                 2138   ;;	Gyro_Zout[Accel_SavIndex] -= Gyro_Zcal;
                                 2139   CLINEA 0000H 0001H 04AAH 0002H 0028H
00:01F0 48-A0 00-00'             2140   	l	er0,	NEAR _Gyro_Zout[er4]
00:01F4 48-A2 00-00'             2141   	l	er2,	NEAR _Gyro_Zout+02h[er4]
00:01F8 6E-F0                    2142   	push	xr0
00:01FA 12-90 00-00'             2143   	l	er0,	NEAR _Gyro_Zcal
00:01FE 12-92 00-00'             2144   	l	er2,	NEAR _Gyro_Zcal+02h
00:0202 6E-F0                    2145   	push	xr0
00:0204 01-F0'00-00'             2146   	bl	__fsubu8sw
00:0208 04 E1                    2147   	add	sp,	#4 
00:020A 2E-F0                    2148   	pop	xr0
00:020C 49-A0 00-00'             2149   	st	er0,	NEAR _Gyro_Zout[er4]
00:0210 49-A2 00-00'             2150   	st	er2,	NEAR _Gyro_Zout+02h[er4]
                                 2151   
                                 2152   ;;	Accel_SavIndex++;
                                 2153   CLINEA 0000H 0000H 04ACH 0002H 0012H
00:0214 0C-F0 00-00'             2154   	lea	OFFSET _Accel_SavIndex
00:0218 2F-FE                    2155   	inc	[ea]
00:021A 10-90 00-00'             2156   	l	r0,	NEAR _Accel_SavIndex
                                 2157   
                                 2158   ;;	if(Accel_SavIndex>9){
                                 2159   CLINEA 0000H 0001H 04ADH 0002H 0016H
00:021E 09 70                    2160   	cmp	r0,	#09h
00:0220 03 C3                    2161   	ble	_$L144
                                 2162   CBLOCK 221 4 1197
                                 2163   
                                 2164   ;;		Accel_SavIndex = 0;
                                 2165   CLINEA 0000H 0001H 04AEH 0003H 0015H
00:0222 00 00                    2166   	mov	r0,	#00h
00:0224 11-90 00-00'             2167   	st	r0,	NEAR _Accel_SavIndex
                                 2168   CBLOCKEND 221 4 1199
                                 2169   
                                 2170   ;;	}
                                 2171   CLINEA 0000H 0000H 04AFH 0002H 0002H
00:0228                          2172   _$L144 :
                                 2173   
                                 2174   ;;	LED_4 = 0;		//C2, Pin 14
                                 2175   CLINEA 0000H 0001H 04B1H 0002H 0019H
00:0228 A2-A0 60-F2              2176   	rb	0f260h.2
                                 2177   
                                 2178   ;;	EPB3 = 1;		//Turns Accel/Gyro Interrupt back on... again, this may not be necessary
                                 2179   CLINEA 0000H 0001H 04B2H 0002H 0054H
00:022C F0-A0 11-F0              2180   	sb	0f011h.7
                                 2181   
                                 2182   ;;	AccGyro_CF_FlagCounter++;	//Counts up to the number of values are in the buffer so main loop can call CF filter function
                                 2183   CLINEA 0000H 0000H 04B3H 0002H 0079H
00:0230 0C-F0 00-00'             2184   	lea	OFFSET _AccGyro_CF_FlagCounter
00:0234 2F-FE                    2185   	inc	[ea]
                                 2186   CBLOCKEND 221 2 1204
                                 2187   
                                 2188   ;;}
                                 2189   CLINEA 0000H 0001H 04B4H 0001H 0001H
00:0236 1E-F4                    2190   	pop	er4
00:0238 8E-F2                    2191   	pop	pc
                                 2192   CBLOCKEND 221 1 1204
                                 2193   CFUNCTIONEND 221
                                 2194   
                                 2195   
  --------------------------     2196   	rseg $$Run_AccGyroCF$main
                                 2197   CFUNCTION 222
                                 2198   
00:0000                          2199   _Run_AccGyroCF	:
                                 2200   CBLOCK 222 1 1206
                                 2201   
                                 2202   ;;void Run_AccGyroCF(void){
                                 2203   CLINEA 0000H 0001H 04B6H 0001H 0019H
00:0000 CE-F8                    2204   	push	lr
00:0002 5E-FE                    2205   	push	fp
00:0004 1A-AE                    2206   	mov	fp,	sp
00:0006 F8 E1                    2207   	add	sp,	#-08
00:0008 6E-F8                    2208   	push	xr8
00:000A 6E-F4                    2209   	push	xr4
                                 2210   CBLOCK 222 2 1206
                                 2211   CRET 0012H
                                 2212   CSLOCAL 43H 0002H 0000H 0002H "i" 02H 00H 01H
                                 2213   CSLOCAL 43H 0001H 0001H 0002H "I2CCont" 02H 00H 00H
                                 2214   
                                 2215   ;;	CF_Gyro_CurrentCount = CF_Gyro_Counter * .001;		//Timer in Seconds (.007 used to convert 128Hz TBC to seconds)
                                 2216   CLINEA 0000H 0001H 04BCH 0002H 006FH
00:000C 12-90 00-00'             2217   	l	er0,	NEAR _CF_Gyro_Counter
00:0010 12-92 00-00'             2218   	l	er2,	NEAR _CF_Gyro_Counter+02h
00:0014 6E-F0                    2219   	push	xr0
00:0016 FC E1                    2220   	add	sp,	#-4
00:0018 01-F0'00-00'             2221   	bl	__ftodu8sw
00:001C FC 00                    2222   	mov	r0,	#0fch
00:001E A9 01                    2223   	mov	r1,	#0a9h
00:0020 F1 02                    2224   	mov	r2,	#0f1h
00:0022 D2 03                    2225   	mov	r3,	#0d2h
00:0024 4D 04                    2226   	mov	r4,	#04dh
00:0026 62 05                    2227   	mov	r5,	#062h
00:0028 50 06                    2228   	mov	r6,	#050h
00:002A 3F 07                    2229   	mov	r7,	#03fh
00:002C 7E-F0                    2230   	push	qr0
00:002E 01-F0'00-00'             2231   	bl	__dmulu8sw
00:0032 08 E1                    2232   	add	sp,	#8 
00:0034 01-F0'00-00'             2233   	bl	__dtofu8sw
00:0038 04 E1                    2234   	add	sp,	#4 
00:003A 2E-F0                    2235   	pop	xr0
00:003C 13-90 00-00'             2236   	st	er0,	NEAR _CF_Gyro_CurrentCount
00:0040 13-92 00-00'             2237   	st	er2,	NEAR _CF_Gyro_CurrentCount+02h
                                 2238   
                                 2239   ;;	CF_Gyro_Counter = 0;
                                 2240   CLINEA 0000H 0001H 04BDH 0002H 0015H
00:0044 00 E0                    2241   	mov	er0,	#0 
00:0046 13-90 00-00'             2242   	st	er0,	NEAR _CF_Gyro_Counter
00:004A 13-90 00-00'             2243   	st	er0,	NEAR _CF_Gyro_Counter+02h
                                 2244   
                                 2245   ;;	CF_Gyro_YPitch = CF_YPitch + ((Gyro_Xout[Accel_RetIndex]/AccGyro_GyroScaling) * CF_Gyro_CurrentCount);
                                 2246   CLINEA 0000H 0001H 04BFH 0002H 0067H
00:004E 10-90 00-00'             2247   	l	r0,	NEAR _Accel_RetIndex
00:0052 2B-91                    2248   	sllc	r1,	#02h
00:0054 2A-90                    2249   	sll	r0,	#02h
00:0056 05-F4                    2250   	mov	er4,	er0
00:0058 08-A8 00-00'             2251   	l	er8,	NEAR _Gyro_Xout[er0]
00:005C 08-AA 00-00'             2252   	l	er10,	NEAR _Gyro_Xout+02h[er0]
00:0060 6E-F8                    2253   	push	xr8
00:0062 12-90 00-00'             2254   	l	er0,	NEAR _AccGyro_GyroScaling
00:0066 12-92 00-00'             2255   	l	er2,	NEAR _AccGyro_GyroScaling+02h
00:006A 6E-F0                    2256   	push	xr0
00:006C 01-F0'00-00'             2257   	bl	__fdivu8sw
00:0070 04 E1                    2258   	add	sp,	#4 
00:0072 12-90 00-00'             2259   	l	er0,	NEAR _CF_Gyro_CurrentCount
00:0076 12-92 00-00'             2260   	l	er2,	NEAR _CF_Gyro_CurrentCount+02h
00:007A 6E-F0                    2261   	push	xr0
00:007C 01-F0'00-00'             2262   	bl	__fmulu8sw
00:0080 04 E1                    2263   	add	sp,	#4 
00:0082 12-90 00-00'             2264   	l	er0,	NEAR _CF_YPitch
00:0086 12-92 00-00'             2265   	l	er2,	NEAR _CF_YPitch+02h
00:008A 6E-F0                    2266   	push	xr0
00:008C 01-F0'00-00'             2267   	bl	__faddu8sw
00:0090 04 E1                    2268   	add	sp,	#4 
00:0092 2E-F0                    2269   	pop	xr0
00:0094 13-90 00-00'             2270   	st	er0,	NEAR _CF_Gyro_YPitch
00:0098 13-92 00-00'             2271   	st	er2,	NEAR _CF_Gyro_YPitch+02h
                                 2272   
                                 2273   ;;	CF_Gyro_XRoll = CF_XRoll - ((Gyro_Yout[Accel_RetIndex]/AccGyro_GyroScaling) * CF_Gyro_CurrentCount);	
                                 2274   CLINEA 0000H 0001H 04C0H 0002H 0066H
00:009C 48-A8 00-00'             2275   	l	er8,	NEAR _Gyro_Yout[er4]
00:00A0 48-AA 00-00'             2276   	l	er10,	NEAR _Gyro_Yout+02h[er4]
00:00A4 6E-F8                    2277   	push	xr8
00:00A6 12-90 00-00'             2278   	l	er0,	NEAR _AccGyro_GyroScaling
00:00AA 12-92 00-00'             2279   	l	er2,	NEAR _AccGyro_GyroScaling+02h
00:00AE 6E-F0                    2280   	push	xr0
00:00B0 01-F0'00-00'             2281   	bl	__fdivu8sw
00:00B4 04 E1                    2282   	add	sp,	#4 
00:00B6 12-90 00-00'             2283   	l	er0,	NEAR _CF_Gyro_CurrentCount
00:00BA 12-92 00-00'             2284   	l	er2,	NEAR _CF_Gyro_CurrentCount+02h
00:00BE 6E-F0                    2285   	push	xr0
00:00C0 01-F0'00-00'             2286   	bl	__fmulu8sw
00:00C4 04 E1                    2287   	add	sp,	#4 
00:00C6 2E-F0                    2288   	pop	xr0
00:00C8 12-98 00-00'             2289   	l	er8,	NEAR _CF_XRoll
00:00CC 12-9A 00-00'             2290   	l	er10,	NEAR _CF_XRoll+02h
00:00D0 6E-F8                    2291   	push	xr8
00:00D2 6E-F0                    2292   	push	xr0
00:00D4 01-F0'00-00'             2293   	bl	__fsubu8sw
00:00D8 04 E1                    2294   	add	sp,	#4 
00:00DA 2E-F0                    2295   	pop	xr0
00:00DC 13-90 00-00'             2296   	st	er0,	NEAR _CF_Gyro_XRoll
00:00E0 13-92 00-00'             2297   	st	er2,	NEAR _CF_Gyro_XRoll+02h
                                 2298   
                                 2299   ;;	CF_Accel_ForceMagApprox = abs(Accel_Xout[Accel_RetIndex]) + abs(Accel_Yout[Accel_RetIndex]) + abs(Accel_Zout[Accel_RetIndex]);
                                 2300   CLINEA 0000H 0000H 04C2H 0002H 007FH
00:00E4 48-A0 00-00'             2301   	l	er0,	NEAR _Accel_Xout[er4]
00:00E8 48-A2 00-00'             2302   	l	er2,	NEAR _Accel_Xout+02h[er4]
00:00EC 6E-F0                    2303   	push	xr0
00:00EE 01-F0'00-00'             2304   	bl	__ftolu8sw
00:00F2 1E-F0                    2305   	pop	er0
00:00F4 02 E1                    2306   	add	sp,	#2 
00:00F6 01-F0'00-00'             2307   	bl	_abs
00:00FA 05-F8                    2308   	mov	er8,	er0
00:00FC 10-90 00-00'             2309   	l	r0,	NEAR _Accel_RetIndex
00:0100 00 01                    2310   	mov	r1,	#00h
00:0102 2B-91                    2311   	sllc	r1,	#02h
00:0104 2A-90                    2312   	sll	r0,	#02h
00:0106 08-A4 00-00'             2313   	l	er4,	NEAR _Accel_Yout[er0]
00:010A 08-A6 00-00'             2314   	l	er6,	NEAR _Accel_Yout+02h[er0]
00:010E 6E-F4                    2315   	push	xr4
00:0110 01-F0'00-00'             2316   	bl	__ftolu8sw
00:0114 1E-F0                    2317   	pop	er0
00:0116 02 E1                    2318   	add	sp,	#2 
00:0118 01-F0'00-00'             2319   	bl	_abs
00:011C 06-F8                    2320   	add	er8,	er0
00:011E 10-90 00-00'             2321   	l	r0,	NEAR _Accel_RetIndex
00:0122 00 01                    2322   	mov	r1,	#00h
00:0124 2B-91                    2323   	sllc	r1,	#02h
00:0126 2A-90                    2324   	sll	r0,	#02h
00:0128 08-A4 00-00'             2325   	l	er4,	NEAR _Accel_Zout[er0]
00:012C 08-A6 00-00'             2326   	l	er6,	NEAR _Accel_Zout+02h[er0]
00:0130 6E-F4                    2327   	push	xr4
00:0132 01-F0'00-00'             2328   	bl	__ftolu8sw
00:0136 1E-F0                    2329   	pop	er0
00:0138 02 E1                    2330   	add	sp,	#2 
00:013A 01-F0'00-00'             2331   	bl	_abs
00:013E 05-F2                    2332   	mov	er2,	er0
00:0140 85-F0                    2333   	mov	er0,	er8
00:0142 26-F0                    2334   	add	er0,	er2
00:0144 10-82                    2335   	mov	r2,	r1
00:0146 2F-83                    2336   	extbw	er2
00:0148 30-82                    2337   	mov	r2,	r3
00:014A 6E-F0                    2338   	push	xr0
00:014C 01-F0'00-00'             2339   	bl	__fildu8sw
00:0150 2E-F0                    2340   	pop	xr0
00:0152 13-90 00-00'             2341   	st	er0,	NEAR _CF_Accel_ForceMagApprox
00:0156 13-92 00-00'             2342   	st	er2,	NEAR _CF_Accel_ForceMagApprox+02h
                                 2343   
                                 2344   ;;	if (CF_Accel_ForceMagApprox > 16384 && CF_Accel_ForceMagApprox < 32768)
                                 2345   CLINEA 0000H 0001H 04C3H 0002H 0048H
00:015A 6E-F0                    2346   	push	xr0
00:015C 00 E0                    2347   	mov	er0,	#0 
00:015E 80 02                    2348   	mov	r2,	#080h
00:0160 46 03                    2349   	mov	r3,	#046h
00:0162 6E-F0                    2350   	push	xr0
00:0164 01-F0'00-00'             2351   	bl	__fcmpu8sw
00:0168 08 E1                    2352   	add	sp,	#8 
00:016A 0B-A0                    2353   	mov	psw,	r0
00:016C 02 C2                    2354   	bgt	_$M7
00:016E 00-F0'00-00'             2355   	b	_$L148
00:0172                          2356   _$M7 :
00:0172 12-90 00-00'             2357   	l	er0,	NEAR _CF_Accel_ForceMagApprox
00:0176 12-92 00-00'             2358   	l	er2,	NEAR _CF_Accel_ForceMagApprox+02h
00:017A 6E-F0                    2359   	push	xr0
00:017C 00 E0                    2360   	mov	er0,	#0 
00:017E 00 02                    2361   	mov	r2,	#00h
00:0180 47 03                    2362   	mov	r3,	#047h
00:0182 6E-F0                    2363   	push	xr0
00:0184 01-F0'00-00'             2364   	bl	__fcmpu8sw
00:0188 08 E1                    2365   	add	sp,	#8 
00:018A 0B-A0                    2366   	mov	psw,	r0
00:018C 02 C1                    2367   	blt	_$M8
00:018E 00-F0'00-00'             2368   	b	_$L148
00:0192                          2369   _$M8 :
                                 2370   CBLOCK 222 3 1220
                                 2371   
                                 2372   ;;        CF_Accel_YPitch = atan2(Accel_Yout[Accel_RetIndex], Accel_Zout[Accel_RetIndex]) * (57.29);	//57.29 = 180deg/pi
                                 2373   CLINEA 0000H 0000H 04C6H 0009H 0076H
00:0192 10-90 00-00'             2374   	l	r0,	NEAR _Accel_RetIndex
00:0196 00 01                    2375   	mov	r1,	#00h
00:0198 2B-91                    2376   	sllc	r1,	#02h
00:019A 2A-90                    2377   	sll	r0,	#02h
00:019C 08-A4 00-00'             2378   	l	er4,	NEAR _Accel_Zout[er0]
00:01A0 08-A6 00-00'             2379   	l	er6,	NEAR _Accel_Zout+02h[er0]
00:01A4 6E-F4                    2380   	push	xr4
00:01A6 FC E1                    2381   	add	sp,	#-4
00:01A8 01-F0'00-00'             2382   	bl	__ftodu8sw
00:01AC 08-A4 00-00'             2383   	l	er4,	NEAR _Accel_Yout[er0]
00:01B0 08-A6 00-00'             2384   	l	er6,	NEAR _Accel_Yout+02h[er0]
00:01B4 6E-F4                    2385   	push	xr4
00:01B6 FC E1                    2386   	add	sp,	#-4
00:01B8 01-F0'00-00'             2387   	bl	__ftodu8sw
00:01BC E5-F0                    2388   	mov	er0,	fp
00:01BE F8 E0                    2389   	add	er0,	#-8
00:01C0 01-F0'00-00'             2390   	bl	_atan2
00:01C4 10 E1                    2391   	add	sp,	#16
00:01C6 EB-F0 F8-FF              2392   	lea	-8[fp]
00:01CA 36-90                    2393   	l	qr0,	[ea]
00:01CC 7E-F0                    2394   	push	qr0
00:01CE 85 00                    2395   	mov	r0,	#085h
00:01D0 EB 01                    2396   	mov	r1,	#0ebh
00:01D2 51 02                    2397   	mov	r2,	#051h
00:01D4 B8 03                    2398   	mov	r3,	#0b8h
00:01D6 1E 04                    2399   	mov	r4,	#01eh
00:01D8 A5 05                    2400   	mov	r5,	#0a5h
00:01DA 4C 06                    2401   	mov	r6,	#04ch
00:01DC 40 07                    2402   	mov	r7,	#040h
00:01DE 7E-F0                    2403   	push	qr0
00:01E0 01-F0'00-00'             2404   	bl	__dmulu8sw
00:01E4 08 E1                    2405   	add	sp,	#8 
00:01E6 01-F0'00-00'             2406   	bl	__dtofu8sw
00:01EA 04 E1                    2407   	add	sp,	#4 
00:01EC 2E-F0                    2408   	pop	xr0
00:01EE 13-90 00-00'             2409   	st	er0,	NEAR _CF_Accel_YPitch
00:01F2 13-92 00-00'             2410   	st	er2,	NEAR _CF_Accel_YPitch+02h
                                 2411   
                                 2412   ;;        CF_YPitch = (CF_Gyro_YPitch * CF_HPF) + (CF_Accel_YPitch * CF_LPF);
                                 2413   CLINEA 0000H 0001H 04C7H 0009H 004BH
00:01F6 12-90 00-00'             2414   	l	er0,	NEAR _CF_Gyro_YPitch
00:01FA 12-92 00-00'             2415   	l	er2,	NEAR _CF_Gyro_YPitch+02h
00:01FE 6E-F0                    2416   	push	xr0
00:0200 12-90 00-00'             2417   	l	er0,	NEAR _CF_HPF
00:0204 12-92 00-00'             2418   	l	er2,	NEAR _CF_HPF+02h
00:0208 6E-F0                    2419   	push	xr0
00:020A 01-F0'00-00'             2420   	bl	__fmulu8sw
00:020E 04 E1                    2421   	add	sp,	#4 
00:0210 2E-F0                    2422   	pop	xr0
00:0212 12-94 00-00'             2423   	l	er4,	NEAR _CF_Accel_YPitch
00:0216 12-96 00-00'             2424   	l	er6,	NEAR _CF_Accel_YPitch+02h
00:021A 6E-F4                    2425   	push	xr4
00:021C 12-94 00-00'             2426   	l	er4,	NEAR _CF_LPF
00:0220 12-96 00-00'             2427   	l	er6,	NEAR _CF_LPF+02h
00:0224 6E-F4                    2428   	push	xr4
00:0226 01-F0'00-00'             2429   	bl	__fmulu8sw
00:022A 04 E1                    2430   	add	sp,	#4 
00:022C 2E-F4                    2431   	pop	xr4
00:022E 6E-F0                    2432   	push	xr0
00:0230 6E-F4                    2433   	push	xr4
00:0232 01-F0'00-00'             2434   	bl	__faddu8sw
00:0236 04 E1                    2435   	add	sp,	#4 
00:0238 2E-F0                    2436   	pop	xr0
00:023A 13-90 00-00'             2437   	st	er0,	NEAR _CF_YPitch
00:023E 13-92 00-00'             2438   	st	er2,	NEAR _CF_YPitch+02h
                                 2439   
                                 2440   ;;        CF_Accel_XRoll = atan2(Accel_Xout[Accel_RetIndex], Accel_Zout[Accel_RetIndex]) * (57.29);
                                 2441   CLINEA 0000H 0000H 04CAH 0009H 0061H
00:0242 10-90 00-00'             2442   	l	r0,	NEAR _Accel_RetIndex
00:0246 00 01                    2443   	mov	r1,	#00h
00:0248 2B-91                    2444   	sllc	r1,	#02h
00:024A 2A-90                    2445   	sll	r0,	#02h
00:024C 08-A4 00-00'             2446   	l	er4,	NEAR _Accel_Zout[er0]
00:0250 08-A6 00-00'             2447   	l	er6,	NEAR _Accel_Zout+02h[er0]
00:0254 6E-F4                    2448   	push	xr4
00:0256 FC E1                    2449   	add	sp,	#-4
00:0258 01-F0'00-00'             2450   	bl	__ftodu8sw
00:025C 08-A4 00-00'             2451   	l	er4,	NEAR _Accel_Xout[er0]
00:0260 08-A6 00-00'             2452   	l	er6,	NEAR _Accel_Xout+02h[er0]
00:0264 6E-F4                    2453   	push	xr4
00:0266 FC E1                    2454   	add	sp,	#-4
00:0268 01-F0'00-00'             2455   	bl	__ftodu8sw
00:026C E5-F0                    2456   	mov	er0,	fp
00:026E F8 E0                    2457   	add	er0,	#-8
00:0270 01-F0'00-00'             2458   	bl	_atan2
00:0274 10 E1                    2459   	add	sp,	#16
00:0276 EB-F0 F8-FF              2460   	lea	-8[fp]
00:027A 36-90                    2461   	l	qr0,	[ea]
00:027C 7E-F0                    2462   	push	qr0
00:027E 85 00                    2463   	mov	r0,	#085h
00:0280 EB 01                    2464   	mov	r1,	#0ebh
00:0282 51 02                    2465   	mov	r2,	#051h
00:0284 B8 03                    2466   	mov	r3,	#0b8h
00:0286 1E 04                    2467   	mov	r4,	#01eh
00:0288 A5 05                    2468   	mov	r5,	#0a5h
00:028A 4C 06                    2469   	mov	r6,	#04ch
00:028C 40 07                    2470   	mov	r7,	#040h
00:028E 7E-F0                    2471   	push	qr0
00:0290 01-F0'00-00'             2472   	bl	__dmulu8sw
00:0294 08 E1                    2473   	add	sp,	#8 
00:0296 01-F0'00-00'             2474   	bl	__dtofu8sw
00:029A 04 E1                    2475   	add	sp,	#4 
00:029C 2E-F0                    2476   	pop	xr0
00:029E 13-90 00-00'             2477   	st	er0,	NEAR _CF_Accel_XRoll
00:02A2 13-92 00-00'             2478   	st	er2,	NEAR _CF_Accel_XRoll+02h
                                 2479   
                                 2480   ;;        CF_XRoll = (CF_Gyro_XRoll * CF_HPF) + (CF_Accel_XRoll * CF_LPF);
                                 2481   CLINEA 0000H 0001H 04CBH 0009H 0048H
00:02A6 12-90 00-00'             2482   	l	er0,	NEAR _CF_Gyro_XRoll
00:02AA 12-92 00-00'             2483   	l	er2,	NEAR _CF_Gyro_XRoll+02h
00:02AE 6E-F0                    2484   	push	xr0
00:02B0 12-90 00-00'             2485   	l	er0,	NEAR _CF_HPF
00:02B4 12-92 00-00'             2486   	l	er2,	NEAR _CF_HPF+02h
00:02B8 6E-F0                    2487   	push	xr0
00:02BA 01-F0'00-00'             2488   	bl	__fmulu8sw
00:02BE 04 E1                    2489   	add	sp,	#4 
00:02C0 2E-F0                    2490   	pop	xr0
00:02C2 12-94 00-00'             2491   	l	er4,	NEAR _CF_Accel_XRoll
00:02C6 12-96 00-00'             2492   	l	er6,	NEAR _CF_Accel_XRoll+02h
00:02CA 6E-F4                    2493   	push	xr4
00:02CC 12-94 00-00'             2494   	l	er4,	NEAR _CF_LPF
00:02D0 12-96 00-00'             2495   	l	er6,	NEAR _CF_LPF+02h
00:02D4 6E-F4                    2496   	push	xr4
00:02D6 01-F0'00-00'             2497   	bl	__fmulu8sw
00:02DA 04 E1                    2498   	add	sp,	#4 
00:02DC 2E-F4                    2499   	pop	xr4
00:02DE 6E-F0                    2500   	push	xr0
00:02E0 6E-F4                    2501   	push	xr4
00:02E2 01-F0'00-00'             2502   	bl	__faddu8sw
00:02E6 04 E1                    2503   	add	sp,	#4 
00:02E8 2E-F0                    2504   	pop	xr0
                                 2505   CBLOCKEND 222 3 1228
                                 2506   
                                 2507   ;;	else{
                                 2508   CLINEA 0000H 0001H 04CDH 0002H 0006H
00:02EA 00-F0'00-00'             2509   	b	_$L155
00:02EE                          2510   _$L148 :
                                 2511   CBLOCK 222 4 1229
                                 2512   
                                 2513   ;;        CF_Accel_YPitch = atan2(Accel_Yout[Accel_RetIndex], Accel_Zout[Accel_RetIndex]) * (57.29);	//57.29 = 180deg/pi
                                 2514   CLINEA 0000H 0000H 04CFH 0009H 0076H
00:02EE 10-90 00-00'             2515   	l	r0,	NEAR _Accel_RetIndex
00:02F2 00 01                    2516   	mov	r1,	#00h
00:02F4 2B-91                    2517   	sllc	r1,	#02h
00:02F6 2A-90                    2518   	sll	r0,	#02h
00:02F8 08-A4 00-00'             2519   	l	er4,	NEAR _Accel_Zout[er0]
00:02FC 08-A6 00-00'             2520   	l	er6,	NEAR _Accel_Zout+02h[er0]
00:0300 6E-F4                    2521   	push	xr4
00:0302 FC E1                    2522   	add	sp,	#-4
00:0304 01-F0'00-00'             2523   	bl	__ftodu8sw
00:0308 08-A4 00-00'             2524   	l	er4,	NEAR _Accel_Yout[er0]
00:030C 08-A6 00-00'             2525   	l	er6,	NEAR _Accel_Yout+02h[er0]
00:0310 6E-F4                    2526   	push	xr4
00:0312 FC E1                    2527   	add	sp,	#-4
00:0314 01-F0'00-00'             2528   	bl	__ftodu8sw
00:0318 E5-F0                    2529   	mov	er0,	fp
00:031A F8 E0                    2530   	add	er0,	#-8
00:031C 01-F0'00-00'             2531   	bl	_atan2
00:0320 10 E1                    2532   	add	sp,	#16
00:0322 EB-F0 F8-FF              2533   	lea	-8[fp]
00:0326 36-90                    2534   	l	qr0,	[ea]
00:0328 7E-F0                    2535   	push	qr0
00:032A 85 00                    2536   	mov	r0,	#085h
00:032C EB 01                    2537   	mov	r1,	#0ebh
00:032E 51 02                    2538   	mov	r2,	#051h
00:0330 B8 03                    2539   	mov	r3,	#0b8h
00:0332 1E 04                    2540   	mov	r4,	#01eh
00:0334 A5 05                    2541   	mov	r5,	#0a5h
00:0336 4C 06                    2542   	mov	r6,	#04ch
00:0338 40 07                    2543   	mov	r7,	#040h
00:033A 7E-F0                    2544   	push	qr0
00:033C 01-F0'00-00'             2545   	bl	__dmulu8sw
00:0340 08 E1                    2546   	add	sp,	#8 
00:0342 01-F0'00-00'             2547   	bl	__dtofu8sw
00:0346 04 E1                    2548   	add	sp,	#4 
00:0348 2E-F0                    2549   	pop	xr0
00:034A 13-90 00-00'             2550   	st	er0,	NEAR _CF_Accel_YPitch
00:034E 13-92 00-00'             2551   	st	er2,	NEAR _CF_Accel_YPitch+02h
                                 2552   
                                 2553   ;;		CF_YPitch = CF_Gyro_YPitch;
                                 2554   CLINEA 0000H 0001H 04D0H 0003H 001DH
00:0352 12-90 00-00'             2555   	l	er0,	NEAR _CF_Gyro_YPitch
00:0356 12-92 00-00'             2556   	l	er2,	NEAR _CF_Gyro_YPitch+02h
00:035A 13-90 00-00'             2557   	st	er0,	NEAR _CF_YPitch
00:035E 13-92 00-00'             2558   	st	er2,	NEAR _CF_YPitch+02h
                                 2559   
                                 2560   ;;        CF_Accel_XRoll = atan2(Accel_Xout[Accel_RetIndex], Accel_Zout[Accel_RetIndex]) * (57.29);
                                 2561   CLINEA 0000H 0000H 04D3H 0009H 0061H
00:0362 10-90 00-00'             2562   	l	r0,	NEAR _Accel_RetIndex
00:0366 00 01                    2563   	mov	r1,	#00h
00:0368 2B-91                    2564   	sllc	r1,	#02h
00:036A 2A-90                    2565   	sll	r0,	#02h
00:036C 08-A4 00-00'             2566   	l	er4,	NEAR _Accel_Zout[er0]
00:0370 08-A6 00-00'             2567   	l	er6,	NEAR _Accel_Zout+02h[er0]
00:0374 6E-F4                    2568   	push	xr4
00:0376 FC E1                    2569   	add	sp,	#-4
00:0378 01-F0'00-00'             2570   	bl	__ftodu8sw
00:037C 08-A4 00-00'             2571   	l	er4,	NEAR _Accel_Xout[er0]
00:0380 08-A6 00-00'             2572   	l	er6,	NEAR _Accel_Xout+02h[er0]
00:0384 6E-F4                    2573   	push	xr4
00:0386 FC E1                    2574   	add	sp,	#-4
00:0388 01-F0'00-00'             2575   	bl	__ftodu8sw
00:038C E5-F0                    2576   	mov	er0,	fp
00:038E F8 E0                    2577   	add	er0,	#-8
00:0390 01-F0'00-00'             2578   	bl	_atan2
00:0394 10 E1                    2579   	add	sp,	#16
00:0396 EB-F0 F8-FF              2580   	lea	-8[fp]
00:039A 36-90                    2581   	l	qr0,	[ea]
00:039C 7E-F0                    2582   	push	qr0
00:039E 85 00                    2583   	mov	r0,	#085h
00:03A0 EB 01                    2584   	mov	r1,	#0ebh
00:03A2 51 02                    2585   	mov	r2,	#051h
00:03A4 B8 03                    2586   	mov	r3,	#0b8h
00:03A6 1E 04                    2587   	mov	r4,	#01eh
00:03A8 A5 05                    2588   	mov	r5,	#0a5h
00:03AA 4C 06                    2589   	mov	r6,	#04ch
00:03AC 40 07                    2590   	mov	r7,	#040h
00:03AE 7E-F0                    2591   	push	qr0
00:03B0 01-F0'00-00'             2592   	bl	__dmulu8sw
00:03B4 08 E1                    2593   	add	sp,	#8 
00:03B6 01-F0'00-00'             2594   	bl	__dtofu8sw
00:03BA 04 E1                    2595   	add	sp,	#4 
00:03BC 2E-F0                    2596   	pop	xr0
00:03BE 13-90 00-00'             2597   	st	er0,	NEAR _CF_Accel_XRoll
00:03C2 13-92 00-00'             2598   	st	er2,	NEAR _CF_Accel_XRoll+02h
                                 2599   
                                 2600   ;;		CF_XRoll = CF_Gyro_XRoll;
                                 2601   CLINEA 0000H 0001H 04D4H 0003H 001BH
00:03C6 12-90 00-00'             2602   	l	er0,	NEAR _CF_Gyro_XRoll
00:03CA 12-92 00-00'             2603   	l	er2,	NEAR _CF_Gyro_XRoll+02h
                                 2604   CBLOCKEND 222 4 1237
                                 2605   
                                 2606   ;;	}
                                 2607   CLINEA 0000H 0000H 04D5H 0002H 0002H
00:03CE                          2608   _$L155 :
00:03CE 13-90 00-00'             2609   	st	er0,	NEAR _CF_XRoll
00:03D2 13-92 00-00'             2610   	st	er2,	NEAR _CF_XRoll+02h
                                 2611   
                                 2612   ;;	Accel_RetIndex++;
                                 2613   CLINEA 0000H 0000H 04D7H 0002H 0012H
00:03D6 0C-F0 00-00'             2614   	lea	OFFSET _Accel_RetIndex
00:03DA 2F-FE                    2615   	inc	[ea]
00:03DC 10-90 00-00'             2616   	l	r0,	NEAR _Accel_RetIndex
                                 2617   
                                 2618   ;;	if(Accel_RetIndex > 9){
                                 2619   CLINEA 0000H 0001H 04D8H 0002H 0018H
00:03E0 09 70                    2620   	cmp	r0,	#09h
00:03E2 03 C3                    2621   	ble	_$L156
                                 2622   CBLOCK 222 5 1240
                                 2623   
                                 2624   ;;		Accel_RetIndex = 0;
                                 2625   CLINEA 0000H 0001H 04D9H 0003H 0015H
00:03E4 00 00                    2626   	mov	r0,	#00h
00:03E6 11-90 00-00'             2627   	st	r0,	NEAR _Accel_RetIndex
                                 2628   CBLOCKEND 222 5 1242
                                 2629   
                                 2630   ;;	}
                                 2631   CLINEA 0000H 0000H 04DAH 0002H 0002H
00:03EA                          2632   _$L156 :
                                 2633   
                                 2634   ;;	Accel_PID_GoCounter++;		//Counts up to 4 to trigger the PID loop to start.
                                 2635   CLINEA 0000H 0000H 04F4H 0002H 004BH
00:03EA 0C-F0 00-00'             2636   	lea	OFFSET _Accel_PID_GoCounter
00:03EE 2F-FE                    2637   	inc	[ea]
                                 2638   CBLOCKEND 222 2 1270
                                 2639   
                                 2640   ;;}
                                 2641   CLINEA 0000H 0001H 04F6H 0001H 0001H
00:03F0 2E-F4                    2642   	pop	xr4
00:03F2 2E-F8                    2643   	pop	xr8
00:03F4 EA-A1                    2644   	mov	sp,	fp
00:03F6 1E-FE                    2645   	pop	fp
00:03F8 8E-F2                    2646   	pop	pc
                                 2647   CBLOCKEND 222 1 1270
                                 2648   CFUNCTIONEND 222
                                 2649   
                                 2650   
  --------------------------     2651   	rseg $$Get_MagData$main
                                 2652   CFUNCTION 223
                                 2653   
00:0000                          2654   _Get_MagData	:
                                 2655   CBLOCK 223 1 1273
                                 2656   
                                 2657   ;;void Get_MagData(void){
                                 2658   CLINEA 0000H 0001H 04F9H 0001H 0017H
00:0000 CE-F8                    2659   	push	lr
00:0002 5E-FE                    2660   	push	fp
00:0004 1A-AE                    2661   	mov	fp,	sp
00:0006 F8 E1                    2662   	add	sp,	#-08
00:0008 6E-F4                    2663   	push	xr4
                                 2664   CBLOCK 223 2 1273
                                 2665   CRET 000EH
                                 2666   
                                 2667   ;;	_flgI2CFin = 0;														//reset I2C completed flag
                                 2668   CLINEA 0000H 0001H 04FBH 0002H 0038H
00:000A 00 00                    2669   	mov	r0,	#00h
00:000C 11-90 00-00'             2670   	st	r0,	NEAR __flgI2CFin
                                 2671   
                                 2672   ;;	i2c_stop();															//Make sure I2C is not currently running
                                 2673   CLINEA 0000H 0001H 04FCH 0002H 0043H
00:0010 01-F0'00-00'             2674   	bl	_i2c_stop
                                 2675   
                                 2676   ;;	i2c_startSend( HMC5883Address, &Mag_ModeReg, 1, &Mag_ModeReg_Contents, 1, (cbfI2c)_funcI2CFin);		//Begin I2C Receive Command
                                 2677   CLINEA 0000H 0001H 04FDH 0002H 007DH
00:0014 00'00                    2678   	mov	r0,	#BYTE1 OFFSET __funcI2CFin
00:0016 00'01                    2679   	mov	r1,	#BYTE2 OFFSET __funcI2CFin
00:0018 5E-F0                    2680   	push	er0
00:001A 01 E0                    2681   	mov	er0,	#1 
00:001C 5E-F0                    2682   	push	er0
00:001E 00'00                    2683   	mov	r0,	#BYTE1 OFFSET _Mag_ModeReg_Contents
00:0020 00'01                    2684   	mov	r1,	#BYTE2 OFFSET _Mag_ModeReg_Contents
00:0022 5E-F0                    2685   	push	er0
00:0024 01 E0                    2686   	mov	er0,	#1 
00:0026 5E-F0                    2687   	push	er0
00:0028 00'02                    2688   	mov	r2,	#BYTE1 OFFSET _Mag_ModeReg
00:002A 00'03                    2689   	mov	r3,	#BYTE2 OFFSET _Mag_ModeReg
00:002C 10-90 00-00'             2690   	l	r0,	NEAR _HMC5883Address
00:0030 01-F0'00-00'             2691   	bl	_i2c_startSend
00:0034 08 E1                    2692   	add	sp,	#8 
                                 2693   
                                 2694   ;;	while(_flgI2CFin != 1){												//Wait for I2C commands to finish transfer
                                 2695   CLINEA 0000H 0000H 04FEH 0001H 0001H
00:0036 02 CE                    2696   	bal	_$L175
                                 2697   
                                 2698   ;;	while(_flgI2CFin != 1){												//Wait for I2C commands to finish transfer
                                 2699   CLINEA 0000H 0000H 04FEH 0002H 004EH
00:0038                          2700   _$L161 :
                                 2701   CBLOCK 223 3 1278
                                 2702   
                                 2703   ;;		main_clrWDT();
                                 2704   CLINEA 0000H 0001H 04FFH 0003H 0010H
00:0038 01-F0'00-00'             2705   	bl	_main_clrWDT
                                 2706   CBLOCKEND 223 3 1280
                                 2707   
                                 2708   ;;	while(_flgI2CFin != 1){												//Wait for I2C commands to finish transfer
                                 2709   CLINEA 0000H 0000H 04FEH 0001H 0001H
00:003C                          2710   _$L175 :
00:003C 10-90 00-00'             2711   	l	r0,	NEAR __flgI2CFin
00:0040 01 70                    2712   	cmp	r0,	#01h
00:0042 FA C8                    2713   	bne	_$L161
                                 2714   
                                 2715   ;;	_flgI2CFin = 0;																	//reset I2C completed Flag
                                 2716   CLINEA 0000H 0001H 0502H 0002H 003BH
00:0044 00 00                    2717   	mov	r0,	#00h
00:0046 11-90 00-00'             2718   	st	r0,	NEAR __flgI2CFin
                                 2719   
                                 2720   ;;	i2c_stop();																		//Make sure I2C is not currently running
                                 2721   CLINEA 0000H 0001H 0503H 0002H 0046H
00:004A 01-F0'00-00'             2722   	bl	_i2c_stop
                                 2723   
                                 2724   ;;	i2c_startReceive(HMC5883Address, &Mag_ReadData, 1, &Mag_Data, 6, (cbfI2c)_funcI2CFin);	//Begin I2C Recieve Command
                                 2725   CLINEA 0000H 0001H 0504H 0002H 0073H
00:004E 00'00                    2726   	mov	r0,	#BYTE1 OFFSET __funcI2CFin
00:0050 00'01                    2727   	mov	r1,	#BYTE2 OFFSET __funcI2CFin
00:0052 5E-F0                    2728   	push	er0
00:0054 06 E0                    2729   	mov	er0,	#6 
00:0056 5E-F0                    2730   	push	er0
00:0058 00'00                    2731   	mov	r0,	#BYTE1 OFFSET _Mag_Data
00:005A 00'01                    2732   	mov	r1,	#BYTE2 OFFSET _Mag_Data
00:005C 5E-F0                    2733   	push	er0
00:005E 01 E0                    2734   	mov	er0,	#1 
00:0060 5E-F0                    2735   	push	er0
00:0062 00'02                    2736   	mov	r2,	#BYTE1 OFFSET _Mag_ReadData
00:0064 00'03                    2737   	mov	r3,	#BYTE2 OFFSET _Mag_ReadData
00:0066 10-90 00-00'             2738   	l	r0,	NEAR _HMC5883Address
00:006A 01-F0'00-00'             2739   	bl	_i2c_startReceive
00:006E 08 E1                    2740   	add	sp,	#8 
                                 2741   
                                 2742   ;;	while(_flgI2CFin != 1){															//Wait for I2C commands to finish transfer
                                 2743   CLINEA 0000H 0000H 0505H 0001H 0001H
00:0070 02 CE                    2744   	bal	_$L176
                                 2745   
                                 2746   ;;	while(_flgI2CFin != 1){															//Wait for I2C commands to finish transfer
                                 2747   CLINEA 0000H 0000H 0505H 0002H 0051H
00:0072                          2748   _$L165 :
                                 2749   CBLOCK 223 4 1285
                                 2750   
                                 2751   ;;		main_clrWDT();
                                 2752   CLINEA 0000H 0001H 0506H 0003H 0010H
00:0072 01-F0'00-00'             2753   	bl	_main_clrWDT
                                 2754   CBLOCKEND 223 4 1287
                                 2755   
                                 2756   ;;	while(_flgI2CFin != 1){															//Wait for I2C commands to finish transfer
                                 2757   CLINEA 0000H 0000H 0505H 0001H 0001H
00:0076                          2758   _$L176 :
00:0076 10-90 00-00'             2759   	l	r0,	NEAR __flgI2CFin
00:007A 01 70                    2760   	cmp	r0,	#01h
00:007C FA C8                    2761   	bne	_$L165
                                 2762   
                                 2763   ;;	Mag_Zout = (Mag_Data[2]<<8)+(Mag_Data[3]);
                                 2764   CLINEA 0000H 0001H 050BH 0002H 002BH
00:007E 10-90 00-00'             2765   	l	r0,	NEAR _Mag_Data+02h
00:0082 00 01                    2766   	mov	r1,	#00h
00:0084 00-83                    2767   	mov	r3,	r0
00:0086 00 02                    2768   	mov	r2,	#00h
00:0088 10-90 00-00'             2769   	l	r0,	NEAR _Mag_Data+03h
00:008C 26-F0                    2770   	add	er0,	er2
00:008E 10-82                    2771   	mov	r2,	r1
00:0090 2F-83                    2772   	extbw	er2
00:0092 30-82                    2773   	mov	r2,	r3
00:0094 6E-F0                    2774   	push	xr0
00:0096 01-F0'00-00'             2775   	bl	__fildu8sw
00:009A 2E-F0                    2776   	pop	xr0
00:009C 13-90 00-00'             2777   	st	er0,	NEAR _Mag_Zout
00:00A0 13-92 00-00'             2778   	st	er2,	NEAR _Mag_Zout+02h
                                 2779   
                                 2780   ;;	Mag_Xout *= Mag_GainFactor;
                                 2781   CLINEA 0000H 0001H 050DH 0002H 001CH
00:00A4 10-90 00-00'             2782   	l	r0,	NEAR _Mag_Data+01h
00:00A8 00 01                    2783   	mov	r1,	#00h
00:00AA 10-92 00-00'             2784   	l	r2,	NEAR _Mag_Data
00:00AE 20-83                    2785   	mov	r3,	r2
00:00B0 00 02                    2786   	mov	r2,	#00h
00:00B2 26-F0                    2787   	add	er0,	er2
00:00B4 10-82                    2788   	mov	r2,	r1
00:00B6 2F-83                    2789   	extbw	er2
00:00B8 30-82                    2790   	mov	r2,	r3
00:00BA 6E-F0                    2791   	push	xr0
00:00BC 01-F0'00-00'             2792   	bl	__fildu8sw
00:00C0 12-90 00-00'             2793   	l	er0,	NEAR _Mag_GainFactor
00:00C4 12-92 00-00'             2794   	l	er2,	NEAR _Mag_GainFactor+02h
00:00C8 6E-F0                    2795   	push	xr0
00:00CA 01-F0'00-00'             2796   	bl	__fmulu8sw
00:00CE 04 E1                    2797   	add	sp,	#4 
00:00D0 2E-F0                    2798   	pop	xr0
00:00D2 13-90 00-00'             2799   	st	er0,	NEAR _Mag_Xout
00:00D6 13-92 00-00'             2800   	st	er2,	NEAR _Mag_Xout+02h
                                 2801   
                                 2802   ;;	Mag_Yout *= Mag_GainFactor;
                                 2803   CLINEA 0000H 0001H 050EH 0002H 001CH
00:00DA 10-90 00-00'             2804   	l	r0,	NEAR _Mag_Data+04h
00:00DE 00 01                    2805   	mov	r1,	#00h
00:00E0 00-83                    2806   	mov	r3,	r0
00:00E2 00 02                    2807   	mov	r2,	#00h
00:00E4 10-90 00-00'             2808   	l	r0,	NEAR _Mag_Data+05h
00:00E8 26-F0                    2809   	add	er0,	er2
00:00EA 10-82                    2810   	mov	r2,	r1
00:00EC 2F-83                    2811   	extbw	er2
00:00EE 30-82                    2812   	mov	r2,	r3
00:00F0 6E-F0                    2813   	push	xr0
00:00F2 01-F0'00-00'             2814   	bl	__fildu8sw
00:00F6 12-90 00-00'             2815   	l	er0,	NEAR _Mag_GainFactor
00:00FA 12-92 00-00'             2816   	l	er2,	NEAR _Mag_GainFactor+02h
00:00FE 6E-F0                    2817   	push	xr0
00:0100 01-F0'00-00'             2818   	bl	__fmulu8sw
00:0104 04 E1                    2819   	add	sp,	#4 
00:0106 2E-F0                    2820   	pop	xr0
00:0108 13-90 00-00'             2821   	st	er0,	NEAR _Mag_Yout
00:010C 13-92 00-00'             2822   	st	er2,	NEAR _Mag_Yout+02h
                                 2823   
                                 2824   ;;	if(Mag_Yout >= 0){
                                 2825   CLINEA 0000H 0001H 0510H 0002H 0013H
00:0110 6E-F0                    2826   	push	xr0
00:0112 00 E0                    2827   	mov	er0,	#0 
00:0114 00 E2                    2828   	mov	er2,	#0 
00:0116 6E-F0                    2829   	push	xr0
00:0118 01-F0'00-00'             2830   	bl	__fcmpu8sw
00:011C 08 E1                    2831   	add	sp,	#8 
00:011E 0B-A0                    2832   	mov	psw,	r0
00:0120 35 C1                    2833   	blt	_$L167
                                 2834   CBLOCK 223 5 1296
                                 2835   
                                 2836   ;;		Mag_Angle = 90 - (atan(Mag_Xout/Mag_Yout)) * (180/3.1415927);
                                 2837   CLINEA 0000H 0000H 0511H 0003H 003FH
00:0122 12-90 00-00'             2838   	l	er0,	NEAR _Mag_Xout
00:0126 12-92 00-00'             2839   	l	er2,	NEAR _Mag_Xout+02h
00:012A 6E-F0                    2840   	push	xr0
00:012C 12-90 00-00'             2841   	l	er0,	NEAR _Mag_Yout
00:0130 12-92 00-00'             2842   	l	er2,	NEAR _Mag_Yout+02h
00:0134 6E-F0                    2843   	push	xr0
00:0136 01-F0'00-00'             2844   	bl	__fdivu8sw
00:013A 01-F0'00-00'             2845   	bl	__ftodu8sw
00:013E E5-F0                    2846   	mov	er0,	fp
00:0140 F8 E0                    2847   	add	er0,	#-8
00:0142 01-F0'00-00'             2848   	bl	_atan
00:0146 08 E1                    2849   	add	sp,	#8 
00:0148 00 E0                    2850   	mov	er0,	#0 
00:014A 00 E2                    2851   	mov	er2,	#0 
00:014C 00 04                    2852   	mov	r4,	#00h
00:014E 80 05                    2853   	mov	r5,	#080h
00:0150 56 06                    2854   	mov	r6,	#056h
00:0152 40 07                    2855   	mov	r7,	#040h
00:0154 7E-F0                    2856   	push	qr0
00:0156 EB-F0 F8-FF              2857   	lea	-8[fp]
00:015A 36-90                    2858   	l	qr0,	[ea]
00:015C 7E-F0                    2859   	push	qr0
00:015E 4A 00                    2860   	mov	r0,	#04ah
00:0160 15 01                    2861   	mov	r1,	#015h
00:0162 4A 02                    2862   	mov	r2,	#04ah
00:0164 13 03                    2863   	mov	r3,	#013h
00:0166 DC 04                    2864   	mov	r4,	#0dch
00:0168 A5 05                    2865   	mov	r5,	#0a5h
00:016A 4C 06                    2866   	mov	r6,	#04ch
00:016C 40 07                    2867   	mov	r7,	#040h
00:016E 7E-F0                    2868   	push	qr0
00:0170 01-F0'00-00'             2869   	bl	__dmulu8sw
00:0174 08 E1                    2870   	add	sp,	#8 
00:0176 01-F0'00-00'             2871   	bl	__dsubu8sw
00:017A 08 E1                    2872   	add	sp,	#8 
00:017C 01-F0'00-00'             2873   	bl	__dtofu8sw
00:0180 04 E1                    2874   	add	sp,	#4 
00:0182 2E-F0                    2875   	pop	xr0
00:0184 13-90 00-00'             2876   	st	er0,	NEAR _Mag_Angle
00:0188 13-92 00-00'             2877   	st	er2,	NEAR _Mag_Angle+02h
                                 2878   CBLOCKEND 223 5 1298
                                 2879   
                                 2880   ;;	}
                                 2881   CLINEA 0000H 0000H 0512H 0002H 0002H
00:018C                          2882   _$L167 :
                                 2883   
                                 2884   ;;	if(Mag_Yout < 0){
                                 2885   CLINEA 0000H 0001H 0513H 0002H 0012H
00:018C 12-90 00-00'             2886   	l	er0,	NEAR _Mag_Yout
00:0190 12-92 00-00'             2887   	l	er2,	NEAR _Mag_Yout+02h
00:0194 6E-F0                    2888   	push	xr0
00:0196 00 E0                    2889   	mov	er0,	#0 
00:0198 00 E2                    2890   	mov	er2,	#0 
00:019A 6E-F0                    2891   	push	xr0
00:019C 01-F0'00-00'             2892   	bl	__fcmpu8sw
00:01A0 08 E1                    2893   	add	sp,	#8 
00:01A2 0B-A0                    2894   	mov	psw,	r0
00:01A4 35 C0                    2895   	bge	_$L169
                                 2896   CBLOCK 223 6 1299
                                 2897   
                                 2898   ;;		Mag_Angle = 270 - (atan(Mag_Xout/Mag_Yout)) * (180/3.1415927);
                                 2899   CLINEA 0000H 0000H 0514H 0003H 0040H
00:01A6 12-90 00-00'             2900   	l	er0,	NEAR _Mag_Xout
00:01AA 12-92 00-00'             2901   	l	er2,	NEAR _Mag_Xout+02h
00:01AE 6E-F0                    2902   	push	xr0
00:01B0 12-90 00-00'             2903   	l	er0,	NEAR _Mag_Yout
00:01B4 12-92 00-00'             2904   	l	er2,	NEAR _Mag_Yout+02h
00:01B8 6E-F0                    2905   	push	xr0
00:01BA 01-F0'00-00'             2906   	bl	__fdivu8sw
00:01BE 01-F0'00-00'             2907   	bl	__ftodu8sw
00:01C2 E5-F0                    2908   	mov	er0,	fp
00:01C4 F8 E0                    2909   	add	er0,	#-8
00:01C6 01-F0'00-00'             2910   	bl	_atan
00:01CA 08 E1                    2911   	add	sp,	#8 
00:01CC 00 E0                    2912   	mov	er0,	#0 
00:01CE 00 E2                    2913   	mov	er2,	#0 
00:01D0 00 04                    2914   	mov	r4,	#00h
00:01D2 E0 05                    2915   	mov	r5,	#0e0h
00:01D4 70 06                    2916   	mov	r6,	#070h
00:01D6 40 07                    2917   	mov	r7,	#040h
00:01D8 7E-F0                    2918   	push	qr0
00:01DA EB-F0 F8-FF              2919   	lea	-8[fp]
00:01DE 36-90                    2920   	l	qr0,	[ea]
00:01E0 7E-F0                    2921   	push	qr0
00:01E2 4A 00                    2922   	mov	r0,	#04ah
00:01E4 15 01                    2923   	mov	r1,	#015h
00:01E6 4A 02                    2924   	mov	r2,	#04ah
00:01E8 13 03                    2925   	mov	r3,	#013h
00:01EA DC 04                    2926   	mov	r4,	#0dch
00:01EC A5 05                    2927   	mov	r5,	#0a5h
00:01EE 4C 06                    2928   	mov	r6,	#04ch
00:01F0 40 07                    2929   	mov	r7,	#040h
00:01F2 7E-F0                    2930   	push	qr0
00:01F4 01-F0'00-00'             2931   	bl	__dmulu8sw
00:01F8 08 E1                    2932   	add	sp,	#8 
00:01FA 01-F0'00-00'             2933   	bl	__dsubu8sw
00:01FE 08 E1                    2934   	add	sp,	#8 
00:0200 01-F0'00-00'             2935   	bl	__dtofu8sw
00:0204 04 E1                    2936   	add	sp,	#4 
00:0206 2E-F0                    2937   	pop	xr0
00:0208 13-90 00-00'             2938   	st	er0,	NEAR _Mag_Angle
00:020C 13-92 00-00'             2939   	st	er2,	NEAR _Mag_Angle+02h
                                 2940   CBLOCKEND 223 6 1301
                                 2941   
                                 2942   ;;	}
                                 2943   CLINEA 0000H 0000H 0515H 0002H 0002H
00:0210                          2944   _$L169 :
                                 2945   
                                 2946   ;;	Mag_Angle -= 90;  //This will adjust and get the true 
                                 2947   CLINEA 0000H 0001H 0517H 0002H 0037H
00:0210 12-90 00-00'             2948   	l	er0,	NEAR _Mag_Angle
00:0214 12-92 00-00'             2949   	l	er2,	NEAR _Mag_Angle+02h
00:0218 6E-F0                    2950   	push	xr0
00:021A 00 E0                    2951   	mov	er0,	#0 
00:021C B4 02                    2952   	mov	r2,	#0b4h
00:021E C2 03                    2953   	mov	r3,	#0c2h
00:0220 6E-F0                    2954   	push	xr0
00:0222 01-F0'00-00'             2955   	bl	__faddu8sw
00:0226 04 E1                    2956   	add	sp,	#4 
00:0228 2E-F0                    2957   	pop	xr0
00:022A 13-90 00-00'             2958   	st	er0,	NEAR _Mag_Angle
00:022E 13-92 00-00'             2959   	st	er2,	NEAR _Mag_Angle+02h
                                 2960   
                                 2961   ;;	if(Mag_Angle >=360){
                                 2962   CLINEA 0000H 0001H 0518H 0002H 0015H
00:0232 6E-F0                    2963   	push	xr0
00:0234 00 E0                    2964   	mov	er0,	#0 
00:0236 B4 02                    2965   	mov	r2,	#0b4h
00:0238 43 03                    2966   	mov	r3,	#043h
00:023A 6E-F0                    2967   	push	xr0
00:023C 01-F0'00-00'             2968   	bl	__fcmpu8sw
00:0240 08 E1                    2969   	add	sp,	#8 
00:0242 0B-A0                    2970   	mov	psw,	r0
00:0244 11 C1                    2971   	blt	_$L171
                                 2972   CBLOCK 223 7 1304
                                 2973   
                                 2974   ;;		Mag_Angle -= 360;
                                 2975   CLINEA 0000H 0001H 0519H 0003H 0013H
00:0246 12-90 00-00'             2976   	l	er0,	NEAR _Mag_Angle
00:024A 12-92 00-00'             2977   	l	er2,	NEAR _Mag_Angle+02h
00:024E 6E-F0                    2978   	push	xr0
00:0250 00 E0                    2979   	mov	er0,	#0 
00:0252 B4 02                    2980   	mov	r2,	#0b4h
00:0254 C3 03                    2981   	mov	r3,	#0c3h
00:0256 6E-F0                    2982   	push	xr0
00:0258 01-F0'00-00'             2983   	bl	__faddu8sw
00:025C 04 E1                    2984   	add	sp,	#4 
00:025E 2E-F0                    2985   	pop	xr0
00:0260 13-90 00-00'             2986   	st	er0,	NEAR _Mag_Angle
00:0264 13-92 00-00'             2987   	st	er2,	NEAR _Mag_Angle+02h
                                 2988   CBLOCKEND 223 7 1306
                                 2989   
                                 2990   ;;	}
                                 2991   CLINEA 0000H 0000H 051AH 0002H 0002H
00:0268                          2992   _$L171 :
                                 2993   
                                 2994   ;;	if(Mag_Angle < 0){
                                 2995   CLINEA 0000H 0001H 051BH 0002H 0013H
00:0268 12-90 00-00'             2996   	l	er0,	NEAR _Mag_Angle
00:026C 12-92 00-00'             2997   	l	er2,	NEAR _Mag_Angle+02h
00:0270 6E-F0                    2998   	push	xr0
00:0272 00 E0                    2999   	mov	er0,	#0 
00:0274 00 E2                    3000   	mov	er2,	#0 
00:0276 6E-F0                    3001   	push	xr0
00:0278 01-F0'00-00'             3002   	bl	__fcmpu8sw
00:027C 08 E1                    3003   	add	sp,	#8 
00:027E 0B-A0                    3004   	mov	psw,	r0
00:0280 11 C0                    3005   	bge	_$L173
                                 3006   CBLOCK 223 8 1307
                                 3007   
                                 3008   ;;		Mag_Angle += 360;
                                 3009   CLINEA 0000H 0001H 051CH 0003H 0013H
00:0282 12-90 00-00'             3010   	l	er0,	NEAR _Mag_Angle
00:0286 12-92 00-00'             3011   	l	er2,	NEAR _Mag_Angle+02h
00:028A 6E-F0                    3012   	push	xr0
00:028C 00 E0                    3013   	mov	er0,	#0 
00:028E B4 02                    3014   	mov	r2,	#0b4h
00:0290 43 03                    3015   	mov	r3,	#043h
00:0292 6E-F0                    3016   	push	xr0
00:0294 01-F0'00-00'             3017   	bl	__faddu8sw
00:0298 04 E1                    3018   	add	sp,	#4 
00:029A 2E-F0                    3019   	pop	xr0
00:029C 13-90 00-00'             3020   	st	er0,	NEAR _Mag_Angle
00:02A0 13-92 00-00'             3021   	st	er2,	NEAR _Mag_Angle+02h
                                 3022   CBLOCKEND 223 8 1309
                                 3023   
                                 3024   ;;	}
                                 3025   CLINEA 0000H 0000H 051DH 0002H 0002H
00:02A4                          3026   _$L173 :
                                 3027   CBLOCKEND 223 2 1310
                                 3028   
                                 3029   ;;}
                                 3030   CLINEA 0000H 0001H 051EH 0001H 0001H
00:02A4 2E-F4                    3031   	pop	xr4
00:02A6 EA-A1                    3032   	mov	sp,	fp
00:02A8 1E-FE                    3033   	pop	fp
00:02AA 8E-F2                    3034   	pop	pc
                                 3035   CBLOCKEND 223 1 1310
                                 3036   CFUNCTIONEND 223
                                 3037   
                                 3038   
  --------------------------     3039   	rseg $$ClearVariables$main
                                 3040   CFUNCTION 224
                                 3041   
00:0000                          3042   _ClearVariables	:
                                 3043   CBLOCK 224 1 1312
                                 3044   
                                 3045   ;;void ClearVariables(void){
                                 3046   CLINEA 0000H 0001H 0520H 0001H 001AH
                                 3047   CBLOCK 224 2 1312
                                 3048   
                                 3049   ;;	Temp_out = 0;
                                 3050   CLINEA 0000H 0001H 0521H 0002H 000EH
00:0000 00 E0                    3051   	mov	er0,	#0 
00:0002 13-90 00-00'             3052   	st	er0,	NEAR _Temp_out
00:0006 13-90 00-00'             3053   	st	er0,	NEAR _Temp_out+02h
                                 3054   
                                 3055   ;;	Mag_Xout = 0;
                                 3056   CLINEA 0000H 0001H 0522H 0002H 000EH
00:000A 13-90 00-00'             3057   	st	er0,	NEAR _Mag_Xout
00:000E 13-90 00-00'             3058   	st	er0,	NEAR _Mag_Xout+02h
                                 3059   
                                 3060   ;;	Mag_Yout = 0;
                                 3061   CLINEA 0000H 0001H 0523H 0002H 000EH
00:0012 13-90 00-00'             3062   	st	er0,	NEAR _Mag_Yout
00:0016 13-90 00-00'             3063   	st	er0,	NEAR _Mag_Yout+02h
                                 3064   
                                 3065   ;;	Mag_Zout = 0;
                                 3066   CLINEA 0000H 0001H 0524H 0002H 000EH
00:001A 13-90 00-00'             3067   	st	er0,	NEAR _Mag_Zout
00:001E 13-90 00-00'             3068   	st	er0,	NEAR _Mag_Zout+02h
                                 3069   
                                 3070   ;;	Mag_Angle = 0;
                                 3071   CLINEA 0000H 0001H 0525H 0002H 000FH
00:0022 13-90 00-00'             3072   	st	er0,	NEAR _Mag_Angle
00:0026 13-90 00-00'             3073   	st	er0,	NEAR _Mag_Angle+02h
                                 3074   
                                 3075   ;;	Ping_timer = 0;
                                 3076   CLINEA 0000H 0001H 0526H 0002H 0010H
00:002A 13-90 00-00'             3077   	st	er0,	NEAR _Ping_timer
                                 3078   
                                 3079   ;;	Ping_out = 0;
                                 3080   CLINEA 0000H 0001H 0527H 0002H 000EH
00:002E 13-90 00-00'             3081   	st	er0,	NEAR _Ping_out
00:0032 13-90 00-00'             3082   	st	er0,	NEAR _Ping_out+02h
                                 3083   
                                 3084   ;;	Range_out = 0;
                                 3085   CLINEA 0000H 0001H 0528H 0002H 000FH
00:0036 13-90 00-00'             3086   	st	er0,	NEAR _Range_out
                                 3087   CBLOCKEND 224 2 1321
                                 3088   
                                 3089   ;;}
                                 3090   CLINEA 0000H 0001H 0529H 0001H 0001H
00:003A 1F-FE                    3091   	rt
                                 3092   CBLOCKEND 224 1 1321
                                 3093   CFUNCTIONEND 224
                                 3094   
                                 3095   
  --------------------------     3096   	rseg $$ReturnSensorData$main
                                 3097   CFUNCTION 225
                                 3098   
00:0000                          3099   _ReturnSensorData	:
                                 3100   CBLOCK 225 1 1323
                                 3101   
                                 3102   ;;void ReturnSensorData(void){
                                 3103   CLINEA 0000H 0001H 052BH 0001H 001CH
00:0000 CE-F8                    3104   	push	lr
                                 3105   CBLOCK 225 2 1323
                                 3106   CRET 0000H
                                 3107   CLOCAL 47H 0002H 0024H 0002H "i" 02H 00H 01H
                                 3108   
                                 3109   ;;	for(i = 0; i<150; i++)
                                 3110   CLINEA 0000H 0001H 052DH 0002H 0017H
00:0002 00 E0                    3111   	mov	er0,	#0 
00:0004                          3112   _$L181 :
                                 3113   CBLOCK 225 3 1326
                                 3114   
                                 3115   ;;		SensorReturn[i] = 0x20;
                                 3116   CLINEA 0000H 0001H 052FH 0003H 0019H
00:0004 20 02                    3117   	mov	r2,	#020h
00:0006 09-92 00-00'             3118   	st	r2,	NEAR _SensorReturn[er0]
                                 3119   CBLOCKEND 225 3 1328
                                 3120   
                                 3121   ;;	for(i = 0; i<150; i++)
                                 3122   CLINEA 0000H 0000H 052DH 0002H 0017H
00:000A 81 E0                    3123   	add	er0,	#1 
00:000C 96 70                    3124   	cmp	r0,	#096h
00:000E 00 51                    3125   	cmpc	r1,	#00h
00:0010 F9 C5                    3126   	blts	_$L181
                                 3127   
                                 3128   ;;	sprintf(SensorReturn, "%f,%f,%f,%f,%f,%f,%f,%u", Accel_Xout, Accel_Yout, Accel_Zout, Gyro_Xout, Gyro_Yout, Gyro_Zout, Mag_Angle,Range_out);
                                 3129   CLINEA 0000H 0001H 0532H 0002H 008CH
00:0012 12-90 00-00'             3130   	l	er0,	NEAR _Range_out
00:0016 5E-F0                    3131   	push	er0
00:0018 12-90 00-00'             3132   	l	er0,	NEAR _Mag_Angle
00:001C 12-92 00-00'             3133   	l	er2,	NEAR _Mag_Angle+02h
00:0020 6E-F0                    3134   	push	xr0
00:0022 FC E1                    3135   	add	sp,	#-4
00:0024 01-F0'00-00'             3136   	bl	__ftodu8sw
00:0028 00'00                    3137   	mov	r0,	#BYTE1 OFFSET _Gyro_Zout
00:002A 00'01                    3138   	mov	r1,	#BYTE2 OFFSET _Gyro_Zout
00:002C 5E-F0                    3139   	push	er0
00:002E 00'00                    3140   	mov	r0,	#BYTE1 OFFSET _Gyro_Yout
00:0030 00'01                    3141   	mov	r1,	#BYTE2 OFFSET _Gyro_Yout
00:0032 5E-F0                    3142   	push	er0
00:0034 00'00                    3143   	mov	r0,	#BYTE1 OFFSET _Gyro_Xout
00:0036 00'01                    3144   	mov	r1,	#BYTE2 OFFSET _Gyro_Xout
00:0038 5E-F0                    3145   	push	er0
00:003A 00'00                    3146   	mov	r0,	#BYTE1 OFFSET _Accel_Zout
00:003C 00'01                    3147   	mov	r1,	#BYTE2 OFFSET _Accel_Zout
00:003E 5E-F0                    3148   	push	er0
00:0040 00'00                    3149   	mov	r0,	#BYTE1 OFFSET _Accel_Yout
00:0042 00'01                    3150   	mov	r1,	#BYTE2 OFFSET _Accel_Yout
00:0044 5E-F0                    3151   	push	er0
00:0046 00'00                    3152   	mov	r0,	#BYTE1 OFFSET _Accel_Xout
00:0048 00'01                    3153   	mov	r1,	#BYTE2 OFFSET _Accel_Xout
00:004A 5E-F0                    3154   	push	er0
00:004C 00'00                    3155   	mov	r0,	#BYTE1 OFFSET $$S185
00:004E 00'01                    3156   	mov	r1,	#BYTE2 OFFSET $$S185
00:0050 5E-F0                    3157   	push	er0
00:0052 00'00                    3158   	mov	r0,	#BYTE1 OFFSET _SensorReturn
00:0054 00'01                    3159   	mov	r1,	#BYTE2 OFFSET _SensorReturn
00:0056 5E-F0                    3160   	push	er0
00:0058 01-F0'00-00'             3161   	bl	_sprintf_nn
00:005C 1A E1                    3162   	add	sp,	#26
                                 3163   
                                 3164   ;;	SensorReturn[148] = 0x0D;
                                 3165   CLINEA 0000H 0001H 0534H 0002H 001AH
00:005E 0D 00                    3166   	mov	r0,	#0dh
00:0060 11-90 00-00'             3167   	st	r0,	NEAR _SensorReturn+094h
                                 3168   
                                 3169   ;;	SensorReturn[149] = 0x0A;
                                 3170   CLINEA 0000H 0001H 0535H 0002H 001AH
00:0064 0A 00                    3171   	mov	r0,	#0ah
00:0066 11-90 00-00'             3172   	st	r0,	NEAR _SensorReturn+095h
                                 3173   
                                 3174   ;;	_flgUartFin = 0;
                                 3175   CLINEA 0000H 0001H 0538H 0002H 0011H
00:006A 00 00                    3176   	mov	r0,	#00h
00:006C 11-90 00-00'             3177   	st	r0,	NEAR __flgUartFin
                                 3178   
                                 3179   ;;	uart_stop();
                                 3180   CLINEA 0000H 0001H 0539H 0002H 000DH
00:0070 01-F0'00-00'             3181   	bl	_uart_stop
                                 3182   
                                 3183   ;;	uart_startSend(SensorReturn, 150, _funcUartFin);
                                 3184   CLINEA 0000H 0001H 053AH 0002H 0031H
00:0074 00'00                    3185   	mov	r0,	#BYTE1 OFFSET __funcUartFin
00:0076 00'01                    3186   	mov	r1,	#BYTE2 OFFSET __funcUartFin
00:0078 5E-F0                    3187   	push	er0
00:007A 96 02                    3188   	mov	r2,	#096h
00:007C 00 03                    3189   	mov	r3,	#00h
00:007E 00'00                    3190   	mov	r0,	#BYTE1 OFFSET _SensorReturn
00:0080 00'01                    3191   	mov	r1,	#BYTE2 OFFSET _SensorReturn
00:0082 01-F0'00-00'             3192   	bl	_uart_startSend
00:0086 02 E1                    3193   	add	sp,	#2 
                                 3194   
                                 3195   ;;	while(_flgUartFin != 1){
                                 3196   CLINEA 0000H 0000H 053BH 0001H 0001H
00:0088 02 CE                    3197   	bal	_$L190
                                 3198   
                                 3199   ;;	while(_flgUartFin != 1){
                                 3200   CLINEA 0000H 0000H 053BH 0002H 0019H
00:008A                          3201   _$L188 :
                                 3202   CBLOCK 225 4 1339
                                 3203   
                                 3204   ;;		main_clrWDT();
                                 3205   CLINEA 0000H 0001H 053CH 0003H 0010H
00:008A 01-F0'00-00'             3206   	bl	_main_clrWDT
                                 3207   CBLOCKEND 225 4 1341
                                 3208   
                                 3209   ;;	while(_flgUartFin != 1){
                                 3210   CLINEA 0000H 0000H 053BH 0001H 0001H
00:008E                          3211   _$L190 :
00:008E 10-90 00-00'             3212   	l	r0,	NEAR __flgUartFin
00:0092 01 70                    3213   	cmp	r0,	#01h
00:0094 FA C8                    3214   	bne	_$L188
                                 3215   CBLOCKEND 225 2 1342
                                 3216   
                                 3217   ;;}
                                 3218   CLINEA 0000H 0001H 053EH 0001H 0001H
00:0096 8E-F2                    3219   	pop	pc
                                 3220   CBLOCKEND 225 1 1342
                                 3221   CFUNCTIONEND 225
                                 3222   
                                 3223   
  --------------------------     3224   	rseg $$ReturnAccelData$main
                                 3225   CFUNCTION 226
                                 3226   
00:0000                          3227   _ReturnAccelData	:
                                 3228   CBLOCK 226 1 1344
                                 3229   
                                 3230   ;;void ReturnAccelData(void){
                                 3231   CLINEA 0000H 0001H 0540H 0001H 001BH
00:0000 CE-F8                    3232   	push	lr
                                 3233   CBLOCK 226 2 1344
                                 3234   CRET 0000H
                                 3235   CLOCAL 47H 0002H 0024H 0002H "i" 02H 00H 01H
                                 3236   
                                 3237   ;;	for(i = 0; i<150; i++)
                                 3238   CLINEA 0000H 0001H 0542H 0002H 0017H
00:0002 00 E0                    3239   	mov	er0,	#0 
00:0004                          3240   _$L194 :
                                 3241   CBLOCK 226 3 1347
                                 3242   
                                 3243   ;;		SensorReturn[i] = 0x20;
                                 3244   CLINEA 0000H 0001H 0544H 0003H 0019H
00:0004 20 02                    3245   	mov	r2,	#020h
00:0006 09-92 00-00'             3246   	st	r2,	NEAR _SensorReturn[er0]
                                 3247   CBLOCKEND 226 3 1349
                                 3248   
                                 3249   ;;	for(i = 0; i<150; i++)
                                 3250   CLINEA 0000H 0000H 0542H 0002H 0017H
00:000A 81 E0                    3251   	add	er0,	#1 
00:000C 96 70                    3252   	cmp	r0,	#096h
00:000E 00 51                    3253   	cmpc	r1,	#00h
00:0010 F9 C5                    3254   	blts	_$L194
                                 3255   
                                 3256   ;;	sprintf(SensorReturn, "%f,%f,%f", Accel_Xout, Accel_Yout, Accel_Zout);
                                 3257   CLINEA 0000H 0001H 0548H 0002H 0047H
00:0012 00'00                    3258   	mov	r0,	#BYTE1 OFFSET _Accel_Zout
00:0014 00'01                    3259   	mov	r1,	#BYTE2 OFFSET _Accel_Zout
00:0016 5E-F0                    3260   	push	er0
00:0018 00'00                    3261   	mov	r0,	#BYTE1 OFFSET _Accel_Yout
00:001A 00'01                    3262   	mov	r1,	#BYTE2 OFFSET _Accel_Yout
00:001C 5E-F0                    3263   	push	er0
00:001E 00'00                    3264   	mov	r0,	#BYTE1 OFFSET _Accel_Xout
00:0020 00'01                    3265   	mov	r1,	#BYTE2 OFFSET _Accel_Xout
00:0022 5E-F0                    3266   	push	er0
00:0024 00'00                    3267   	mov	r0,	#BYTE1 OFFSET $$S198
00:0026 00'01                    3268   	mov	r1,	#BYTE2 OFFSET $$S198
00:0028 5E-F0                    3269   	push	er0
00:002A 00'00                    3270   	mov	r0,	#BYTE1 OFFSET _SensorReturn
00:002C 00'01                    3271   	mov	r1,	#BYTE2 OFFSET _SensorReturn
00:002E 5E-F0                    3272   	push	er0
00:0030 01-F0'00-00'             3273   	bl	_sprintf_nn
00:0034 0A E1                    3274   	add	sp,	#10
                                 3275   
                                 3276   ;;	SensorReturn[148] = 0x0D;	//CR
                                 3277   CLINEA 0000H 0001H 054AH 0002H 001FH
00:0036 0D 00                    3278   	mov	r0,	#0dh
00:0038 11-90 00-00'             3279   	st	r0,	NEAR _SensorReturn+094h
                                 3280   
                                 3281   ;;	SensorReturn[149] = 0x0A;	//LF
                                 3282   CLINEA 0000H 0001H 054BH 0002H 001FH
00:003C 0A 00                    3283   	mov	r0,	#0ah
00:003E 11-90 00-00'             3284   	st	r0,	NEAR _SensorReturn+095h
                                 3285   
                                 3286   ;;	_flgUartFin = 0;
                                 3287   CLINEA 0000H 0001H 054EH 0002H 0011H
00:0042 00 00                    3288   	mov	r0,	#00h
00:0044 11-90 00-00'             3289   	st	r0,	NEAR __flgUartFin
                                 3290   
                                 3291   ;;	uart_stop();
                                 3292   CLINEA 0000H 0001H 054FH 0002H 000DH
00:0048 01-F0'00-00'             3293   	bl	_uart_stop
                                 3294   
                                 3295   ;;	uart_startSend(SensorReturn, 150, _funcUartFin);
                                 3296   CLINEA 0000H 0001H 0550H 0002H 0031H
00:004C 00'00                    3297   	mov	r0,	#BYTE1 OFFSET __funcUartFin
00:004E 00'01                    3298   	mov	r1,	#BYTE2 OFFSET __funcUartFin
00:0050 5E-F0                    3299   	push	er0
00:0052 96 02                    3300   	mov	r2,	#096h
00:0054 00 03                    3301   	mov	r3,	#00h
00:0056 00'00                    3302   	mov	r0,	#BYTE1 OFFSET _SensorReturn
00:0058 00'01                    3303   	mov	r1,	#BYTE2 OFFSET _SensorReturn
00:005A 01-F0'00-00'             3304   	bl	_uart_startSend
00:005E 02 E1                    3305   	add	sp,	#2 
                                 3306   
                                 3307   ;;	while(_flgUartFin != 1){
                                 3308   CLINEA 0000H 0000H 0551H 0001H 0001H
00:0060 02 CE                    3309   	bal	_$L203
                                 3310   
                                 3311   ;;	while(_flgUartFin != 1){
                                 3312   CLINEA 0000H 0000H 0551H 0002H 0019H
00:0062                          3313   _$L201 :
                                 3314   CBLOCK 226 4 1361
                                 3315   
                                 3316   ;;		main_clrWDT();
                                 3317   CLINEA 0000H 0001H 0552H 0003H 0010H
00:0062 01-F0'00-00'             3318   	bl	_main_clrWDT
                                 3319   CBLOCKEND 226 4 1363
                                 3320   
                                 3321   ;;	while(_flgUartFin != 1){
                                 3322   CLINEA 0000H 0000H 0551H 0001H 0001H
00:0066                          3323   _$L203 :
00:0066 10-90 00-00'             3324   	l	r0,	NEAR __flgUartFin
00:006A 01 70                    3325   	cmp	r0,	#01h
00:006C FA C8                    3326   	bne	_$L201
                                 3327   CBLOCKEND 226 2 1364
                                 3328   
                                 3329   ;;}
                                 3330   CLINEA 0000H 0001H 0554H 0001H 0001H
00:006E 8E-F2                    3331   	pop	pc
                                 3332   CBLOCKEND 226 1 1364
                                 3333   CFUNCTIONEND 226
                                 3334   
                                 3335   
  --------------------------     3336   	rseg $$ReturnMagData$main
                                 3337   CFUNCTION 227
                                 3338   
00:0000                          3339   _ReturnMagData	:
                                 3340   CBLOCK 227 1 1366
                                 3341   
                                 3342   ;;void ReturnMagData(void){
                                 3343   CLINEA 0000H 0001H 0556H 0001H 0019H
00:0000 CE-F8                    3344   	push	lr
                                 3345   CBLOCK 227 2 1366
                                 3346   CRET 0000H
                                 3347   CLOCAL 47H 0002H 0024H 0002H "i" 02H 00H 01H
                                 3348   
                                 3349   ;;	for(i = 0; i<150; i++)
                                 3350   CLINEA 0000H 0001H 0558H 0002H 0017H
00:0002 00 E0                    3351   	mov	er0,	#0 
00:0004                          3352   _$L207 :
                                 3353   CBLOCK 227 3 1369
                                 3354   
                                 3355   ;;		SensorReturn[i] = 0x20;
                                 3356   CLINEA 0000H 0001H 055AH 0003H 0019H
00:0004 20 02                    3357   	mov	r2,	#020h
00:0006 09-92 00-00'             3358   	st	r2,	NEAR _SensorReturn[er0]
                                 3359   CBLOCKEND 227 3 1371
                                 3360   
                                 3361   ;;	for(i = 0; i<150; i++)
                                 3362   CLINEA 0000H 0000H 0558H 0002H 0017H
00:000A 81 E0                    3363   	add	er0,	#1 
00:000C 96 70                    3364   	cmp	r0,	#096h
00:000E 00 51                    3365   	cmpc	r1,	#00h
00:0010 F9 C5                    3366   	blts	_$L207
                                 3367   
                                 3368   ;;	sprintf(SensorReturn, "%f", Mag_Angle);
                                 3369   CLINEA 0000H 0001H 055CH 0002H 0028H
00:0012 12-90 00-00'             3370   	l	er0,	NEAR _Mag_Angle
00:0016 12-92 00-00'             3371   	l	er2,	NEAR _Mag_Angle+02h
00:001A 6E-F0                    3372   	push	xr0
00:001C FC E1                    3373   	add	sp,	#-4
00:001E 01-F0'00-00'             3374   	bl	__ftodu8sw
00:0022 00'00                    3375   	mov	r0,	#BYTE1 OFFSET $$S211
00:0024 00'01                    3376   	mov	r1,	#BYTE2 OFFSET $$S211
00:0026 5E-F0                    3377   	push	er0
00:0028 00'00                    3378   	mov	r0,	#BYTE1 OFFSET _SensorReturn
00:002A 00'01                    3379   	mov	r1,	#BYTE2 OFFSET _SensorReturn
00:002C 5E-F0                    3380   	push	er0
00:002E 01-F0'00-00'             3381   	bl	_sprintf_nn
00:0032 0C E1                    3382   	add	sp,	#12
                                 3383   
                                 3384   ;;	SensorReturn[148] = 0x0D;
                                 3385   CLINEA 0000H 0001H 055EH 0002H 001AH
00:0034 0D 00                    3386   	mov	r0,	#0dh
00:0036 11-90 00-00'             3387   	st	r0,	NEAR _SensorReturn+094h
                                 3388   
                                 3389   ;;	SensorReturn[149] = 0x0A;
                                 3390   CLINEA 0000H 0001H 055FH 0002H 001AH
00:003A 0A 00                    3391   	mov	r0,	#0ah
00:003C 11-90 00-00'             3392   	st	r0,	NEAR _SensorReturn+095h
                                 3393   
                                 3394   ;;	_flgUartFin = 0;
                                 3395   CLINEA 0000H 0001H 0562H 0002H 0011H
00:0040 00 00                    3396   	mov	r0,	#00h
00:0042 11-90 00-00'             3397   	st	r0,	NEAR __flgUartFin
                                 3398   
                                 3399   ;;	uart_stop();
                                 3400   CLINEA 0000H 0001H 0563H 0002H 000DH
00:0046 01-F0'00-00'             3401   	bl	_uart_stop
                                 3402   
                                 3403   ;;	uart_startSend(SensorReturn, 150, _funcUartFin);
                                 3404   CLINEA 0000H 0001H 0564H 0002H 0031H
00:004A 00'00                    3405   	mov	r0,	#BYTE1 OFFSET __funcUartFin
00:004C 00'01                    3406   	mov	r1,	#BYTE2 OFFSET __funcUartFin
00:004E 5E-F0                    3407   	push	er0
00:0050 96 02                    3408   	mov	r2,	#096h
00:0052 00 03                    3409   	mov	r3,	#00h
00:0054 00'00                    3410   	mov	r0,	#BYTE1 OFFSET _SensorReturn
00:0056 00'01                    3411   	mov	r1,	#BYTE2 OFFSET _SensorReturn
00:0058 01-F0'00-00'             3412   	bl	_uart_startSend
00:005C 02 E1                    3413   	add	sp,	#2 
                                 3414   
                                 3415   ;;	while(_flgUartFin != 1){
                                 3416   CLINEA 0000H 0000H 0565H 0001H 0001H
00:005E 02 CE                    3417   	bal	_$L216
                                 3418   
                                 3419   ;;	while(_flgUartFin != 1){
                                 3420   CLINEA 0000H 0000H 0565H 0002H 0019H
00:0060                          3421   _$L214 :
                                 3422   CBLOCK 227 4 1381
                                 3423   
                                 3424   ;;		main_clrWDT();
                                 3425   CLINEA 0000H 0001H 0566H 0003H 0010H
00:0060 01-F0'00-00'             3426   	bl	_main_clrWDT
                                 3427   CBLOCKEND 227 4 1383
                                 3428   
                                 3429   ;;	while(_flgUartFin != 1){
                                 3430   CLINEA 0000H 0000H 0565H 0001H 0001H
00:0064                          3431   _$L216 :
00:0064 10-90 00-00'             3432   	l	r0,	NEAR __flgUartFin
00:0068 01 70                    3433   	cmp	r0,	#01h
00:006A FA C8                    3434   	bne	_$L214
                                 3435   CBLOCKEND 227 2 1384
                                 3436   
                                 3437   ;;}
                                 3438   CLINEA 0000H 0001H 0568H 0001H 0001H
00:006C 8E-F2                    3439   	pop	pc
                                 3440   CBLOCKEND 227 1 1384
                                 3441   CFUNCTIONEND 227
                                 3442   
                                 3443   
  --------------------------     3444   	rseg $$CalibrateMotors$main
                                 3445   CFUNCTION 228
                                 3446   
00:0000                          3447   _CalibrateMotors	:
                                 3448   CBLOCK 228 1 1392
                                 3449   
                                 3450   ;;void CalibrateMotors(void){
                                 3451   CLINEA 0000H 0001H 0570H 0001H 001BH
                                 3452   CBLOCK 228 2 1392
                                 3453   CLOCAL 4BH 0002H 0000H 0002H "i" 02H 00H 01H
                                 3454   
                                 3455   ;;	PFRUN = 0;
                                 3456   CLINEA 0000H 0001H 05ACH 0002H 000BH
00:0000 82-A0 73-F9              3457   	rb	0f973h.0
                                 3458   
                                 3459   ;;	PERUN = 0;
                                 3460   CLINEA 0000H 0001H 05ADH 0002H 000BH
00:0004 82-A0 37-F9              3461   	rb	0f937h.0
                                 3462   
                                 3463   ;;	PDRUN = 0;
                                 3464   CLINEA 0000H 0001H 05AEH 0002H 000BH
00:0008 82-A0 27-F9              3465   	rb	0f927h.0
                                 3466   
                                 3467   ;;	PCRUN = 0;
                                 3468   CLINEA 0000H 0001H 05AFH 0002H 000BH
00:000C 82-A0 17-F9              3469   	rb	0f917h.0
                                 3470   
                                 3471   ;;	PWF0D = PWMSafeDuty; //Can't be running to change
                                 3472   CLINEA 0000H 0001H 05B1H 0002H 0032H
00:0010 12-90 00-00'             3473   	l	er0,	NEAR _PWMSafeDuty
00:0014 13-90 62-F9              3474   	st	er0,	0f962h
                                 3475   
                                 3476   ;;	PWED = PWMSafeDuty;
                                 3477   CLINEA 0000H 0001H 05B2H 0002H 0014H
00:0018 13-90 32-F9              3478   	st	er0,	0f932h
                                 3479   
                                 3480   ;;	PWDD = PWMSafeDuty;
                                 3481   CLINEA 0000H 0001H 05B3H 0002H 0014H
00:001C 13-90 22-F9              3482   	st	er0,	0f922h
                                 3483   
                                 3484   ;;	PWCD = PWMSafeDuty;
                                 3485   CLINEA 0000H 0001H 05B4H 0002H 0014H
00:0020 13-90 12-F9              3486   	st	er0,	0f912h
                                 3487   
                                 3488   ;;	PFRUN = 1;
                                 3489   CLINEA 0000H 0001H 05B6H 0002H 000BH
00:0024 80-A0 73-F9              3490   	sb	0f973h.0
                                 3491   
                                 3492   ;;	PERUN = 1;
                                 3493   CLINEA 0000H 0001H 05B7H 0002H 000BH
00:0028 80-A0 37-F9              3494   	sb	0f937h.0
                                 3495   
                                 3496   ;;	PDRUN = 1;
                                 3497   CLINEA 0000H 0001H 05B8H 0002H 000BH
00:002C 80-A0 27-F9              3498   	sb	0f927h.0
                                 3499   
                                 3500   ;;	PCRUN = 1;
                                 3501   CLINEA 0000H 0001H 05B9H 0002H 000BH
00:0030 80-A0 17-F9              3502   	sb	0f917h.0
                                 3503   
                                 3504   ;;	Mag_PIDCounter = 0;
                                 3505   CLINEA 0000H 0001H 05BBH 0002H 0014H
00:0034 00 E0                    3506   	mov	er0,	#0 
00:0036 13-90 00-00'             3507   	st	er0,	NEAR _Mag_PIDCounter
                                 3508   
                                 3509   ;;	CF_Gyro_Counter = 0;
                                 3510   CLINEA 0000H 0001H 05BCH 0002H 0015H
00:003A 13-90 00-00'             3511   	st	er0,	NEAR _CF_Gyro_Counter
00:003E 13-90 00-00'             3512   	st	er0,	NEAR _CF_Gyro_Counter+02h
                                 3513   
                                 3514   ;;	Accel_PID_XRollCounter = 0;
                                 3515   CLINEA 0000H 0001H 05BDH 0002H 001CH
00:0042 13-90 00-00'             3516   	st	er0,	NEAR _Accel_PID_XRollCounter
                                 3517   
                                 3518   ;;	Accel_PID_YPitchCounter = 0;
                                 3519   CLINEA 0000H 0001H 05BEH 0002H 001DH
00:0046 13-90 00-00'             3520   	st	er0,	NEAR _Accel_PID_YPitchCounter
                                 3521   
                                 3522   ;;	Range_PIDCounter = 0;
                                 3523   CLINEA 0000H 0001H 05BFH 0002H 0016H
00:004A 13-90 00-00'             3524   	st	er0,	NEAR _Range_PIDCounter
                                 3525   CBLOCKEND 228 2 1491
                                 3526   
                                 3527   ;;}
                                 3528   CLINEA 0000H 0001H 05D3H 0001H 0001H
00:004E 1F-FE                    3529   	rt
                                 3530   CBLOCKEND 228 1 1491
                                 3531   CFUNCTIONEND 228
                                 3532   
                                 3533   
  --------------------------     3534   	rseg $$CalibrateGyro$main
                                 3535   CFUNCTION 229
                                 3536   
00:0000                          3537   _CalibrateGyro	:
                                 3538   CBLOCK 229 1 1494
                                 3539   
                                 3540   ;;void CalibrateGyro(void){
                                 3541   CLINEA 0000H 0001H 05D6H 0001H 0019H
00:0000 CE-F8                    3542   	push	lr
00:0002 5E-F4                    3543   	push	er4
                                 3544   CBLOCK 229 2 1494
                                 3545   CRET 0002H
                                 3546   CLOCAL 47H 0002H 0026H 0002H "i" 02H 00H 01H
                                 3547   
                                 3548   ;;	for(i = 0; i<150; i++)
                                 3549   CLINEA 0000H 0001H 05DAH 0002H 0017H
00:0004 00 E0                    3550   	mov	er0,	#0 
00:0006                          3551   _$L221 :
                                 3552   CBLOCK 229 3 1499
                                 3553   
                                 3554   ;;		SensorReturn[i] = 0x20;
                                 3555   CLINEA 0000H 0001H 05DCH 0003H 0019H
00:0006 20 02                    3556   	mov	r2,	#020h
00:0008 09-92 00-00'             3557   	st	r2,	NEAR _SensorReturn[er0]
                                 3558   CBLOCKEND 229 3 1501
                                 3559   
                                 3560   ;;	for(i = 0; i<150; i++)
                                 3561   CLINEA 0000H 0000H 05DAH 0002H 0017H
00:000C 81 E0                    3562   	add	er0,	#1 
00:000E 96 70                    3563   	cmp	r0,	#096h
00:0010 00 51                    3564   	cmpc	r1,	#00h
00:0012 F9 C5                    3565   	blts	_$L221
                                 3566   
                                 3567   ;;	sprintf(SensorReturn, "Gyro Calibration: Please Keep the Quad Flat and Return Any 2 chars to Start");
                                 3568   CLINEA 0000H 0001H 05DEH 0002H 0066H
00:0014 00'00                    3569   	mov	r0,	#BYTE1 OFFSET $$S225
00:0016 00'01                    3570   	mov	r1,	#BYTE2 OFFSET $$S225
00:0018 5E-F0                    3571   	push	er0
00:001A 00'00                    3572   	mov	r0,	#BYTE1 OFFSET _SensorReturn
00:001C 00'01                    3573   	mov	r1,	#BYTE2 OFFSET _SensorReturn
00:001E 5E-F0                    3574   	push	er0
00:0020 01-F0'00-00'             3575   	bl	_sprintf_nn
00:0024 04 E1                    3576   	add	sp,	#4 
                                 3577   
                                 3578   ;;	SensorReturn[148] = 0x0D;
                                 3579   CLINEA 0000H 0001H 05E0H 0002H 001AH
00:0026 0D 00                    3580   	mov	r0,	#0dh
00:0028 11-90 00-00'             3581   	st	r0,	NEAR _SensorReturn+094h
                                 3582   
                                 3583   ;;	SensorReturn[149] = 0x0A;
                                 3584   CLINEA 0000H 0001H 05E1H 0002H 001AH
00:002C 0A 00                    3585   	mov	r0,	#0ah
00:002E 11-90 00-00'             3586   	st	r0,	NEAR _SensorReturn+095h
                                 3587   
                                 3588   ;;	_flgUartFin = 0;
                                 3589   CLINEA 0000H 0001H 05E3H 0002H 0011H
00:0032 00 00                    3590   	mov	r0,	#00h
00:0034 11-90 00-00'             3591   	st	r0,	NEAR __flgUartFin
                                 3592   
                                 3593   ;;	uart_stop();
                                 3594   CLINEA 0000H 0001H 05E4H 0002H 000DH
00:0038 01-F0'00-00'             3595   	bl	_uart_stop
                                 3596   
                                 3597   ;;	uart_startSend(SensorReturn, 150, _funcUartFin);
                                 3598   CLINEA 0000H 0001H 05E5H 0002H 0031H
00:003C 00'00                    3599   	mov	r0,	#BYTE1 OFFSET __funcUartFin
00:003E 00'01                    3600   	mov	r1,	#BYTE2 OFFSET __funcUartFin
00:0040 5E-F0                    3601   	push	er0
00:0042 96 02                    3602   	mov	r2,	#096h
00:0044 00 03                    3603   	mov	r3,	#00h
00:0046 00'00                    3604   	mov	r0,	#BYTE1 OFFSET _SensorReturn
00:0048 00'01                    3605   	mov	r1,	#BYTE2 OFFSET _SensorReturn
00:004A 01-F0'00-00'             3606   	bl	_uart_startSend
00:004E 02 E1                    3607   	add	sp,	#2 
                                 3608   
                                 3609   ;;	while(_flgUartFin != 1){
                                 3610   CLINEA 0000H 0000H 05E6H 0001H 0001H
00:0050 04 CE                    3611   	bal	_$L255
                                 3612   
                                 3613   ;;	while(_flgUartFin != 1){
                                 3614   CLINEA 0000H 0000H 05E6H 0002H 0019H
00:0052                          3615   _$L228 :
                                 3616   CBLOCK 229 4 1510
                                 3617   
                                 3618   ;;		NOP1000();
                                 3619   CLINEA 0000H 0001H 05E7H 0003H 000CH
00:0052 01-F0'00-00'             3620   	bl	_NOP1000
                                 3621   
                                 3622   ;;		main_clrWDT();
                                 3623   CLINEA 0000H 0001H 05E8H 0003H 0010H
00:0056 01-F0'00-00'             3624   	bl	_main_clrWDT
                                 3625   CBLOCKEND 229 4 1513
                                 3626   
                                 3627   ;;	while(_flgUartFin != 1){
                                 3628   CLINEA 0000H 0000H 05E6H 0001H 0001H
00:005A                          3629   _$L255 :
00:005A 10-90 00-00'             3630   	l	r0,	NEAR __flgUartFin
00:005E 01 70                    3631   	cmp	r0,	#01h
00:0060 F8 C8                    3632   	bne	_$L228
                                 3633   
                                 3634   ;;	_flgUartFin = 0;
                                 3635   CLINEA 0000H 0001H 05ECH 0002H 0011H
00:0062 00 00                    3636   	mov	r0,	#00h
00:0064 11-90 00-00'             3637   	st	r0,	NEAR __flgUartFin
                                 3638   
                                 3639   ;;	uart_stop();
                                 3640   CLINEA 0000H 0001H 05EDH 0002H 000DH
00:0068 01-F0'00-00'             3641   	bl	_uart_stop
                                 3642   
                                 3643   ;;	uart_startReceive(RecWorld, 2, _funcUartFin);
                                 3644   CLINEA 0000H 0001H 05EEH 0002H 002EH
00:006C 00'00                    3645   	mov	r0,	#BYTE1 OFFSET __funcUartFin
00:006E 00'01                    3646   	mov	r1,	#BYTE2 OFFSET __funcUartFin
00:0070 5E-F0                    3647   	push	er0
00:0072 02 E2                    3648   	mov	er2,	#2 
00:0074 00'00                    3649   	mov	r0,	#BYTE1 OFFSET _RecWorld
00:0076 00'01                    3650   	mov	r1,	#BYTE2 OFFSET _RecWorld
00:0078 01-F0'00-00'             3651   	bl	_uart_startReceive
00:007C 02 E1                    3652   	add	sp,	#2 
                                 3653   
                                 3654   ;;	while(_flgUartFin != 1){
                                 3655   CLINEA 0000H 0000H 05EFH 0001H 0001H
00:007E 02 CE                    3656   	bal	_$L256
                                 3657   
                                 3658   ;;	while(_flgUartFin != 1){
                                 3659   CLINEA 0000H 0000H 05EFH 0002H 0019H
00:0080                          3660   _$L232 :
                                 3661   CBLOCK 229 5 1519
                                 3662   
                                 3663   ;;		main_clrWDT();
                                 3664   CLINEA 0000H 0001H 05F0H 0003H 0010H
00:0080 01-F0'00-00'             3665   	bl	_main_clrWDT
                                 3666   CBLOCKEND 229 5 1521
                                 3667   
                                 3668   ;;	while(_flgUartFin != 1){
                                 3669   CLINEA 0000H 0000H 05EFH 0001H 0001H
00:0084                          3670   _$L256 :
00:0084 10-90 00-00'             3671   	l	r0,	NEAR __flgUartFin
00:0088 01 70                    3672   	cmp	r0,	#01h
00:008A FA C8                    3673   	bne	_$L232
                                 3674   
                                 3675   ;;	i = 0;
                                 3676   CLINEA 0000H 0001H 05F3H 0002H 0007H
00:008C 00 E4                    3677   	mov	er4,	#0 
                                 3678   
                                 3679   ;;	EPB3 = 1;					//Enable Accel/Gyro Interrupt Pin
                                 3680   CLINEA 0000H 0001H 05F5H 0002H 0030H
00:008E F0-A0 11-F0              3681   	sb	0f011h.7
                                 3682   
                                 3683   ;;	while(i < 10){
                                 3684   CLINEA 0000H 0000H 05F6H 0002H 000FH
00:0092                          3685   _$L236 :
                                 3686   CBLOCK 229 6 1526
                                 3687   
                                 3688   ;;		if(AccGyro_ReadFlag >= 1){		//Triggered by External Interrupt (flag set in AccelGyroDataReady_ISR)
                                 3689   CLINEA 0000H 0001H 05F7H 0003H 0064H
00:0092 10-90 00-00'             3690   	l	r0,	NEAR _AccGyro_ReadFlag
00:0096 01 70                    3691   	cmp	r0,	#01h
00:0098 02 C0                    3692   	bge	_$M16
00:009A 00-F0'00-00'             3693   	b	_$L238
00:009E                          3694   _$M16 :
                                 3695   CBLOCK 229 7 1527
                                 3696   
                                 3697   ;;			_flgI2CFin = 0;																	//reset I2C completed Flag
                                 3698   CLINEA 0000H 0001H 05FBH 0004H 003DH
00:009E 00 00                    3699   	mov	r0,	#00h
00:00A0 11-90 00-00'             3700   	st	r0,	NEAR __flgI2CFin
                                 3701   
                                 3702   ;;			i2c_stop();																		//Make sure I2C is not currently running
                                 3703   CLINEA 0000H 0001H 05FCH 0004H 0048H
00:00A4 01-F0'00-00'             3704   	bl	_i2c_stop
                                 3705   
                                 3706   ;;			I20MD = 1;		//Switch to I2C Fast Operation (400kbps)
                                 3707   CLINEA 0000H 0001H 05FDH 0004H 0037H
00:00A8 90-A0 A4-F2              3708   	sb	0f2a4h.1
                                 3709   
                                 3710   ;;			i2c_startReceive(MPU6050Address, &AccGyro_ReadData, 1, &AccGyro_Data, 14, (cbfI2c)_funcI2CFin);	//Begin I2C Receive Command
                                 3711   CLINEA 0000H 0001H 05FEH 0004H 007EH
00:00AC 00'00                    3712   	mov	r0,	#BYTE1 OFFSET __funcI2CFin
00:00AE 00'01                    3713   	mov	r1,	#BYTE2 OFFSET __funcI2CFin
00:00B0 5E-F0                    3714   	push	er0
00:00B2 0E E0                    3715   	mov	er0,	#14
00:00B4 5E-F0                    3716   	push	er0
00:00B6 00'00                    3717   	mov	r0,	#BYTE1 OFFSET _AccGyro_Data
00:00B8 00'01                    3718   	mov	r1,	#BYTE2 OFFSET _AccGyro_Data
00:00BA 5E-F0                    3719   	push	er0
00:00BC 01 E0                    3720   	mov	er0,	#1 
00:00BE 5E-F0                    3721   	push	er0
00:00C0 00'02                    3722   	mov	r2,	#BYTE1 OFFSET _AccGyro_ReadData
00:00C2 00'03                    3723   	mov	r3,	#BYTE2 OFFSET _AccGyro_ReadData
00:00C4 10-90 00-00'             3724   	l	r0,	NEAR _MPU6050Address
00:00C8 01-F0'00-00'             3725   	bl	_i2c_startReceive
00:00CC 08 E1                    3726   	add	sp,	#8 
                                 3727   
                                 3728   ;;			while(_flgI2CFin != 1){															//Wait for I2C commands to finish transfer
                                 3729   CLINEA 0000H 0000H 05FFH 0001H 0001H
00:00CE 02 CE                    3730   	bal	_$L257
                                 3731   
                                 3732   ;;			while(_flgI2CFin != 1){															//Wait for I2C commands to finish transfer
                                 3733   CLINEA 0000H 0000H 05FFH 0004H 0053H
00:00D0                          3734   _$L242 :
                                 3735   CBLOCK 229 8 1535
                                 3736   
                                 3737   ;;				main_clrWDT();	
                                 3738   CLINEA 0000H 0001H 0600H 0005H 0013H
00:00D0 01-F0'00-00'             3739   	bl	_main_clrWDT
                                 3740   CBLOCKEND 229 8 1537
                                 3741   
                                 3742   ;;			while(_flgI2CFin != 1){															//Wait for I2C commands to finish transfer
                                 3743   CLINEA 0000H 0000H 05FFH 0001H 0001H
00:00D4                          3744   _$L257 :
00:00D4 10-90 00-00'             3745   	l	r0,	NEAR __flgI2CFin
00:00D8 01 70                    3746   	cmp	r0,	#01h
00:00DA FA C8                    3747   	bne	_$L242
                                 3748   
                                 3749   ;;			Gyro_Xcal += (AccGyro_Data[8]<<8)+(AccGyro_Data[9]);
                                 3750   CLINEA 0000H 0001H 0605H 0004H 0037H
00:00DC 10-90 00-00'             3751   	l	r0,	NEAR _AccGyro_Data+08h
00:00E0 00 01                    3752   	mov	r1,	#00h
00:00E2 00-83                    3753   	mov	r3,	r0
00:00E4 00 02                    3754   	mov	r2,	#00h
00:00E6 10-90 00-00'             3755   	l	r0,	NEAR _AccGyro_Data+09h
00:00EA 26-F0                    3756   	add	er0,	er2
00:00EC 10-82                    3757   	mov	r2,	r1
00:00EE 2F-83                    3758   	extbw	er2
00:00F0 30-82                    3759   	mov	r2,	r3
00:00F2 6E-F0                    3760   	push	xr0
00:00F4 01-F0'00-00'             3761   	bl	__fildu8sw
00:00F8 12-90 00-00'             3762   	l	er0,	NEAR _Gyro_Xcal
00:00FC 12-92 00-00'             3763   	l	er2,	NEAR _Gyro_Xcal+02h
00:0100 6E-F0                    3764   	push	xr0
00:0102 01-F0'00-00'             3765   	bl	__faddu8sw
00:0106 04 E1                    3766   	add	sp,	#4 
00:0108 2E-F0                    3767   	pop	xr0
00:010A 13-90 00-00'             3768   	st	er0,	NEAR _Gyro_Xcal
00:010E 13-92 00-00'             3769   	st	er2,	NEAR _Gyro_Xcal+02h
                                 3770   
                                 3771   ;;			Gyro_Ycal += (AccGyro_Data[10]<<8)+(AccGyro_Data[11]);
                                 3772   CLINEA 0000H 0001H 0606H 0004H 0039H
00:0112 10-90 00-00'             3773   	l	r0,	NEAR _AccGyro_Data+0ah
00:0116 00 01                    3774   	mov	r1,	#00h
00:0118 00-83                    3775   	mov	r3,	r0
00:011A 00 02                    3776   	mov	r2,	#00h
00:011C 10-90 00-00'             3777   	l	r0,	NEAR _AccGyro_Data+0bh
00:0120 26-F0                    3778   	add	er0,	er2
00:0122 10-82                    3779   	mov	r2,	r1
00:0124 2F-83                    3780   	extbw	er2
00:0126 30-82                    3781   	mov	r2,	r3
00:0128 6E-F0                    3782   	push	xr0
00:012A 01-F0'00-00'             3783   	bl	__fildu8sw
00:012E 12-90 00-00'             3784   	l	er0,	NEAR _Gyro_Ycal
00:0132 12-92 00-00'             3785   	l	er2,	NEAR _Gyro_Ycal+02h
00:0136 6E-F0                    3786   	push	xr0
00:0138 01-F0'00-00'             3787   	bl	__faddu8sw
00:013C 04 E1                    3788   	add	sp,	#4 
00:013E 2E-F0                    3789   	pop	xr0
00:0140 13-90 00-00'             3790   	st	er0,	NEAR _Gyro_Ycal
00:0144 13-92 00-00'             3791   	st	er2,	NEAR _Gyro_Ycal+02h
                                 3792   
                                 3793   ;;			Gyro_Zcal += (AccGyro_Data[12]<<8)+(AccGyro_Data[13]);
                                 3794   CLINEA 0000H 0001H 0607H 0004H 0039H
00:0148 10-90 00-00'             3795   	l	r0,	NEAR _AccGyro_Data+0ch
00:014C 00 01                    3796   	mov	r1,	#00h
00:014E 00-83                    3797   	mov	r3,	r0
00:0150 00 02                    3798   	mov	r2,	#00h
00:0152 10-90 00-00'             3799   	l	r0,	NEAR _AccGyro_Data+0dh
00:0156 26-F0                    3800   	add	er0,	er2
00:0158 10-82                    3801   	mov	r2,	r1
00:015A 2F-83                    3802   	extbw	er2
00:015C 30-82                    3803   	mov	r2,	r3
00:015E 6E-F0                    3804   	push	xr0
00:0160 01-F0'00-00'             3805   	bl	__fildu8sw
00:0164 12-90 00-00'             3806   	l	er0,	NEAR _Gyro_Zcal
00:0168 12-92 00-00'             3807   	l	er2,	NEAR _Gyro_Zcal+02h
00:016C 6E-F0                    3808   	push	xr0
00:016E 01-F0'00-00'             3809   	bl	__faddu8sw
00:0172 04 E1                    3810   	add	sp,	#4 
00:0174 2E-F0                    3811   	pop	xr0
00:0176 13-90 00-00'             3812   	st	er0,	NEAR _Gyro_Zcal
00:017A 13-92 00-00'             3813   	st	er2,	NEAR _Gyro_Zcal+02h
                                 3814   
                                 3815   ;;			Accel_Xcal[0] += (AccGyro_Data[0]<<8)+(AccGyro_Data[1]);
                                 3816   CLINEA 0000H 0001H 0608H 0004H 003BH
00:017E 10-90 00-00'             3817   	l	r0,	NEAR _AccGyro_Data+01h
00:0182 00 01                    3818   	mov	r1,	#00h
00:0184 10-92 00-00'             3819   	l	r2,	NEAR _AccGyro_Data
00:0188 20-83                    3820   	mov	r3,	r2
00:018A 00 02                    3821   	mov	r2,	#00h
00:018C 26-F0                    3822   	add	er0,	er2
00:018E 10-82                    3823   	mov	r2,	r1
00:0190 2F-83                    3824   	extbw	er2
00:0192 30-82                    3825   	mov	r2,	r3
00:0194 6E-F0                    3826   	push	xr0
00:0196 01-F0'00-00'             3827   	bl	__fildu8sw
00:019A 12-90 00-00'             3828   	l	er0,	NEAR _Accel_Xcal
00:019E 12-92 00-00'             3829   	l	er2,	NEAR _Accel_Xcal+02h
00:01A2 6E-F0                    3830   	push	xr0
00:01A4 01-F0'00-00'             3831   	bl	__faddu8sw
00:01A8 04 E1                    3832   	add	sp,	#4 
00:01AA 2E-F0                    3833   	pop	xr0
00:01AC 13-90 00-00'             3834   	st	er0,	NEAR _Accel_Xcal
00:01B0 13-92 00-00'             3835   	st	er2,	NEAR _Accel_Xcal+02h
                                 3836   
                                 3837   ;;			Accel_Ycal[0] += (AccGyro_Data[2]<<8)+(AccGyro_Data[3]);
                                 3838   CLINEA 0000H 0001H 0609H 0004H 003BH
00:01B4 10-90 00-00'             3839   	l	r0,	NEAR _AccGyro_Data+02h
00:01B8 00 01                    3840   	mov	r1,	#00h
00:01BA 00-83                    3841   	mov	r3,	r0
00:01BC 00 02                    3842   	mov	r2,	#00h
00:01BE 10-90 00-00'             3843   	l	r0,	NEAR _AccGyro_Data+03h
00:01C2 26-F0                    3844   	add	er0,	er2
00:01C4 10-82                    3845   	mov	r2,	r1
00:01C6 2F-83                    3846   	extbw	er2
00:01C8 30-82                    3847   	mov	r2,	r3
00:01CA 6E-F0                    3848   	push	xr0
00:01CC 01-F0'00-00'             3849   	bl	__fildu8sw
00:01D0 12-90 00-00'             3850   	l	er0,	NEAR _Accel_Ycal
00:01D4 12-92 00-00'             3851   	l	er2,	NEAR _Accel_Ycal+02h
00:01D8 6E-F0                    3852   	push	xr0
00:01DA 01-F0'00-00'             3853   	bl	__faddu8sw
00:01DE 04 E1                    3854   	add	sp,	#4 
00:01E0 2E-F0                    3855   	pop	xr0
00:01E2 13-90 00-00'             3856   	st	er0,	NEAR _Accel_Ycal
00:01E6 13-92 00-00'             3857   	st	er2,	NEAR _Accel_Ycal+02h
                                 3858   
                                 3859   ;;			i++;
                                 3860   CLINEA 0000H 0000H 060AH 0004H 0007H
00:01EA 81 E4                    3861   	add	er4,	#1 
                                 3862   CBLOCKEND 229 7 1547
                                 3863   
                                 3864   ;;		}
                                 3865   CLINEA 0000H 0000H 060BH 0003H 0003H
00:01EC                          3866   _$L238 :
                                 3867   CBLOCKEND 229 6 1548
                                 3868   
                                 3869   ;;	while(i < 10){
                                 3870   CLINEA 0000H 0000H 05F6H 0000H 0000H
00:01EC 0A 74                    3871   	cmp	r4,	#0ah
00:01EE 00 55                    3872   	cmpc	r5,	#00h
00:01F0 02 C4                    3873   	bges	_$M17
00:01F2 00-F0'00-00'             3874   	b	_$L236
00:01F6                          3875   _$M17 :
                                 3876   
                                 3877   ;;	Gyro_Xcal /= 10;
                                 3878   CLINEA 0000H 0001H 060DH 0002H 0011H
00:01F6 12-90 00-00'             3879   	l	er0,	NEAR _Gyro_Xcal
00:01FA 12-92 00-00'             3880   	l	er2,	NEAR _Gyro_Xcal+02h
00:01FE 6E-F0                    3881   	push	xr0
00:0200 00 E0                    3882   	mov	er0,	#0 
00:0202 20 02                    3883   	mov	r2,	#020h
00:0204 41 03                    3884   	mov	r3,	#041h
00:0206 6E-F0                    3885   	push	xr0
00:0208 01-F0'00-00'             3886   	bl	__fdivu8sw
00:020C 04 E1                    3887   	add	sp,	#4 
00:020E 2E-F0                    3888   	pop	xr0
00:0210 13-90 00-00'             3889   	st	er0,	NEAR _Gyro_Xcal
00:0214 13-92 00-00'             3890   	st	er2,	NEAR _Gyro_Xcal+02h
                                 3891   
                                 3892   ;;	Gyro_Ycal /= 10;
                                 3893   CLINEA 0000H 0001H 060EH 0002H 0011H
00:0218 12-90 00-00'             3894   	l	er0,	NEAR _Gyro_Ycal
00:021C 12-92 00-00'             3895   	l	er2,	NEAR _Gyro_Ycal+02h
00:0220 6E-F0                    3896   	push	xr0
00:0222 00 E0                    3897   	mov	er0,	#0 
00:0224 20 02                    3898   	mov	r2,	#020h
00:0226 41 03                    3899   	mov	r3,	#041h
00:0228 6E-F0                    3900   	push	xr0
00:022A 01-F0'00-00'             3901   	bl	__fdivu8sw
00:022E 04 E1                    3902   	add	sp,	#4 
00:0230 2E-F0                    3903   	pop	xr0
00:0232 13-90 00-00'             3904   	st	er0,	NEAR _Gyro_Ycal
00:0236 13-92 00-00'             3905   	st	er2,	NEAR _Gyro_Ycal+02h
                                 3906   
                                 3907   ;;	Gyro_Zcal /= 10;
                                 3908   CLINEA 0000H 0001H 060FH 0002H 0011H
00:023A 12-90 00-00'             3909   	l	er0,	NEAR _Gyro_Zcal
00:023E 12-92 00-00'             3910   	l	er2,	NEAR _Gyro_Zcal+02h
00:0242 6E-F0                    3911   	push	xr0
00:0244 00 E0                    3912   	mov	er0,	#0 
00:0246 20 02                    3913   	mov	r2,	#020h
00:0248 41 03                    3914   	mov	r3,	#041h
00:024A 6E-F0                    3915   	push	xr0
00:024C 01-F0'00-00'             3916   	bl	__fdivu8sw
00:0250 04 E1                    3917   	add	sp,	#4 
00:0252 2E-F0                    3918   	pop	xr0
00:0254 13-90 00-00'             3919   	st	er0,	NEAR _Gyro_Zcal
00:0258 13-92 00-00'             3920   	st	er2,	NEAR _Gyro_Zcal+02h
                                 3921   
                                 3922   ;;	Accel_Xcal[0] /= 10;
                                 3923   CLINEA 0000H 0001H 0610H 0002H 0015H
00:025C 12-90 00-00'             3924   	l	er0,	NEAR _Accel_Xcal
00:0260 12-92 00-00'             3925   	l	er2,	NEAR _Accel_Xcal+02h
00:0264 6E-F0                    3926   	push	xr0
00:0266 00 E0                    3927   	mov	er0,	#0 
00:0268 20 02                    3928   	mov	r2,	#020h
00:026A 41 03                    3929   	mov	r3,	#041h
00:026C 6E-F0                    3930   	push	xr0
00:026E 01-F0'00-00'             3931   	bl	__fdivu8sw
00:0272 04 E1                    3932   	add	sp,	#4 
00:0274 2E-F0                    3933   	pop	xr0
00:0276 13-90 00-00'             3934   	st	er0,	NEAR _Accel_Xcal
00:027A 13-92 00-00'             3935   	st	er2,	NEAR _Accel_Xcal+02h
                                 3936   
                                 3937   ;;	Accel_Ycal[0] /= 10;
                                 3938   CLINEA 0000H 0001H 0611H 0002H 0015H
00:027E 12-90 00-00'             3939   	l	er0,	NEAR _Accel_Ycal
00:0282 12-92 00-00'             3940   	l	er2,	NEAR _Accel_Ycal+02h
00:0286 6E-F0                    3941   	push	xr0
00:0288 00 E0                    3942   	mov	er0,	#0 
00:028A 20 02                    3943   	mov	r2,	#020h
00:028C 41 03                    3944   	mov	r3,	#041h
00:028E 6E-F0                    3945   	push	xr0
00:0290 01-F0'00-00'             3946   	bl	__fdivu8sw
00:0294 04 E1                    3947   	add	sp,	#4 
00:0296 2E-F0                    3948   	pop	xr0
00:0298 13-90 00-00'             3949   	st	er0,	NEAR _Accel_Ycal
00:029C 13-92 00-00'             3950   	st	er2,	NEAR _Accel_Ycal+02h
                                 3951   
                                 3952   ;;	EPB3 = 0;					//Enable Accel/Gyro Interrupt Pin
                                 3953   CLINEA 0000H 0001H 0612H 0002H 0030H
00:02A0 F2-A0 11-F0              3954   	rb	0f011h.7
                                 3955   
                                 3956   ;;	for(i = 0; i<150; i++)
                                 3957   CLINEA 0000H 0001H 062CH 0002H 0017H
00:02A4 00 E0                    3958   	mov	er0,	#0 
00:02A6                          3959   _$L246 :
                                 3960   CBLOCK 229 9 1581
                                 3961   
                                 3962   ;;		SensorReturn[i] = 0x20;
                                 3963   CLINEA 0000H 0001H 062EH 0003H 0019H
00:02A6 20 02                    3964   	mov	r2,	#020h
00:02A8 09-92 00-00'             3965   	st	r2,	NEAR _SensorReturn[er0]
                                 3966   CBLOCKEND 229 9 1583
                                 3967   
                                 3968   ;;	for(i = 0; i<150; i++)
                                 3969   CLINEA 0000H 0000H 062CH 0002H 0017H
00:02AC 81 E0                    3970   	add	er0,	#1 
00:02AE 96 70                    3971   	cmp	r0,	#096h
00:02B0 00 51                    3972   	cmpc	r1,	#00h
00:02B2 F9 C5                    3973   	blts	_$L246
                                 3974   
                                 3975   ;;	sprintf(SensorReturn, "Gyro Calibration Complete!");
                                 3976   CLINEA 0000H 0001H 0630H 0002H 0035H
00:02B4 00'00                    3977   	mov	r0,	#BYTE1 OFFSET $$S250
00:02B6 00'01                    3978   	mov	r1,	#BYTE2 OFFSET $$S250
00:02B8 5E-F0                    3979   	push	er0
00:02BA 00'00                    3980   	mov	r0,	#BYTE1 OFFSET _SensorReturn
00:02BC 00'01                    3981   	mov	r1,	#BYTE2 OFFSET _SensorReturn
00:02BE 5E-F0                    3982   	push	er0
00:02C0 01-F0'00-00'             3983   	bl	_sprintf_nn
00:02C4 04 E1                    3984   	add	sp,	#4 
                                 3985   
                                 3986   ;;	SensorReturn[148] = 0x0D;
                                 3987   CLINEA 0000H 0001H 0631H 0002H 001AH
00:02C6 0D 00                    3988   	mov	r0,	#0dh
00:02C8 11-90 00-00'             3989   	st	r0,	NEAR _SensorReturn+094h
                                 3990   
                                 3991   ;;	SensorReturn[149] = 0x0A;
                                 3992   CLINEA 0000H 0001H 0632H 0002H 001AH
00:02CC 0A 00                    3993   	mov	r0,	#0ah
00:02CE 11-90 00-00'             3994   	st	r0,	NEAR _SensorReturn+095h
                                 3995   
                                 3996   ;;	_flgUartFin = 0;
                                 3997   CLINEA 0000H 0001H 0634H 0002H 0011H
00:02D2 00 00                    3998   	mov	r0,	#00h
00:02D4 11-90 00-00'             3999   	st	r0,	NEAR __flgUartFin
                                 4000   
                                 4001   ;;	uart_stop();
                                 4002   CLINEA 0000H 0001H 0635H 0002H 000DH
00:02D8 01-F0'00-00'             4003   	bl	_uart_stop
                                 4004   
                                 4005   ;;	uart_startSend(SensorReturn, 150, _funcUartFin);
                                 4006   CLINEA 0000H 0001H 0636H 0002H 0031H
00:02DC 00'00                    4007   	mov	r0,	#BYTE1 OFFSET __funcUartFin
00:02DE 00'01                    4008   	mov	r1,	#BYTE2 OFFSET __funcUartFin
00:02E0 5E-F0                    4009   	push	er0
00:02E2 96 02                    4010   	mov	r2,	#096h
00:02E4 00 03                    4011   	mov	r3,	#00h
00:02E6 00'00                    4012   	mov	r0,	#BYTE1 OFFSET _SensorReturn
00:02E8 00'01                    4013   	mov	r1,	#BYTE2 OFFSET _SensorReturn
00:02EA 01-F0'00-00'             4014   	bl	_uart_startSend
00:02EE 02 E1                    4015   	add	sp,	#2 
                                 4016   
                                 4017   ;;	while(_flgUartFin != 1){
                                 4018   CLINEA 0000H 0000H 0637H 0001H 0001H
00:02F0 04 CE                    4019   	bal	_$L258
                                 4020   
                                 4021   ;;	while(_flgUartFin != 1){
                                 4022   CLINEA 0000H 0000H 0637H 0002H 0019H
00:02F2                          4023   _$L253 :
                                 4024   CBLOCK 229 10 1591
                                 4025   
                                 4026   ;;		NOP1000();
                                 4027   CLINEA 0000H 0001H 0638H 0003H 000CH
00:02F2 01-F0'00-00'             4028   	bl	_NOP1000
                                 4029   
                                 4030   ;;		main_clrWDT();
                                 4031   CLINEA 0000H 0001H 0639H 0003H 0010H
00:02F6 01-F0'00-00'             4032   	bl	_main_clrWDT
                                 4033   CBLOCKEND 229 10 1594
                                 4034   
                                 4035   ;;	while(_flgUartFin != 1){
                                 4036   CLINEA 0000H 0000H 0637H 0001H 0001H
00:02FA                          4037   _$L258 :
00:02FA 10-90 00-00'             4038   	l	r0,	NEAR __flgUartFin
00:02FE 01 70                    4039   	cmp	r0,	#01h
00:0300 F8 C8                    4040   	bne	_$L253
                                 4041   CBLOCKEND 229 2 1595
                                 4042   
                                 4043   ;;}
                                 4044   CLINEA 0000H 0001H 063BH 0001H 0001H
00:0302 1E-F4                    4045   	pop	er4
00:0304 8E-F2                    4046   	pop	pc
                                 4047   CBLOCKEND 229 1 1595
                                 4048   CFUNCTIONEND 229
                                 4049   
                                 4050   
  --------------------------     4051   	rseg $$CalibrateAccel$main
                                 4052   CFUNCTION 230
                                 4053   
00:0000                          4054   _CalibrateAccel	:
                                 4055   CBLOCK 230 1 1597
                                 4056   
                                 4057   ;;void CalibrateAccel(void){
                                 4058   CLINEA 0000H 0001H 063DH 0001H 001AH
00:0000 CE-F8                    4059   	push	lr
00:0002 5E-F8                    4060   	push	er8
                                 4061   CBLOCK 230 2 1597
                                 4062   CRET 0002H
                                 4063   CLOCAL 47H 0002H 0028H 0002H "i" 02H 00H 01H
                                 4064   
                                 4065   ;;	for(i = 0; i<150; i++)
                                 4066   CLINEA 0000H 0001H 0641H 0002H 0017H
00:0004 00 E0                    4067   	mov	er0,	#0 
00:0006                          4068   _$L262 :
                                 4069   CBLOCK 230 3 1602
                                 4070   
                                 4071   ;;		SensorReturn[i] = 0x20;
                                 4072   CLINEA 0000H 0001H 0643H 0003H 0019H
00:0006 20 02                    4073   	mov	r2,	#020h
00:0008 09-92 00-00'             4074   	st	r2,	NEAR _SensorReturn[er0]
                                 4075   CBLOCKEND 230 3 1604
                                 4076   
                                 4077   ;;	for(i = 0; i<150; i++)
                                 4078   CLINEA 0000H 0000H 0641H 0002H 0017H
00:000C 81 E0                    4079   	add	er0,	#1 
00:000E 96 70                    4080   	cmp	r0,	#096h
00:0010 00 51                    4081   	cmpc	r1,	#00h
00:0012 F9 C5                    4082   	blts	_$L262
                                 4083   
                                 4084   ;;	sprintf(SensorReturn, "Accel Calibration: Keep Quad Flat! Return any 2 chars to Start");
                                 4085   CLINEA 0000H 0001H 0645H 0002H 0059H
00:0014 00'00                    4086   	mov	r0,	#BYTE1 OFFSET $$S266
00:0016 00'01                    4087   	mov	r1,	#BYTE2 OFFSET $$S266
00:0018 5E-F0                    4088   	push	er0
00:001A 00'00                    4089   	mov	r0,	#BYTE1 OFFSET _SensorReturn
00:001C 00'01                    4090   	mov	r1,	#BYTE2 OFFSET _SensorReturn
00:001E 5E-F0                    4091   	push	er0
00:0020 01-F0'00-00'             4092   	bl	_sprintf_nn
00:0024 04 E1                    4093   	add	sp,	#4 
                                 4094   
                                 4095   ;;	SensorReturn[148] = 0x0D;
                                 4096   CLINEA 0000H 0001H 0646H 0002H 001AH
00:0026 0D 00                    4097   	mov	r0,	#0dh
00:0028 11-90 00-00'             4098   	st	r0,	NEAR _SensorReturn+094h
                                 4099   
                                 4100   ;;	SensorReturn[149] = 0x0A;
                                 4101   CLINEA 0000H 0001H 0647H 0002H 001AH
00:002C 0A 00                    4102   	mov	r0,	#0ah
00:002E 11-90 00-00'             4103   	st	r0,	NEAR _SensorReturn+095h
                                 4104   
                                 4105   ;;	_flgUartFin = 0;
                                 4106   CLINEA 0000H 0001H 0649H 0002H 0011H
00:0032 00 00                    4107   	mov	r0,	#00h
00:0034 11-90 00-00'             4108   	st	r0,	NEAR __flgUartFin
                                 4109   
                                 4110   ;;	uart_stop();
                                 4111   CLINEA 0000H 0001H 064AH 0002H 000DH
00:0038 01-F0'00-00'             4112   	bl	_uart_stop
                                 4113   
                                 4114   ;;	uart_startSend(SensorReturn, 150, _funcUartFin);
                                 4115   CLINEA 0000H 0001H 064BH 0002H 0031H
00:003C 00'00                    4116   	mov	r0,	#BYTE1 OFFSET __funcUartFin
00:003E 00'01                    4117   	mov	r1,	#BYTE2 OFFSET __funcUartFin
00:0040 5E-F0                    4118   	push	er0
00:0042 96 02                    4119   	mov	r2,	#096h
00:0044 00 03                    4120   	mov	r3,	#00h
00:0046 00'00                    4121   	mov	r0,	#BYTE1 OFFSET _SensorReturn
00:0048 00'01                    4122   	mov	r1,	#BYTE2 OFFSET _SensorReturn
00:004A 01-F0'00-00'             4123   	bl	_uart_startSend
00:004E 02 E1                    4124   	add	sp,	#2 
                                 4125   
                                 4126   ;;	while(_flgUartFin != 1){
                                 4127   CLINEA 0000H 0000H 064CH 0001H 0001H
00:0050 04 CE                    4128   	bal	_$L352
                                 4129   
                                 4130   ;;	while(_flgUartFin != 1){
                                 4131   CLINEA 0000H 0000H 064CH 0002H 0019H
00:0052                          4132   _$L269 :
                                 4133   CBLOCK 230 4 1612
                                 4134   
                                 4135   ;;		NOP1000();
                                 4136   CLINEA 0000H 0001H 064DH 0003H 000CH
00:0052 01-F0'00-00'             4137   	bl	_NOP1000
                                 4138   
                                 4139   ;;		main_clrWDT();
                                 4140   CLINEA 0000H 0001H 064EH 0003H 0010H
00:0056 01-F0'00-00'             4141   	bl	_main_clrWDT
                                 4142   CBLOCKEND 230 4 1615
                                 4143   
                                 4144   ;;	while(_flgUartFin != 1){
                                 4145   CLINEA 0000H 0000H 064CH 0001H 0001H
00:005A                          4146   _$L352 :
00:005A 10-90 00-00'             4147   	l	r0,	NEAR __flgUartFin
00:005E 01 70                    4148   	cmp	r0,	#01h
00:0060 F8 C8                    4149   	bne	_$L269
                                 4150   
                                 4151   ;;	_flgUartFin = 0;
                                 4152   CLINEA 0000H 0001H 0651H 0002H 0011H
00:0062 00 00                    4153   	mov	r0,	#00h
00:0064 11-90 00-00'             4154   	st	r0,	NEAR __flgUartFin
                                 4155   
                                 4156   ;;	uart_stop();
                                 4157   CLINEA 0000H 0001H 0652H 0002H 000DH
00:0068 01-F0'00-00'             4158   	bl	_uart_stop
                                 4159   
                                 4160   ;;	uart_startReceive(RecWorld, 2, _funcUartFin);
                                 4161   CLINEA 0000H 0001H 0653H 0002H 002EH
00:006C 00'00                    4162   	mov	r0,	#BYTE1 OFFSET __funcUartFin
00:006E 00'01                    4163   	mov	r1,	#BYTE2 OFFSET __funcUartFin
00:0070 5E-F0                    4164   	push	er0
00:0072 02 E2                    4165   	mov	er2,	#2 
00:0074 00'00                    4166   	mov	r0,	#BYTE1 OFFSET _RecWorld
00:0076 00'01                    4167   	mov	r1,	#BYTE2 OFFSET _RecWorld
00:0078 01-F0'00-00'             4168   	bl	_uart_startReceive
00:007C 02 E1                    4169   	add	sp,	#2 
                                 4170   
                                 4171   ;;	while(_flgUartFin != 1){
                                 4172   CLINEA 0000H 0000H 0654H 0001H 0001H
00:007E 02 CE                    4173   	bal	_$L353
                                 4174   
                                 4175   ;;	while(_flgUartFin != 1){
                                 4176   CLINEA 0000H 0000H 0654H 0002H 0019H
00:0080                          4177   _$L273 :
                                 4178   CBLOCK 230 5 1620
                                 4179   
                                 4180   ;;		main_clrWDT();
                                 4181   CLINEA 0000H 0001H 0655H 0003H 0010H
00:0080 01-F0'00-00'             4182   	bl	_main_clrWDT
                                 4183   CBLOCKEND 230 5 1622
                                 4184   
                                 4185   ;;	while(_flgUartFin != 1){
                                 4186   CLINEA 0000H 0000H 0654H 0001H 0001H
00:0084                          4187   _$L353 :
                                 4188   
                                 4189   ;;	while(_flgUartFin != 1){
                                 4190   CLINEA 0000H 0000H 0654H 000DH 0011H
00:0084 10-90 00-00'             4191   	l	r0,	NEAR __flgUartFin
00:0088 01 70                    4192   	cmp	r0,	#01h
00:008A FA C8                    4193   	bne	_$L273
                                 4194   
                                 4195   ;;	for(i = 0; i<10; i++){
                                 4196   CLINEA 0000H 0001H 0658H 0006H 000BH
00:008C 00 E8                    4197   	mov	er8,	#0 
                                 4198   
                                 4199   ;;	for(i = 0; i<10; i++){
                                 4200   CLINEA 0000H 0000H 0658H 0013H 0015H
00:008E                          4201   _$L277 :
                                 4202   CBLOCK 230 6 1624
                                 4203   
                                 4204   ;;		_flgI2CFin = 0;																	//reset I2C completed Flag
                                 4205   CLINEA 0000H 0001H 065CH 0003H 003CH
00:008E 00 00                    4206   	mov	r0,	#00h
00:0090 11-90 00-00'             4207   	st	r0,	NEAR __flgI2CFin
                                 4208   
                                 4209   ;;		i2c_stop();																		//Make sure I2C is not currently running
                                 4210   CLINEA 0000H 0001H 065DH 0003H 0047H
00:0094 01-F0'00-00'             4211   	bl	_i2c_stop
                                 4212   
                                 4213   ;;		I20MD = 1;		//Switch to I2C Fast Operation (400kbps)
                                 4214   CLINEA 0000H 0001H 065EH 0003H 0036H
00:0098 90-A0 A4-F2              4215   	sb	0f2a4h.1
                                 4216   
                                 4217   ;;		i2c_startReceive(MPU6050Address, &AccGyro_ReadData, 1, &AccGyro_Data, 14, (cbfI2c)_funcI2CFin);	//Begin I2C Receive Command
                                 4218   CLINEA 0000H 0001H 065FH 0003H 007DH
00:009C 00'00                    4219   	mov	r0,	#BYTE1 OFFSET __funcI2CFin
00:009E 00'01                    4220   	mov	r1,	#BYTE2 OFFSET __funcI2CFin
00:00A0 5E-F0                    4221   	push	er0
00:00A2 0E E0                    4222   	mov	er0,	#14
00:00A4 5E-F0                    4223   	push	er0
00:00A6 00'00                    4224   	mov	r0,	#BYTE1 OFFSET _AccGyro_Data
00:00A8 00'01                    4225   	mov	r1,	#BYTE2 OFFSET _AccGyro_Data
00:00AA 5E-F0                    4226   	push	er0
00:00AC 01 E0                    4227   	mov	er0,	#1 
00:00AE 5E-F0                    4228   	push	er0
00:00B0 00'02                    4229   	mov	r2,	#BYTE1 OFFSET _AccGyro_ReadData
00:00B2 00'03                    4230   	mov	r3,	#BYTE2 OFFSET _AccGyro_ReadData
00:00B4 10-90 00-00'             4231   	l	r0,	NEAR _MPU6050Address
00:00B8 01-F0'00-00'             4232   	bl	_i2c_startReceive
00:00BC 08 E1                    4233   	add	sp,	#8 
                                 4234   
                                 4235   ;;		while(_flgI2CFin != 1){															//Wait for I2C commands to finish transfer
                                 4236   CLINEA 0000H 0000H 0660H 0001H 0001H
00:00BE 02 CE                    4237   	bal	_$L354
                                 4238   
                                 4239   ;;		while(_flgI2CFin != 1){															//Wait for I2C commands to finish transfer
                                 4240   CLINEA 0000H 0000H 0660H 0003H 0052H
00:00C0                          4241   _$L283 :
                                 4242   CBLOCK 230 7 1632
                                 4243   
                                 4244   ;;			main_clrWDT();	
                                 4245   CLINEA 0000H 0001H 0661H 0004H 0012H
00:00C0 01-F0'00-00'             4246   	bl	_main_clrWDT
                                 4247   CBLOCKEND 230 7 1634
                                 4248   
                                 4249   ;;		while(_flgI2CFin != 1){															//Wait for I2C commands to finish transfer
                                 4250   CLINEA 0000H 0000H 0660H 0001H 0001H
00:00C4                          4251   _$L354 :
                                 4252   
                                 4253   ;;		while(_flgI2CFin != 1){															//Wait for I2C commands to finish transfer
                                 4254   CLINEA 0000H 0000H 0660H 000DH 0011H
00:00C4 10-90 00-00'             4255   	l	r0,	NEAR __flgI2CFin
00:00C8 01 70                    4256   	cmp	r0,	#01h
00:00CA FA C8                    4257   	bne	_$L283
                                 4258   
                                 4259   ;;		Accel_Xcal[1] += (AccGyro_Data[0]<<8)+(AccGyro_Data[1]);
                                 4260   CLINEA 0000H 0001H 0667H 0003H 003AH
00:00CC 10-90 00-00'             4261   	l	r0,	NEAR _AccGyro_Data+01h
00:00D0 00 01                    4262   	mov	r1,	#00h
00:00D2 10-92 00-00'             4263   	l	r2,	NEAR _AccGyro_Data
00:00D6 20-83                    4264   	mov	r3,	r2
00:00D8 00 02                    4265   	mov	r2,	#00h
00:00DA 26-F0                    4266   	add	er0,	er2
00:00DC 10-82                    4267   	mov	r2,	r1
00:00DE 2F-83                    4268   	extbw	er2
00:00E0 30-82                    4269   	mov	r2,	r3
00:00E2 6E-F0                    4270   	push	xr0
00:00E4 01-F0'00-00'             4271   	bl	__fildu8sw
00:00E8 2E-F0                    4272   	pop	xr0
00:00EA 6E-F0                    4273   	push	xr0
00:00EC 12-90 00-00'             4274   	l	er0,	NEAR _Accel_Xcal+04h
00:00F0 12-92 00-00'             4275   	l	er2,	NEAR _Accel_Xcal+06h
00:00F4 6E-F0                    4276   	push	xr0
00:00F6 01-F0'00-00'             4277   	bl	__faddu8sw
00:00FA 04 E1                    4278   	add	sp,	#4 
00:00FC 2E-F0                    4279   	pop	xr0
00:00FE 13-90 00-00'             4280   	st	er0,	NEAR _Accel_Xcal+04h
00:0102 13-92 00-00'             4281   	st	er2,	NEAR _Accel_Xcal+06h
                                 4282   
                                 4283   ;;		Accel_Ycal[1] += (AccGyro_Data[2]<<8)+(AccGyro_Data[3]);
                                 4284   CLINEA 0000H 0001H 0668H 0003H 003AH
00:0106 10-90 00-00'             4285   	l	r0,	NEAR _AccGyro_Data+02h
00:010A 00 01                    4286   	mov	r1,	#00h
00:010C 00-83                    4287   	mov	r3,	r0
00:010E 00 02                    4288   	mov	r2,	#00h
00:0110 10-90 00-00'             4289   	l	r0,	NEAR _AccGyro_Data+03h
00:0114 26-F0                    4290   	add	er0,	er2
00:0116 10-82                    4291   	mov	r2,	r1
00:0118 2F-83                    4292   	extbw	er2
00:011A 30-82                    4293   	mov	r2,	r3
00:011C 6E-F0                    4294   	push	xr0
00:011E 01-F0'00-00'             4295   	bl	__fildu8sw
00:0122 2E-F0                    4296   	pop	xr0
00:0124 6E-F0                    4297   	push	xr0
00:0126 12-90 00-00'             4298   	l	er0,	NEAR _Accel_Ycal+04h
00:012A 12-92 00-00'             4299   	l	er2,	NEAR _Accel_Ycal+06h
00:012E 6E-F0                    4300   	push	xr0
00:0130 01-F0'00-00'             4301   	bl	__faddu8sw
00:0134 04 E1                    4302   	add	sp,	#4 
00:0136 2E-F0                    4303   	pop	xr0
00:0138 13-90 00-00'             4304   	st	er0,	NEAR _Accel_Ycal+04h
00:013C 13-92 00-00'             4305   	st	er2,	NEAR _Accel_Ycal+06h
                                 4306   CBLOCKEND 230 6 1641
                                 4307   
                                 4308   ;;	for(i = 0; i<10; i++){
                                 4309   CLINEA 0000H 0000H 0658H 0013H 0015H
00:0140 81 E8                    4310   	add	er8,	#1 
                                 4311   
                                 4312   ;;	for(i = 0; i<10; i++){
                                 4313   CLINEA 0000H 0000H 0658H 000DH 0011H
00:0142 0A 78                    4314   	cmp	r8,	#0ah
00:0144 00 59                    4315   	cmpc	r9,	#00h
00:0146 02 C4                    4316   	bges	_$M19
00:0148 00-F0'00-00'             4317   	b	_$L277
00:014C                          4318   _$M19 :
                                 4319   
                                 4320   ;;	Accel_Xcal[1] /= 10;
                                 4321   CLINEA 0000H 0001H 066AH 0002H 0015H
00:014C 12-90 00-00'             4322   	l	er0,	NEAR _Accel_Xcal+04h
00:0150 12-92 00-00'             4323   	l	er2,	NEAR _Accel_Xcal+06h
00:0154 6E-F0                    4324   	push	xr0
00:0156 00 E0                    4325   	mov	er0,	#0 
00:0158 20 02                    4326   	mov	r2,	#020h
00:015A 41 03                    4327   	mov	r3,	#041h
00:015C 6E-F0                    4328   	push	xr0
00:015E 01-F0'00-00'             4329   	bl	__fdivu8sw
00:0162 04 E1                    4330   	add	sp,	#4 
00:0164 2E-F0                    4331   	pop	xr0
00:0166 13-90 00-00'             4332   	st	er0,	NEAR _Accel_Xcal+04h
00:016A 13-92 00-00'             4333   	st	er2,	NEAR _Accel_Xcal+06h
                                 4334   
                                 4335   ;;	Accel_Ycal[1] /= 10;
                                 4336   CLINEA 0000H 0001H 066BH 0002H 0015H
00:016E 12-90 00-00'             4337   	l	er0,	NEAR _Accel_Ycal+04h
00:0172 12-92 00-00'             4338   	l	er2,	NEAR _Accel_Ycal+06h
00:0176 6E-F0                    4339   	push	xr0
00:0178 00 E0                    4340   	mov	er0,	#0 
00:017A 20 02                    4341   	mov	r2,	#020h
00:017C 41 03                    4342   	mov	r3,	#041h
00:017E 6E-F0                    4343   	push	xr0
00:0180 01-F0'00-00'             4344   	bl	__fdivu8sw
00:0184 04 E1                    4345   	add	sp,	#4 
00:0186 2E-F0                    4346   	pop	xr0
00:0188 13-90 00-00'             4347   	st	er0,	NEAR _Accel_Ycal+04h
00:018C 13-92 00-00'             4348   	st	er2,	NEAR _Accel_Ycal+06h
                                 4349   
                                 4350   ;;	for(i = 0; i<150; i++)
                                 4351   CLINEA 0000H 0001H 066DH 0002H 0017H
00:0190 00 E0                    4352   	mov	er0,	#0 
00:0192                          4353   _$L287 :
                                 4354   CBLOCK 230 8 1646
                                 4355   
                                 4356   ;;		SensorReturn[i] = 0x20;
                                 4357   CLINEA 0000H 0001H 066FH 0003H 0019H
00:0192 20 02                    4358   	mov	r2,	#020h
00:0194 09-92 00-00'             4359   	st	r2,	NEAR _SensorReturn[er0]
                                 4360   CBLOCKEND 230 8 1648
                                 4361   
                                 4362   ;;	for(i = 0; i<150; i++)
                                 4363   CLINEA 0000H 0000H 066DH 0002H 0017H
00:0198 81 E0                    4364   	add	er0,	#1 
                                 4365   
                                 4366   ;;	for(i = 0; i<150; i++)
                                 4367   CLINEA 0000H 0000H 066DH 000DH 0012H
00:019A 96 70                    4368   	cmp	r0,	#096h
00:019C 00 51                    4369   	cmpc	r1,	#00h
00:019E F9 C5                    4370   	blts	_$L287
                                 4371   
                                 4372   ;;	for(i = 0; i<150; i++)
                                 4373   CLINEA 0000H 0001H 0673H 0006H 000BH
00:01A0 00 E0                    4374   	mov	er0,	#0 
                                 4375   
                                 4376   ;;	for(i = 0; i<150; i++)
                                 4377   CLINEA 0000H 0000H 0673H 0014H 0016H
00:01A2                          4378   _$L293 :
                                 4379   CBLOCK 230 9 1652
                                 4380   
                                 4381   ;;		SensorReturn[i] = 0x20;
                                 4382   CLINEA 0000H 0001H 0675H 0003H 0019H
00:01A2 20 02                    4383   	mov	r2,	#020h
00:01A4 09-92 00-00'             4384   	st	r2,	NEAR _SensorReturn[er0]
                                 4385   CBLOCKEND 230 9 1654
                                 4386   
                                 4387   ;;	for(i = 0; i<150; i++)
                                 4388   CLINEA 0000H 0000H 0673H 0014H 0016H
00:01A8 81 E0                    4389   	add	er0,	#1 
                                 4390   
                                 4391   ;;	for(i = 0; i<150; i++)
                                 4392   CLINEA 0000H 0000H 0673H 000DH 0012H
00:01AA 96 70                    4393   	cmp	r0,	#096h
00:01AC 00 51                    4394   	cmpc	r1,	#00h
00:01AE F9 C5                    4395   	blts	_$L293
                                 4396   
                                 4397   ;;	sprintf(SensorReturn, "Accel Calibration: Tilt the Quad 90deg in the ROLL Direction! Return any 2 chars to Start");
                                 4398   CLINEA 0000H 0001H 0677H 0002H 0074H
00:01B0 00'00                    4399   	mov	r0,	#BYTE1 OFFSET $$S297
00:01B2 00'01                    4400   	mov	r1,	#BYTE2 OFFSET $$S297
00:01B4 5E-F0                    4401   	push	er0
00:01B6 00'00                    4402   	mov	r0,	#BYTE1 OFFSET _SensorReturn
00:01B8 00'01                    4403   	mov	r1,	#BYTE2 OFFSET _SensorReturn
00:01BA 5E-F0                    4404   	push	er0
00:01BC 01-F0'00-00'             4405   	bl	_sprintf_nn
00:01C0 04 E1                    4406   	add	sp,	#4 
                                 4407   
                                 4408   ;;	SensorReturn[148] = 0x0D;
                                 4409   CLINEA 0000H 0001H 0678H 0002H 001AH
00:01C2 0D 00                    4410   	mov	r0,	#0dh
00:01C4 11-90 00-00'             4411   	st	r0,	NEAR _SensorReturn+094h
                                 4412   
                                 4413   ;;	SensorReturn[149] = 0x0A;
                                 4414   CLINEA 0000H 0001H 0679H 0002H 001AH
00:01C8 0A 00                    4415   	mov	r0,	#0ah
00:01CA 11-90 00-00'             4416   	st	r0,	NEAR _SensorReturn+095h
                                 4417   
                                 4418   ;;	_flgUartFin = 0;
                                 4419   CLINEA 0000H 0001H 067BH 0002H 0011H
00:01CE 00 00                    4420   	mov	r0,	#00h
00:01D0 11-90 00-00'             4421   	st	r0,	NEAR __flgUartFin
                                 4422   
                                 4423   ;;	uart_stop();
                                 4424   CLINEA 0000H 0001H 067CH 0002H 000DH
00:01D4 01-F0'00-00'             4425   	bl	_uart_stop
                                 4426   
                                 4427   ;;	uart_startSend(SensorReturn, 150, _funcUartFin);
                                 4428   CLINEA 0000H 0001H 067DH 0002H 0031H
00:01D8 00'00                    4429   	mov	r0,	#BYTE1 OFFSET __funcUartFin
00:01DA 00'01                    4430   	mov	r1,	#BYTE2 OFFSET __funcUartFin
00:01DC 5E-F0                    4431   	push	er0
00:01DE 96 02                    4432   	mov	r2,	#096h
00:01E0 00 03                    4433   	mov	r3,	#00h
00:01E2 00'00                    4434   	mov	r0,	#BYTE1 OFFSET _SensorReturn
00:01E4 00'01                    4435   	mov	r1,	#BYTE2 OFFSET _SensorReturn
00:01E6 01-F0'00-00'             4436   	bl	_uart_startSend
00:01EA 02 E1                    4437   	add	sp,	#2 
                                 4438   
                                 4439   ;;	while(_flgUartFin != 1){
                                 4440   CLINEA 0000H 0000H 067EH 0001H 0001H
00:01EC 04 CE                    4441   	bal	_$L355
                                 4442   
                                 4443   ;;	while(_flgUartFin != 1){
                                 4444   CLINEA 0000H 0000H 067EH 0002H 0019H
00:01EE                          4445   _$L300 :
                                 4446   CBLOCK 230 10 1662
                                 4447   
                                 4448   ;;		NOP1000();
                                 4449   CLINEA 0000H 0001H 067FH 0003H 000CH
00:01EE 01-F0'00-00'             4450   	bl	_NOP1000
                                 4451   
                                 4452   ;;		main_clrWDT();
                                 4453   CLINEA 0000H 0001H 0680H 0003H 0010H
00:01F2 01-F0'00-00'             4454   	bl	_main_clrWDT
                                 4455   CBLOCKEND 230 10 1665
                                 4456   
                                 4457   ;;	while(_flgUartFin != 1){
                                 4458   CLINEA 0000H 0000H 067EH 0001H 0001H
00:01F6                          4459   _$L355 :
                                 4460   
                                 4461   ;;	while(_flgUartFin != 1){
                                 4462   CLINEA 0000H 0000H 067EH 000DH 0012H
00:01F6 10-90 00-00'             4463   	l	r0,	NEAR __flgUartFin
00:01FA 01 70                    4464   	cmp	r0,	#01h
00:01FC F8 C8                    4465   	bne	_$L300
                                 4466   
                                 4467   ;;	_flgUartFin = 0;
                                 4468   CLINEA 0000H 0001H 0683H 0002H 0011H
00:01FE 00 00                    4469   	mov	r0,	#00h
00:0200 11-90 00-00'             4470   	st	r0,	NEAR __flgUartFin
                                 4471   
                                 4472   ;;	uart_stop();
                                 4473   CLINEA 0000H 0001H 0684H 0002H 000DH
00:0204 01-F0'00-00'             4474   	bl	_uart_stop
                                 4475   
                                 4476   ;;	uart_startReceive(RecWorld, 2, _funcUartFin);
                                 4477   CLINEA 0000H 0001H 0685H 0002H 002EH
00:0208 00'00                    4478   	mov	r0,	#BYTE1 OFFSET __funcUartFin
00:020A 00'01                    4479   	mov	r1,	#BYTE2 OFFSET __funcUartFin
00:020C 5E-F0                    4480   	push	er0
00:020E 02 E2                    4481   	mov	er2,	#2 
00:0210 00'00                    4482   	mov	r0,	#BYTE1 OFFSET _RecWorld
00:0212 00'01                    4483   	mov	r1,	#BYTE2 OFFSET _RecWorld
00:0214 01-F0'00-00'             4484   	bl	_uart_startReceive
00:0218 02 E1                    4485   	add	sp,	#2 
                                 4486   
                                 4487   ;;	while(_flgUartFin != 1){
                                 4488   CLINEA 0000H 0000H 0686H 0001H 0001H
00:021A 02 CE                    4489   	bal	_$L356
                                 4490   
                                 4491   ;;	while(_flgUartFin != 1){
                                 4492   CLINEA 0000H 0000H 0686H 0002H 0019H
00:021C                          4493   _$L304 :
                                 4494   CBLOCK 230 11 1670
                                 4495   
                                 4496   ;;		main_clrWDT();
                                 4497   CLINEA 0000H 0001H 0687H 0003H 0010H
00:021C 01-F0'00-00'             4498   	bl	_main_clrWDT
                                 4499   CBLOCKEND 230 11 1672
                                 4500   
                                 4501   ;;	while(_flgUartFin != 1){
                                 4502   CLINEA 0000H 0000H 0686H 0001H 0001H
00:0220                          4503   _$L356 :
                                 4504   
                                 4505   ;;	while(_flgUartFin != 1){
                                 4506   CLINEA 0000H 0000H 0686H 000DH 0011H
00:0220 10-90 00-00'             4507   	l	r0,	NEAR __flgUartFin
00:0224 01 70                    4508   	cmp	r0,	#01h
00:0226 FA C8                    4509   	bne	_$L304
                                 4510   
                                 4511   ;;	for(i = 0; i<10; i++){
                                 4512   CLINEA 0000H 0001H 068AH 0006H 000BH
00:0228 00 E8                    4513   	mov	er8,	#0 
                                 4514   
                                 4515   ;;	for(i = 0; i<10; i++){
                                 4516   CLINEA 0000H 0000H 068AH 0013H 0015H
00:022A                          4517   _$L308 :
                                 4518   CBLOCK 230 12 1674
                                 4519   
                                 4520   ;;		_flgI2CFin = 0;																	//reset I2C completed Flag
                                 4521   CLINEA 0000H 0001H 068EH 0003H 003CH
00:022A 00 00                    4522   	mov	r0,	#00h
00:022C 11-90 00-00'             4523   	st	r0,	NEAR __flgI2CFin
                                 4524   
                                 4525   ;;		i2c_stop();																		//Make sure I2C is not currently running
                                 4526   CLINEA 0000H 0001H 068FH 0003H 0047H
00:0230 01-F0'00-00'             4527   	bl	_i2c_stop
                                 4528   
                                 4529   ;;		I20MD = 1;		//Switch to I2C Fast Operation (400kbps)
                                 4530   CLINEA 0000H 0001H 0690H 0003H 0036H
00:0234 90-A0 A4-F2              4531   	sb	0f2a4h.1
                                 4532   
                                 4533   ;;		i2c_startReceive(MPU6050Address, &AccGyro_ReadData, 1, &AccGyro_Data, 14, (cbfI2c)_funcI2CFin);	//Begin I2C Receive Command
                                 4534   CLINEA 0000H 0001H 0691H 0003H 007DH
00:0238 00'00                    4535   	mov	r0,	#BYTE1 OFFSET __funcI2CFin
00:023A 00'01                    4536   	mov	r1,	#BYTE2 OFFSET __funcI2CFin
00:023C 5E-F0                    4537   	push	er0
00:023E 0E E0                    4538   	mov	er0,	#14
00:0240 5E-F0                    4539   	push	er0
00:0242 00'00                    4540   	mov	r0,	#BYTE1 OFFSET _AccGyro_Data
00:0244 00'01                    4541   	mov	r1,	#BYTE2 OFFSET _AccGyro_Data
00:0246 5E-F0                    4542   	push	er0
00:0248 01 E0                    4543   	mov	er0,	#1 
00:024A 5E-F0                    4544   	push	er0
00:024C 00'02                    4545   	mov	r2,	#BYTE1 OFFSET _AccGyro_ReadData
00:024E 00'03                    4546   	mov	r3,	#BYTE2 OFFSET _AccGyro_ReadData
00:0250 10-90 00-00'             4547   	l	r0,	NEAR _MPU6050Address
00:0254 01-F0'00-00'             4548   	bl	_i2c_startReceive
00:0258 08 E1                    4549   	add	sp,	#8 
                                 4550   
                                 4551   ;;		while(_flgI2CFin != 1){															//Wait for I2C commands to finish transfer
                                 4552   CLINEA 0000H 0000H 0692H 0001H 0001H
00:025A 02 CE                    4553   	bal	_$L357
                                 4554   
                                 4555   ;;		while(_flgI2CFin != 1){															//Wait for I2C commands to finish transfer
                                 4556   CLINEA 0000H 0000H 0692H 0003H 0052H
00:025C                          4557   _$L314 :
                                 4558   CBLOCK 230 13 1682
                                 4559   
                                 4560   ;;			main_clrWDT();	
                                 4561   CLINEA 0000H 0001H 0693H 0004H 0012H
00:025C 01-F0'00-00'             4562   	bl	_main_clrWDT
                                 4563   CBLOCKEND 230 13 1684
                                 4564   
                                 4565   ;;		while(_flgI2CFin != 1){															//Wait for I2C commands to finish transfer
                                 4566   CLINEA 0000H 0000H 0692H 0001H 0001H
00:0260                          4567   _$L357 :
                                 4568   
                                 4569   ;;		while(_flgI2CFin != 1){															//Wait for I2C commands to finish transfer
                                 4570   CLINEA 0000H 0000H 0692H 000DH 0011H
00:0260 10-90 00-00'             4571   	l	r0,	NEAR __flgI2CFin
00:0264 01 70                    4572   	cmp	r0,	#01h
00:0266 FA C8                    4573   	bne	_$L314
                                 4574   
                                 4575   ;;		Accel_Zcal[1] += (AccGyro_Data[4]<<8)+(AccGyro_Data[5]);
                                 4576   CLINEA 0000H 0001H 0699H 0003H 003AH
00:0268 10-90 00-00'             4577   	l	r0,	NEAR _AccGyro_Data+04h
00:026C 00 01                    4578   	mov	r1,	#00h
00:026E 00-83                    4579   	mov	r3,	r0
00:0270 00 02                    4580   	mov	r2,	#00h
00:0272 10-90 00-00'             4581   	l	r0,	NEAR _AccGyro_Data+05h
00:0276 26-F0                    4582   	add	er0,	er2
00:0278 10-82                    4583   	mov	r2,	r1
00:027A 2F-83                    4584   	extbw	er2
00:027C 30-82                    4585   	mov	r2,	r3
00:027E 6E-F0                    4586   	push	xr0
00:0280 01-F0'00-00'             4587   	bl	__fildu8sw
00:0284 2E-F0                    4588   	pop	xr0
00:0286 6E-F0                    4589   	push	xr0
00:0288 12-90 00-00'             4590   	l	er0,	NEAR _Accel_Zcal+04h
00:028C 12-92 00-00'             4591   	l	er2,	NEAR _Accel_Zcal+06h
00:0290 6E-F0                    4592   	push	xr0
00:0292 01-F0'00-00'             4593   	bl	__faddu8sw
00:0296 04 E1                    4594   	add	sp,	#4 
00:0298 2E-F0                    4595   	pop	xr0
00:029A 13-90 00-00'             4596   	st	er0,	NEAR _Accel_Zcal+04h
00:029E 13-92 00-00'             4597   	st	er2,	NEAR _Accel_Zcal+06h
                                 4598   
                                 4599   ;;		Accel_Ycal[2] += (AccGyro_Data[2]<<8)+(AccGyro_Data[3]);
                                 4600   CLINEA 0000H 0001H 069AH 0003H 003AH
00:02A2 10-90 00-00'             4601   	l	r0,	NEAR _AccGyro_Data+02h
00:02A6 00 01                    4602   	mov	r1,	#00h
00:02A8 00-83                    4603   	mov	r3,	r0
00:02AA 00 02                    4604   	mov	r2,	#00h
00:02AC 10-90 00-00'             4605   	l	r0,	NEAR _AccGyro_Data+03h
00:02B0 26-F0                    4606   	add	er0,	er2
00:02B2 10-82                    4607   	mov	r2,	r1
00:02B4 2F-83                    4608   	extbw	er2
00:02B6 30-82                    4609   	mov	r2,	r3
00:02B8 6E-F0                    4610   	push	xr0
00:02BA 01-F0'00-00'             4611   	bl	__fildu8sw
00:02BE 2E-F0                    4612   	pop	xr0
00:02C0 6E-F0                    4613   	push	xr0
00:02C2 12-90 00-00'             4614   	l	er0,	NEAR _Accel_Ycal+08h
00:02C6 12-92 00-00'             4615   	l	er2,	NEAR _Accel_Ycal+0ah
00:02CA 6E-F0                    4616   	push	xr0
00:02CC 01-F0'00-00'             4617   	bl	__faddu8sw
00:02D0 04 E1                    4618   	add	sp,	#4 
00:02D2 2E-F0                    4619   	pop	xr0
00:02D4 13-90 00-00'             4620   	st	er0,	NEAR _Accel_Ycal+08h
00:02D8 13-92 00-00'             4621   	st	er2,	NEAR _Accel_Ycal+0ah
                                 4622   CBLOCKEND 230 12 1691
                                 4623   
                                 4624   ;;	for(i = 0; i<10; i++){
                                 4625   CLINEA 0000H 0000H 068AH 0013H 0015H
00:02DC 81 E8                    4626   	add	er8,	#1 
                                 4627   
                                 4628   ;;	for(i = 0; i<10; i++){
                                 4629   CLINEA 0000H 0000H 068AH 000DH 0011H
00:02DE 0A 78                    4630   	cmp	r8,	#0ah
00:02E0 00 59                    4631   	cmpc	r9,	#00h
00:02E2 02 C4                    4632   	bges	_$M20
00:02E4 00-F0'00-00'             4633   	b	_$L308
00:02E8                          4634   _$M20 :
                                 4635   
                                 4636   ;;	Accel_Zcal[1] /= 10;
                                 4637   CLINEA 0000H 0001H 069CH 0002H 0015H
00:02E8 12-90 00-00'             4638   	l	er0,	NEAR _Accel_Zcal+04h
00:02EC 12-92 00-00'             4639   	l	er2,	NEAR _Accel_Zcal+06h
00:02F0 6E-F0                    4640   	push	xr0
00:02F2 00 E0                    4641   	mov	er0,	#0 
00:02F4 20 02                    4642   	mov	r2,	#020h
00:02F6 41 03                    4643   	mov	r3,	#041h
00:02F8 6E-F0                    4644   	push	xr0
00:02FA 01-F0'00-00'             4645   	bl	__fdivu8sw
00:02FE 04 E1                    4646   	add	sp,	#4 
00:0300 2E-F0                    4647   	pop	xr0
00:0302 13-90 00-00'             4648   	st	er0,	NEAR _Accel_Zcal+04h
00:0306 13-92 00-00'             4649   	st	er2,	NEAR _Accel_Zcal+06h
                                 4650   
                                 4651   ;;	Accel_Ycal[2] /= 10;
                                 4652   CLINEA 0000H 0001H 069DH 0002H 0015H
00:030A 12-90 00-00'             4653   	l	er0,	NEAR _Accel_Ycal+08h
00:030E 12-92 00-00'             4654   	l	er2,	NEAR _Accel_Ycal+0ah
00:0312 6E-F0                    4655   	push	xr0
00:0314 00 E0                    4656   	mov	er0,	#0 
00:0316 20 02                    4657   	mov	r2,	#020h
00:0318 41 03                    4658   	mov	r3,	#041h
00:031A 6E-F0                    4659   	push	xr0
00:031C 01-F0'00-00'             4660   	bl	__fdivu8sw
00:0320 04 E1                    4661   	add	sp,	#4 
00:0322 2E-F0                    4662   	pop	xr0
00:0324 13-90 00-00'             4663   	st	er0,	NEAR _Accel_Ycal+08h
00:0328 13-92 00-00'             4664   	st	er2,	NEAR _Accel_Ycal+0ah
                                 4665   
                                 4666   ;;	for(i = 0; i<150; i++)
                                 4667   CLINEA 0000H 0001H 06A0H 0002H 0017H
00:032C 00 E0                    4668   	mov	er0,	#0 
00:032E                          4669   _$L318 :
                                 4670   CBLOCK 230 14 1697
                                 4671   
                                 4672   ;;		SensorReturn[i] = 0x20;
                                 4673   CLINEA 0000H 0001H 06A2H 0003H 0019H
00:032E 20 02                    4674   	mov	r2,	#020h
00:0330 09-92 00-00'             4675   	st	r2,	NEAR _SensorReturn[er0]
                                 4676   CBLOCKEND 230 14 1699
                                 4677   
                                 4678   ;;	for(i = 0; i<150; i++)
                                 4679   CLINEA 0000H 0000H 06A0H 0002H 0017H
00:0334 81 E0                    4680   	add	er0,	#1 
                                 4681   
                                 4682   ;;	for(i = 0; i<150; i++)
                                 4683   CLINEA 0000H 0000H 06A0H 000DH 0011H
00:0336 96 70                    4684   	cmp	r0,	#096h
00:0338 00 51                    4685   	cmpc	r1,	#00h
00:033A F9 C5                    4686   	blts	_$L318
                                 4687   
                                 4688   ;;	sprintf(SensorReturn, "Accel Calibration: Tilt the Quad 90deg in the PITCH direction! Return any 2 chars to Start");
                                 4689   CLINEA 0000H 0001H 06A4H 0002H 0075H
00:033C 00'00                    4690   	mov	r0,	#BYTE1 OFFSET $$S322
00:033E 00'01                    4691   	mov	r1,	#BYTE2 OFFSET $$S322
00:0340 5E-F0                    4692   	push	er0
00:0342 00'00                    4693   	mov	r0,	#BYTE1 OFFSET _SensorReturn
00:0344 00'01                    4694   	mov	r1,	#BYTE2 OFFSET _SensorReturn
00:0346 5E-F0                    4695   	push	er0
00:0348 01-F0'00-00'             4696   	bl	_sprintf_nn
00:034C 04 E1                    4697   	add	sp,	#4 
                                 4698   
                                 4699   ;;	SensorReturn[148] = 0x0D;
                                 4700   CLINEA 0000H 0001H 06A5H 0002H 001AH
00:034E 0D 00                    4701   	mov	r0,	#0dh
00:0350 11-90 00-00'             4702   	st	r0,	NEAR _SensorReturn+094h
                                 4703   
                                 4704   ;;	SensorReturn[149] = 0x0A;
                                 4705   CLINEA 0000H 0001H 06A6H 0002H 001AH
00:0354 0A 00                    4706   	mov	r0,	#0ah
00:0356 11-90 00-00'             4707   	st	r0,	NEAR _SensorReturn+095h
                                 4708   
                                 4709   ;;	_flgUartFin = 0;
                                 4710   CLINEA 0000H 0001H 06A8H 0002H 0011H
00:035A 00 00                    4711   	mov	r0,	#00h
00:035C 11-90 00-00'             4712   	st	r0,	NEAR __flgUartFin
                                 4713   
                                 4714   ;;	uart_stop();
                                 4715   CLINEA 0000H 0001H 06A9H 0002H 000DH
00:0360 01-F0'00-00'             4716   	bl	_uart_stop
                                 4717   
                                 4718   ;;	uart_startSend(SensorReturn, 150, _funcUartFin);
                                 4719   CLINEA 0000H 0001H 06AAH 0002H 0031H
00:0364 00'00                    4720   	mov	r0,	#BYTE1 OFFSET __funcUartFin
00:0366 00'01                    4721   	mov	r1,	#BYTE2 OFFSET __funcUartFin
00:0368 5E-F0                    4722   	push	er0
00:036A 96 02                    4723   	mov	r2,	#096h
00:036C 00 03                    4724   	mov	r3,	#00h
00:036E 00'00                    4725   	mov	r0,	#BYTE1 OFFSET _SensorReturn
00:0370 00'01                    4726   	mov	r1,	#BYTE2 OFFSET _SensorReturn
00:0372 01-F0'00-00'             4727   	bl	_uart_startSend
00:0376 02 E1                    4728   	add	sp,	#2 
                                 4729   
                                 4730   ;;	while(_flgUartFin != 1){
                                 4731   CLINEA 0000H 0000H 06ABH 0001H 0001H
00:0378 04 CE                    4732   	bal	_$L358
                                 4733   
                                 4734   ;;	while(_flgUartFin != 1){
                                 4735   CLINEA 0000H 0000H 06ABH 0002H 0019H
00:037A                          4736   _$L325 :
                                 4737   CBLOCK 230 15 1707
                                 4738   
                                 4739   ;;		NOP1000();
                                 4740   CLINEA 0000H 0001H 06ACH 0003H 000CH
00:037A 01-F0'00-00'             4741   	bl	_NOP1000
                                 4742   
                                 4743   ;;		main_clrWDT();
                                 4744   CLINEA 0000H 0001H 06ADH 0003H 0010H
00:037E 01-F0'00-00'             4745   	bl	_main_clrWDT
                                 4746   CBLOCKEND 230 15 1710
                                 4747   
                                 4748   ;;	while(_flgUartFin != 1){
                                 4749   CLINEA 0000H 0000H 06ABH 0001H 0001H
00:0382                          4750   _$L358 :
                                 4751   
                                 4752   ;;	while(_flgUartFin != 1){
                                 4753   CLINEA 0000H 0000H 06ABH 000DH 0011H
00:0382 10-90 00-00'             4754   	l	r0,	NEAR __flgUartFin
00:0386 01 70                    4755   	cmp	r0,	#01h
00:0388 F8 C8                    4756   	bne	_$L325
                                 4757   
                                 4758   ;;	_flgUartFin = 0;
                                 4759   CLINEA 0000H 0001H 06B0H 0002H 0011H
00:038A 00 00                    4760   	mov	r0,	#00h
00:038C 11-90 00-00'             4761   	st	r0,	NEAR __flgUartFin
                                 4762   
                                 4763   ;;	uart_stop();
                                 4764   CLINEA 0000H 0001H 06B1H 0002H 000DH
00:0390 01-F0'00-00'             4765   	bl	_uart_stop
                                 4766   
                                 4767   ;;	uart_startReceive(RecWorld, 2, _funcUartFin);
                                 4768   CLINEA 0000H 0001H 06B2H 0002H 002EH
00:0394 00'00                    4769   	mov	r0,	#BYTE1 OFFSET __funcUartFin
00:0396 00'01                    4770   	mov	r1,	#BYTE2 OFFSET __funcUartFin
00:0398 5E-F0                    4771   	push	er0
00:039A 02 E2                    4772   	mov	er2,	#2 
00:039C 00'00                    4773   	mov	r0,	#BYTE1 OFFSET _RecWorld
00:039E 00'01                    4774   	mov	r1,	#BYTE2 OFFSET _RecWorld
00:03A0 01-F0'00-00'             4775   	bl	_uart_startReceive
00:03A4 02 E1                    4776   	add	sp,	#2 
                                 4777   
                                 4778   ;;	while(_flgUartFin != 1){
                                 4779   CLINEA 0000H 0000H 06B3H 0001H 0001H
00:03A6 02 CE                    4780   	bal	_$L359
                                 4781   
                                 4782   ;;	while(_flgUartFin != 1){
                                 4783   CLINEA 0000H 0000H 06B3H 0002H 0019H
00:03A8                          4784   _$L329 :
                                 4785   CBLOCK 230 16 1715
                                 4786   
                                 4787   ;;		main_clrWDT();
                                 4788   CLINEA 0000H 0001H 06B4H 0003H 0010H
00:03A8 01-F0'00-00'             4789   	bl	_main_clrWDT
                                 4790   CBLOCKEND 230 16 1717
                                 4791   
                                 4792   ;;	while(_flgUartFin != 1){
                                 4793   CLINEA 0000H 0000H 06B3H 0001H 0001H
00:03AC                          4794   _$L359 :
                                 4795   
                                 4796   ;;	while(_flgUartFin != 1){
                                 4797   CLINEA 0000H 0000H 06B3H 000DH 0011H
00:03AC 10-90 00-00'             4798   	l	r0,	NEAR __flgUartFin
00:03B0 01 70                    4799   	cmp	r0,	#01h
00:03B2 FA C8                    4800   	bne	_$L329
                                 4801   
                                 4802   ;;	for(i = 0; i<10; i++){
                                 4803   CLINEA 0000H 0001H 06B7H 0006H 000BH
00:03B4 00 E8                    4804   	mov	er8,	#0 
                                 4805   
                                 4806   ;;	for(i = 0; i<10; i++){
                                 4807   CLINEA 0000H 0000H 06B7H 0013H 0015H
00:03B6                          4808   _$L333 :
                                 4809   CBLOCK 230 17 1719
                                 4810   
                                 4811   ;;		_flgI2CFin = 0;																	//reset I2C completed Flag
                                 4812   CLINEA 0000H 0001H 06BBH 0003H 003CH
00:03B6 00 00                    4813   	mov	r0,	#00h
00:03B8 11-90 00-00'             4814   	st	r0,	NEAR __flgI2CFin
                                 4815   
                                 4816   ;;		i2c_stop();																		//Make sure I2C is not currently running
                                 4817   CLINEA 0000H 0001H 06BCH 0003H 0047H
00:03BC 01-F0'00-00'             4818   	bl	_i2c_stop
                                 4819   
                                 4820   ;;		I20MD = 1;		//Switch to I2C Fast Operation (400kbps)
                                 4821   CLINEA 0000H 0001H 06BDH 0003H 0036H
00:03C0 90-A0 A4-F2              4822   	sb	0f2a4h.1
                                 4823   
                                 4824   ;;		i2c_startReceive(MPU6050Address, &AccGyro_ReadData, 1, &AccGyro_Data, 14, (cbfI2c)_funcI2CFin);	//Begin I2C Receive Command
                                 4825   CLINEA 0000H 0001H 06BEH 0003H 007DH
00:03C4 00'00                    4826   	mov	r0,	#BYTE1 OFFSET __funcI2CFin
00:03C6 00'01                    4827   	mov	r1,	#BYTE2 OFFSET __funcI2CFin
00:03C8 5E-F0                    4828   	push	er0
00:03CA 0E E0                    4829   	mov	er0,	#14
00:03CC 5E-F0                    4830   	push	er0
00:03CE 00'00                    4831   	mov	r0,	#BYTE1 OFFSET _AccGyro_Data
00:03D0 00'01                    4832   	mov	r1,	#BYTE2 OFFSET _AccGyro_Data
00:03D2 5E-F0                    4833   	push	er0
00:03D4 01 E0                    4834   	mov	er0,	#1 
00:03D6 5E-F0                    4835   	push	er0
00:03D8 00'02                    4836   	mov	r2,	#BYTE1 OFFSET _AccGyro_ReadData
00:03DA 00'03                    4837   	mov	r3,	#BYTE2 OFFSET _AccGyro_ReadData
00:03DC 10-90 00-00'             4838   	l	r0,	NEAR _MPU6050Address
00:03E0 01-F0'00-00'             4839   	bl	_i2c_startReceive
00:03E4 08 E1                    4840   	add	sp,	#8 
                                 4841   
                                 4842   ;;		while(_flgI2CFin != 1){															//Wait for I2C commands to finish transfer
                                 4843   CLINEA 0000H 0000H 06BFH 0001H 0001H
00:03E6 02 CE                    4844   	bal	_$L360
                                 4845   
                                 4846   ;;		while(_flgI2CFin != 1){															//Wait for I2C commands to finish transfer
                                 4847   CLINEA 0000H 0000H 06BFH 0003H 0052H
00:03E8                          4848   _$L339 :
                                 4849   CBLOCK 230 18 1727
                                 4850   
                                 4851   ;;			main_clrWDT();	
                                 4852   CLINEA 0000H 0001H 06C0H 0004H 0012H
00:03E8 01-F0'00-00'             4853   	bl	_main_clrWDT
                                 4854   CBLOCKEND 230 18 1729
                                 4855   
                                 4856   ;;		while(_flgI2CFin != 1){															//Wait for I2C commands to finish transfer
                                 4857   CLINEA 0000H 0000H 06BFH 0001H 0001H
00:03EC                          4858   _$L360 :
                                 4859   
                                 4860   ;;		while(_flgI2CFin != 1){															//Wait for I2C commands to finish transfer
                                 4861   CLINEA 0000H 0000H 06BFH 000DH 0011H
00:03EC 10-90 00-00'             4862   	l	r0,	NEAR __flgI2CFin
00:03F0 01 70                    4863   	cmp	r0,	#01h
00:03F2 FA C8                    4864   	bne	_$L339
                                 4865   
                                 4866   ;;		Accel_Zcal[2] += (AccGyro_Data[4]<<8)+(AccGyro_Data[5]);
                                 4867   CLINEA 0000H 0001H 06C6H 0003H 003AH
00:03F4 10-90 00-00'             4868   	l	r0,	NEAR _AccGyro_Data+04h
00:03F8 00 01                    4869   	mov	r1,	#00h
00:03FA 00-83                    4870   	mov	r3,	r0
00:03FC 00 02                    4871   	mov	r2,	#00h
00:03FE 10-90 00-00'             4872   	l	r0,	NEAR _AccGyro_Data+05h
00:0402 26-F0                    4873   	add	er0,	er2
00:0404 10-82                    4874   	mov	r2,	r1
00:0406 2F-83                    4875   	extbw	er2
00:0408 30-82                    4876   	mov	r2,	r3
00:040A 6E-F0                    4877   	push	xr0
00:040C 01-F0'00-00'             4878   	bl	__fildu8sw
00:0410 2E-F0                    4879   	pop	xr0
00:0412 6E-F0                    4880   	push	xr0
00:0414 12-90 00-00'             4881   	l	er0,	NEAR _Accel_Zcal+08h
00:0418 12-92 00-00'             4882   	l	er2,	NEAR _Accel_Zcal+0ah
00:041C 6E-F0                    4883   	push	xr0
00:041E 01-F0'00-00'             4884   	bl	__faddu8sw
00:0422 04 E1                    4885   	add	sp,	#4 
00:0424 2E-F0                    4886   	pop	xr0
00:0426 13-90 00-00'             4887   	st	er0,	NEAR _Accel_Zcal+08h
00:042A 13-92 00-00'             4888   	st	er2,	NEAR _Accel_Zcal+0ah
                                 4889   
                                 4890   ;;		Accel_Xcal[2] += (AccGyro_Data[0]<<8)+(AccGyro_Data[1]);
                                 4891   CLINEA 0000H 0001H 06C7H 0003H 003AH
00:042E 10-90 00-00'             4892   	l	r0,	NEAR _AccGyro_Data+01h
00:0432 00 01                    4893   	mov	r1,	#00h
00:0434 10-92 00-00'             4894   	l	r2,	NEAR _AccGyro_Data
00:0438 20-83                    4895   	mov	r3,	r2
00:043A 00 02                    4896   	mov	r2,	#00h
00:043C 26-F0                    4897   	add	er0,	er2
00:043E 10-82                    4898   	mov	r2,	r1
00:0440 2F-83                    4899   	extbw	er2
00:0442 30-82                    4900   	mov	r2,	r3
00:0444 6E-F0                    4901   	push	xr0
00:0446 01-F0'00-00'             4902   	bl	__fildu8sw
00:044A 2E-F0                    4903   	pop	xr0
00:044C 6E-F0                    4904   	push	xr0
00:044E 12-90 00-00'             4905   	l	er0,	NEAR _Accel_Xcal+08h
00:0452 12-92 00-00'             4906   	l	er2,	NEAR _Accel_Xcal+0ah
00:0456 6E-F0                    4907   	push	xr0
00:0458 01-F0'00-00'             4908   	bl	__faddu8sw
00:045C 04 E1                    4909   	add	sp,	#4 
00:045E 2E-F0                    4910   	pop	xr0
00:0460 13-90 00-00'             4911   	st	er0,	NEAR _Accel_Xcal+08h
00:0464 13-92 00-00'             4912   	st	er2,	NEAR _Accel_Xcal+0ah
                                 4913   CBLOCKEND 230 17 1736
                                 4914   
                                 4915   ;;	for(i = 0; i<10; i++){
                                 4916   CLINEA 0000H 0000H 06B7H 0013H 0015H
00:0468 81 E8                    4917   	add	er8,	#1 
                                 4918   
                                 4919   ;;	for(i = 0; i<10; i++){
                                 4920   CLINEA 0000H 0000H 06B7H 000DH 0011H
00:046A 0A 78                    4921   	cmp	r8,	#0ah
00:046C 00 59                    4922   	cmpc	r9,	#00h
00:046E 02 C4                    4923   	bges	_$M21
00:0470 00-F0'00-00'             4924   	b	_$L333
00:0474                          4925   _$M21 :
                                 4926   
                                 4927   ;;	Accel_Zcal[2] /= 10;
                                 4928   CLINEA 0000H 0001H 06C9H 0002H 0015H
00:0474 12-90 00-00'             4929   	l	er0,	NEAR _Accel_Zcal+08h
00:0478 12-92 00-00'             4930   	l	er2,	NEAR _Accel_Zcal+0ah
00:047C 6E-F0                    4931   	push	xr0
00:047E 00 E0                    4932   	mov	er0,	#0 
00:0480 20 02                    4933   	mov	r2,	#020h
00:0482 41 03                    4934   	mov	r3,	#041h
00:0484 6E-F0                    4935   	push	xr0
00:0486 01-F0'00-00'             4936   	bl	__fdivu8sw
00:048A 04 E1                    4937   	add	sp,	#4 
00:048C 2E-F0                    4938   	pop	xr0
00:048E 13-90 00-00'             4939   	st	er0,	NEAR _Accel_Zcal+08h
00:0492 13-92 00-00'             4940   	st	er2,	NEAR _Accel_Zcal+0ah
                                 4941   
                                 4942   ;;	Accel_Xcal[2] /= 10;
                                 4943   CLINEA 0000H 0001H 06CAH 0002H 0015H
00:0496 12-90 00-00'             4944   	l	er0,	NEAR _Accel_Xcal+08h
00:049A 12-92 00-00'             4945   	l	er2,	NEAR _Accel_Xcal+0ah
00:049E 6E-F0                    4946   	push	xr0
00:04A0 00 E0                    4947   	mov	er0,	#0 
00:04A2 20 02                    4948   	mov	r2,	#020h
00:04A4 41 03                    4949   	mov	r3,	#041h
00:04A6 6E-F0                    4950   	push	xr0
00:04A8 01-F0'00-00'             4951   	bl	__fdivu8sw
00:04AC 04 E1                    4952   	add	sp,	#4 
00:04AE 2E-F0                    4953   	pop	xr0
00:04B0 13-90 00-00'             4954   	st	er0,	NEAR _Accel_Xcal+08h
00:04B4 13-92 00-00'             4955   	st	er2,	NEAR _Accel_Xcal+0ah
                                 4956   
                                 4957   ;;	Accel_Xcal[0] = (Accel_Xcal[1]+Accel_Xcal[2])/2;
                                 4958   CLINEA 0000H 0001H 06CDH 0002H 0031H
00:04B8 12-90 00-00'             4959   	l	er0,	NEAR _Accel_Xcal+04h
00:04BC 12-92 00-00'             4960   	l	er2,	NEAR _Accel_Xcal+06h
00:04C0 6E-F0                    4961   	push	xr0
00:04C2 12-90 00-00'             4962   	l	er0,	NEAR _Accel_Xcal+08h
00:04C6 12-92 00-00'             4963   	l	er2,	NEAR _Accel_Xcal+0ah
00:04CA 6E-F0                    4964   	push	xr0
00:04CC 01-F0'00-00'             4965   	bl	__faddu8sw
00:04D0 04 E1                    4966   	add	sp,	#4 
00:04D2 00 E0                    4967   	mov	er0,	#0 
00:04D4 00 02                    4968   	mov	r2,	#00h
00:04D6 40 03                    4969   	mov	r3,	#040h
00:04D8 6E-F0                    4970   	push	xr0
00:04DA 01-F0'00-00'             4971   	bl	__fdivu8sw
00:04DE 04 E1                    4972   	add	sp,	#4 
00:04E0 2E-F0                    4973   	pop	xr0
00:04E2 13-90 00-00'             4974   	st	er0,	NEAR _Accel_Xcal
00:04E6 13-92 00-00'             4975   	st	er2,	NEAR _Accel_Xcal+02h
                                 4976   
                                 4977   ;;	Accel_Ycal[0] = (Accel_Ycal[1]+Accel_Ycal[2])/2;
                                 4978   CLINEA 0000H 0001H 06CEH 0002H 0031H
00:04EA 12-90 00-00'             4979   	l	er0,	NEAR _Accel_Ycal+04h
00:04EE 12-92 00-00'             4980   	l	er2,	NEAR _Accel_Ycal+06h
00:04F2 6E-F0                    4981   	push	xr0
00:04F4 12-90 00-00'             4982   	l	er0,	NEAR _Accel_Ycal+08h
00:04F8 12-92 00-00'             4983   	l	er2,	NEAR _Accel_Ycal+0ah
00:04FC 6E-F0                    4984   	push	xr0
00:04FE 01-F0'00-00'             4985   	bl	__faddu8sw
00:0502 04 E1                    4986   	add	sp,	#4 
00:0504 00 E0                    4987   	mov	er0,	#0 
00:0506 00 02                    4988   	mov	r2,	#00h
00:0508 40 03                    4989   	mov	r3,	#040h
00:050A 6E-F0                    4990   	push	xr0
00:050C 01-F0'00-00'             4991   	bl	__fdivu8sw
00:0510 04 E1                    4992   	add	sp,	#4 
00:0512 2E-F0                    4993   	pop	xr0
00:0514 13-90 00-00'             4994   	st	er0,	NEAR _Accel_Ycal
00:0518 13-92 00-00'             4995   	st	er2,	NEAR _Accel_Ycal+02h
                                 4996   
                                 4997   ;;	Accel_Zcal[0] = (Accel_Zcal[1]+Accel_Zcal[2])/2;
                                 4998   CLINEA 0000H 0001H 06CFH 0002H 0031H
00:051C 12-90 00-00'             4999   	l	er0,	NEAR _Accel_Zcal+04h
00:0520 12-92 00-00'             5000   	l	er2,	NEAR _Accel_Zcal+06h
00:0524 6E-F0                    5001   	push	xr0
00:0526 12-90 00-00'             5002   	l	er0,	NEAR _Accel_Zcal+08h
00:052A 12-92 00-00'             5003   	l	er2,	NEAR _Accel_Zcal+0ah
00:052E 6E-F0                    5004   	push	xr0
00:0530 01-F0'00-00'             5005   	bl	__faddu8sw
00:0534 04 E1                    5006   	add	sp,	#4 
00:0536 00 E0                    5007   	mov	er0,	#0 
00:0538 00 02                    5008   	mov	r2,	#00h
00:053A 40 03                    5009   	mov	r3,	#040h
00:053C 6E-F0                    5010   	push	xr0
00:053E 01-F0'00-00'             5011   	bl	__fdivu8sw
00:0542 04 E1                    5012   	add	sp,	#4 
00:0544 2E-F0                    5013   	pop	xr0
00:0546 13-90 00-00'             5014   	st	er0,	NEAR _Accel_Zcal
00:054A 13-92 00-00'             5015   	st	er2,	NEAR _Accel_Zcal+02h
                                 5016   
                                 5017   ;;	for(i = 0; i<150; i++)
                                 5018   CLINEA 0000H 0001H 06D2H 0002H 0017H
00:054E 00 E0                    5019   	mov	er0,	#0 
00:0550                          5020   _$L343 :
                                 5021   CBLOCK 230 19 1747
                                 5022   
                                 5023   ;;		SensorReturn[i] = 0x20;
                                 5024   CLINEA 0000H 0001H 06D4H 0003H 0019H
00:0550 20 02                    5025   	mov	r2,	#020h
00:0552 09-92 00-00'             5026   	st	r2,	NEAR _SensorReturn[er0]
                                 5027   CBLOCKEND 230 19 1749
                                 5028   
                                 5029   ;;	for(i = 0; i<150; i++)
                                 5030   CLINEA 0000H 0000H 06D2H 0002H 0017H
00:0556 81 E0                    5031   	add	er0,	#1 
                                 5032   
                                 5033   ;;	for(i = 0; i<150; i++)
                                 5034   CLINEA 0000H 0000H 06D2H 000DH 0011H
00:0558 96 70                    5035   	cmp	r0,	#096h
00:055A 00 51                    5036   	cmpc	r1,	#00h
00:055C F9 C5                    5037   	blts	_$L343
                                 5038   
                                 5039   ;;	sprintf(SensorReturn, "Accel Calibration Complete!");
                                 5040   CLINEA 0000H 0001H 06D6H 0002H 0036H
00:055E 00'00                    5041   	mov	r0,	#BYTE1 OFFSET $$S347
00:0560 00'01                    5042   	mov	r1,	#BYTE2 OFFSET $$S347
00:0562 5E-F0                    5043   	push	er0
00:0564 00'00                    5044   	mov	r0,	#BYTE1 OFFSET _SensorReturn
00:0566 00'01                    5045   	mov	r1,	#BYTE2 OFFSET _SensorReturn
00:0568 5E-F0                    5046   	push	er0
00:056A 01-F0'00-00'             5047   	bl	_sprintf_nn
00:056E 04 E1                    5048   	add	sp,	#4 
                                 5049   
                                 5050   ;;	SensorReturn[148] = 0x0D;
                                 5051   CLINEA 0000H 0001H 06D7H 0002H 001AH
00:0570 0D 00                    5052   	mov	r0,	#0dh
00:0572 11-90 00-00'             5053   	st	r0,	NEAR _SensorReturn+094h
                                 5054   
                                 5055   ;;	SensorReturn[149] = 0x0A;
                                 5056   CLINEA 0000H 0001H 06D8H 0002H 001AH
00:0576 0A 00                    5057   	mov	r0,	#0ah
00:0578 11-90 00-00'             5058   	st	r0,	NEAR _SensorReturn+095h
                                 5059   
                                 5060   ;;	_flgUartFin = 0;
                                 5061   CLINEA 0000H 0001H 06DAH 0002H 0011H
00:057C 00 00                    5062   	mov	r0,	#00h
00:057E 11-90 00-00'             5063   	st	r0,	NEAR __flgUartFin
                                 5064   
                                 5065   ;;	uart_stop();
                                 5066   CLINEA 0000H 0001H 06DBH 0002H 000DH
00:0582 01-F0'00-00'             5067   	bl	_uart_stop
                                 5068   
                                 5069   ;;	uart_startSend(SensorReturn, 150, _funcUartFin);
                                 5070   CLINEA 0000H 0001H 06DCH 0002H 0031H
00:0586 00'00                    5071   	mov	r0,	#BYTE1 OFFSET __funcUartFin
00:0588 00'01                    5072   	mov	r1,	#BYTE2 OFFSET __funcUartFin
00:058A 5E-F0                    5073   	push	er0
00:058C 96 02                    5074   	mov	r2,	#096h
00:058E 00 03                    5075   	mov	r3,	#00h
00:0590 00'00                    5076   	mov	r0,	#BYTE1 OFFSET _SensorReturn
00:0592 00'01                    5077   	mov	r1,	#BYTE2 OFFSET _SensorReturn
00:0594 01-F0'00-00'             5078   	bl	_uart_startSend
00:0598 02 E1                    5079   	add	sp,	#2 
                                 5080   
                                 5081   ;;	while(_flgUartFin != 1){
                                 5082   CLINEA 0000H 0000H 06DDH 0001H 0001H
00:059A 04 CE                    5083   	bal	_$L361
                                 5084   
                                 5085   ;;	while(_flgUartFin != 1){
                                 5086   CLINEA 0000H 0000H 06DDH 0002H 0019H
00:059C                          5087   _$L350 :
                                 5088   CBLOCK 230 20 1757
                                 5089   
                                 5090   ;;		NOP1000();
                                 5091   CLINEA 0000H 0001H 06DEH 0003H 000CH
00:059C 01-F0'00-00'             5092   	bl	_NOP1000
                                 5093   
                                 5094   ;;		main_clrWDT();
                                 5095   CLINEA 0000H 0001H 06DFH 0003H 0010H
00:05A0 01-F0'00-00'             5096   	bl	_main_clrWDT
                                 5097   CBLOCKEND 230 20 1760
                                 5098   
                                 5099   ;;	while(_flgUartFin != 1){
                                 5100   CLINEA 0000H 0000H 06DDH 0001H 0001H
00:05A4                          5101   _$L361 :
                                 5102   
                                 5103   ;;	while(_flgUartFin != 1){
                                 5104   CLINEA 0000H 0000H 06DDH 000DH 0011H
00:05A4 10-90 00-00'             5105   	l	r0,	NEAR __flgUartFin
00:05A8 01 70                    5106   	cmp	r0,	#01h
00:05AA F8 C8                    5107   	bne	_$L350
                                 5108   CBLOCKEND 230 2 1761
                                 5109   
                                 5110   ;;}
                                 5111   CLINEA 0000H 0001H 06E1H 0001H 0001H
00:05AC 1E-F8                    5112   	pop	er8
00:05AE 8E-F2                    5113   	pop	pc
                                 5114   CBLOCKEND 230 1 1761
                                 5115   CFUNCTIONEND 230
                                 5116   
                                 5117   
  --------------------------     5118   	rseg $$SerialOutCoefficients$main
                                 5119   CFUNCTION 231
                                 5120   
00:0000                          5121   _SerialOutCoefficients	:
                                 5122   CBLOCK 231 1 1765
                                 5123   
                                 5124   ;;{
                                 5125   CLINEA 0000H 0001H 06E5H 0001H 0001H
00:0000 CE-F8                    5126   	push	lr
                                 5127   CBLOCK 231 2 1765
                                 5128   CRET 0000H
                                 5129   CLOCAL 47H 0002H 0024H 0002H "j" 02H 00H 01H
                                 5130   
                                 5131   ;;		for(j = 0; j<150; j++)
                                 5132   CLINEA 0000H 0001H 06E8H 0003H 0018H
00:0002 00 E0                    5133   	mov	er0,	#0 
00:0004                          5134   _$L365 :
                                 5135   CBLOCK 231 3 1769
                                 5136   
                                 5137   ;;			SensorReturn[j] = 0x20;
                                 5138   CLINEA 0000H 0001H 06EAH 0004H 001AH
00:0004 20 02                    5139   	mov	r2,	#020h
00:0006 09-92 00-00'             5140   	st	r2,	NEAR _SensorReturn[er0]
                                 5141   CBLOCKEND 231 3 1771
                                 5142   
                                 5143   ;;		for(j = 0; j<150; j++)
                                 5144   CLINEA 0000H 0000H 06E8H 0003H 0018H
00:000A 81 E0                    5145   	add	er0,	#1 
                                 5146   
                                 5147   ;;		for(j = 0; j<150; j++)
                                 5148   CLINEA 0000H 0000H 06E8H 000DH 0011H
00:000C 96 70                    5149   	cmp	r0,	#096h
00:000E 00 51                    5150   	cmpc	r1,	#00h
00:0010 F9 C5                    5151   	blts	_$L365
                                 5152   
                                 5153   ;;		sprintf(SensorReturn, "Current Settings: kp=%f,ki=%f,kd=%f,a1=%f,a2=%f", Accel_PID_XRoll_kp, Accel_PID_XRoll_ki, Accel_PID_XRoll_kd, CF_HPF, CF_LPF);
                                 5154   CLINEA 0000H 0001H 06EDH 0003H 0097H
00:0012 12-90 00-00'             5155   	l	er0,	NEAR _CF_LPF
00:0016 12-92 00-00'             5156   	l	er2,	NEAR _CF_LPF+02h
00:001A 6E-F0                    5157   	push	xr0
00:001C FC E1                    5158   	add	sp,	#-4
00:001E 01-F0'00-00'             5159   	bl	__ftodu8sw
00:0022 12-90 00-00'             5160   	l	er0,	NEAR _CF_HPF
00:0026 12-92 00-00'             5161   	l	er2,	NEAR _CF_HPF+02h
00:002A 6E-F0                    5162   	push	xr0
00:002C FC E1                    5163   	add	sp,	#-4
00:002E 01-F0'00-00'             5164   	bl	__ftodu8sw
00:0032 12-90 00-00'             5165   	l	er0,	NEAR _Accel_PID_XRoll_kd
00:0036 12-92 00-00'             5166   	l	er2,	NEAR _Accel_PID_XRoll_kd+02h
00:003A 6E-F0                    5167   	push	xr0
00:003C FC E1                    5168   	add	sp,	#-4
00:003E 01-F0'00-00'             5169   	bl	__ftodu8sw
00:0042 12-90 00-00'             5170   	l	er0,	NEAR _Accel_PID_XRoll_ki
00:0046 12-92 00-00'             5171   	l	er2,	NEAR _Accel_PID_XRoll_ki+02h
00:004A 6E-F0                    5172   	push	xr0
00:004C FC E1                    5173   	add	sp,	#-4
00:004E 01-F0'00-00'             5174   	bl	__ftodu8sw
00:0052 12-90 00-00'             5175   	l	er0,	NEAR _Accel_PID_XRoll_kp
00:0056 12-92 00-00'             5176   	l	er2,	NEAR _Accel_PID_XRoll_kp+02h
00:005A 6E-F0                    5177   	push	xr0
00:005C FC E1                    5178   	add	sp,	#-4
00:005E 01-F0'00-00'             5179   	bl	__ftodu8sw
00:0062 00'00                    5180   	mov	r0,	#BYTE1 OFFSET $$S369
00:0064 00'01                    5181   	mov	r1,	#BYTE2 OFFSET $$S369
00:0066 5E-F0                    5182   	push	er0
00:0068 00'00                    5183   	mov	r0,	#BYTE1 OFFSET _SensorReturn
00:006A 00'01                    5184   	mov	r1,	#BYTE2 OFFSET _SensorReturn
00:006C 5E-F0                    5185   	push	er0
00:006E 01-F0'00-00'             5186   	bl	_sprintf_nn
00:0072 2C E1                    5187   	add	sp,	#44
                                 5188   
                                 5189   ;;		SensorReturn[148] = 0x0D;	//CR
                                 5190   CLINEA 0000H 0001H 06EFH 0003H 0020H
00:0074 0D 00                    5191   	mov	r0,	#0dh
00:0076 11-90 00-00'             5192   	st	r0,	NEAR _SensorReturn+094h
                                 5193   
                                 5194   ;;		SensorReturn[149] = 0x0A;	//LF
                                 5195   CLINEA 0000H 0001H 06F0H 0003H 0020H
00:007A 0A 00                    5196   	mov	r0,	#0ah
00:007C 11-90 00-00'             5197   	st	r0,	NEAR _SensorReturn+095h
                                 5198   
                                 5199   ;;		_flgUartFin = 0;
                                 5200   CLINEA 0000H 0001H 06F3H 0003H 0012H
00:0080 00 00                    5201   	mov	r0,	#00h
00:0082 11-90 00-00'             5202   	st	r0,	NEAR __flgUartFin
                                 5203   
                                 5204   ;;		uart_stop();
                                 5205   CLINEA 0000H 0001H 06F4H 0003H 000EH
00:0086 01-F0'00-00'             5206   	bl	_uart_stop
                                 5207   
                                 5208   ;;		uart_startSend(SensorReturn, 150, _funcUartFin);
                                 5209   CLINEA 0000H 0001H 06F5H 0003H 0032H
00:008A 00'00                    5210   	mov	r0,	#BYTE1 OFFSET __funcUartFin
00:008C 00'01                    5211   	mov	r1,	#BYTE2 OFFSET __funcUartFin
00:008E 5E-F0                    5212   	push	er0
00:0090 96 02                    5213   	mov	r2,	#096h
00:0092 00 03                    5214   	mov	r3,	#00h
00:0094 00'00                    5215   	mov	r0,	#BYTE1 OFFSET _SensorReturn
00:0096 00'01                    5216   	mov	r1,	#BYTE2 OFFSET _SensorReturn
00:0098 01-F0'00-00'             5217   	bl	_uart_startSend
00:009C 02 E1                    5218   	add	sp,	#2 
                                 5219   
                                 5220   ;;		while(_flgUartFin != 1){
                                 5221   CLINEA 0000H 0000H 06F6H 0001H 0001H
00:009E 02 CE                    5222   	bal	_$L374
                                 5223   
                                 5224   ;;		while(_flgUartFin != 1){
                                 5225   CLINEA 0000H 0000H 06F6H 0003H 001AH
00:00A0                          5226   _$L372 :
                                 5227   CBLOCK 231 4 1782
                                 5228   
                                 5229   ;;			main_clrWDT();
                                 5230   CLINEA 0000H 0001H 06F7H 0004H 0011H
00:00A0 01-F0'00-00'             5231   	bl	_main_clrWDT
                                 5232   CBLOCKEND 231 4 1784
                                 5233   
                                 5234   ;;		while(_flgUartFin != 1){
                                 5235   CLINEA 0000H 0000H 06F6H 0001H 0001H
00:00A4                          5236   _$L374 :
                                 5237   
                                 5238   ;;		while(_flgUartFin != 1){
                                 5239   CLINEA 0000H 0000H 06F6H 000DH 0011H
00:00A4 10-90 00-00'             5240   	l	r0,	NEAR __flgUartFin
00:00A8 01 70                    5241   	cmp	r0,	#01h
00:00AA FA C8                    5242   	bne	_$L372
                                 5243   CBLOCKEND 231 2 1785
                                 5244   
                                 5245   ;;}
                                 5246   CLINEA 0000H 0001H 06F9H 0001H 0001H
00:00AC 8E-F2                    5247   	pop	pc
                                 5248   CBLOCKEND 231 1 1785
                                 5249   CFUNCTIONEND 231
                                 5250   
                                 5251   
  --------------------------     5252   	rseg $$UARTTunePID$main
                                 5253   CFUNCTION 232
                                 5254   
00:0000                          5255   _UARTTunePID	:
                                 5256   CBLOCK 232 1 1789
                                 5257   
                                 5258   ;;{
                                 5259   CLINEA 0000H 0001H 06FDH 0001H 0001H
00:0000 CE-F8                    5260   	push	lr
                                 5261   CBLOCK 232 2 1789
                                 5262   CRET 0000H
                                 5263   CLOCAL 47H 0002H 0024H 0002H "k" 02H 00H 01H
                                 5264   CLOCAL 4BH 0002H 0000H 0002H "i" 02H 00H 01H
                                 5265   CLOCAL 4BH 0002H 0000H 0002H "j" 02H 00H 01H
                                 5266   
                                 5267   ;;		for (k=0;k<7;k++)
                                 5268   CLINEA 0000H 0001H 0704H 0008H 000BH
00:0002 00 E0                    5269   	mov	er0,	#0 
                                 5270   
                                 5271   ;;		for (k=0;k<7;k++)
                                 5272   CLINEA 0000H 0000H 0704H 0010H 0012H
00:0004                          5273   _$L379 :
                                 5274   CBLOCK 232 3 1797
                                 5275   
                                 5276   ;;			RecWorld[k] = 0;	//ie: to set ki to 1.5 =>send ki1.50000
                                 5277   CLINEA 0000H 0001H 0706H 0004H 003BH
00:0004 00 02                    5278   	mov	r2,	#00h
00:0006 09-92 00-00'             5279   	st	r2,	NEAR _RecWorld[er0]
                                 5280   CBLOCKEND 232 3 1799
                                 5281   
                                 5282   ;;		for (k=0;k<7;k++)
                                 5283   CLINEA 0000H 0000H 0704H 0010H 0012H
00:000A 81 E0                    5284   	add	er0,	#1 
                                 5285   
                                 5286   ;;		for (k=0;k<7;k++)
                                 5287   CLINEA 0000H 0000H 0704H 000CH 000FH
00:000C 07 70                    5288   	cmp	r0,	#07h
00:000E 00 51                    5289   	cmpc	r1,	#00h
00:0010 F9 C5                    5290   	blts	_$L379
                                 5291   
                                 5292   ;;		ETM8 = 0; //Turn OFF TIMER8/9 ISR for this function...
                                 5293   CLINEA 0000H 0001H 0709H 0003H 0038H
00:0012 A2-A0 13-F0              5294   	rb	0f013h.2
                                 5295   
                                 5296   ;;		ETM9 = 0; //Turn OFF TIMER8/9 ISR for this function...
                                 5297   CLINEA 0000H 0001H 070AH 0003H 0038H
00:0016 B2-A0 13-F0              5298   	rb	0f013h.3
                                 5299   
                                 5300   ;;		_flgUartFin = 0;
                                 5301   CLINEA 0000H 0001H 070DH 0003H 0012H
00:001A 00 00                    5302   	mov	r0,	#00h
00:001C 11-90 00-00'             5303   	st	r0,	NEAR __flgUartFin
                                 5304   
                                 5305   ;;		uart_stop();
                                 5306   CLINEA 0000H 0001H 070EH 0003H 000EH
00:0020 01-F0'00-00'             5307   	bl	_uart_stop
                                 5308   
                                 5309   ;;		uart_startReceive(RecWorld, 8, _funcUartFin);
                                 5310   CLINEA 0000H 0001H 070FH 0003H 002FH
00:0024 00'00                    5311   	mov	r0,	#BYTE1 OFFSET __funcUartFin
00:0026 00'01                    5312   	mov	r1,	#BYTE2 OFFSET __funcUartFin
00:0028 5E-F0                    5313   	push	er0
00:002A 08 E2                    5314   	mov	er2,	#8 
00:002C 00'00                    5315   	mov	r0,	#BYTE1 OFFSET _RecWorld
00:002E 00'01                    5316   	mov	r1,	#BYTE2 OFFSET _RecWorld
00:0030 01-F0'00-00'             5317   	bl	_uart_startReceive
00:0034 02 E1                    5318   	add	sp,	#2 
                                 5319   
                                 5320   ;;		while(_flgUartFin != 1){
                                 5321   CLINEA 0000H 0000H 0710H 0001H 0001H
00:0036 02 CE                    5322   	bal	_$L424
                                 5323   
                                 5324   ;;		while(_flgUartFin != 1){
                                 5325   CLINEA 0000H 0000H 0710H 0003H 001AH
00:0038                          5326   _$L385 :
                                 5327   CBLOCK 232 4 1808
                                 5328   
                                 5329   ;;			main_clrWDT();
                                 5330   CLINEA 0000H 0001H 0711H 0004H 0011H
00:0038 01-F0'00-00'             5331   	bl	_main_clrWDT
                                 5332   CBLOCKEND 232 4 1810
                                 5333   
                                 5334   ;;		while(_flgUartFin != 1){
                                 5335   CLINEA 0000H 0000H 0710H 0001H 0001H
00:003C                          5336   _$L424 :
                                 5337   
                                 5338   ;;		while(_flgUartFin != 1){
                                 5339   CLINEA 0000H 0000H 0710H 000CH 000FH
00:003C 10-90 00-00'             5340   	l	r0,	NEAR __flgUartFin
00:0040 01 70                    5341   	cmp	r0,	#01h
00:0042 FA C8                    5342   	bne	_$L385
                                 5343   
                                 5344   ;;		if(RecWorld[0] == 0x6B){			//if RECWORLD == "kpi"
                                 5345   CLINEA 0000H 0001H 0740H 0003H 0033H
00:0044 10-90 00-00'             5346   	l	r0,	NEAR _RecWorld
00:0048 6B 70                    5347   	cmp	r0,	#06bh
00:004A 02 C9                    5348   	beq	_$M24
00:004C 00-F0'00-00'             5349   	b	_$L391
00:0050                          5350   _$M24 :
                                 5351   CBLOCK 232 5 1856
                                 5352   
                                 5353   ;;			if(RecWorld[1] == 0x70){
                                 5354   CLINEA 0000H 0001H 0741H 0004H 001BH
00:0050 10-90 00-00'             5355   	l	r0,	NEAR _RecWorld+01h
00:0054 70 70                    5356   	cmp	r0,	#070h
00:0056 02 C9                    5357   	beq	_$M25
00:0058 00-F0'00-00'             5358   	b	_$L391
00:005C                          5359   _$M25 :
                                 5360   CBLOCK 232 6 1857
                                 5361   
                                 5362   ;;				if(RecWorld[1] == 0x69){
                                 5363   CLINEA 0000H 0001H 0742H 0005H 001CH
00:005C 69 70                    5364   	cmp	r0,	#069h
00:005E 02 C9                    5365   	beq	_$M26
00:0060 00-F0'00-00'             5366   	b	_$L391
00:0064                          5367   _$M26 :
                                 5368   CBLOCK 232 7 1858
                                 5369   
                                 5370   ;;					NewVar_Str[0] = RecWorld[2];
                                 5371   CLINEA 0000H 0001H 0743H 0006H 0021H
00:0064 10-90 00-00'             5372   	l	r0,	NEAR _RecWorld+02h
00:0068 11-90 00-00'             5373   	st	r0,	NEAR _NewVar_Str
                                 5374   
                                 5375   ;;					NewVar_Str[1] = RecWorld[3];
                                 5376   CLINEA 0000H 0001H 0744H 0006H 0021H
00:006C 10-90 00-00'             5377   	l	r0,	NEAR _RecWorld+03h
00:0070 11-90 00-00'             5378   	st	r0,	NEAR _NewVar_Str+01h
                                 5379   
                                 5380   ;;					NewVar_Str[2] = RecWorld[4];
                                 5381   CLINEA 0000H 0001H 0745H 0006H 0021H
00:0074 10-90 00-00'             5382   	l	r0,	NEAR _RecWorld+04h
00:0078 11-90 00-00'             5383   	st	r0,	NEAR _NewVar_Str+02h
                                 5384   
                                 5385   ;;					NewVar_Str[3] = RecWorld[5];
                                 5386   CLINEA 0000H 0001H 0746H 0006H 0021H
00:007C 10-90 00-00'             5387   	l	r0,	NEAR _RecWorld+05h
00:0080 11-90 00-00'             5388   	st	r0,	NEAR _NewVar_Str+03h
                                 5389   
                                 5390   ;;					NewVar_Str[4] = RecWorld[6];
                                 5391   CLINEA 0000H 0001H 0747H 0006H 0021H
00:0084 10-90 00-00'             5392   	l	r0,	NEAR _RecWorld+06h
00:0088 11-90 00-00'             5393   	st	r0,	NEAR _NewVar_Str+04h
                                 5394   
                                 5395   ;;					NewVar_Str[5] = RecWorld[7];
                                 5396   CLINEA 0000H 0001H 0748H 0006H 0021H
00:008C 10-90 00-00'             5397   	l	r0,	NEAR _RecWorld+07h
00:0090 11-90 00-00'             5398   	st	r0,	NEAR _NewVar_Str+05h
                                 5399   
                                 5400   ;;					sscanf(NewVar_Str, "%f", &NewVar);
                                 5401   CLINEA 0000H 0001H 0749H 0006H 0027H
00:0094 00'00                    5402   	mov	r0,	#BYTE1 OFFSET _NewVar
00:0096 00'01                    5403   	mov	r1,	#BYTE2 OFFSET _NewVar
00:0098 5E-F0                    5404   	push	er0
00:009A 00'00                    5405   	mov	r0,	#BYTE1 OFFSET $$S211
00:009C 00'01                    5406   	mov	r1,	#BYTE2 OFFSET $$S211
00:009E 5E-F0                    5407   	push	er0
00:00A0 00'00                    5408   	mov	r0,	#BYTE1 OFFSET _NewVar_Str
00:00A2 00'01                    5409   	mov	r1,	#BYTE2 OFFSET _NewVar_Str
00:00A4 5E-F0                    5410   	push	er0
00:00A6 01-F0'00-00'             5411   	bl	_sscanf_nn
00:00AA 06 E1                    5412   	add	sp,	#6 
                                 5413   
                                 5414   ;;					Accel_PID_XRoll_kp = NewVar;
                                 5415   CLINEA 0000H 0001H 074AH 0006H 0021H
00:00AC 12-90 00-00'             5416   	l	er0,	NEAR _NewVar
00:00B0 12-92 00-00'             5417   	l	er2,	NEAR _NewVar+02h
00:00B4 13-90 00-00'             5418   	st	er0,	NEAR _Accel_PID_XRoll_kp
00:00B8 13-92 00-00'             5419   	st	er2,	NEAR _Accel_PID_XRoll_kp+02h
                                 5420   
                                 5421   ;;					Accel_PID_YPitch_kp = NewVar;
                                 5422   CLINEA 0000H 0001H 074BH 0006H 0022H
00:00BC 13-90 00-00'             5423   	st	er0,	NEAR _Accel_PID_YPitch_kp
00:00C0 13-92 00-00'             5424   	st	er2,	NEAR _Accel_PID_YPitch_kp+02h
                                 5425   
                                 5426   ;;					Accel_PID_XRoll_ki = NewVar/2;
                                 5427   CLINEA 0000H 0001H 074CH 0006H 0023H
00:00C4 6E-F0                    5428   	push	xr0
00:00C6 00 E0                    5429   	mov	er0,	#0 
00:00C8 00 02                    5430   	mov	r2,	#00h
00:00CA 40 03                    5431   	mov	r3,	#040h
00:00CC 6E-F0                    5432   	push	xr0
00:00CE 01-F0'00-00'             5433   	bl	__fdivu8sw
00:00D2 04 E1                    5434   	add	sp,	#4 
00:00D4 2E-F0                    5435   	pop	xr0
00:00D6 13-90 00-00'             5436   	st	er0,	NEAR _Accel_PID_XRoll_ki
00:00DA 13-92 00-00'             5437   	st	er2,	NEAR _Accel_PID_XRoll_ki+02h
                                 5438   
                                 5439   ;;					Accel_PID_YPitch_ki = NewVar/2;
                                 5440   CLINEA 0000H 0001H 074DH 0006H 0024H
00:00DE 12-90 00-00'             5441   	l	er0,	NEAR _NewVar
00:00E2 12-92 00-00'             5442   	l	er2,	NEAR _NewVar+02h
00:00E6 6E-F0                    5443   	push	xr0
00:00E8 00 E0                    5444   	mov	er0,	#0 
00:00EA 00 02                    5445   	mov	r2,	#00h
00:00EC 40 03                    5446   	mov	r3,	#040h
00:00EE 6E-F0                    5447   	push	xr0
00:00F0 01-F0'00-00'             5448   	bl	__fdivu8sw
00:00F4 04 E1                    5449   	add	sp,	#4 
00:00F6 2E-F0                    5450   	pop	xr0
00:00F8 13-90 00-00'             5451   	st	er0,	NEAR _Accel_PID_YPitch_ki
00:00FC 13-92 00-00'             5452   	st	er2,	NEAR _Accel_PID_YPitch_ki+02h
                                 5453   CBLOCKEND 232 7 1870
                                 5454   
                                 5455   ;;				}
                                 5456   CLINEA 0000H 0000H 074EH 0005H 0005H
00:0100                          5457   _$L391 :
                                 5458   CBLOCKEND 232 6 1871
                                 5459   CBLOCKEND 232 5 1872
                                 5460   
                                 5461   ;;		if(RecWorld[0] == 0x6B){			//if RECWORLD == "kp"
                                 5462   CLINEA 0000H 0001H 0752H 0003H 0032H
00:0100 10-90 00-00'             5463   	l	r0,	NEAR _RecWorld
00:0104 6B 70                    5464   	cmp	r0,	#06bh
00:0106 34 C8                    5465   	bne	_$L395
                                 5466   CBLOCK 232 8 1874
                                 5467   
                                 5468   ;;			if(RecWorld[1] == 0x70){
                                 5469   CLINEA 0000H 0001H 0753H 0004H 001BH
00:0108 10-90 00-00'             5470   	l	r0,	NEAR _RecWorld+01h
00:010C 70 70                    5471   	cmp	r0,	#070h
00:010E 30 C8                    5472   	bne	_$L395
                                 5473   CBLOCK 232 9 1875
                                 5474   
                                 5475   ;;				NewVar_Str[0] = RecWorld[2];
                                 5476   CLINEA 0000H 0001H 0754H 0005H 0020H
00:0110 10-90 00-00'             5477   	l	r0,	NEAR _RecWorld+02h
00:0114 11-90 00-00'             5478   	st	r0,	NEAR _NewVar_Str
                                 5479   
                                 5480   ;;				NewVar_Str[1] = RecWorld[3];
                                 5481   CLINEA 0000H 0001H 0755H 0005H 0020H
00:0118 10-90 00-00'             5482   	l	r0,	NEAR _RecWorld+03h
00:011C 11-90 00-00'             5483   	st	r0,	NEAR _NewVar_Str+01h
                                 5484   
                                 5485   ;;				NewVar_Str[2] = RecWorld[4];
                                 5486   CLINEA 0000H 0001H 0756H 0005H 0020H
00:0120 10-90 00-00'             5487   	l	r0,	NEAR _RecWorld+04h
00:0124 11-90 00-00'             5488   	st	r0,	NEAR _NewVar_Str+02h
                                 5489   
                                 5490   ;;				NewVar_Str[3] = RecWorld[5];
                                 5491   CLINEA 0000H 0001H 0757H 0005H 0020H
00:0128 10-90 00-00'             5492   	l	r0,	NEAR _RecWorld+05h
00:012C 11-90 00-00'             5493   	st	r0,	NEAR _NewVar_Str+03h
                                 5494   
                                 5495   ;;				NewVar_Str[4] = RecWorld[6];
                                 5496   CLINEA 0000H 0001H 0758H 0005H 0020H
00:0130 10-90 00-00'             5497   	l	r0,	NEAR _RecWorld+06h
00:0134 11-90 00-00'             5498   	st	r0,	NEAR _NewVar_Str+04h
                                 5499   
                                 5500   ;;				NewVar_Str[5] = RecWorld[7];
                                 5501   CLINEA 0000H 0001H 0759H 0005H 0020H
00:0138 10-90 00-00'             5502   	l	r0,	NEAR _RecWorld+07h
00:013C 11-90 00-00'             5503   	st	r0,	NEAR _NewVar_Str+05h
                                 5504   
                                 5505   ;;				sscanf(NewVar_Str, "%f", &NewVar);
                                 5506   CLINEA 0000H 0001H 075AH 0005H 0026H
00:0140 00'00                    5507   	mov	r0,	#BYTE1 OFFSET _NewVar
00:0142 00'01                    5508   	mov	r1,	#BYTE2 OFFSET _NewVar
00:0144 5E-F0                    5509   	push	er0
00:0146 00'00                    5510   	mov	r0,	#BYTE1 OFFSET $$S211
00:0148 00'01                    5511   	mov	r1,	#BYTE2 OFFSET $$S211
00:014A 5E-F0                    5512   	push	er0
00:014C 00'00                    5513   	mov	r0,	#BYTE1 OFFSET _NewVar_Str
00:014E 00'01                    5514   	mov	r1,	#BYTE2 OFFSET _NewVar_Str
00:0150 5E-F0                    5515   	push	er0
00:0152 01-F0'00-00'             5516   	bl	_sscanf_nn
00:0156 06 E1                    5517   	add	sp,	#6 
                                 5518   
                                 5519   ;;				Accel_PID_XRoll_kp = NewVar;
                                 5520   CLINEA 0000H 0001H 075BH 0005H 0020H
00:0158 12-90 00-00'             5521   	l	er0,	NEAR _NewVar
00:015C 12-92 00-00'             5522   	l	er2,	NEAR _NewVar+02h
00:0160 13-90 00-00'             5523   	st	er0,	NEAR _Accel_PID_XRoll_kp
00:0164 13-92 00-00'             5524   	st	er2,	NEAR _Accel_PID_XRoll_kp+02h
                                 5525   
                                 5526   ;;				Accel_PID_YPitch_kp = NewVar;
                                 5527   CLINEA 0000H 0001H 075CH 0005H 0021H
00:0168 13-90 00-00'             5528   	st	er0,	NEAR _Accel_PID_YPitch_kp
00:016C 13-92 00-00'             5529   	st	er2,	NEAR _Accel_PID_YPitch_kp+02h
                                 5530   CBLOCKEND 232 9 1887
                                 5531   
                                 5532   ;;			}
                                 5533   CLINEA 0000H 0000H 075FH 0004H 0004H
00:0170                          5534   _$L395 :
                                 5535   CBLOCKEND 232 8 1888
                                 5536   
                                 5537   ;;		if(RecWorld[0] == 0x6B){			//if RECWORLD == "ki"
                                 5538   CLINEA 0000H 0001H 0762H 0003H 0032H
00:0170 10-90 00-00'             5539   	l	r0,	NEAR _RecWorld
00:0174 6B 70                    5540   	cmp	r0,	#06bh
00:0176 34 C8                    5541   	bne	_$L399
                                 5542   CBLOCK 232 10 1890
                                 5543   
                                 5544   ;;			if(RecWorld[1] == 0x69){
                                 5545   CLINEA 0000H 0001H 0763H 0004H 001BH
00:0178 10-90 00-00'             5546   	l	r0,	NEAR _RecWorld+01h
00:017C 69 70                    5547   	cmp	r0,	#069h
00:017E 30 C8                    5548   	bne	_$L399
                                 5549   CBLOCK 232 11 1891
                                 5550   
                                 5551   ;;				NewVar_Str[0] = RecWorld[2];
                                 5552   CLINEA 0000H 0001H 0764H 0005H 0020H
00:0180 10-90 00-00'             5553   	l	r0,	NEAR _RecWorld+02h
00:0184 11-90 00-00'             5554   	st	r0,	NEAR _NewVar_Str
                                 5555   
                                 5556   ;;				NewVar_Str[1] = RecWorld[3];
                                 5557   CLINEA 0000H 0001H 0765H 0005H 0020H
00:0188 10-90 00-00'             5558   	l	r0,	NEAR _RecWorld+03h
00:018C 11-90 00-00'             5559   	st	r0,	NEAR _NewVar_Str+01h
                                 5560   
                                 5561   ;;				NewVar_Str[2] = RecWorld[4];
                                 5562   CLINEA 0000H 0001H 0766H 0005H 0020H
00:0190 10-90 00-00'             5563   	l	r0,	NEAR _RecWorld+04h
00:0194 11-90 00-00'             5564   	st	r0,	NEAR _NewVar_Str+02h
                                 5565   
                                 5566   ;;				NewVar_Str[3] = RecWorld[5];
                                 5567   CLINEA 0000H 0001H 0767H 0005H 0020H
00:0198 10-90 00-00'             5568   	l	r0,	NEAR _RecWorld+05h
00:019C 11-90 00-00'             5569   	st	r0,	NEAR _NewVar_Str+03h
                                 5570   
                                 5571   ;;				NewVar_Str[4] = RecWorld[6];
                                 5572   CLINEA 0000H 0001H 0768H 0005H 0020H
00:01A0 10-90 00-00'             5573   	l	r0,	NEAR _RecWorld+06h
00:01A4 11-90 00-00'             5574   	st	r0,	NEAR _NewVar_Str+04h
                                 5575   
                                 5576   ;;				NewVar_Str[5] = RecWorld[7];
                                 5577   CLINEA 0000H 0001H 0769H 0005H 0020H
00:01A8 10-90 00-00'             5578   	l	r0,	NEAR _RecWorld+07h
00:01AC 11-90 00-00'             5579   	st	r0,	NEAR _NewVar_Str+05h
                                 5580   
                                 5581   ;;				sscanf(NewVar_Str, "%f", &NewVar);
                                 5582   CLINEA 0000H 0001H 076AH 0005H 0026H
00:01B0 00'00                    5583   	mov	r0,	#BYTE1 OFFSET _NewVar
00:01B2 00'01                    5584   	mov	r1,	#BYTE2 OFFSET _NewVar
00:01B4 5E-F0                    5585   	push	er0
00:01B6 00'00                    5586   	mov	r0,	#BYTE1 OFFSET $$S211
00:01B8 00'01                    5587   	mov	r1,	#BYTE2 OFFSET $$S211
00:01BA 5E-F0                    5588   	push	er0
00:01BC 00'00                    5589   	mov	r0,	#BYTE1 OFFSET _NewVar_Str
00:01BE 00'01                    5590   	mov	r1,	#BYTE2 OFFSET _NewVar_Str
00:01C0 5E-F0                    5591   	push	er0
00:01C2 01-F0'00-00'             5592   	bl	_sscanf_nn
00:01C6 06 E1                    5593   	add	sp,	#6 
                                 5594   
                                 5595   ;;				Accel_PID_XRoll_ki = NewVar;
                                 5596   CLINEA 0000H 0001H 076BH 0005H 0020H
00:01C8 12-90 00-00'             5597   	l	er0,	NEAR _NewVar
00:01CC 12-92 00-00'             5598   	l	er2,	NEAR _NewVar+02h
00:01D0 13-90 00-00'             5599   	st	er0,	NEAR _Accel_PID_XRoll_ki
00:01D4 13-92 00-00'             5600   	st	er2,	NEAR _Accel_PID_XRoll_ki+02h
                                 5601   
                                 5602   ;;				Accel_PID_YPitch_ki = NewVar;
                                 5603   CLINEA 0000H 0001H 076CH 0005H 0021H
00:01D8 13-90 00-00'             5604   	st	er0,	NEAR _Accel_PID_YPitch_ki
00:01DC 13-92 00-00'             5605   	st	er2,	NEAR _Accel_PID_YPitch_ki+02h
                                 5606   CBLOCKEND 232 11 1901
                                 5607   
                                 5608   ;;			}
                                 5609   CLINEA 0000H 0000H 076DH 0004H 0004H
00:01E0                          5610   _$L399 :
                                 5611   CBLOCKEND 232 10 1902
                                 5612   
                                 5613   ;;		if(RecWorld[0] == 0x6B){			//if RECWORLD == "kd"
                                 5614   CLINEA 0000H 0001H 0770H 0003H 0032H
00:01E0 10-90 00-00'             5615   	l	r0,	NEAR _RecWorld
00:01E4 6B 70                    5616   	cmp	r0,	#06bh
00:01E6 34 C8                    5617   	bne	_$L403
                                 5618   CBLOCK 232 12 1904
                                 5619   
                                 5620   ;;			if(RecWorld[1] == 0x64){
                                 5621   CLINEA 0000H 0001H 0771H 0004H 001BH
00:01E8 10-90 00-00'             5622   	l	r0,	NEAR _RecWorld+01h
00:01EC 64 70                    5623   	cmp	r0,	#064h
00:01EE 30 C8                    5624   	bne	_$L403
                                 5625   CBLOCK 232 13 1905
                                 5626   
                                 5627   ;;				NewVar_Str[0] = RecWorld[2];
                                 5628   CLINEA 0000H 0001H 0772H 0005H 0020H
00:01F0 10-90 00-00'             5629   	l	r0,	NEAR _RecWorld+02h
00:01F4 11-90 00-00'             5630   	st	r0,	NEAR _NewVar_Str
                                 5631   
                                 5632   ;;				NewVar_Str[1] = RecWorld[3];
                                 5633   CLINEA 0000H 0001H 0773H 0005H 0020H
00:01F8 10-90 00-00'             5634   	l	r0,	NEAR _RecWorld+03h
00:01FC 11-90 00-00'             5635   	st	r0,	NEAR _NewVar_Str+01h
                                 5636   
                                 5637   ;;				NewVar_Str[2] = RecWorld[4];
                                 5638   CLINEA 0000H 0001H 0774H 0005H 0020H
00:0200 10-90 00-00'             5639   	l	r0,	NEAR _RecWorld+04h
00:0204 11-90 00-00'             5640   	st	r0,	NEAR _NewVar_Str+02h
                                 5641   
                                 5642   ;;				NewVar_Str[3] = RecWorld[5];
                                 5643   CLINEA 0000H 0001H 0775H 0005H 0020H
00:0208 10-90 00-00'             5644   	l	r0,	NEAR _RecWorld+05h
00:020C 11-90 00-00'             5645   	st	r0,	NEAR _NewVar_Str+03h
                                 5646   
                                 5647   ;;				NewVar_Str[4] = RecWorld[6];
                                 5648   CLINEA 0000H 0001H 0776H 0005H 0020H
00:0210 10-90 00-00'             5649   	l	r0,	NEAR _RecWorld+06h
00:0214 11-90 00-00'             5650   	st	r0,	NEAR _NewVar_Str+04h
                                 5651   
                                 5652   ;;				NewVar_Str[5] = RecWorld[7];
                                 5653   CLINEA 0000H 0001H 0777H 0005H 0020H
00:0218 10-90 00-00'             5654   	l	r0,	NEAR _RecWorld+07h
00:021C 11-90 00-00'             5655   	st	r0,	NEAR _NewVar_Str+05h
                                 5656   
                                 5657   ;;				sscanf(NewVar_Str, "%f", &NewVar);
                                 5658   CLINEA 0000H 0001H 0778H 0005H 0026H
00:0220 00'00                    5659   	mov	r0,	#BYTE1 OFFSET _NewVar
00:0222 00'01                    5660   	mov	r1,	#BYTE2 OFFSET _NewVar
00:0224 5E-F0                    5661   	push	er0
00:0226 00'00                    5662   	mov	r0,	#BYTE1 OFFSET $$S211
00:0228 00'01                    5663   	mov	r1,	#BYTE2 OFFSET $$S211
00:022A 5E-F0                    5664   	push	er0
00:022C 00'00                    5665   	mov	r0,	#BYTE1 OFFSET _NewVar_Str
00:022E 00'01                    5666   	mov	r1,	#BYTE2 OFFSET _NewVar_Str
00:0230 5E-F0                    5667   	push	er0
00:0232 01-F0'00-00'             5668   	bl	_sscanf_nn
00:0236 06 E1                    5669   	add	sp,	#6 
                                 5670   
                                 5671   ;;				Accel_PID_XRoll_kd = NewVar;
                                 5672   CLINEA 0000H 0001H 0779H 0005H 0020H
00:0238 12-90 00-00'             5673   	l	er0,	NEAR _NewVar
00:023C 12-92 00-00'             5674   	l	er2,	NEAR _NewVar+02h
00:0240 13-90 00-00'             5675   	st	er0,	NEAR _Accel_PID_XRoll_kd
00:0244 13-92 00-00'             5676   	st	er2,	NEAR _Accel_PID_XRoll_kd+02h
                                 5677   
                                 5678   ;;				Accel_PID_YPitch_kd = NewVar;
                                 5679   CLINEA 0000H 0001H 077AH 0005H 0021H
00:0248 13-90 00-00'             5680   	st	er0,	NEAR _Accel_PID_YPitch_kd
00:024C 13-92 00-00'             5681   	st	er2,	NEAR _Accel_PID_YPitch_kd+02h
                                 5682   CBLOCKEND 232 13 1915
                                 5683   
                                 5684   ;;			}
                                 5685   CLINEA 0000H 0000H 077BH 0004H 0004H
00:0250                          5686   _$L403 :
                                 5687   CBLOCKEND 232 12 1916
                                 5688   
                                 5689   ;;		if(RecWorld[0] == 0x61){			//if RECWORLD == "a1"
                                 5690   CLINEA 0000H 0001H 077EH 0003H 0032H
00:0250 10-90 00-00'             5691   	l	r0,	NEAR _RecWorld
00:0254 61 70                    5692   	cmp	r0,	#061h
00:0256 02 C9                    5693   	beq	_$M27
00:0258 00-F0'00-00'             5694   	b	_$L407
00:025C                          5695   _$M27 :
                                 5696   CBLOCK 232 14 1918
                                 5697   
                                 5698   ;;			if(RecWorld[1] == 0x31){
                                 5699   CLINEA 0000H 0001H 077FH 0004H 001BH
00:025C 10-90 00-00'             5700   	l	r0,	NEAR _RecWorld+01h
00:0260 31 70                    5701   	cmp	r0,	#031h
00:0262 3D C8                    5702   	bne	_$L407
                                 5703   CBLOCK 232 15 1919
                                 5704   
                                 5705   ;;				NewVar_Str[0] = RecWorld[2];
                                 5706   CLINEA 0000H 0001H 0780H 0005H 0020H
00:0264 10-90 00-00'             5707   	l	r0,	NEAR _RecWorld+02h
00:0268 11-90 00-00'             5708   	st	r0,	NEAR _NewVar_Str
                                 5709   
                                 5710   ;;				NewVar_Str[1] = RecWorld[3];
                                 5711   CLINEA 0000H 0001H 0781H 0005H 0020H
00:026C 10-90 00-00'             5712   	l	r0,	NEAR _RecWorld+03h
00:0270 11-90 00-00'             5713   	st	r0,	NEAR _NewVar_Str+01h
                                 5714   
                                 5715   ;;				NewVar_Str[2] = RecWorld[4];
                                 5716   CLINEA 0000H 0001H 0782H 0005H 0020H
00:0274 10-90 00-00'             5717   	l	r0,	NEAR _RecWorld+04h
00:0278 11-90 00-00'             5718   	st	r0,	NEAR _NewVar_Str+02h
                                 5719   
                                 5720   ;;				NewVar_Str[3] = RecWorld[5];
                                 5721   CLINEA 0000H 0001H 0783H 0005H 0020H
00:027C 10-90 00-00'             5722   	l	r0,	NEAR _RecWorld+05h
00:0280 11-90 00-00'             5723   	st	r0,	NEAR _NewVar_Str+03h
                                 5724   
                                 5725   ;;				NewVar_Str[4] = RecWorld[6];
                                 5726   CLINEA 0000H 0001H 0784H 0005H 0020H
00:0284 10-90 00-00'             5727   	l	r0,	NEAR _RecWorld+06h
00:0288 11-90 00-00'             5728   	st	r0,	NEAR _NewVar_Str+04h
                                 5729   
                                 5730   ;;				NewVar_Str[5] = RecWorld[7];
                                 5731   CLINEA 0000H 0001H 0785H 0005H 0020H
00:028C 10-90 00-00'             5732   	l	r0,	NEAR _RecWorld+07h
00:0290 11-90 00-00'             5733   	st	r0,	NEAR _NewVar_Str+05h
                                 5734   
                                 5735   ;;				sscanf(NewVar_Str, "%f", &NewVar);
                                 5736   CLINEA 0000H 0001H 0786H 0005H 0026H
00:0294 00'00                    5737   	mov	r0,	#BYTE1 OFFSET _NewVar
00:0296 00'01                    5738   	mov	r1,	#BYTE2 OFFSET _NewVar
00:0298 5E-F0                    5739   	push	er0
00:029A 00'00                    5740   	mov	r0,	#BYTE1 OFFSET $$S211
00:029C 00'01                    5741   	mov	r1,	#BYTE2 OFFSET $$S211
00:029E 5E-F0                    5742   	push	er0
00:02A0 00'00                    5743   	mov	r0,	#BYTE1 OFFSET _NewVar_Str
00:02A2 00'01                    5744   	mov	r1,	#BYTE2 OFFSET _NewVar_Str
00:02A4 5E-F0                    5745   	push	er0
00:02A6 01-F0'00-00'             5746   	bl	_sscanf_nn
00:02AA 06 E1                    5747   	add	sp,	#6 
                                 5748   
                                 5749   ;;				CF_HPF = NewVar;
                                 5750   CLINEA 0000H 0001H 0787H 0005H 0014H
00:02AC 12-90 00-00'             5751   	l	er0,	NEAR _NewVar
00:02B0 12-92 00-00'             5752   	l	er2,	NEAR _NewVar+02h
00:02B4 13-90 00-00'             5753   	st	er0,	NEAR _CF_HPF
00:02B8 13-92 00-00'             5754   	st	er2,	NEAR _CF_HPF+02h
                                 5755   
                                 5756   ;;				CF_LPF = 1-NewVar;
                                 5757   CLINEA 0000H 0001H 0788H 0005H 0016H
00:02BC 00 E0                    5758   	mov	er0,	#0 
00:02BE 80 02                    5759   	mov	r2,	#080h
00:02C0 3F 03                    5760   	mov	r3,	#03fh
00:02C2 6E-F0                    5761   	push	xr0
00:02C4 12-90 00-00'             5762   	l	er0,	NEAR _NewVar
00:02C8 12-92 00-00'             5763   	l	er2,	NEAR _NewVar+02h
00:02CC 6E-F0                    5764   	push	xr0
00:02CE 01-F0'00-00'             5765   	bl	__fsubu8sw
00:02D2 04 E1                    5766   	add	sp,	#4 
00:02D4 2E-F0                    5767   	pop	xr0
00:02D6 13-90 00-00'             5768   	st	er0,	NEAR _CF_LPF
00:02DA 13-92 00-00'             5769   	st	er2,	NEAR _CF_LPF+02h
                                 5770   CBLOCKEND 232 15 1929
                                 5771   
                                 5772   ;;			}
                                 5773   CLINEA 0000H 0000H 0789H 0004H 0004H
00:02DE                          5774   _$L407 :
                                 5775   CBLOCKEND 232 14 1930
                                 5776   
                                 5777   ;;		if(RecWorld[0] == 0x61){			//if RECWORLD == "a2"
                                 5778   CLINEA 0000H 0001H 078CH 0003H 0032H
00:02DE 10-90 00-00'             5779   	l	r0,	NEAR _RecWorld
00:02E2 61 70                    5780   	cmp	r0,	#061h
00:02E4 02 C9                    5781   	beq	_$M28
00:02E6 00-F0'00-00'             5782   	b	_$L411
00:02EA                          5783   _$M28 :
                                 5784   CBLOCK 232 16 1932
                                 5785   
                                 5786   ;;			if(RecWorld[1] == 0x32){
                                 5787   CLINEA 0000H 0001H 078DH 0004H 001BH
00:02EA 10-90 00-00'             5788   	l	r0,	NEAR _RecWorld+01h
00:02EE 32 70                    5789   	cmp	r0,	#032h
00:02F0 3D C8                    5790   	bne	_$L411
                                 5791   CBLOCK 232 17 1933
                                 5792   
                                 5793   ;;				NewVar_Str[0] = RecWorld[2];
                                 5794   CLINEA 0000H 0001H 078EH 0005H 0020H
00:02F2 10-90 00-00'             5795   	l	r0,	NEAR _RecWorld+02h
00:02F6 11-90 00-00'             5796   	st	r0,	NEAR _NewVar_Str
                                 5797   
                                 5798   ;;				NewVar_Str[1] = RecWorld[3];
                                 5799   CLINEA 0000H 0001H 078FH 0005H 0020H
00:02FA 10-90 00-00'             5800   	l	r0,	NEAR _RecWorld+03h
00:02FE 11-90 00-00'             5801   	st	r0,	NEAR _NewVar_Str+01h
                                 5802   
                                 5803   ;;				NewVar_Str[2] = RecWorld[4];
                                 5804   CLINEA 0000H 0001H 0790H 0005H 0020H
00:0302 10-90 00-00'             5805   	l	r0,	NEAR _RecWorld+04h
00:0306 11-90 00-00'             5806   	st	r0,	NEAR _NewVar_Str+02h
                                 5807   
                                 5808   ;;				NewVar_Str[3] = RecWorld[5];
                                 5809   CLINEA 0000H 0001H 0791H 0005H 0020H
00:030A 10-90 00-00'             5810   	l	r0,	NEAR _RecWorld+05h
00:030E 11-90 00-00'             5811   	st	r0,	NEAR _NewVar_Str+03h
                                 5812   
                                 5813   ;;				NewVar_Str[4] = RecWorld[6];
                                 5814   CLINEA 0000H 0001H 0792H 0005H 0020H
00:0312 10-90 00-00'             5815   	l	r0,	NEAR _RecWorld+06h
00:0316 11-90 00-00'             5816   	st	r0,	NEAR _NewVar_Str+04h
                                 5817   
                                 5818   ;;				NewVar_Str[5] = RecWorld[7];
                                 5819   CLINEA 0000H 0001H 0793H 0005H 0020H
00:031A 10-90 00-00'             5820   	l	r0,	NEAR _RecWorld+07h
00:031E 11-90 00-00'             5821   	st	r0,	NEAR _NewVar_Str+05h
                                 5822   
                                 5823   ;;				sscanf(NewVar_Str, "%f", &NewVar);
                                 5824   CLINEA 0000H 0001H 0794H 0005H 0026H
00:0322 00'00                    5825   	mov	r0,	#BYTE1 OFFSET _NewVar
00:0324 00'01                    5826   	mov	r1,	#BYTE2 OFFSET _NewVar
00:0326 5E-F0                    5827   	push	er0
00:0328 00'00                    5828   	mov	r0,	#BYTE1 OFFSET $$S211
00:032A 00'01                    5829   	mov	r1,	#BYTE2 OFFSET $$S211
00:032C 5E-F0                    5830   	push	er0
00:032E 00'00                    5831   	mov	r0,	#BYTE1 OFFSET _NewVar_Str
00:0330 00'01                    5832   	mov	r1,	#BYTE2 OFFSET _NewVar_Str
00:0332 5E-F0                    5833   	push	er0
00:0334 01-F0'00-00'             5834   	bl	_sscanf_nn
00:0338 06 E1                    5835   	add	sp,	#6 
                                 5836   
                                 5837   ;;				CF_HPF = 1-NewVar;
                                 5838   CLINEA 0000H 0001H 0795H 0005H 0016H
00:033A 00 E0                    5839   	mov	er0,	#0 
00:033C 80 02                    5840   	mov	r2,	#080h
00:033E 3F 03                    5841   	mov	r3,	#03fh
00:0340 6E-F0                    5842   	push	xr0
00:0342 12-90 00-00'             5843   	l	er0,	NEAR _NewVar
00:0346 12-92 00-00'             5844   	l	er2,	NEAR _NewVar+02h
00:034A 6E-F0                    5845   	push	xr0
00:034C 01-F0'00-00'             5846   	bl	__fsubu8sw
00:0350 04 E1                    5847   	add	sp,	#4 
00:0352 2E-F0                    5848   	pop	xr0
00:0354 13-90 00-00'             5849   	st	er0,	NEAR _CF_HPF
00:0358 13-92 00-00'             5850   	st	er2,	NEAR _CF_HPF+02h
                                 5851   
                                 5852   ;;				CF_LPF = NewVar;
                                 5853   CLINEA 0000H 0001H 0796H 0005H 0014H
00:035C 12-90 00-00'             5854   	l	er0,	NEAR _NewVar
00:0360 12-92 00-00'             5855   	l	er2,	NEAR _NewVar+02h
00:0364 13-90 00-00'             5856   	st	er0,	NEAR _CF_LPF
00:0368 13-92 00-00'             5857   	st	er2,	NEAR _CF_LPF+02h
                                 5858   CBLOCKEND 232 17 1943
                                 5859   
                                 5860   ;;			}
                                 5861   CLINEA 0000H 0000H 0797H 0004H 0004H
00:036C                          5862   _$L411 :
                                 5863   CBLOCKEND 232 16 1944
                                 5864   
                                 5865   ;;		for(k = 0; k<150; k++)
                                 5866   CLINEA 0000H 0001H 079AH 0007H 000CH
00:036C 00 E0                    5867   	mov	er0,	#0 
                                 5868   
                                 5869   ;;		for(k = 0; k<150; k++)
                                 5870   CLINEA 0000H 0000H 079AH 0015H 0017H
00:036E                          5871   _$L415 :
                                 5872   CBLOCK 232 18 1947
                                 5873   
                                 5874   ;;			SensorReturn[k] = 0x20;
                                 5875   CLINEA 0000H 0001H 079CH 0004H 001AH
00:036E 20 02                    5876   	mov	r2,	#020h
00:0370 09-92 00-00'             5877   	st	r2,	NEAR _SensorReturn[er0]
                                 5878   CBLOCKEND 232 18 1949
                                 5879   
                                 5880   ;;		for(k = 0; k<150; k++)
                                 5881   CLINEA 0000H 0000H 079AH 0015H 0017H
00:0374 81 E0                    5882   	add	er0,	#1 
                                 5883   
                                 5884   ;;		for(k = 0; k<150; k++)
                                 5885   CLINEA 0000H 0000H 079AH 000EH 0013H
00:0376 96 70                    5886   	cmp	r0,	#096h
00:0378 00 51                    5887   	cmpc	r1,	#00h
00:037A F9 C5                    5888   	blts	_$L415
                                 5889   
                                 5890   ;;		sprintf(SensorReturn, "New Settings: kp=%f,ki=%f,kd=%f,a1=%f,a2=%f", Accel_PID_XRoll_kp, Accel_PID_XRoll_ki, Accel_PID_XRoll_kd, CF_HPF, CF_LPF);
                                 5891   CLINEA 0000H 0001H 079FH 0003H 0093H
00:037C 12-90 00-00'             5892   	l	er0,	NEAR _CF_LPF
00:0380 12-92 00-00'             5893   	l	er2,	NEAR _CF_LPF+02h
00:0384 6E-F0                    5894   	push	xr0
00:0386 FC E1                    5895   	add	sp,	#-4
00:0388 01-F0'00-00'             5896   	bl	__ftodu8sw
00:038C 12-90 00-00'             5897   	l	er0,	NEAR _CF_HPF
00:0390 12-92 00-00'             5898   	l	er2,	NEAR _CF_HPF+02h
00:0394 6E-F0                    5899   	push	xr0
00:0396 FC E1                    5900   	add	sp,	#-4
00:0398 01-F0'00-00'             5901   	bl	__ftodu8sw
00:039C 12-90 00-00'             5902   	l	er0,	NEAR _Accel_PID_XRoll_kd
00:03A0 12-92 00-00'             5903   	l	er2,	NEAR _Accel_PID_XRoll_kd+02h
00:03A4 6E-F0                    5904   	push	xr0
00:03A6 FC E1                    5905   	add	sp,	#-4
00:03A8 01-F0'00-00'             5906   	bl	__ftodu8sw
00:03AC 12-90 00-00'             5907   	l	er0,	NEAR _Accel_PID_XRoll_ki
00:03B0 12-92 00-00'             5908   	l	er2,	NEAR _Accel_PID_XRoll_ki+02h
00:03B4 6E-F0                    5909   	push	xr0
00:03B6 FC E1                    5910   	add	sp,	#-4
00:03B8 01-F0'00-00'             5911   	bl	__ftodu8sw
00:03BC 12-90 00-00'             5912   	l	er0,	NEAR _Accel_PID_XRoll_kp
00:03C0 12-92 00-00'             5913   	l	er2,	NEAR _Accel_PID_XRoll_kp+02h
00:03C4 6E-F0                    5914   	push	xr0
00:03C6 FC E1                    5915   	add	sp,	#-4
00:03C8 01-F0'00-00'             5916   	bl	__ftodu8sw
00:03CC 00'00                    5917   	mov	r0,	#BYTE1 OFFSET $$S419
00:03CE 00'01                    5918   	mov	r1,	#BYTE2 OFFSET $$S419
00:03D0 5E-F0                    5919   	push	er0
00:03D2 00'00                    5920   	mov	r0,	#BYTE1 OFFSET _SensorReturn
00:03D4 00'01                    5921   	mov	r1,	#BYTE2 OFFSET _SensorReturn
00:03D6 5E-F0                    5922   	push	er0
00:03D8 01-F0'00-00'             5923   	bl	_sprintf_nn
00:03DC 2C E1                    5924   	add	sp,	#44
                                 5925   
                                 5926   ;;		SensorReturn[148] = 0x0D;	//CR
                                 5927   CLINEA 0000H 0001H 07A1H 0003H 0020H
00:03DE 0D 00                    5928   	mov	r0,	#0dh
00:03E0 11-90 00-00'             5929   	st	r0,	NEAR _SensorReturn+094h
                                 5930   
                                 5931   ;;		SensorReturn[149] = 0x0A;	//LF
                                 5932   CLINEA 0000H 0001H 07A2H 0003H 0020H
00:03E4 0A 00                    5933   	mov	r0,	#0ah
00:03E6 11-90 00-00'             5934   	st	r0,	NEAR _SensorReturn+095h
                                 5935   
                                 5936   ;;		_flgUartFin = 0;
                                 5937   CLINEA 0000H 0001H 07A5H 0003H 0012H
00:03EA 00 00                    5938   	mov	r0,	#00h
00:03EC 11-90 00-00'             5939   	st	r0,	NEAR __flgUartFin
                                 5940   
                                 5941   ;;		uart_stop();
                                 5942   CLINEA 0000H 0001H 07A6H 0003H 000EH
00:03F0 01-F0'00-00'             5943   	bl	_uart_stop
                                 5944   
                                 5945   ;;		uart_startSend(SensorReturn, 150, _funcUartFin);
                                 5946   CLINEA 0000H 0001H 07A7H 0003H 0032H
00:03F4 00'00                    5947   	mov	r0,	#BYTE1 OFFSET __funcUartFin
00:03F6 00'01                    5948   	mov	r1,	#BYTE2 OFFSET __funcUartFin
00:03F8 5E-F0                    5949   	push	er0
00:03FA 96 02                    5950   	mov	r2,	#096h
00:03FC 00 03                    5951   	mov	r3,	#00h
00:03FE 00'00                    5952   	mov	r0,	#BYTE1 OFFSET _SensorReturn
00:0400 00'01                    5953   	mov	r1,	#BYTE2 OFFSET _SensorReturn
00:0402 01-F0'00-00'             5954   	bl	_uart_startSend
00:0406 02 E1                    5955   	add	sp,	#2 
                                 5956   
                                 5957   ;;		while(_flgUartFin != 1){
                                 5958   CLINEA 0000H 0000H 07A8H 0001H 0001H
00:0408 02 CE                    5959   	bal	_$L425
                                 5960   
                                 5961   ;;		while(_flgUartFin != 1){
                                 5962   CLINEA 0000H 0000H 07A8H 0003H 001AH
00:040A                          5963   _$L422 :
                                 5964   CBLOCK 232 19 1960
                                 5965   
                                 5966   ;;			main_clrWDT();
                                 5967   CLINEA 0000H 0001H 07A9H 0004H 0011H
00:040A 01-F0'00-00'             5968   	bl	_main_clrWDT
                                 5969   CBLOCKEND 232 19 1962
                                 5970   
                                 5971   ;;		while(_flgUartFin != 1){
                                 5972   CLINEA 0000H 0000H 07A8H 0001H 0001H
00:040E                          5973   _$L425 :
                                 5974   
                                 5975   ;;		while(_flgUartFin != 1){
                                 5976   CLINEA 0000H 0000H 07A8H 000EH 0013H
00:040E 10-90 00-00'             5977   	l	r0,	NEAR __flgUartFin
00:0412 01 70                    5978   	cmp	r0,	#01h
00:0414 FA C8                    5979   	bne	_$L422
                                 5980   
                                 5981   ;;		ETM8 = 1;	//Turn TIMER8/9 ISR Back ON
                                 5982   CLINEA 0000H 0001H 07ACH 0003H 0027H
00:0416 A0-A0 13-F0              5983   	sb	0f013h.2
                                 5984   
                                 5985   ;;		ETM9 = 1;	//Turn TIMER8/9 ISR Back ON		
                                 5986   CLINEA 0000H 0001H 07ADH 0003H 0029H
00:041A B0-A0 13-F0              5987   	sb	0f013h.3
                                 5988   CBLOCKEND 232 2 1966
                                 5989   
                                 5990   ;;}
                                 5991   CLINEA 0000H 0001H 07AEH 0001H 0001H
00:041E 8E-F2                    5992   	pop	pc
                                 5993   CBLOCKEND 232 1 1966
                                 5994   CFUNCTIONEND 232
                                 5995   
                                 5996   
  --------------------------     5997   	rseg $$SoftStart$main
                                 5998   CFUNCTION 233
                                 5999   
00:0000                          6000   _SoftStart	:
                                 6001   CBLOCK 233 1 1970
                                 6002   
                                 6003   ;;{
                                 6004   CLINEA 0000H 0001H 07B2H 0001H 0001H
00:0000 CE-F8                    6005   	push	lr
                                 6006   CBLOCK 233 2 1970
                                 6007   CRET 0000H
                                 6008   
                                 6009   ;;		while(PWED < PWMIdleDutyRun){
                                 6010   CLINEA 0000H 0001H 07B5H 0003H 001FH
00:0002 27 CE                    6011   	bal	_$L427
00:0004                          6012   _$L429 :
                                 6013   CBLOCK 233 3 1973
                                 6014   
                                 6015   ;;			NOPms(50);
                                 6016   CLINEA 0000H 0001H 07B6H 0004H 000DH
00:0004 32 E0                    6017   	mov	er0,	#50
00:0006 01-F0'00-00'             6018   	bl	_NOPms
                                 6019   
                                 6020   ;;			PFRUN = 0;	//Turn OFF PWM
                                 6021   CLINEA 0000H 0001H 07B7H 0004H 001CH
00:000A 82-A0 73-F9              6022   	rb	0f973h.0
                                 6023   
                                 6024   ;;			PERUN = 0;
                                 6025   CLINEA 0000H 0001H 07B8H 0004H 000DH
00:000E 82-A0 37-F9              6026   	rb	0f937h.0
                                 6027   
                                 6028   ;;			PDRUN = 0;
                                 6029   CLINEA 0000H 0001H 07B9H 0004H 000DH
00:0012 82-A0 27-F9              6030   	rb	0f927h.0
                                 6031   
                                 6032   ;;			PCRUN = 0;
                                 6033   CLINEA 0000H 0001H 07BAH 0004H 000DH
00:0016 82-A0 17-F9              6034   	rb	0f917h.0
                                 6035   
                                 6036   ;;			PWF0D += 1; 		//Can't be running to change (Only this variable)
                                 6037   CLINEA 0000H 0001H 07BBH 0004H 0042H
00:001A 12-90 62-F9              6038   	l	er0,	0f962h
00:001E 81 E0                    6039   	add	er0,	#1 
00:0020 13-90 62-F9              6040   	st	er0,	0f962h
                                 6041   
                                 6042   ;;			PWED += 1;	
                                 6043   CLINEA 0000H 0001H 07BCH 0004H 000EH
00:0024 12-90 32-F9              6044   	l	er0,	0f932h
00:0028 81 E0                    6045   	add	er0,	#1 
00:002A 13-90 32-F9              6046   	st	er0,	0f932h
                                 6047   
                                 6048   ;;			PWDD += 1;	
                                 6049   CLINEA 0000H 0001H 07BDH 0004H 000EH
00:002E 12-90 22-F9              6050   	l	er0,	0f922h
00:0032 81 E0                    6051   	add	er0,	#1 
00:0034 13-90 22-F9              6052   	st	er0,	0f922h
                                 6053   
                                 6054   ;;			PWCD += 1;
                                 6055   CLINEA 0000H 0001H 07BEH 0004H 000DH
00:0038 12-90 12-F9              6056   	l	er0,	0f912h
00:003C 81 E0                    6057   	add	er0,	#1 
00:003E 13-90 12-F9              6058   	st	er0,	0f912h
                                 6059   
                                 6060   ;;			PFRUN = 1;	//Turn ON PWM
                                 6061   CLINEA 0000H 0001H 07C0H 0004H 001BH
00:0042 80-A0 73-F9              6062   	sb	0f973h.0
                                 6063   
                                 6064   ;;			PERUN = 1;
                                 6065   CLINEA 0000H 0001H 07C1H 0004H 000DH
00:0046 80-A0 37-F9              6066   	sb	0f937h.0
                                 6067   
                                 6068   ;;			PDRUN = 1;
                                 6069   CLINEA 0000H 0001H 07C2H 0004H 000DH
00:004A 80-A0 27-F9              6070   	sb	0f927h.0
                                 6071   
                                 6072   ;;			PCRUN = 1;
                                 6073   CLINEA 0000H 0001H 07C3H 0004H 000DH
00:004E 80-A0 17-F9              6074   	sb	0f917h.0
                                 6075   CBLOCKEND 233 3 1988
                                 6076   
                                 6077   ;;		}
                                 6078   CLINEA 0000H 0000H 07C4H 0003H 0003H
00:0052                          6079   _$L427 :
                                 6080   
                                 6081   ;;		while(PWED < PWMIdleDutyRun){
                                 6082   CLINEA 0000H 0000H 07B5H 000EH 0013H
00:0052 12-90 32-F9              6083   	l	er0,	0f932h
00:0056 12-92 00-00'             6084   	l	er2,	NEAR _PWMIdleDutyRun
00:005A 27-F0                    6085   	cmp	er0,	er2
00:005C D3 C1                    6086   	blt	_$L429
                                 6087   CBLOCKEND 233 2 1989
                                 6088   
                                 6089   ;;}
                                 6090   CLINEA 0000H 0001H 07C5H 0001H 0001H
00:005E 8E-F2                    6091   	pop	pc
                                 6092   CBLOCKEND 233 1 1989
                                 6093   CFUNCTIONEND 233
                                 6094   
                                 6095   
  --------------------------     6096   	rseg $$RampUpMotorTest$main
                                 6097   CFUNCTION 234
                                 6098   
00:0000                          6099   _RampUpMotorTest	:
                                 6100   CBLOCK 234 1 1994
                                 6101   
                                 6102   ;;void RampUpMotorTest(void){
                                 6103   CLINEA 0000H 0001H 07CAH 0001H 001BH
                                 6104   CBLOCK 234 2 1994
                                 6105   
                                 6106   ;;	if(PWMCounter < PWMSensorResPerInc){
                                 6107   CLINEA 0000H 0001H 07CBH 0002H 0025H
00:0000 10-90 00-00'             6108   	l	r0,	NEAR _PWMCounter
00:0004 10-91 00-00'             6109   	l	r1,	NEAR _PWMSensorResPerInc
00:0008 17-80                    6110   	cmp	r0,	r1
00:000A 04 C0                    6111   	bge	_$L432
                                 6112   CBLOCK 234 3 1995
                                 6113   
                                 6114   ;;		PWMCounter++;
                                 6115   CLINEA 0000H 0000H 07CCH 0003H 000FH
00:000C 01 10                    6116   	add	r0,	#01h
00:000E 11-90 00-00'             6117   	st	r0,	NEAR _PWMCounter
                                 6118   CBLOCKEND 234 3 1997
                                 6119   
                                 6120   ;;	else{
                                 6121   CLINEA 0000H 0001H 07CEH 0002H 0006H
00:0012 1F-FE                    6122   	rt
00:0014                          6123   _$L432 :
                                 6124   CBLOCK 234 4 1998
                                 6125   
                                 6126   ;;		if(PWED < PWMUpperDutyLimitCalib){
                                 6127   CLINEA 0000H 0001H 07CFH 0003H 0024H
00:0014 12-90 32-F9              6128   	l	er0,	0f932h
00:0018 12-92 00-00'             6129   	l	er2,	NEAR _PWMUpperDutyLimitCalib
00:001C 27-F0                    6130   	cmp	er0,	er2
00:001E 02 C1                    6131   	blt	_$M31
00:0020 00-F0'00-00'             6132   	b	_$L441
00:0024                          6133   _$M31 :
                                 6134   CBLOCK 234 5 1999
                                 6135   
                                 6136   ;;			if(PWMflag == 0){
                                 6137   CLINEA 0000H 0001H 07D0H 0004H 0014H
00:0024 10-90 00-00'             6138   	l	r0,	NEAR _PWMflag
00:0028 26 C8                    6139   	bne	_$L437
                                 6140   CBLOCK 234 6 2000
                                 6141   
                                 6142   ;;				PFRUN = 0;	//Turn OFF PWM
                                 6143   CLINEA 0000H 0001H 07D1H 0005H 001DH
00:002A 82-A0 73-F9              6144   	rb	0f973h.0
                                 6145   
                                 6146   ;;				PERUN = 0;
                                 6147   CLINEA 0000H 0001H 07D2H 0005H 000EH
00:002E 82-A0 37-F9              6148   	rb	0f937h.0
                                 6149   
                                 6150   ;;				PDRUN = 0;
                                 6151   CLINEA 0000H 0001H 07D3H 0005H 000EH
00:0032 82-A0 27-F9              6152   	rb	0f927h.0
                                 6153   
                                 6154   ;;				PCRUN = 0;
                                 6155   CLINEA 0000H 0001H 07D4H 0005H 000EH
00:0036 82-A0 17-F9              6156   	rb	0f917h.0
                                 6157   
                                 6158   ;;				PWF0D += MotorStep; //Can't be running to change (Only this variable)
                                 6159   CLINEA 0000H 0001H 07D5H 0005H 0049H
00:003A 12-90 62-F9              6160   	l	er0,	0f962h
00:003E 12-92 00-00'             6161   	l	er2,	NEAR _MotorStep
00:0042 26-F0                    6162   	add	er0,	er2
00:0044 13-90 62-F9              6163   	st	er0,	0f962h
                                 6164   
                                 6165   ;;				PWED += MotorStep;
                                 6166   CLINEA 0000H 0001H 07D6H 0005H 0016H
00:0048 12-90 32-F9              6167   	l	er0,	0f932h
00:004C 26-F0                    6168   	add	er0,	er2
00:004E 13-90 32-F9              6169   	st	er0,	0f932h
                                 6170   
                                 6171   ;;				PWDD += MotorStep;
                                 6172   CLINEA 0000H 0001H 07D7H 0005H 0016H
00:0052 12-90 22-F9              6173   	l	er0,	0f922h
00:0056 26-F0                    6174   	add	er0,	er2
00:0058 13-90 22-F9              6175   	st	er0,	0f922h
                                 6176   
                                 6177   ;;				PWCD += MotorStep;
                                 6178   CLINEA 0000H 0001H 07D8H 0005H 0016H
00:005C 12-90 12-F9              6179   	l	er0,	0f912h
00:0060 26-F0                    6180   	add	er0,	er2
00:0062 13-90 12-F9              6181   	st	er0,	0f912h
                                 6182   
                                 6183   ;;				PFRUN = 1;	//Turn ON PWM
                                 6184   CLINEA 0000H 0001H 07D9H 0005H 001CH
00:0066 80-A0 73-F9              6185   	sb	0f973h.0
                                 6186   
                                 6187   ;;				PERUN = 1;
                                 6188   CLINEA 0000H 0001H 07DAH 0005H 000EH
00:006A 80-A0 37-F9              6189   	sb	0f937h.0
                                 6190   
                                 6191   ;;				PDRUN = 1;
                                 6192   CLINEA 0000H 0001H 07DBH 0005H 000EH
00:006E 80-A0 27-F9              6193   	sb	0f927h.0
                                 6194   
                                 6195   ;;				PCRUN = 1;
                                 6196   CLINEA 0000H 0001H 07DCH 0005H 000EH
00:0072 80-A0 17-F9              6197   	sb	0f917h.0
                                 6198   CBLOCKEND 234 6 2013
                                 6199   
                                 6200   ;;			}
                                 6201   CLINEA 0000H 0000H 07DDH 0004H 0004H
00:0076                          6202   _$L437 :
                                 6203   
                                 6204   ;;			if(PWMflag == 1){
                                 6205   CLINEA 0000H 0001H 07DEH 0004H 0014H
00:0076 10-90 00-00'             6206   	l	r0,	NEAR _PWMflag
00:007A 01 70                    6207   	cmp	r0,	#01h
00:007C 33 C8                    6208   	bne	_$L441
                                 6209   CBLOCK 234 7 2014
                                 6210   
                                 6211   ;;				PFRUN = 0;	//Turn OFF PWM
                                 6212   CLINEA 0000H 0001H 07DFH 0005H 001DH
00:007E 82-A0 73-F9              6213   	rb	0f973h.0
                                 6214   
                                 6215   ;;				PERUN = 0;
                                 6216   CLINEA 0000H 0001H 07E0H 0005H 000EH
00:0082 82-A0 37-F9              6217   	rb	0f937h.0
                                 6218   
                                 6219   ;;				PDRUN = 0;
                                 6220   CLINEA 0000H 0001H 07E1H 0005H 000EH
00:0086 82-A0 27-F9              6221   	rb	0f927h.0
                                 6222   
                                 6223   ;;				PCRUN = 0;
                                 6224   CLINEA 0000H 0001H 07E2H 0005H 000EH
00:008A 82-A0 17-F9              6225   	rb	0f917h.0
                                 6226   
                                 6227   ;;				PWF0D -= MotorStep; //Can't be running to change (Only this variable)
                                 6228   CLINEA 0000H 0001H 07E3H 0005H 0049H
00:008E 12-90 62-F9              6229   	l	er0,	0f962h
00:0092 12-92 00-00'             6230   	l	er2,	NEAR _MotorStep
00:0096 28-80                    6231   	sub	r0,	r2
00:0098 39-81                    6232   	subc	r1,	r3
00:009A 13-90 62-F9              6233   	st	er0,	0f962h
                                 6234   
                                 6235   ;;				PWED -= MotorStep;
                                 6236   CLINEA 0000H 0001H 07E4H 0005H 0016H
00:009E 12-90 32-F9              6237   	l	er0,	0f932h
00:00A2 28-80                    6238   	sub	r0,	r2
00:00A4 39-81                    6239   	subc	r1,	r3
00:00A6 13-90 32-F9              6240   	st	er0,	0f932h
                                 6241   
                                 6242   ;;				PWDD -= MotorStep;
                                 6243   CLINEA 0000H 0001H 07E5H 0005H 0016H
00:00AA 12-90 22-F9              6244   	l	er0,	0f922h
00:00AE 28-80                    6245   	sub	r0,	r2
00:00B0 39-81                    6246   	subc	r1,	r3
00:00B2 13-90 22-F9              6247   	st	er0,	0f922h
                                 6248   
                                 6249   ;;				PWCD -= MotorStep;
                                 6250   CLINEA 0000H 0001H 07E6H 0005H 0016H
00:00B6 12-90 12-F9              6251   	l	er0,	0f912h
00:00BA 28-80                    6252   	sub	r0,	r2
00:00BC 39-81                    6253   	subc	r1,	r3
00:00BE 13-90 12-F9              6254   	st	er0,	0f912h
                                 6255   
                                 6256   ;;				PFRUN = 1;	//Turn ON PWM
                                 6257   CLINEA 0000H 0001H 07E7H 0005H 001CH
00:00C2 80-A0 73-F9              6258   	sb	0f973h.0
                                 6259   
                                 6260   ;;				PERUN = 1;
                                 6261   CLINEA 0000H 0001H 07E8H 0005H 000EH
00:00C6 80-A0 37-F9              6262   	sb	0f937h.0
                                 6263   
                                 6264   ;;				PDRUN = 1;
                                 6265   CLINEA 0000H 0001H 07E9H 0005H 000EH
00:00CA 80-A0 27-F9              6266   	sb	0f927h.0
                                 6267   
                                 6268   ;;				PCRUN = 1;
                                 6269   CLINEA 0000H 0001H 07EAH 0005H 000EH
00:00CE 80-A0 17-F9              6270   	sb	0f917h.0
                                 6271   
                                 6272   ;;				if(PWED <= PWMSafeDuty){
                                 6273   CLINEA 0000H 0001H 07EBH 0005H 001CH
00:00D2 12-90 32-F9              6274   	l	er0,	0f932h
00:00D6 12-92 00-00'             6275   	l	er2,	NEAR _PWMSafeDuty
00:00DA 27-F0                    6276   	cmp	er0,	er2
00:00DC 03 C2                    6277   	bgt	_$L441
                                 6278   CBLOCK 234 8 2027
                                 6279   
                                 6280   ;;					PWMflag = 2;
                                 6281   CLINEA 0000H 0001H 07ECH 0006H 0011H
00:00DE 02 00                    6282   	mov	r0,	#02h
00:00E0 11-90 00-00'             6283   	st	r0,	NEAR _PWMflag
                                 6284   CBLOCKEND 234 8 2029
                                 6285   
                                 6286   ;;				}
                                 6287   CLINEA 0000H 0000H 07EDH 0005H 0005H
00:00E4                          6288   _$L441 :
                                 6289   CBLOCKEND 234 7 2030
                                 6290   CBLOCKEND 234 5 2031
                                 6291   
                                 6292   ;;		if(PWED >= PWMUpperDutyLimitCalib){
                                 6293   CLINEA 0000H 0001H 07F0H 0003H 0025H
00:00E4 12-90 32-F9              6294   	l	er0,	0f932h
00:00E8 12-92 00-00'             6295   	l	er2,	NEAR _PWMUpperDutyLimitCalib
00:00EC 27-F0                    6296   	cmp	er0,	er2
00:00EE 2D C1                    6297   	blt	_$L443
                                 6298   CBLOCK 234 9 2032
                                 6299   
                                 6300   ;;			PFRUN = 0;	//Turn OFF PWM
                                 6301   CLINEA 0000H 0001H 07F1H 0004H 001CH
00:00F0 82-A0 73-F9              6302   	rb	0f973h.0
                                 6303   
                                 6304   ;;			PERUN = 0;
                                 6305   CLINEA 0000H 0001H 07F2H 0004H 000DH
00:00F4 82-A0 37-F9              6306   	rb	0f937h.0
                                 6307   
                                 6308   ;;			PDRUN = 0;
                                 6309   CLINEA 0000H 0001H 07F3H 0004H 000DH
00:00F8 82-A0 27-F9              6310   	rb	0f927h.0
                                 6311   
                                 6312   ;;			PCRUN = 0;
                                 6313   CLINEA 0000H 0001H 07F4H 0004H 000DH
00:00FC 82-A0 17-F9              6314   	rb	0f917h.0
                                 6315   
                                 6316   ;;			PWF0D -= MotorStep; //Can't be running to change (Only this variable)
                                 6317   CLINEA 0000H 0001H 07F5H 0004H 0048H
00:0100 12-90 62-F9              6318   	l	er0,	0f962h
00:0104 12-92 00-00'             6319   	l	er2,	NEAR _MotorStep
00:0108 28-80                    6320   	sub	r0,	r2
00:010A 39-81                    6321   	subc	r1,	r3
00:010C 13-90 62-F9              6322   	st	er0,	0f962h
                                 6323   
                                 6324   ;;			PWED -= MotorStep;
                                 6325   CLINEA 0000H 0001H 07F6H 0004H 0015H
00:0110 12-90 32-F9              6326   	l	er0,	0f932h
00:0114 28-80                    6327   	sub	r0,	r2
00:0116 39-81                    6328   	subc	r1,	r3
00:0118 13-90 32-F9              6329   	st	er0,	0f932h
                                 6330   
                                 6331   ;;			PWDD -= MotorStep;
                                 6332   CLINEA 0000H 0001H 07F7H 0004H 0015H
00:011C 12-90 22-F9              6333   	l	er0,	0f922h
00:0120 28-80                    6334   	sub	r0,	r2
00:0122 39-81                    6335   	subc	r1,	r3
00:0124 13-90 22-F9              6336   	st	er0,	0f922h
                                 6337   
                                 6338   ;;			PWCD -= MotorStep;
                                 6339   CLINEA 0000H 0001H 07F8H 0004H 0015H
00:0128 12-90 12-F9              6340   	l	er0,	0f912h
00:012C 28-80                    6341   	sub	r0,	r2
00:012E 39-81                    6342   	subc	r1,	r3
00:0130 13-90 12-F9              6343   	st	er0,	0f912h
                                 6344   
                                 6345   ;;			PWMflag = 1;
                                 6346   CLINEA 0000H 0001H 07F9H 0004H 000FH
00:0134 01 00                    6347   	mov	r0,	#01h
00:0136 11-90 00-00'             6348   	st	r0,	NEAR _PWMflag
                                 6349   
                                 6350   ;;			PFRUN = 1;	//Turn ON PWM
                                 6351   CLINEA 0000H 0001H 07FAH 0004H 001BH
00:013A 80-A0 73-F9              6352   	sb	0f973h.0
                                 6353   
                                 6354   ;;			PERUN = 1;
                                 6355   CLINEA 0000H 0001H 07FBH 0004H 000DH
00:013E 80-A0 37-F9              6356   	sb	0f937h.0
                                 6357   
                                 6358   ;;			PDRUN = 1;
                                 6359   CLINEA 0000H 0001H 07FCH 0004H 000DH
00:0142 80-A0 27-F9              6360   	sb	0f927h.0
                                 6361   
                                 6362   ;;			PCRUN = 1;
                                 6363   CLINEA 0000H 0001H 07FDH 0004H 000DH
00:0146 80-A0 17-F9              6364   	sb	0f917h.0
                                 6365   CBLOCKEND 234 9 2046
                                 6366   
                                 6367   ;;		}
                                 6368   CLINEA 0000H 0000H 07FEH 0003H 0003H
00:014A                          6369   _$L443 :
                                 6370   
                                 6371   ;;		PWMCounter = 0;
                                 6372   CLINEA 0000H 0001H 07FFH 0003H 0011H
00:014A 00 00                    6373   	mov	r0,	#00h
00:014C 11-90 00-00'             6374   	st	r0,	NEAR _PWMCounter
                                 6375   CBLOCKEND 234 4 2048
                                 6376   
                                 6377   ;;	}
                                 6378   CLINEA 0000H 0000H 0800H 0002H 0002H
                                 6379   CBLOCKEND 234 2 2049
                                 6380   
                                 6381   ;;}
                                 6382   CLINEA 0000H 0001H 0801H 0001H 0001H
00:0150 1F-FE                    6383   	rt
                                 6384   CBLOCKEND 234 1 2049
                                 6385   CFUNCTIONEND 234
                                 6386   
                                 6387   
  --------------------------     6388   	rseg $$DistanceSensorControl$main
                                 6389   CFUNCTION 235
                                 6390   
00:0000                          6391   _DistanceSensorControl	:
                                 6392   CBLOCK 235 1 2050
                                 6393   
                                 6394   ;;void DistanceSensorControl(void){
                                 6395   CLINEA 0000H 0001H 0802H 0001H 0021H
00:0000 CE-F8                    6396   	push	lr
                                 6397   CBLOCK 235 2 2050
                                 6398   CRET 0000H
                                 6399   
                                 6400   ;;	if((Range_out < Range_ZHiThres)||(Range_out > Range_Ceiling)){	//65 = 4Ft Level, 240 accounts for sensor error when too close to ground.
                                 6401   CLINEA 0000H 0001H 0803H 0002H 0089H
00:0002 12-90 00-00'             6402   	l	er0,	NEAR _Range_out
00:0006 00 E2                    6403   	mov	er2,	#0 
00:0008 6E-F0                    6404   	push	xr0
00:000A 01-F0'00-00'             6405   	bl	__fuldu8sw
00:000E 12-90 00-00'             6406   	l	er0,	NEAR _Range_ZHiThres
00:0012 12-92 00-00'             6407   	l	er2,	NEAR _Range_ZHiThres+02h
00:0016 6E-F0                    6408   	push	xr0
00:0018 01-F0'00-00'             6409   	bl	__fcmpu8sw
00:001C 08 E1                    6410   	add	sp,	#8 
00:001E 0B-A0                    6411   	mov	psw,	r0
00:0020 10 C1                    6412   	blt	_$L447
00:0022 12-90 00-00'             6413   	l	er0,	NEAR _Range_out
00:0026 00 E2                    6414   	mov	er2,	#0 
00:0028 6E-F0                    6415   	push	xr0
00:002A 01-F0'00-00'             6416   	bl	__fuldu8sw
00:002E 12-90 00-00'             6417   	l	er0,	NEAR _Range_Ceiling
00:0032 12-92 00-00'             6418   	l	er2,	NEAR _Range_Ceiling+02h
00:0036 6E-F0                    6419   	push	xr0
00:0038 01-F0'00-00'             6420   	bl	__fcmpu8sw
00:003C 08 E1                    6421   	add	sp,	#8 
00:003E 0B-A0                    6422   	mov	psw,	r0
00:0040 26 C3                    6423   	ble	_$L446
00:0042                          6424   _$L447 :
                                 6425   CBLOCK 235 3 2051
                                 6426   
                                 6427   ;;		PFRUN = 0;	//Turn OFF PWM
                                 6428   CLINEA 0000H 0001H 0804H 0003H 001BH
00:0042 82-A0 73-F9              6429   	rb	0f973h.0
                                 6430   
                                 6431   ;;		PERUN = 0;
                                 6432   CLINEA 0000H 0001H 0805H 0003H 000CH
00:0046 82-A0 37-F9              6433   	rb	0f937h.0
                                 6434   
                                 6435   ;;		PDRUN = 0;
                                 6436   CLINEA 0000H 0001H 0806H 0003H 000CH
00:004A 82-A0 27-F9              6437   	rb	0f927h.0
                                 6438   
                                 6439   ;;		PCRUN = 0;
                                 6440   CLINEA 0000H 0001H 0807H 0003H 000CH
00:004E 82-A0 17-F9              6441   	rb	0f917h.0
                                 6442   
                                 6443   ;;		PWF0D += MotorStep; //Can't be running to change (Only this variable)
                                 6444   CLINEA 0000H 0001H 0808H 0003H 0047H
00:0052 12-90 62-F9              6445   	l	er0,	0f962h
00:0056 12-92 00-00'             6446   	l	er2,	NEAR _MotorStep
00:005A 26-F0                    6447   	add	er0,	er2
00:005C 13-90 62-F9              6448   	st	er0,	0f962h
                                 6449   
                                 6450   ;;		PWED += MotorStep;
                                 6451   CLINEA 0000H 0001H 0809H 0003H 0014H
00:0060 12-90 32-F9              6452   	l	er0,	0f932h
00:0064 26-F0                    6453   	add	er0,	er2
00:0066 13-90 32-F9              6454   	st	er0,	0f932h
                                 6455   
                                 6456   ;;		PWDD += MotorStep;
                                 6457   CLINEA 0000H 0001H 080AH 0003H 0014H
00:006A 12-90 22-F9              6458   	l	er0,	0f922h
00:006E 26-F0                    6459   	add	er0,	er2
00:0070 13-90 22-F9              6460   	st	er0,	0f922h
                                 6461   
                                 6462   ;;		PWCD += MotorStep;
                                 6463   CLINEA 0000H 0001H 080BH 0003H 0014H
00:0074 12-90 12-F9              6464   	l	er0,	0f912h
00:0078 26-F0                    6465   	add	er0,	er2
00:007A 13-90 12-F9              6466   	st	er0,	0f912h
                                 6467   
                                 6468   ;;		PFRUN = 1;	//Turn ON PWM
                                 6469   CLINEA 0000H 0001H 080CH 0003H 001AH
00:007E 80-A0 73-F9              6470   	sb	0f973h.0
                                 6471   
                                 6472   ;;		PERUN = 1;
                                 6473   CLINEA 0000H 0001H 080DH 0003H 000CH
00:0082 80-A0 37-F9              6474   	sb	0f937h.0
                                 6475   
                                 6476   ;;		PDRUN = 1;
                                 6477   CLINEA 0000H 0001H 080EH 0003H 000CH
00:0086 80-A0 27-F9              6478   	sb	0f927h.0
                                 6479   
                                 6480   ;;		PCRUN = 1;
                                 6481   CLINEA 0000H 0001H 080FH 0003H 000CH
00:008A 80-A0 17-F9              6482   	sb	0f917h.0
                                 6483   CBLOCKEND 235 3 2064
                                 6484   
                                 6485   ;;	}			
                                 6486   CLINEA 0000H 0000H 0810H 0002H 0005H
00:008E                          6487   _$L446 :
                                 6488   
                                 6489   ;;	if(Range_out > 75){	//4Ft Level
                                 6490   CLINEA 0000H 0001H 0811H 0002H 0020H
00:008E 12-90 00-00'             6491   	l	er0,	NEAR _Range_out
00:0092 4B 70                    6492   	cmp	r0,	#04bh
00:0094 00 51                    6493   	cmpc	r1,	#00h
00:0096 2A C3                    6494   	ble	_$L453
                                 6495   CBLOCK 235 4 2065
                                 6496   
                                 6497   ;;		PFRUN = 0;	//Turn OFF PWM
                                 6498   CLINEA 0000H 0001H 0812H 0003H 001BH
00:0098 82-A0 73-F9              6499   	rb	0f973h.0
                                 6500   
                                 6501   ;;		PERUN = 0;
                                 6502   CLINEA 0000H 0001H 0813H 0003H 000CH
00:009C 82-A0 37-F9              6503   	rb	0f937h.0
                                 6504   
                                 6505   ;;		PDRUN = 0;
                                 6506   CLINEA 0000H 0001H 0814H 0003H 000CH
00:00A0 82-A0 27-F9              6507   	rb	0f927h.0
                                 6508   
                                 6509   ;;		PCRUN = 0;
                                 6510   CLINEA 0000H 0001H 0815H 0003H 000CH
00:00A4 82-A0 17-F9              6511   	rb	0f917h.0
                                 6512   
                                 6513   ;;		PWF0D -= MotorStep; //Can't be running to change (Only this variable)
                                 6514   CLINEA 0000H 0001H 0816H 0003H 0047H
00:00A8 12-90 62-F9              6515   	l	er0,	0f962h
00:00AC 12-92 00-00'             6516   	l	er2,	NEAR _MotorStep
00:00B0 28-80                    6517   	sub	r0,	r2
00:00B2 39-81                    6518   	subc	r1,	r3
00:00B4 13-90 62-F9              6519   	st	er0,	0f962h
                                 6520   
                                 6521   ;;		PWED -= MotorStep;
                                 6522   CLINEA 0000H 0001H 0817H 0003H 0014H
00:00B8 12-90 32-F9              6523   	l	er0,	0f932h
00:00BC 28-80                    6524   	sub	r0,	r2
00:00BE 39-81                    6525   	subc	r1,	r3
00:00C0 13-90 32-F9              6526   	st	er0,	0f932h
                                 6527   
                                 6528   ;;		PWDD -= MotorStep;
                                 6529   CLINEA 0000H 0001H 0818H 0003H 0014H
00:00C4 12-90 22-F9              6530   	l	er0,	0f922h
00:00C8 28-80                    6531   	sub	r0,	r2
00:00CA 39-81                    6532   	subc	r1,	r3
00:00CC 13-90 22-F9              6533   	st	er0,	0f922h
                                 6534   
                                 6535   ;;		PWCD -= MotorStep;
                                 6536   CLINEA 0000H 0001H 0819H 0003H 0014H
00:00D0 12-90 12-F9              6537   	l	er0,	0f912h
00:00D4 28-80                    6538   	sub	r0,	r2
00:00D6 39-81                    6539   	subc	r1,	r3
00:00D8 13-90 12-F9              6540   	st	er0,	0f912h
                                 6541   
                                 6542   ;;		PFRUN = 1;	//Turn ON PWM
                                 6543   CLINEA 0000H 0001H 081AH 0003H 001AH
00:00DC 80-A0 73-F9              6544   	sb	0f973h.0
                                 6545   
                                 6546   ;;		PERUN = 1;
                                 6547   CLINEA 0000H 0001H 081BH 0003H 000CH
00:00E0 80-A0 37-F9              6548   	sb	0f937h.0
                                 6549   
                                 6550   ;;		PDRUN = 1;
                                 6551   CLINEA 0000H 0001H 081CH 0003H 000CH
00:00E4 80-A0 27-F9              6552   	sb	0f927h.0
                                 6553   
                                 6554   ;;		PCRUN = 1;
                                 6555   CLINEA 0000H 0001H 081DH 0003H 000CH
00:00E8 80-A0 17-F9              6556   	sb	0f917h.0
                                 6557   CBLOCKEND 235 4 2078
                                 6558   
                                 6559   ;;	}
                                 6560   CLINEA 0000H 0000H 081EH 0002H 0002H
00:00EC                          6561   _$L453 :
                                 6562   CBLOCKEND 235 2 2122
                                 6563   
                                 6564   ;;}
                                 6565   CLINEA 0000H 0001H 084AH 0001H 0001H
00:00EC 8E-F2                    6566   	pop	pc
                                 6567   CBLOCKEND 235 1 2122
                                 6568   CFUNCTIONEND 235
                                 6569   
                                 6570   
  --------------------------     6571   	rseg $$MagSensorControl$main
                                 6572   CFUNCTION 236
                                 6573   
00:0000                          6574   _MagSensorControl	:
                                 6575   CBLOCK 236 1 2185
                                 6576   
                                 6577   ;;void MagSensorControl(void){
                                 6578   CLINEA 0000H 0001H 0889H 0001H 001CH
00:0000 CE-F8                    6579   	push	lr
                                 6580   CBLOCK 236 2 2185
                                 6581   CRET 0000H
                                 6582   
                                 6583   ;;	if((Mag_Angle > Mag_CWThres)&&(Mag_Angle < Mag_OpposingPole)){
                                 6584   CLINEA 0000H 0001H 088AH 0002H 003FH
00:0002 12-90 00-00'             6585   	l	er0,	NEAR _Mag_Angle
00:0006 12-92 00-00'             6586   	l	er2,	NEAR _Mag_Angle+02h
00:000A 6E-F0                    6587   	push	xr0
00:000C 12-90 00-00'             6588   	l	er0,	NEAR _Mag_CWThres
00:0010 12-92 00-00'             6589   	l	er2,	NEAR _Mag_CWThres+02h
00:0014 6E-F0                    6590   	push	xr0
00:0016 01-F0'00-00'             6591   	bl	__fcmpu8sw
00:001A 08 E1                    6592   	add	sp,	#8 
00:001C 0B-A0                    6593   	mov	psw,	r0
00:001E 37 C3                    6594   	ble	_$L456
00:0020 12-90 00-00'             6595   	l	er0,	NEAR _Mag_Angle
00:0024 12-92 00-00'             6596   	l	er2,	NEAR _Mag_Angle+02h
00:0028 6E-F0                    6597   	push	xr0
00:002A 12-90 00-00'             6598   	l	er0,	NEAR _Mag_OpposingPole
00:002E 12-92 00-00'             6599   	l	er2,	NEAR _Mag_OpposingPole+02h
00:0032 6E-F0                    6600   	push	xr0
00:0034 01-F0'00-00'             6601   	bl	__fcmpu8sw
00:0038 08 E1                    6602   	add	sp,	#8 
00:003A 0B-A0                    6603   	mov	psw,	r0
00:003C 28 C0                    6604   	bge	_$L456
                                 6605   CBLOCK 236 3 2186
                                 6606   
                                 6607   ;;		PFRUN = 0;	//Turn OFF PWM
                                 6608   CLINEA 0000H 0001H 088BH 0003H 001BH
00:003E 82-A0 73-F9              6609   	rb	0f973h.0
                                 6610   
                                 6611   ;;		PERUN = 0;
                                 6612   CLINEA 0000H 0001H 088CH 0003H 000CH
00:0042 82-A0 37-F9              6613   	rb	0f937h.0
                                 6614   
                                 6615   ;;		PDRUN = 0;
                                 6616   CLINEA 0000H 0001H 088DH 0003H 000CH
00:0046 82-A0 27-F9              6617   	rb	0f927h.0
                                 6618   
                                 6619   ;;		PCRUN = 0;
                                 6620   CLINEA 0000H 0001H 088EH 0003H 000CH
00:004A 82-A0 17-F9              6621   	rb	0f917h.0
                                 6622   
                                 6623   ;;		PWF0D += Mag_MotorStep; //Can't be running to change (Only this variable)
                                 6624   CLINEA 0000H 0001H 088FH 0003H 004BH
00:004E 12-90 62-F9              6625   	l	er0,	0f962h
00:0052 12-92 00-00'             6626   	l	er2,	NEAR _Mag_MotorStep
00:0056 26-F0                    6627   	add	er0,	er2
00:0058 13-90 62-F9              6628   	st	er0,	0f962h
                                 6629   
                                 6630   ;;		PWED -= Mag_MotorStep;
                                 6631   CLINEA 0000H 0001H 0890H 0003H 0018H
00:005C 12-90 32-F9              6632   	l	er0,	0f932h
00:0060 28-80                    6633   	sub	r0,	r2
00:0062 39-81                    6634   	subc	r1,	r3
00:0064 13-90 32-F9              6635   	st	er0,	0f932h
                                 6636   
                                 6637   ;;		PWDD -= Mag_MotorStep;
                                 6638   CLINEA 0000H 0001H 0891H 0003H 0018H
00:0068 12-90 22-F9              6639   	l	er0,	0f922h
00:006C 28-80                    6640   	sub	r0,	r2
00:006E 39-81                    6641   	subc	r1,	r3
00:0070 13-90 22-F9              6642   	st	er0,	0f922h
                                 6643   
                                 6644   ;;		PWCD += Mag_MotorStep;
                                 6645   CLINEA 0000H 0001H 0892H 0003H 0018H
00:0074 12-90 12-F9              6646   	l	er0,	0f912h
00:0078 26-F0                    6647   	add	er0,	er2
00:007A 13-90 12-F9              6648   	st	er0,	0f912h
                                 6649   
                                 6650   ;;		PFRUN = 1;	//Turn ON PWM
                                 6651   CLINEA 0000H 0001H 0893H 0003H 001AH
00:007E 80-A0 73-F9              6652   	sb	0f973h.0
                                 6653   
                                 6654   ;;		PERUN = 1;
                                 6655   CLINEA 0000H 0001H 0894H 0003H 000CH
00:0082 80-A0 37-F9              6656   	sb	0f937h.0
                                 6657   
                                 6658   ;;		PDRUN = 1;
                                 6659   CLINEA 0000H 0001H 0895H 0003H 000CH
00:0086 80-A0 27-F9              6660   	sb	0f927h.0
                                 6661   
                                 6662   ;;		PCRUN = 1;
                                 6663   CLINEA 0000H 0001H 0896H 0003H 000CH
00:008A 80-A0 17-F9              6664   	sb	0f917h.0
                                 6665   CBLOCKEND 236 3 2199
                                 6666   
                                 6667   ;;	}
                                 6668   CLINEA 0000H 0000H 0897H 0002H 0002H
00:008E                          6669   _$L456 :
                                 6670   
                                 6671   ;;	if((Mag_Angle < Mag_CCWThres)&&(Mag_Angle > Mag_OpposingPole)){
                                 6672   CLINEA 0000H 0001H 0898H 0002H 0040H
00:008E 12-90 00-00'             6673   	l	er0,	NEAR _Mag_Angle
00:0092 12-92 00-00'             6674   	l	er2,	NEAR _Mag_Angle+02h
00:0096 6E-F0                    6675   	push	xr0
00:0098 12-90 00-00'             6676   	l	er0,	NEAR _Mag_CCWThres
00:009C 12-92 00-00'             6677   	l	er2,	NEAR _Mag_CCWThres+02h
00:00A0 6E-F0                    6678   	push	xr0
00:00A2 01-F0'00-00'             6679   	bl	__fcmpu8sw
00:00A6 08 E1                    6680   	add	sp,	#8 
00:00A8 0B-A0                    6681   	mov	psw,	r0
00:00AA 37 C0                    6682   	bge	_$L463
00:00AC 12-90 00-00'             6683   	l	er0,	NEAR _Mag_Angle
00:00B0 12-92 00-00'             6684   	l	er2,	NEAR _Mag_Angle+02h
00:00B4 6E-F0                    6685   	push	xr0
00:00B6 12-90 00-00'             6686   	l	er0,	NEAR _Mag_OpposingPole
00:00BA 12-92 00-00'             6687   	l	er2,	NEAR _Mag_OpposingPole+02h
00:00BE 6E-F0                    6688   	push	xr0
00:00C0 01-F0'00-00'             6689   	bl	__fcmpu8sw
00:00C4 08 E1                    6690   	add	sp,	#8 
00:00C6 0B-A0                    6691   	mov	psw,	r0
00:00C8 28 C3                    6692   	ble	_$L463
                                 6693   CBLOCK 236 4 2200
                                 6694   
                                 6695   ;;		PFRUN = 0;	//Turn OFF PWM
                                 6696   CLINEA 0000H 0001H 0899H 0003H 001BH
00:00CA 82-A0 73-F9              6697   	rb	0f973h.0
                                 6698   
                                 6699   ;;		PERUN = 0;
                                 6700   CLINEA 0000H 0001H 089AH 0003H 000CH
00:00CE 82-A0 37-F9              6701   	rb	0f937h.0
                                 6702   
                                 6703   ;;		PDRUN = 0;
                                 6704   CLINEA 0000H 0001H 089BH 0003H 000CH
00:00D2 82-A0 27-F9              6705   	rb	0f927h.0
                                 6706   
                                 6707   ;;		PCRUN = 0;
                                 6708   CLINEA 0000H 0001H 089CH 0003H 000CH
00:00D6 82-A0 17-F9              6709   	rb	0f917h.0
                                 6710   
                                 6711   ;;		PWF0D -= Mag_MotorStep; //Can't be running to change (Only this variable)
                                 6712   CLINEA 0000H 0001H 089DH 0003H 004BH
00:00DA 12-90 62-F9              6713   	l	er0,	0f962h
00:00DE 12-92 00-00'             6714   	l	er2,	NEAR _Mag_MotorStep
00:00E2 28-80                    6715   	sub	r0,	r2
00:00E4 39-81                    6716   	subc	r1,	r3
00:00E6 13-90 62-F9              6717   	st	er0,	0f962h
                                 6718   
                                 6719   ;;		PWED += Mag_MotorStep;
                                 6720   CLINEA 0000H 0001H 089EH 0003H 0018H
00:00EA 12-90 32-F9              6721   	l	er0,	0f932h
00:00EE 26-F0                    6722   	add	er0,	er2
00:00F0 13-90 32-F9              6723   	st	er0,	0f932h
                                 6724   
                                 6725   ;;		PWDD += Mag_MotorStep;
                                 6726   CLINEA 0000H 0001H 089FH 0003H 0018H
00:00F4 12-90 22-F9              6727   	l	er0,	0f922h
00:00F8 26-F0                    6728   	add	er0,	er2
00:00FA 13-90 22-F9              6729   	st	er0,	0f922h
                                 6730   
                                 6731   ;;		PWCD -= Mag_MotorStep;
                                 6732   CLINEA 0000H 0001H 08A0H 0003H 0018H
00:00FE 12-90 12-F9              6733   	l	er0,	0f912h
00:0102 28-80                    6734   	sub	r0,	r2
00:0104 39-81                    6735   	subc	r1,	r3
00:0106 13-90 12-F9              6736   	st	er0,	0f912h
                                 6737   
                                 6738   ;;		PFRUN = 1;	//Turn ON PWM
                                 6739   CLINEA 0000H 0001H 08A1H 0003H 001AH
00:010A 80-A0 73-F9              6740   	sb	0f973h.0
                                 6741   
                                 6742   ;;		PERUN = 1;
                                 6743   CLINEA 0000H 0001H 08A2H 0003H 000CH
00:010E 80-A0 37-F9              6744   	sb	0f937h.0
                                 6745   
                                 6746   ;;		PDRUN = 1;
                                 6747   CLINEA 0000H 0001H 08A3H 0003H 000CH
00:0112 80-A0 27-F9              6748   	sb	0f927h.0
                                 6749   
                                 6750   ;;		PCRUN = 1;
                                 6751   CLINEA 0000H 0001H 08A4H 0003H 000CH
00:0116 80-A0 17-F9              6752   	sb	0f917h.0
                                 6753   CBLOCKEND 236 4 2213
                                 6754   
                                 6755   ;;	}
                                 6756   CLINEA 0000H 0000H 08A5H 0002H 0002H
00:011A                          6757   _$L463 :
                                 6758   CBLOCKEND 236 2 2214
                                 6759   
                                 6760   ;;}
                                 6761   CLINEA 0000H 0001H 08A6H 0001H 0001H
00:011A 8E-F2                    6762   	pop	pc
                                 6763   CBLOCKEND 236 1 2214
                                 6764   CFUNCTIONEND 236
                                 6765   
                                 6766   
  --------------------------     6767   	rseg $$MagSensorControlPID$main
                                 6768   CFUNCTION 237
                                 6769   
00:0000                          6770   _MagSensorControlPID	:
                                 6771   CBLOCK 237 1 2216
                                 6772   
                                 6773   ;;void MagSensorControlPID(void){
                                 6774   CLINEA 0000H 0001H 08A8H 0001H 001FH
00:0000 CE-F8                    6775   	push	lr
00:0002 6E-F4                    6776   	push	xr4
                                 6777   CBLOCK 237 2 2216
                                 6778   CRET 0004H
                                 6779   CLOCAL 47H 0002H 0024H 0002H "i" 02H 00H 01H
                                 6780   
                                 6781   ;;	if(Mag_PIDSetpoint > 180){
                                 6782   CLINEA 0000H 0001H 08ADH 0002H 001BH
00:0004 12-90 00-00'             6783   	l	er0,	NEAR _Mag_PIDSetpoint
00:0008 12-92 00-00'             6784   	l	er2,	NEAR _Mag_PIDSetpoint+02h
00:000C 6E-F0                    6785   	push	xr0
00:000E 00 E0                    6786   	mov	er0,	#0 
00:0010 34 02                    6787   	mov	r2,	#034h
00:0012 43 03                    6788   	mov	r3,	#043h
00:0014 6E-F0                    6789   	push	xr0
00:0016 01-F0'00-00'             6790   	bl	__fcmpu8sw
00:001A 08 E1                    6791   	add	sp,	#8 
00:001C 0B-A0                    6792   	mov	psw,	r0
00:001E 3C C3                    6793   	ble	_$L471
                                 6794   CBLOCK 237 3 2221
                                 6795   
                                 6796   ;;		Mag_PIDCorrectionFactor = 360-Mag_PIDSetpoint;
                                 6797   CLINEA 0000H 0001H 08AEH 0003H 0030H
00:0020 00 E0                    6798   	mov	er0,	#0 
00:0022 B4 02                    6799   	mov	r2,	#0b4h
00:0024 43 03                    6800   	mov	r3,	#043h
00:0026 6E-F0                    6801   	push	xr0
00:0028 12-90 00-00'             6802   	l	er0,	NEAR _Mag_PIDSetpoint
00:002C 12-92 00-00'             6803   	l	er2,	NEAR _Mag_PIDSetpoint+02h
00:0030 6E-F0                    6804   	push	xr0
00:0032 01-F0'00-00'             6805   	bl	__fsubu8sw
00:0036 04 E1                    6806   	add	sp,	#4 
00:0038 2E-F0                    6807   	pop	xr0
00:003A 13-90 00-00'             6808   	st	er0,	NEAR _Mag_PIDCorrectionFactor
00:003E 13-92 00-00'             6809   	st	er2,	NEAR _Mag_PIDCorrectionFactor+02h
                                 6810   
                                 6811   ;;		Mag_PIDAngleScaled = Mag_Angle + Mag_PIDCorrectionFactor;
                                 6812   CLINEA 0000H 0001H 08AFH 0003H 003BH
00:0042 6E-F0                    6813   	push	xr0
00:0044 12-90 00-00'             6814   	l	er0,	NEAR _Mag_Angle
00:0048 12-92 00-00'             6815   	l	er2,	NEAR _Mag_Angle+02h
00:004C 6E-F0                    6816   	push	xr0
00:004E 01-F0'00-00'             6817   	bl	__faddu8sw
00:0052 04 E1                    6818   	add	sp,	#4 
00:0054 2E-F0                    6819   	pop	xr0
00:0056 13-90 00-00'             6820   	st	er0,	NEAR _Mag_PIDAngleScaled
00:005A 13-92 00-00'             6821   	st	er2,	NEAR _Mag_PIDAngleScaled+02h
                                 6822   
                                 6823   ;;		if(Mag_PIDAngleScaled > 180){
                                 6824   CLINEA 0000H 0001H 08B0H 0003H 001FH
00:005E 6E-F0                    6825   	push	xr0
00:0060 00 E0                    6826   	mov	er0,	#0 
00:0062 34 02                    6827   	mov	r2,	#034h
00:0064 43 03                    6828   	mov	r3,	#043h
00:0066 6E-F0                    6829   	push	xr0
00:0068 01-F0'00-00'             6830   	bl	__fcmpu8sw
00:006C 08 E1                    6831   	add	sp,	#8 
00:006E 0B-A0                    6832   	mov	psw,	r0
00:0070 0E C3                    6833   	ble	_$L473
                                 6834   CBLOCK 237 4 2224
                                 6835   
                                 6836   ;;			Mag_PIDError = Mag_PIDAngleScaled - 360;
                                 6837   CLINEA 0000H 0001H 08B1H 0004H 002BH
00:0072 12-90 00-00'             6838   	l	er0,	NEAR _Mag_PIDAngleScaled
00:0076 12-92 00-00'             6839   	l	er2,	NEAR _Mag_PIDAngleScaled+02h
00:007A 6E-F0                    6840   	push	xr0
00:007C 00 E0                    6841   	mov	er0,	#0 
00:007E B4 02                    6842   	mov	r2,	#0b4h
00:0080 C3 03                    6843   	mov	r3,	#0c3h
00:0082 6E-F0                    6844   	push	xr0
00:0084 01-F0'00-00'             6845   	bl	__faddu8sw
00:0088 04 E1                    6846   	add	sp,	#4 
00:008A 2E-F0                    6847   	pop	xr0
                                 6848   CBLOCKEND 237 4 2227
                                 6849   
                                 6850   ;;		else{
                                 6851   CLINEA 0000H 0001H 08B4H 0003H 0007H
00:008C 04 CE                    6852   	bal	_$L475
00:008E                          6853   _$L473 :
                                 6854   CBLOCK 237 5 2228
                                 6855   
                                 6856   ;;			Mag_PIDError= Mag_PIDAngleScaled;
                                 6857   CLINEA 0000H 0001H 08B5H 0004H 0024H
00:008E 12-90 00-00'             6858   	l	er0,	NEAR _Mag_PIDAngleScaled
00:0092 12-92 00-00'             6859   	l	er2,	NEAR _Mag_PIDAngleScaled+02h
                                 6860   CBLOCKEND 237 5 2230
                                 6861   
                                 6862   ;;		}
                                 6863   CLINEA 0000H 0000H 08B6H 0003H 0003H
00:0096                          6864   _$L475 :
                                 6865   
                                 6866   ;;	else{
                                 6867   CLINEA 0000H 0001H 08B8H 0002H 0006H
00:0096 36 CE                    6868   	bal	_$L479
00:0098                          6869   _$L471 :
                                 6870   CBLOCK 237 6 2232
                                 6871   
                                 6872   ;;		Mag_PIDCorrectionFactor = Mag_PIDSetpoint;					
                                 6873   CLINEA 0000H 0001H 08B9H 0003H 0031H
00:0098 12-90 00-00'             6874   	l	er0,	NEAR _Mag_PIDSetpoint
00:009C 12-92 00-00'             6875   	l	er2,	NEAR _Mag_PIDSetpoint+02h
00:00A0 13-90 00-00'             6876   	st	er0,	NEAR _Mag_PIDCorrectionFactor
00:00A4 13-92 00-00'             6877   	st	er2,	NEAR _Mag_PIDCorrectionFactor+02h
                                 6878   
                                 6879   ;;		Mag_PIDAngleScaled = Mag_Angle - Mag_PIDCorrectionFactor;
                                 6880   CLINEA 0000H 0001H 08BBH 0003H 003BH
00:00A8 12-90 00-00'             6881   	l	er0,	NEAR _Mag_Angle
00:00AC 12-92 00-00'             6882   	l	er2,	NEAR _Mag_Angle+02h
00:00B0 6E-F0                    6883   	push	xr0
00:00B2 12-90 00-00'             6884   	l	er0,	NEAR _Mag_PIDSetpoint
00:00B6 12-92 00-00'             6885   	l	er2,	NEAR _Mag_PIDSetpoint+02h
00:00BA 6E-F0                    6886   	push	xr0
00:00BC 01-F0'00-00'             6887   	bl	__fsubu8sw
00:00C0 04 E1                    6888   	add	sp,	#4 
00:00C2 2E-F0                    6889   	pop	xr0
00:00C4 13-90 00-00'             6890   	st	er0,	NEAR _Mag_PIDAngleScaled
00:00C8 13-92 00-00'             6891   	st	er2,	NEAR _Mag_PIDAngleScaled+02h
                                 6892   
                                 6893   ;;		if(Mag_PIDAngleScaled > 180){
                                 6894   CLINEA 0000H 0001H 08BCH 0003H 001FH
00:00CC 6E-F0                    6895   	push	xr0
00:00CE 00 E0                    6896   	mov	er0,	#0 
00:00D0 34 02                    6897   	mov	r2,	#034h
00:00D2 43 03                    6898   	mov	r3,	#043h
00:00D4 6E-F0                    6899   	push	xr0
00:00D6 01-F0'00-00'             6900   	bl	__fcmpu8sw
00:00DA 08 E1                    6901   	add	sp,	#8 
00:00DC 0B-A0                    6902   	mov	psw,	r0
00:00DE 0E C3                    6903   	ble	_$L477
                                 6904   CBLOCK 237 7 2236
                                 6905   
                                 6906   ;;			Mag_PIDError = Mag_PIDAngleScaled - 360;
                                 6907   CLINEA 0000H 0001H 08BDH 0004H 002BH
00:00E0 12-90 00-00'             6908   	l	er0,	NEAR _Mag_PIDAngleScaled
00:00E4 12-92 00-00'             6909   	l	er2,	NEAR _Mag_PIDAngleScaled+02h
00:00E8 6E-F0                    6910   	push	xr0
00:00EA 00 E0                    6911   	mov	er0,	#0 
00:00EC B4 02                    6912   	mov	r2,	#0b4h
00:00EE C3 03                    6913   	mov	r3,	#0c3h
00:00F0 6E-F0                    6914   	push	xr0
00:00F2 01-F0'00-00'             6915   	bl	__faddu8sw
00:00F6 04 E1                    6916   	add	sp,	#4 
00:00F8 2E-F0                    6917   	pop	xr0
                                 6918   CBLOCKEND 237 7 2239
                                 6919   
                                 6920   ;;		else{
                                 6921   CLINEA 0000H 0001H 08C0H 0003H 0007H
00:00FA 04 CE                    6922   	bal	_$L479
00:00FC                          6923   _$L477 :
                                 6924   CBLOCK 237 8 2240
                                 6925   
                                 6926   ;;			Mag_PIDError = Mag_PIDAngleScaled;
                                 6927   CLINEA 0000H 0001H 08C1H 0004H 0025H
00:00FC 12-90 00-00'             6928   	l	er0,	NEAR _Mag_PIDAngleScaled
00:0100 12-92 00-00'             6929   	l	er2,	NEAR _Mag_PIDAngleScaled+02h
                                 6930   CBLOCKEND 237 8 2242
                                 6931   
                                 6932   ;;		}
                                 6933   CLINEA 0000H 0000H 08C2H 0003H 0003H
00:0104                          6934   _$L479 :
00:0104 13-90 00-00'             6935   	st	er0,	NEAR _Mag_PIDError
00:0108 13-92 00-00'             6936   	st	er2,	NEAR _Mag_PIDError+02h
                                 6937   CBLOCKEND 237 6 2243
                                 6938   
                                 6939   ;;	Mag_PIDError *= -1;
                                 6940   CLINEA 0000H 0001H 08C4H 0002H 0014H
00:010C 6E-F0                    6941   	push	xr0
00:010E 00 E0                    6942   	mov	er0,	#0 
00:0110 80 02                    6943   	mov	r2,	#080h
00:0112 BF 03                    6944   	mov	r3,	#0bfh
00:0114 6E-F0                    6945   	push	xr0
00:0116 01-F0'00-00'             6946   	bl	__fmulu8sw
00:011A 04 E1                    6947   	add	sp,	#4 
00:011C 2E-F0                    6948   	pop	xr0
00:011E 13-90 00-00'             6949   	st	er0,	NEAR _Mag_PIDError
00:0122 13-92 00-00'             6950   	st	er2,	NEAR _Mag_PIDError+02h
                                 6951   
                                 6952   ;;	Mag_PIDCurrentCount = Mag_PIDCounter * .001;		//Timer in Seconds (.007 used to convert 128Hz TBC to seconds)
                                 6953   CLINEA 0000H 0001H 08CAH 0002H 006DH
00:0126 12-90 00-00'             6954   	l	er0,	NEAR _Mag_PIDCounter
00:012A 00 E2                    6955   	mov	er2,	#0 
00:012C 6E-F0                    6956   	push	xr0
00:012E FC E1                    6957   	add	sp,	#-4
00:0130 01-F0'00-00'             6958   	bl	__dildu8sw
00:0134 FC 00                    6959   	mov	r0,	#0fch
00:0136 A9 01                    6960   	mov	r1,	#0a9h
00:0138 F1 02                    6961   	mov	r2,	#0f1h
00:013A D2 03                    6962   	mov	r3,	#0d2h
00:013C 4D 04                    6963   	mov	r4,	#04dh
00:013E 62 05                    6964   	mov	r5,	#062h
00:0140 50 06                    6965   	mov	r6,	#050h
00:0142 3F 07                    6966   	mov	r7,	#03fh
00:0144 7E-F0                    6967   	push	qr0
00:0146 01-F0'00-00'             6968   	bl	__dmulu8sw
00:014A 08 E1                    6969   	add	sp,	#8 
00:014C 01-F0'00-00'             6970   	bl	__dtofu8sw
00:0150 04 E1                    6971   	add	sp,	#4 
00:0152 2E-F0                    6972   	pop	xr0
00:0154 13-90 00-00'             6973   	st	er0,	NEAR _Mag_PIDCurrentCount
00:0158 13-92 00-00'             6974   	st	er2,	NEAR _Mag_PIDCurrentCount+02h
                                 6975   
                                 6976   ;;	Mag_PIDCounter = 0;
                                 6977   CLINEA 0000H 0001H 08CBH 0002H 0014H
00:015C 00 E0                    6978   	mov	er0,	#0 
00:015E 13-90 00-00'             6979   	st	er0,	NEAR _Mag_PIDCounter
                                 6980   
                                 6981   ;;	Mag_PIDErrSum += (Mag_PIDError * Mag_PIDCurrentCount);
                                 6982   CLINEA 0000H 0001H 08CEH 0002H 0037H
00:0162 12-90 00-00'             6983   	l	er0,	NEAR _Mag_PIDCurrentCount
00:0166 6E-F0                    6984   	push	xr0
00:0168 12-90 00-00'             6985   	l	er0,	NEAR _Mag_PIDError
00:016C 12-92 00-00'             6986   	l	er2,	NEAR _Mag_PIDError+02h
00:0170 6E-F0                    6987   	push	xr0
00:0172 01-F0'00-00'             6988   	bl	__fmulu8sw
00:0176 04 E1                    6989   	add	sp,	#4 
00:0178 12-90 00-00'             6990   	l	er0,	NEAR _Mag_PIDErrSum
00:017C 12-92 00-00'             6991   	l	er2,	NEAR _Mag_PIDErrSum+02h
00:0180 6E-F0                    6992   	push	xr0
00:0182 01-F0'00-00'             6993   	bl	__faddu8sw
00:0186 04 E1                    6994   	add	sp,	#4 
00:0188 2E-F0                    6995   	pop	xr0
00:018A 13-90 00-00'             6996   	st	er0,	NEAR _Mag_PIDErrSum
00:018E 13-92 00-00'             6997   	st	er2,	NEAR _Mag_PIDErrSum+02h
                                 6998   
                                 6999   ;;	Mag_PIDdErr	/= Mag_PIDCurrentCount;
                                 7000   CLINEA 0000H 0001H 08D2H 0002H 0024H
00:0192 12-90 00-00'             7001   	l	er0,	NEAR _Mag_PIDError
00:0196 12-92 00-00'             7002   	l	er2,	NEAR _Mag_PIDError+02h
00:019A 6E-F0                    7003   	push	xr0
00:019C 12-90 00-00'             7004   	l	er0,	NEAR _Mag_PIDErrPrev
00:01A0 12-92 00-00'             7005   	l	er2,	NEAR _Mag_PIDErrPrev+02h
00:01A4 6E-F0                    7006   	push	xr0
00:01A6 01-F0'00-00'             7007   	bl	__fsubu8sw
00:01AA 04 E1                    7008   	add	sp,	#4 
00:01AC 12-90 00-00'             7009   	l	er0,	NEAR _Mag_PIDCurrentCount
00:01B0 12-92 00-00'             7010   	l	er2,	NEAR _Mag_PIDCurrentCount+02h
00:01B4 6E-F0                    7011   	push	xr0
00:01B6 01-F0'00-00'             7012   	bl	__fdivu8sw
00:01BA 04 E1                    7013   	add	sp,	#4 
00:01BC 2E-F0                    7014   	pop	xr0
00:01BE 13-90 00-00'             7015   	st	er0,	NEAR _Mag_PIDdErr
00:01C2 13-92 00-00'             7016   	st	er2,	NEAR _Mag_PIDdErr+02h
                                 7017   
                                 7018   ;;	Mag_PIDErrPrev = Mag_PIDError;
                                 7019   CLINEA 0000H 0001H 08D3H 0002H 001FH
00:01C6 12-90 00-00'             7020   	l	er0,	NEAR _Mag_PIDError
00:01CA 12-92 00-00'             7021   	l	er2,	NEAR _Mag_PIDError+02h
00:01CE 13-90 00-00'             7022   	st	er0,	NEAR _Mag_PIDErrPrev
00:01D2 13-92 00-00'             7023   	st	er2,	NEAR _Mag_PIDErrPrev+02h
                                 7024   
                                 7025   ;;	Mag_PIDOutput = (Mag_PID_kp*Mag_PIDError) + (Mag_PID_ki*Mag_PIDErrSum) + (Mag_PID_kd*Mag_PIDdErr);
                                 7026   CLINEA 0000H 0001H 08D6H 0002H 0063H
00:01D6 6E-F0                    7027   	push	xr0
00:01D8 12-90 00-00'             7028   	l	er0,	NEAR _Mag_PID_kp
00:01DC 12-92 00-00'             7029   	l	er2,	NEAR _Mag_PID_kp+02h
00:01E0 6E-F0                    7030   	push	xr0
00:01E2 01-F0'00-00'             7031   	bl	__fmulu8sw
00:01E6 04 E1                    7032   	add	sp,	#4 
00:01E8 2E-F0                    7033   	pop	xr0
00:01EA 12-94 00-00'             7034   	l	er4,	NEAR _Mag_PIDErrSum
00:01EE 12-96 00-00'             7035   	l	er6,	NEAR _Mag_PIDErrSum+02h
00:01F2 6E-F4                    7036   	push	xr4
00:01F4 12-94 00-00'             7037   	l	er4,	NEAR _Mag_PID_ki
00:01F8 12-96 00-00'             7038   	l	er6,	NEAR _Mag_PID_ki+02h
00:01FC 6E-F4                    7039   	push	xr4
00:01FE 01-F0'00-00'             7040   	bl	__fmulu8sw
00:0202 04 E1                    7041   	add	sp,	#4 
00:0204 2E-F4                    7042   	pop	xr4
00:0206 6E-F0                    7043   	push	xr0
00:0208 6E-F4                    7044   	push	xr4
00:020A 01-F0'00-00'             7045   	bl	__faddu8sw
00:020E 04 E1                    7046   	add	sp,	#4 
00:0210 2E-F0                    7047   	pop	xr0
00:0212 12-94 00-00'             7048   	l	er4,	NEAR _Mag_PID_kd
00:0216 12-96 00-00'             7049   	l	er6,	NEAR _Mag_PID_kd+02h
00:021A 6E-F4                    7050   	push	xr4
00:021C 12-94 00-00'             7051   	l	er4,	NEAR _Mag_PIDdErr
00:0220 12-96 00-00'             7052   	l	er6,	NEAR _Mag_PIDdErr+02h
00:0224 6E-F4                    7053   	push	xr4
00:0226 01-F0'00-00'             7054   	bl	__fmulu8sw
00:022A 04 E1                    7055   	add	sp,	#4 
00:022C 2E-F4                    7056   	pop	xr4
00:022E 6E-F0                    7057   	push	xr0
00:0230 6E-F4                    7058   	push	xr4
00:0232 01-F0'00-00'             7059   	bl	__faddu8sw
00:0236 04 E1                    7060   	add	sp,	#4 
00:0238 2E-F0                    7061   	pop	xr0
00:023A 13-90 00-00'             7062   	st	er0,	NEAR _Mag_PIDOutput
00:023E 13-92 00-00'             7063   	st	er2,	NEAR _Mag_PIDOutput+02h
                                 7064   
                                 7065   ;;	PFRUN = 0;	//Turn OFF PWM
                                 7066   CLINEA 0000H 0001H 08DAH 0002H 001AH
00:0242 82-A0 73-F9              7067   	rb	0f973h.0
                                 7068   
                                 7069   ;;	PERUN = 0;
                                 7070   CLINEA 0000H 0001H 08DBH 0002H 000BH
00:0246 82-A0 37-F9              7071   	rb	0f937h.0
                                 7072   
                                 7073   ;;	PDRUN = 0;
                                 7074   CLINEA 0000H 0001H 08DCH 0002H 000BH
00:024A 82-A0 27-F9              7075   	rb	0f927h.0
                                 7076   
                                 7077   ;;	PCRUN = 0;
                                 7078   CLINEA 0000H 0001H 08DDH 0002H 000BH
00:024E 82-A0 17-F9              7079   	rb	0f917h.0
                                 7080   
                                 7081   ;;	PWF0D -= Mag_PIDOutput; 		//Can't be running to change (Only this variable)
                                 7082   CLINEA 0000H 0001H 08DFH 0002H 004CH
00:0252 12-90 62-F9              7083   	l	er0,	0f962h
00:0256 00 E2                    7084   	mov	er2,	#0 
00:0258 6E-F0                    7085   	push	xr0
00:025A 01-F0'00-00'             7086   	bl	__fuldu8sw
00:025E 12-90 00-00'             7087   	l	er0,	NEAR _Mag_PIDOutput
00:0262 12-92 00-00'             7088   	l	er2,	NEAR _Mag_PIDOutput+02h
00:0266 6E-F0                    7089   	push	xr0
00:0268 01-F0'00-00'             7090   	bl	__fsubu8sw
00:026C 04 E1                    7091   	add	sp,	#4 
00:026E 01-F0'00-00'             7092   	bl	__ftolu8sw
00:0272 1E-F0                    7093   	pop	er0
00:0274 02 E1                    7094   	add	sp,	#2 
00:0276 13-90 62-F9              7095   	st	er0,	0f962h
                                 7096   
                                 7097   ;;	PWED += Mag_PIDOutput;	//CCW motor, spin to move CW
                                 7098   CLINEA 0000H 0001H 08E0H 0002H 0034H
00:027A 12-90 32-F9              7099   	l	er0,	0f932h
00:027E 00 E2                    7100   	mov	er2,	#0 
00:0280 6E-F0                    7101   	push	xr0
00:0282 01-F0'00-00'             7102   	bl	__fuldu8sw
00:0286 12-90 00-00'             7103   	l	er0,	NEAR _Mag_PIDOutput
00:028A 12-92 00-00'             7104   	l	er2,	NEAR _Mag_PIDOutput+02h
00:028E 6E-F0                    7105   	push	xr0
00:0290 01-F0'00-00'             7106   	bl	__faddu8sw
00:0294 04 E1                    7107   	add	sp,	#4 
00:0296 01-F0'00-00'             7108   	bl	__ftolu8sw
00:029A 1E-F0                    7109   	pop	er0
00:029C 02 E1                    7110   	add	sp,	#2 
00:029E 13-90 32-F9              7111   	st	er0,	0f932h
                                 7112   
                                 7113   ;;	PWDD += Mag_PIDOutput;	//CCW motor, spin to move CW
                                 7114   CLINEA 0000H 0001H 08E1H 0002H 0034H
00:02A2 12-90 22-F9              7115   	l	er0,	0f922h
00:02A6 00 E2                    7116   	mov	er2,	#0 
00:02A8 6E-F0                    7117   	push	xr0
00:02AA 01-F0'00-00'             7118   	bl	__fuldu8sw
00:02AE 12-90 00-00'             7119   	l	er0,	NEAR _Mag_PIDOutput
00:02B2 12-92 00-00'             7120   	l	er2,	NEAR _Mag_PIDOutput+02h
00:02B6 6E-F0                    7121   	push	xr0
00:02B8 01-F0'00-00'             7122   	bl	__faddu8sw
00:02BC 04 E1                    7123   	add	sp,	#4 
00:02BE 01-F0'00-00'             7124   	bl	__ftolu8sw
00:02C2 1E-F0                    7125   	pop	er0
00:02C4 02 E1                    7126   	add	sp,	#2 
00:02C6 13-90 22-F9              7127   	st	er0,	0f922h
                                 7128   
                                 7129   ;;	PWCD -= Mag_PIDOutput;
                                 7130   CLINEA 0000H 0001H 08E2H 0002H 0017H
00:02CA 12-90 12-F9              7131   	l	er0,	0f912h
00:02CE 00 E2                    7132   	mov	er2,	#0 
00:02D0 6E-F0                    7133   	push	xr0
00:02D2 01-F0'00-00'             7134   	bl	__fuldu8sw
00:02D6 12-90 00-00'             7135   	l	er0,	NEAR _Mag_PIDOutput
00:02DA 12-92 00-00'             7136   	l	er2,	NEAR _Mag_PIDOutput+02h
00:02DE 6E-F0                    7137   	push	xr0
00:02E0 01-F0'00-00'             7138   	bl	__fsubu8sw
00:02E4 04 E1                    7139   	add	sp,	#4 
00:02E6 01-F0'00-00'             7140   	bl	__ftolu8sw
00:02EA 1E-F0                    7141   	pop	er0
00:02EC 02 E1                    7142   	add	sp,	#2 
00:02EE 13-90 12-F9              7143   	st	er0,	0f912h
                                 7144   
                                 7145   ;;	CheckSafetyLimit();
                                 7146   CLINEA 0000H 0001H 08E3H 0002H 0014H
00:02F2 01-F0'00-00'             7147   	bl	_CheckSafetyLimit
                                 7148   CBLOCKEND 237 3 2302
                                 7149   
                                 7150   ;;	PFRUN = 1;	//Turn ON PWM
                                 7151   CLINEA 0000H 0001H 08E4H 0002H 0019H
00:02F6 80-A0 73-F9              7152   	sb	0f973h.0
                                 7153   
                                 7154   ;;	PERUN = 1;
                                 7155   CLINEA 0000H 0001H 08E5H 0002H 000BH
00:02FA 80-A0 37-F9              7156   	sb	0f937h.0
                                 7157   
                                 7158   ;;	PDRUN = 1;
                                 7159   CLINEA 0000H 0001H 08E6H 0002H 000BH
00:02FE 80-A0 27-F9              7160   	sb	0f927h.0
                                 7161   
                                 7162   ;;	PCRUN = 1;
                                 7163   CLINEA 0000H 0001H 08E7H 0002H 000BH
00:0302 80-A0 17-F9              7164   	sb	0f917h.0
                                 7165   
                                 7166   ;;	for(i = 0; i<150; i++)
                                 7167   CLINEA 0000H 0001H 08EBH 0002H 0017H
00:0306 00 E0                    7168   	mov	er0,	#0 
00:0308                          7169   _$L482 :
                                 7170   CBLOCK 237 9 2284
                                 7171   
                                 7172   ;;		SensorReturn[i] = 0x20;
                                 7173   CLINEA 0000H 0001H 08EDH 0003H 0019H
00:0308 20 02                    7174   	mov	r2,	#020h
00:030A 09-92 00-00'             7175   	st	r2,	NEAR _SensorReturn[er0]
                                 7176   CBLOCKEND 237 9 2286
                                 7177   
                                 7178   ;;	for(i = 0; i<150; i++)
                                 7179   CLINEA 0000H 0000H 08EBH 0002H 0017H
00:030E 81 E0                    7180   	add	er0,	#1 
                                 7181   
                                 7182   ;;	for(i = 0; i<150; i++)
                                 7183   CLINEA 0000H 0000H 08EBH 000EH 0013H
00:0310 96 70                    7184   	cmp	r0,	#096h
00:0312 00 51                    7185   	cmpc	r1,	#00h
00:0314 F9 C5                    7186   	blts	_$L482
                                 7187   
                                 7188   ;;	sprintf(SensorReturn, "%f,%f,%f,%f", Mag_Angle, Mag_PIDOutput, Mag_PID_kd, Mag_PID_kp);
                                 7189   CLINEA 0000H 0001H 08F1H 0002H 0058H
00:0316 12-90 00-00'             7190   	l	er0,	NEAR _Mag_PID_kp
00:031A 12-92 00-00'             7191   	l	er2,	NEAR _Mag_PID_kp+02h
00:031E 6E-F0                    7192   	push	xr0
00:0320 FC E1                    7193   	add	sp,	#-4
00:0322 01-F0'00-00'             7194   	bl	__ftodu8sw
00:0326 12-90 00-00'             7195   	l	er0,	NEAR _Mag_PID_kd
00:032A 12-92 00-00'             7196   	l	er2,	NEAR _Mag_PID_kd+02h
00:032E 6E-F0                    7197   	push	xr0
00:0330 FC E1                    7198   	add	sp,	#-4
00:0332 01-F0'00-00'             7199   	bl	__ftodu8sw
00:0336 12-90 00-00'             7200   	l	er0,	NEAR _Mag_PIDOutput
00:033A 12-92 00-00'             7201   	l	er2,	NEAR _Mag_PIDOutput+02h
00:033E 6E-F0                    7202   	push	xr0
00:0340 FC E1                    7203   	add	sp,	#-4
00:0342 01-F0'00-00'             7204   	bl	__ftodu8sw
00:0346 12-90 00-00'             7205   	l	er0,	NEAR _Mag_Angle
00:034A 12-92 00-00'             7206   	l	er2,	NEAR _Mag_Angle+02h
00:034E 6E-F0                    7207   	push	xr0
00:0350 FC E1                    7208   	add	sp,	#-4
00:0352 01-F0'00-00'             7209   	bl	__ftodu8sw
00:0356 00'00                    7210   	mov	r0,	#BYTE1 OFFSET $$S486
00:0358 00'01                    7211   	mov	r1,	#BYTE2 OFFSET $$S486
00:035A 5E-F0                    7212   	push	er0
00:035C 00'00                    7213   	mov	r0,	#BYTE1 OFFSET _SensorReturn
00:035E 00'01                    7214   	mov	r1,	#BYTE2 OFFSET _SensorReturn
00:0360 5E-F0                    7215   	push	er0
00:0362 01-F0'00-00'             7216   	bl	_sprintf_nn
00:0366 24 E1                    7217   	add	sp,	#36
                                 7218   
                                 7219   ;;	SensorReturn[148] = 0x0D;
                                 7220   CLINEA 0000H 0001H 08F3H 0002H 001AH
00:0368 0D 00                    7221   	mov	r0,	#0dh
00:036A 11-90 00-00'             7222   	st	r0,	NEAR _SensorReturn+094h
                                 7223   
                                 7224   ;;	SensorReturn[149] = 0x0A;
                                 7225   CLINEA 0000H 0001H 08F4H 0002H 001AH
00:036E 0A 00                    7226   	mov	r0,	#0ah
00:0370 11-90 00-00'             7227   	st	r0,	NEAR _SensorReturn+095h
                                 7228   
                                 7229   ;;	_flgUartFin = 0;
                                 7230   CLINEA 0000H 0001H 08F7H 0002H 0011H
00:0374 00 00                    7231   	mov	r0,	#00h
00:0376 11-90 00-00'             7232   	st	r0,	NEAR __flgUartFin
                                 7233   
                                 7234   ;;	uart_stop();
                                 7235   CLINEA 0000H 0001H 08F8H 0002H 000DH
00:037A 01-F0'00-00'             7236   	bl	_uart_stop
                                 7237   
                                 7238   ;;	uart_startSend(SensorReturn, 150, _funcUartFin);
                                 7239   CLINEA 0000H 0001H 08F9H 0002H 0031H
00:037E 00'00                    7240   	mov	r0,	#BYTE1 OFFSET __funcUartFin
00:0380 00'01                    7241   	mov	r1,	#BYTE2 OFFSET __funcUartFin
00:0382 5E-F0                    7242   	push	er0
00:0384 96 02                    7243   	mov	r2,	#096h
00:0386 00 03                    7244   	mov	r3,	#00h
00:0388 00'00                    7245   	mov	r0,	#BYTE1 OFFSET _SensorReturn
00:038A 00'01                    7246   	mov	r1,	#BYTE2 OFFSET _SensorReturn
00:038C 01-F0'00-00'             7247   	bl	_uart_startSend
00:0390 02 E1                    7248   	add	sp,	#2 
                                 7249   
                                 7250   ;;	while(_flgUartFin != 1){
                                 7251   CLINEA 0000H 0000H 08FAH 0001H 0001H
00:0392 04 CE                    7252   	bal	_$L491
                                 7253   
                                 7254   ;;	while(_flgUartFin != 1){
                                 7255   CLINEA 0000H 0000H 08FAH 0002H 0019H
00:0394                          7256   _$L489 :
                                 7257   CBLOCK 237 10 2298
                                 7258   
                                 7259   ;;		NOP1000();
                                 7260   CLINEA 0000H 0001H 08FBH 0003H 000CH
00:0394 01-F0'00-00'             7261   	bl	_NOP1000
                                 7262   
                                 7263   ;;		main_clrWDT();
                                 7264   CLINEA 0000H 0001H 08FCH 0003H 0010H
00:0398 01-F0'00-00'             7265   	bl	_main_clrWDT
                                 7266   CBLOCKEND 237 10 2301
                                 7267   
                                 7268   ;;	while(_flgUartFin != 1){
                                 7269   CLINEA 0000H 0000H 08FAH 0001H 0001H
00:039C                          7270   _$L491 :
                                 7271   
                                 7272   ;;	while(_flgUartFin != 1){
                                 7273   CLINEA 0000H 0000H 08FAH 000EH 0013H
00:039C 10-90 00-00'             7274   	l	r0,	NEAR __flgUartFin
00:03A0 01 70                    7275   	cmp	r0,	#01h
00:03A2 F8 C8                    7276   	bne	_$L489
                                 7277   CBLOCKEND 237 2 2302
                                 7278   
                                 7279   ;;}
                                 7280   CLINEA 0000H 0001H 08FEH 0001H 0001H
00:03A4 2E-F4                    7281   	pop	xr4
00:03A6 8E-F2                    7282   	pop	pc
                                 7283   CBLOCKEND 237 1 2302
                                 7284   CFUNCTIONEND 237
                                 7285   
                                 7286   
  --------------------------     7287   	rseg $$AccelSensorControlPID$main
                                 7288   CFUNCTION 238
                                 7289   
00:0000                          7290   _AccelSensorControlPID	:
                                 7291   CBLOCK 238 1 2304
                                 7292   
                                 7293   ;;void AccelSensorControlPID(void){
                                 7294   CLINEA 0000H 0001H 0900H 0001H 0021H
00:0000 CE-F8                    7295   	push	lr
00:0002 6E-F8                    7296   	push	xr8
00:0004 6E-F4                    7297   	push	xr4
                                 7298   CBLOCK 238 2 2304
                                 7299   CRET 0008H
                                 7300   CLOCAL 4BH 0002H 0000H 0002H "i" 02H 00H 01H
                                 7301   CSLOCAL 43H 0004H 0002H 0002H "Accel_PID_XRollSetpoint" 02H 00H 03H
                                 7302   CSLOCAL 43H 0004H 0003H 0002H "Accel_PID_XRollSetpointPrime" 02H 00H 03H
                                 7303   CSLOCAL 43H 0004H 0004H 0002H "Accel_PID_XRollError" 02H 00H 03H
                                 7304   CSLOCAL 43H 0004H 0005H 0002H "Accel_PID_XRollCurrentCount" 02H 00H 03H
                                 7305   CSLOCAL 43H 0004H 0006H 0002H "Accel_PID_XRolldErr" 02H 00H 03H
                                 7306   CSLOCAL 43H 0004H 0007H 0002H "Accel_PID_XRollOutput" 02H 00H 03H
                                 7307   CSLOCAL 43H 0004H 0008H 0002H "Accel_PID_YPitchSetpoint" 02H 00H 03H
                                 7308   CSLOCAL 43H 0004H 0009H 0002H "Accel_PID_YPitchSetpointPrime" 02H 00H 03H
                                 7309   CSLOCAL 43H 0004H 000AH 0002H "Accel_PID_YPitchError" 02H 00H 03H
                                 7310   CSLOCAL 43H 0004H 000BH 0002H "Accel_PID_YPitchCurrentCount" 02H 00H 03H
                                 7311   CSLOCAL 43H 0004H 000CH 0002H "Accel_PID_YPitchdErr" 02H 00H 03H
                                 7312   CSLOCAL 43H 0004H 000DH 0002H "Accel_PID_YPitchOutput" 02H 00H 03H
                                 7313   CSLOCAL 43H 0004H 000EH 0002H "Accel_PID_Motor1_temp" 02H 00H 03H
                                 7314   CSLOCAL 43H 0004H 000FH 0002H "Accel_PID_Motor2_temp" 02H 00H 03H
                                 7315   CSLOCAL 43H 0004H 0010H 0002H "Accel_PID_Motor3_temp" 02H 00H 03H
                                 7316   CSLOCAL 43H 0004H 0011H 0002H "Accel_PID_Motor4_temp" 02H 00H 03H
                                 7317   
                                 7318   ;;	LED_3 = 1;		//C1, Pin 13
                                 7319   CLINEA 0000H 0001H 0917H 0002H 0019H
00:0006 90-A0 60-F2              7320   	sb	0f260h.1
                                 7321   
                                 7322   ;;		Accel_PID_XRollError = -CF_XRoll;	//Setpoint - Error (in this case setpoint is 0)
                                 7323   CLINEA 0000H 0001H 092AH 0003H 0053H
00:000A 12-90 00-00'             7324   	l	er0,	NEAR _CF_XRoll
00:000E 12-92 00-00'             7325   	l	er2,	NEAR _CF_XRoll+02h
00:0012 6E-F0                    7326   	push	xr0
00:0014 01-F0'00-00'             7327   	bl	__fnegu8sw
00:0018 2E-F0                    7328   	pop	xr0
00:001A 13-90 00-00'             7329   	st	er0,	NEAR _$ST4
00:001E 13-92 00-00'             7330   	st	er2,	NEAR _$ST4+02h
                                 7331   
                                 7332   ;;		Accel_PID_XRollCurrentCount = Accel_PID_XRollCounter * .001;	//Timer in Seconds
                                 7333   CLINEA 0000H 0001H 0937H 0003H 0051H
00:0022 12-94 00-00'             7334   	l	er4,	NEAR _Accel_PID_XRollCounter
00:0026 00 E6                    7335   	mov	er6,	#0 
00:0028 6E-F4                    7336   	push	xr4
00:002A FC E1                    7337   	add	sp,	#-4
00:002C 01-F0'00-00'             7338   	bl	__dildu8sw
00:0030 FC 04                    7339   	mov	r4,	#0fch
00:0032 A9 05                    7340   	mov	r5,	#0a9h
00:0034 F1 06                    7341   	mov	r6,	#0f1h
00:0036 D2 07                    7342   	mov	r7,	#0d2h
00:0038 4D 08                    7343   	mov	r8,	#04dh
00:003A 62 09                    7344   	mov	r9,	#062h
00:003C 50 0A                    7345   	mov	r10,	#050h
00:003E 3F 0B                    7346   	mov	r11,	#03fh
00:0040 6E-F8                    7347   	push	xr8
00:0042 6E-F4                    7348   	push	xr4
00:0044 01-F0'00-00'             7349   	bl	__dmulu8sw
00:0048 08 E1                    7350   	add	sp,	#8 
00:004A 01-F0'00-00'             7351   	bl	__dtofu8sw
00:004E 04 E1                    7352   	add	sp,	#4 
00:0050 2E-F4                    7353   	pop	xr4
00:0052 13-94 00-00'             7354   	st	er4,	NEAR _$ST5
00:0056 13-96 00-00'             7355   	st	er6,	NEAR _$ST5+02h
                                 7356   
                                 7357   ;;		Accel_PID_XRollCounter = 0;
                                 7358   CLINEA 0000H 0001H 0938H 0003H 001DH
00:005A 00 E4                    7359   	mov	er4,	#0 
00:005C 13-94 00-00'             7360   	st	er4,	NEAR _Accel_PID_XRollCounter
                                 7361   
                                 7362   ;;		Accel_PID_XRollErrSum += (Accel_PID_XRollError * Accel_PID_XRollCurrentCount);
                                 7363   CLINEA 0000H 0001H 093BH 0003H 0050H
00:0060 6E-F0                    7364   	push	xr0
00:0062 12-94 00-00'             7365   	l	er4,	NEAR _$ST5
00:0066 6E-F4                    7366   	push	xr4
00:0068 01-F0'00-00'             7367   	bl	__fmulu8sw
00:006C 04 E1                    7368   	add	sp,	#4 
00:006E 12-94 00-00'             7369   	l	er4,	NEAR _Accel_PID_XRollErrSum
00:0072 12-96 00-00'             7370   	l	er6,	NEAR _Accel_PID_XRollErrSum+02h
00:0076 6E-F4                    7371   	push	xr4
00:0078 01-F0'00-00'             7372   	bl	__faddu8sw
00:007C 04 E1                    7373   	add	sp,	#4 
00:007E 2E-F4                    7374   	pop	xr4
00:0080 13-94 00-00'             7375   	st	er4,	NEAR _Accel_PID_XRollErrSum
00:0084 13-96 00-00'             7376   	st	er6,	NEAR _Accel_PID_XRollErrSum+02h
                                 7377   
                                 7378   ;;		Accel_PID_XRolldErr	/= Accel_PID_XRollCurrentCount;
                                 7379   CLINEA 0000H 0001H 093FH 0003H 0035H
00:0088 6E-F0                    7380   	push	xr0
00:008A 12-94 00-00'             7381   	l	er4,	NEAR _Accel_PID_XRollErrPrev
00:008E 12-96 00-00'             7382   	l	er6,	NEAR _Accel_PID_XRollErrPrev+02h
00:0092 6E-F4                    7383   	push	xr4
00:0094 01-F0'00-00'             7384   	bl	__fsubu8sw
00:0098 04 E1                    7385   	add	sp,	#4 
00:009A 12-94 00-00'             7386   	l	er4,	NEAR _$ST5
00:009E 12-96 00-00'             7387   	l	er6,	NEAR _$ST5+02h
00:00A2 6E-F4                    7388   	push	xr4
00:00A4 01-F0'00-00'             7389   	bl	__fdivu8sw
00:00A8 04 E1                    7390   	add	sp,	#4 
00:00AA 2E-F4                    7391   	pop	xr4
00:00AC 13-94 00-00'             7392   	st	er4,	NEAR _$ST6
00:00B0 13-96 00-00'             7393   	st	er6,	NEAR _$ST6+02h
                                 7394   
                                 7395   ;;		Accel_PID_XRollErrPrev = Accel_PID_XRollError;
                                 7396   CLINEA 0000H 0001H 0940H 0003H 0030H
00:00B4 13-90 00-00'             7397   	st	er0,	NEAR _Accel_PID_XRollErrPrev
00:00B8 13-92 00-00'             7398   	st	er2,	NEAR _Accel_PID_XRollErrPrev+02h
                                 7399   
                                 7400   ;;		Accel_PID_XRollOutput += (Accel_PID_XRoll_kd*Accel_PID_XRolldErr);
                                 7401   CLINEA 0000H 0001H 0945H 0003H 0044H
00:00BC 6E-F0                    7402   	push	xr0
00:00BE 12-90 00-00'             7403   	l	er0,	NEAR _Accel_PID_XRoll_kp
00:00C2 12-92 00-00'             7404   	l	er2,	NEAR _Accel_PID_XRoll_kp+02h
00:00C6 6E-F0                    7405   	push	xr0
00:00C8 01-F0'00-00'             7406   	bl	__fmulu8sw
00:00CC 04 E1                    7407   	add	sp,	#4 
00:00CE 2E-F0                    7408   	pop	xr0
00:00D0 12-94 00-00'             7409   	l	er4,	NEAR _Accel_PID_XRollErrSum
00:00D4 12-96 00-00'             7410   	l	er6,	NEAR _Accel_PID_XRollErrSum+02h
00:00D8 6E-F4                    7411   	push	xr4
00:00DA 12-94 00-00'             7412   	l	er4,	NEAR _Accel_PID_XRoll_ki
00:00DE 12-96 00-00'             7413   	l	er6,	NEAR _Accel_PID_XRoll_ki+02h
00:00E2 6E-F4                    7414   	push	xr4
00:00E4 01-F0'00-00'             7415   	bl	__fmulu8sw
00:00E8 04 E1                    7416   	add	sp,	#4 
00:00EA 2E-F4                    7417   	pop	xr4
00:00EC 6E-F0                    7418   	push	xr0
00:00EE 6E-F4                    7419   	push	xr4
00:00F0 01-F0'00-00'             7420   	bl	__faddu8sw
00:00F4 04 E1                    7421   	add	sp,	#4 
00:00F6 2E-F0                    7422   	pop	xr0
00:00F8 12-94 00-00'             7423   	l	er4,	NEAR _$ST6
00:00FC 12-96 00-00'             7424   	l	er6,	NEAR _$ST6+02h
00:0100 6E-F4                    7425   	push	xr4
00:0102 12-94 00-00'             7426   	l	er4,	NEAR _Accel_PID_XRoll_kd
00:0106 12-96 00-00'             7427   	l	er6,	NEAR _Accel_PID_XRoll_kd+02h
00:010A 6E-F4                    7428   	push	xr4
00:010C 01-F0'00-00'             7429   	bl	__fmulu8sw
00:0110 04 E1                    7430   	add	sp,	#4 
00:0112 2E-F4                    7431   	pop	xr4
00:0114 6E-F0                    7432   	push	xr0
00:0116 6E-F4                    7433   	push	xr4
00:0118 01-F0'00-00'             7434   	bl	__faddu8sw
00:011C 04 E1                    7435   	add	sp,	#4 
00:011E 2E-F0                    7436   	pop	xr0
00:0120 13-90 00-00'             7437   	st	er0,	NEAR _$ST7
00:0124 13-92 00-00'             7438   	st	er2,	NEAR _$ST7+02h
                                 7439   
                                 7440   ;;		Accel_PID_YPitchError = -CF_YPitch;		//Setpoint - Error (in this case setpoint is 0)
                                 7441   CLINEA 0000H 0001H 09ADH 0003H 0056H
00:0128 12-90 00-00'             7442   	l	er0,	NEAR _CF_YPitch
00:012C 12-92 00-00'             7443   	l	er2,	NEAR _CF_YPitch+02h
00:0130 6E-F0                    7444   	push	xr0
00:0132 01-F0'00-00'             7445   	bl	__fnegu8sw
00:0136 2E-F0                    7446   	pop	xr0
00:0138 13-90 00-00'             7447   	st	er0,	NEAR _$ST10
00:013C 13-92 00-00'             7448   	st	er2,	NEAR _$ST10+02h
                                 7449   
                                 7450   ;;		Accel_PID_YPitchCurrentCount = Accel_PID_YPitchCounter * .001;		//Timer in Seconds
                                 7451   CLINEA 0000H 0001H 09BAH 0003H 0054H
00:0140 12-94 00-00'             7452   	l	er4,	NEAR _Accel_PID_YPitchCounter
00:0144 00 E6                    7453   	mov	er6,	#0 
00:0146 6E-F4                    7454   	push	xr4
00:0148 FC E1                    7455   	add	sp,	#-4
00:014A 01-F0'00-00'             7456   	bl	__dildu8sw
00:014E FC 04                    7457   	mov	r4,	#0fch
00:0150 A9 05                    7458   	mov	r5,	#0a9h
00:0152 F1 06                    7459   	mov	r6,	#0f1h
00:0154 D2 07                    7460   	mov	r7,	#0d2h
00:0156 6E-F8                    7461   	push	xr8
00:0158 6E-F4                    7462   	push	xr4
00:015A 01-F0'00-00'             7463   	bl	__dmulu8sw
00:015E 08 E1                    7464   	add	sp,	#8 
00:0160 01-F0'00-00'             7465   	bl	__dtofu8sw
00:0164 04 E1                    7466   	add	sp,	#4 
00:0166 2E-F4                    7467   	pop	xr4
00:0168 13-94 00-00'             7468   	st	er4,	NEAR _$ST11
00:016C 13-96 00-00'             7469   	st	er6,	NEAR _$ST11+02h
                                 7470   
                                 7471   ;;		Accel_PID_YPitchCounter = 0;
                                 7472   CLINEA 0000H 0001H 09BBH 0003H 001EH
00:0170 00 E4                    7473   	mov	er4,	#0 
00:0172 13-94 00-00'             7474   	st	er4,	NEAR _Accel_PID_YPitchCounter
                                 7475   
                                 7476   ;;		Accel_PID_YPitchErrSum += (Accel_PID_YPitchError * Accel_PID_YPitchCurrentCount);
                                 7477   CLINEA 0000H 0001H 09BFH 0003H 0053H
00:0176 6E-F0                    7478   	push	xr0
00:0178 12-94 00-00'             7479   	l	er4,	NEAR _$ST11
00:017C 6E-F4                    7480   	push	xr4
00:017E 01-F0'00-00'             7481   	bl	__fmulu8sw
00:0182 04 E1                    7482   	add	sp,	#4 
00:0184 12-94 00-00'             7483   	l	er4,	NEAR _Accel_PID_YPitchErrSum
00:0188 12-96 00-00'             7484   	l	er6,	NEAR _Accel_PID_YPitchErrSum+02h
00:018C 6E-F4                    7485   	push	xr4
00:018E 01-F0'00-00'             7486   	bl	__faddu8sw
00:0192 04 E1                    7487   	add	sp,	#4 
00:0194 2E-F4                    7488   	pop	xr4
00:0196 13-94 00-00'             7489   	st	er4,	NEAR _Accel_PID_YPitchErrSum
00:019A 13-96 00-00'             7490   	st	er6,	NEAR _Accel_PID_YPitchErrSum+02h
                                 7491   
                                 7492   ;;		Accel_PID_YPitchdErr /= Accel_PID_YPitchCurrentCount;
                                 7493   CLINEA 0000H 0001H 09C3H 0003H 0037H
00:019E 6E-F0                    7494   	push	xr0
00:01A0 12-94 00-00'             7495   	l	er4,	NEAR _Accel_PID_YPitchErrPrev
00:01A4 12-96 00-00'             7496   	l	er6,	NEAR _Accel_PID_YPitchErrPrev+02h
00:01A8 6E-F4                    7497   	push	xr4
00:01AA 01-F0'00-00'             7498   	bl	__fsubu8sw
00:01AE 04 E1                    7499   	add	sp,	#4 
00:01B0 12-94 00-00'             7500   	l	er4,	NEAR _$ST11
00:01B4 12-96 00-00'             7501   	l	er6,	NEAR _$ST11+02h
00:01B8 6E-F4                    7502   	push	xr4
00:01BA 01-F0'00-00'             7503   	bl	__fdivu8sw
00:01BE 04 E1                    7504   	add	sp,	#4 
00:01C0 2E-F4                    7505   	pop	xr4
00:01C2 13-94 00-00'             7506   	st	er4,	NEAR _$ST12
00:01C6 13-96 00-00'             7507   	st	er6,	NEAR _$ST12+02h
                                 7508   
                                 7509   ;;		Accel_PID_YPitchErrPrev = Accel_PID_YPitchError;
                                 7510   CLINEA 0000H 0001H 09C4H 0003H 0032H
00:01CA 13-90 00-00'             7511   	st	er0,	NEAR _Accel_PID_YPitchErrPrev
00:01CE 13-92 00-00'             7512   	st	er2,	NEAR _Accel_PID_YPitchErrPrev+02h
                                 7513   
                                 7514   ;;		Accel_PID_YPitchOutput = (Accel_PID_YPitch_kp*Accel_PID_YPitchError) + (Accel_PID_YPitch_ki*Accel_PID_YPitchErrSum) + (Accel_PID_YPitch_kd*Accel_PID_YPitchdErr);
                                 7515   CLINEA 0000H 0001H 09C7H 0003H 00A3H
00:01D2 6E-F0                    7516   	push	xr0
00:01D4 12-90 00-00'             7517   	l	er0,	NEAR _Accel_PID_YPitch_kp
00:01D8 12-92 00-00'             7518   	l	er2,	NEAR _Accel_PID_YPitch_kp+02h
00:01DC 6E-F0                    7519   	push	xr0
00:01DE 01-F0'00-00'             7520   	bl	__fmulu8sw
00:01E2 04 E1                    7521   	add	sp,	#4 
00:01E4 2E-F0                    7522   	pop	xr0
00:01E6 12-94 00-00'             7523   	l	er4,	NEAR _Accel_PID_YPitchErrSum
00:01EA 12-96 00-00'             7524   	l	er6,	NEAR _Accel_PID_YPitchErrSum+02h
00:01EE 6E-F4                    7525   	push	xr4
00:01F0 12-94 00-00'             7526   	l	er4,	NEAR _Accel_PID_YPitch_ki
00:01F4 12-96 00-00'             7527   	l	er6,	NEAR _Accel_PID_YPitch_ki+02h
00:01F8 6E-F4                    7528   	push	xr4
00:01FA 01-F0'00-00'             7529   	bl	__fmulu8sw
00:01FE 04 E1                    7530   	add	sp,	#4 
00:0200 2E-F4                    7531   	pop	xr4
00:0202 6E-F0                    7532   	push	xr0
00:0204 6E-F4                    7533   	push	xr4
00:0206 01-F0'00-00'             7534   	bl	__faddu8sw
00:020A 04 E1                    7535   	add	sp,	#4 
00:020C 2E-F0                    7536   	pop	xr0
00:020E 12-94 00-00'             7537   	l	er4,	NEAR _$ST12
00:0212 12-96 00-00'             7538   	l	er6,	NEAR _$ST12+02h
00:0216 6E-F4                    7539   	push	xr4
00:0218 12-94 00-00'             7540   	l	er4,	NEAR _Accel_PID_YPitch_kd
00:021C 12-96 00-00'             7541   	l	er6,	NEAR _Accel_PID_YPitch_kd+02h
00:0220 6E-F4                    7542   	push	xr4
00:0222 01-F0'00-00'             7543   	bl	__fmulu8sw
00:0226 04 E1                    7544   	add	sp,	#4 
00:0228 2E-F4                    7545   	pop	xr4
00:022A 6E-F0                    7546   	push	xr0
00:022C 6E-F4                    7547   	push	xr4
00:022E 01-F0'00-00'             7548   	bl	__faddu8sw
00:0232 04 E1                    7549   	add	sp,	#4 
00:0234 2E-F0                    7550   	pop	xr0
00:0236 13-90 00-00'             7551   	st	er0,	NEAR _$ST13
00:023A 13-92 00-00'             7552   	st	er2,	NEAR _$ST13+02h
                                 7553   
                                 7554   ;;		if(PrePIDCount >= 10){
                                 7555   CLINEA 0000H 0001H 09EFH 0003H 0018H
00:023E 10-90 00-00'             7556   	l	r0,	NEAR _PrePIDCount
00:0242 0A 70                    7557   	cmp	r0,	#0ah
00:0244 02 C0                    7558   	bge	_$M36
00:0246 00-F0'00-00'             7559   	b	_$L493
00:024A                          7560   _$M36 :
                                 7561   CBLOCK 238 3 2543
                                 7562   
                                 7563   ;;			PFRUN = 0;	//Turn OFF PWM
                                 7564   CLINEA 0000H 0001H 09F0H 0004H 001CH
00:024A 82-A0 73-F9              7565   	rb	0f973h.0
                                 7566   
                                 7567   ;;			PERUN = 0;
                                 7568   CLINEA 0000H 0001H 09F1H 0004H 000DH
00:024E 82-A0 37-F9              7569   	rb	0f937h.0
                                 7570   
                                 7571   ;;			PDRUN = 0;
                                 7572   CLINEA 0000H 0001H 09F2H 0004H 000DH
00:0252 82-A0 27-F9              7573   	rb	0f927h.0
                                 7574   
                                 7575   ;;			PCRUN = 0;
                                 7576   CLINEA 0000H 0001H 09F3H 0004H 000DH
00:0256 82-A0 17-F9              7577   	rb	0f917h.0
                                 7578   
                                 7579   ;;			PWF0D = PWMIdleDutyRun + Accel_PID_YPitchOutput; 		//Can't be running to change (Only this variable)
                                 7580   CLINEA 0000H 0001H 09F8H 0004H 0067H
00:025A 12-90 00-00'             7581   	l	er0,	NEAR _PWMIdleDutyRun
00:025E 00 E2                    7582   	mov	er2,	#0 
00:0260 6E-F0                    7583   	push	xr0
00:0262 01-F0'00-00'             7584   	bl	__fuldu8sw
00:0266 12-90 00-00'             7585   	l	er0,	NEAR _$ST13
00:026A 12-92 00-00'             7586   	l	er2,	NEAR _$ST13+02h
00:026E 6E-F0                    7587   	push	xr0
00:0270 01-F0'00-00'             7588   	bl	__faddu8sw
00:0274 04 E1                    7589   	add	sp,	#4 
00:0276 01-F0'00-00'             7590   	bl	__ftolu8sw
00:027A 1E-F0                    7591   	pop	er0
00:027C 02 E1                    7592   	add	sp,	#2 
00:027E 13-90 62-F9              7593   	st	er0,	0f962h
                                 7594   
                                 7595   ;;			PWED = PWMIdleDutyRun + Accel_PID_XRollOutput;	
                                 7596   CLINEA 0000H 0001H 09F9H 0004H 0032H
00:0282 12-90 00-00'             7597   	l	er0,	NEAR _PWMIdleDutyRun
00:0286 00 E2                    7598   	mov	er2,	#0 
00:0288 6E-F0                    7599   	push	xr0
00:028A 01-F0'00-00'             7600   	bl	__fuldu8sw
00:028E 12-90 00-00'             7601   	l	er0,	NEAR _$ST7
00:0292 12-92 00-00'             7602   	l	er2,	NEAR _$ST7+02h
00:0296 6E-F0                    7603   	push	xr0
00:0298 01-F0'00-00'             7604   	bl	__faddu8sw
00:029C 04 E1                    7605   	add	sp,	#4 
00:029E 01-F0'00-00'             7606   	bl	__ftolu8sw
00:02A2 1E-F0                    7607   	pop	er0
00:02A4 02 E1                    7608   	add	sp,	#2 
00:02A6 13-90 32-F9              7609   	st	er0,	0f932h
                                 7610   
                                 7611   ;;			PWCD = PWMIdleDutyRun - Accel_PID_YPitchOutput;	
                                 7612   CLINEA 0000H 0001H 09FAH 0004H 0033H
00:02AA 12-90 00-00'             7613   	l	er0,	NEAR _PWMIdleDutyRun
00:02AE 00 E2                    7614   	mov	er2,	#0 
00:02B0 6E-F0                    7615   	push	xr0
00:02B2 01-F0'00-00'             7616   	bl	__fuldu8sw
00:02B6 12-90 00-00'             7617   	l	er0,	NEAR _$ST13
00:02BA 12-92 00-00'             7618   	l	er2,	NEAR _$ST13+02h
00:02BE 6E-F0                    7619   	push	xr0
00:02C0 01-F0'00-00'             7620   	bl	__fsubu8sw
00:02C4 04 E1                    7621   	add	sp,	#4 
00:02C6 01-F0'00-00'             7622   	bl	__ftolu8sw
00:02CA 1E-F0                    7623   	pop	er0
00:02CC 02 E1                    7624   	add	sp,	#2 
00:02CE 13-90 12-F9              7625   	st	er0,	0f912h
                                 7626   
                                 7627   ;;			PWDD = PWMIdleDutyRun - Accel_PID_XRollOutput;
                                 7628   CLINEA 0000H 0001H 09FBH 0004H 0031H
00:02D2 12-90 00-00'             7629   	l	er0,	NEAR _PWMIdleDutyRun
00:02D6 00 E2                    7630   	mov	er2,	#0 
00:02D8 6E-F0                    7631   	push	xr0
00:02DA 01-F0'00-00'             7632   	bl	__fuldu8sw
00:02DE 12-90 00-00'             7633   	l	er0,	NEAR _$ST7
00:02E2 12-92 00-00'             7634   	l	er2,	NEAR _$ST7+02h
00:02E6 6E-F0                    7635   	push	xr0
00:02E8 01-F0'00-00'             7636   	bl	__fsubu8sw
00:02EC 04 E1                    7637   	add	sp,	#4 
00:02EE 01-F0'00-00'             7638   	bl	__ftolu8sw
00:02F2 1E-F0                    7639   	pop	er0
00:02F4 02 E1                    7640   	add	sp,	#2 
00:02F6 13-90 22-F9              7641   	st	er0,	0f922h
                                 7642   
                                 7643   ;;			CheckSafetyLimit();
                                 7644   CLINEA 0000H 0001H 09FCH 0004H 0016H
00:02FA 01-F0'00-00'             7645   	bl	_CheckSafetyLimit
                                 7646   
                                 7647   ;;			PFRUN = 1;	//Turn ON PWM
                                 7648   CLINEA 0000H 0001H 09FDH 0004H 001BH
00:02FE 80-A0 73-F9              7649   	sb	0f973h.0
                                 7650   
                                 7651   ;;			PERUN = 1;
                                 7652   CLINEA 0000H 0001H 09FEH 0004H 000DH
00:0302 80-A0 37-F9              7653   	sb	0f937h.0
                                 7654   
                                 7655   ;;			PDRUN = 1;
                                 7656   CLINEA 0000H 0001H 09FFH 0004H 000DH
00:0306 80-A0 27-F9              7657   	sb	0f927h.0
                                 7658   
                                 7659   ;;			PCRUN = 1;
                                 7660   CLINEA 0000H 0001H 0A00H 0004H 000DH
00:030A 80-A0 17-F9              7661   	sb	0f917h.0
                                 7662   CBLOCKEND 238 3 2561
                                 7663   
                                 7664   ;;		}
                                 7665   CLINEA 0000H 0000H 0A01H 0003H 0003H
00:030E                          7666   _$L493 :
                                 7667   
                                 7668   ;;	LED_3 = 0;		//C1, Pin 13
                                 7669   CLINEA 0000H 0001H 0A4DH 0002H 0019H
00:030E 92-A0 60-F2              7670   	rb	0f260h.1
                                 7671   
                                 7672   ;;	LED_2 = 0;			//B7, Pin 11
                                 7673   CLINEA 0000H 0001H 0A4EH 0002H 001AH
00:0312 F2-A0 58-F2              7674   	rb	0f258h.7
                                 7675   CBLOCKEND 238 2 2639
                                 7676   
                                 7677   ;;}
                                 7678   CLINEA 0000H 0001H 0A4FH 0001H 0001H
00:0316 2E-F4                    7679   	pop	xr4
00:0318 2E-F8                    7680   	pop	xr8
00:031A 8E-F2                    7681   	pop	pc
                                 7682   CBLOCKEND 238 1 2639
                                 7683   CFUNCTIONEND 238
                                 7684   
                                 7685   
  --------------------------     7686   	rseg $$RangeSensorControlPID$main
                                 7687   CFUNCTION 239
                                 7688   
00:0000                          7689   _RangeSensorControlPID	:
                                 7690   CBLOCK 239 1 2641
                                 7691   
                                 7692   ;;void RangeSensorControlPID(void){
                                 7693   CLINEA 0000H 0001H 0A51H 0001H 0021H
00:0000 CE-F8                    7694   	push	lr
00:0002 6E-F8                    7695   	push	xr8
00:0004 6E-F4                    7696   	push	xr4
                                 7697   CBLOCK 239 2 2641
                                 7698   CRET 0008H
                                 7699   CLOCAL 47H 0002H 0024H 0002H "i" 02H 00H 01H
                                 7700   
                                 7701   ;;	Range_PIDError = Range_PIDSetpoint - Range_out;
                                 7702   CLINEA 0000H 0001H 0A56H 0002H 0030H
00:0006 12-90 00-00'             7703   	l	er0,	NEAR _Range_out
00:000A 00 E2                    7704   	mov	er2,	#0 
00:000C 6E-F0                    7705   	push	xr0
00:000E 01-F0'00-00'             7706   	bl	__fuldu8sw
00:0012 2E-F0                    7707   	pop	xr0
00:0014 12-94 00-00'             7708   	l	er4,	NEAR _Range_PIDSetpoint
00:0018 12-96 00-00'             7709   	l	er6,	NEAR _Range_PIDSetpoint+02h
00:001C 7E-F0                    7710   	push	qr0
00:001E 01-F0'00-00'             7711   	bl	__fsubu8sw
00:0022 04 E1                    7712   	add	sp,	#4 
00:0024 2E-F0                    7713   	pop	xr0
00:0026 13-90 00-00'             7714   	st	er0,	NEAR _Range_PIDError
00:002A 13-92 00-00'             7715   	st	er2,	NEAR _Range_PIDError+02h
                                 7716   
                                 7717   ;;	Range_PIDCurrentCount = Range_PIDCounter * .007;		//Timer in Seconds (.007 used to convert 128Hz TBC to seconds)
                                 7718   CLINEA 0000H 0001H 0A59H 0002H 0071H
00:002E 12-94 00-00'             7719   	l	er4,	NEAR _Range_PIDCounter
00:0032 00 E6                    7720   	mov	er6,	#0 
00:0034 6E-F4                    7721   	push	xr4
00:0036 FC E1                    7722   	add	sp,	#-4
00:0038 01-F0'00-00'             7723   	bl	__dildu8sw
00:003C 79 04                    7724   	mov	r4,	#079h
00:003E E9 05                    7725   	mov	r5,	#0e9h
00:0040 26 06                    7726   	mov	r6,	#026h
00:0042 31 07                    7727   	mov	r7,	#031h
00:0044 08 08                    7728   	mov	r8,	#08h
00:0046 AC 09                    7729   	mov	r9,	#0ach
00:0048 7C 0A                    7730   	mov	r10,	#07ch
00:004A 3F 0B                    7731   	mov	r11,	#03fh
00:004C 6E-F8                    7732   	push	xr8
00:004E 6E-F4                    7733   	push	xr4
00:0050 01-F0'00-00'             7734   	bl	__dmulu8sw
00:0054 08 E1                    7735   	add	sp,	#8 
00:0056 01-F0'00-00'             7736   	bl	__dtofu8sw
00:005A 04 E1                    7737   	add	sp,	#4 
00:005C 2E-F4                    7738   	pop	xr4
00:005E 13-94 00-00'             7739   	st	er4,	NEAR _Range_PIDCurrentCount
00:0062 13-96 00-00'             7740   	st	er6,	NEAR _Range_PIDCurrentCount+02h
                                 7741   
                                 7742   ;;	Range_PIDCounter = 0;
                                 7743   CLINEA 0000H 0001H 0A5AH 0002H 0016H
00:0066 00 E4                    7744   	mov	er4,	#0 
00:0068 13-94 00-00'             7745   	st	er4,	NEAR _Range_PIDCounter
                                 7746   
                                 7747   ;;	Range_PIDErrSum += (Range_PIDError * Range_PIDCurrentCount);
                                 7748   CLINEA 0000H 0001H 0A5DH 0002H 003DH
00:006C 6E-F0                    7749   	push	xr0
00:006E 12-94 00-00'             7750   	l	er4,	NEAR _Range_PIDCurrentCount
00:0072 6E-F4                    7751   	push	xr4
00:0074 01-F0'00-00'             7752   	bl	__fmulu8sw
00:0078 04 E1                    7753   	add	sp,	#4 
00:007A 12-94 00-00'             7754   	l	er4,	NEAR _Range_PIDErrSum
00:007E 12-96 00-00'             7755   	l	er6,	NEAR _Range_PIDErrSum+02h
00:0082 6E-F4                    7756   	push	xr4
00:0084 01-F0'00-00'             7757   	bl	__faddu8sw
00:0088 04 E1                    7758   	add	sp,	#4 
00:008A 2E-F4                    7759   	pop	xr4
00:008C 13-94 00-00'             7760   	st	er4,	NEAR _Range_PIDErrSum
00:0090 13-96 00-00'             7761   	st	er6,	NEAR _Range_PIDErrSum+02h
                                 7762   
                                 7763   ;;	Range_PIDdErr	/= Range_PIDCurrentCount;
                                 7764   CLINEA 0000H 0001H 0A61H 0002H 0028H
00:0094 6E-F0                    7765   	push	xr0
00:0096 12-94 00-00'             7766   	l	er4,	NEAR _Range_PIDErrPrev
00:009A 12-96 00-00'             7767   	l	er6,	NEAR _Range_PIDErrPrev+02h
00:009E 6E-F4                    7768   	push	xr4
00:00A0 01-F0'00-00'             7769   	bl	__fsubu8sw
00:00A4 04 E1                    7770   	add	sp,	#4 
00:00A6 12-94 00-00'             7771   	l	er4,	NEAR _Range_PIDCurrentCount
00:00AA 12-96 00-00'             7772   	l	er6,	NEAR _Range_PIDCurrentCount+02h
00:00AE 6E-F4                    7773   	push	xr4
00:00B0 01-F0'00-00'             7774   	bl	__fdivu8sw
00:00B4 04 E1                    7775   	add	sp,	#4 
00:00B6 2E-F4                    7776   	pop	xr4
00:00B8 13-94 00-00'             7777   	st	er4,	NEAR _Range_PIDdErr
00:00BC 13-96 00-00'             7778   	st	er6,	NEAR _Range_PIDdErr+02h
                                 7779   
                                 7780   ;;	Range_PIDErrPrev = Range_PIDError;
                                 7781   CLINEA 0000H 0001H 0A62H 0002H 0023H
00:00C0 13-90 00-00'             7782   	st	er0,	NEAR _Range_PIDErrPrev
00:00C4 13-92 00-00'             7783   	st	er2,	NEAR _Range_PIDErrPrev+02h
                                 7784   
                                 7785   ;;	Range_PIDOutput = (Range_PID_kp*Range_PIDError) + (Range_PID_ki*Range_PIDErrSum) + (Range_PID_kd*Range_PIDdErr);
                                 7786   CLINEA 0000H 0001H 0A65H 0002H 0071H
00:00C8 6E-F0                    7787   	push	xr0
00:00CA 12-90 00-00'             7788   	l	er0,	NEAR _Range_PID_kp
00:00CE 12-92 00-00'             7789   	l	er2,	NEAR _Range_PID_kp+02h
00:00D2 6E-F0                    7790   	push	xr0
00:00D4 01-F0'00-00'             7791   	bl	__fmulu8sw
00:00D8 04 E1                    7792   	add	sp,	#4 
00:00DA 2E-F0                    7793   	pop	xr0
00:00DC 12-94 00-00'             7794   	l	er4,	NEAR _Range_PIDErrSum
00:00E0 12-96 00-00'             7795   	l	er6,	NEAR _Range_PIDErrSum+02h
00:00E4 6E-F4                    7796   	push	xr4
00:00E6 12-94 00-00'             7797   	l	er4,	NEAR _Range_PID_ki
00:00EA 12-96 00-00'             7798   	l	er6,	NEAR _Range_PID_ki+02h
00:00EE 6E-F4                    7799   	push	xr4
00:00F0 01-F0'00-00'             7800   	bl	__fmulu8sw
00:00F4 04 E1                    7801   	add	sp,	#4 
00:00F6 2E-F4                    7802   	pop	xr4
00:00F8 6E-F0                    7803   	push	xr0
00:00FA 6E-F4                    7804   	push	xr4
00:00FC 01-F0'00-00'             7805   	bl	__faddu8sw
00:0100 04 E1                    7806   	add	sp,	#4 
00:0102 2E-F0                    7807   	pop	xr0
00:0104 12-94 00-00'             7808   	l	er4,	NEAR _Range_PID_kd
00:0108 12-96 00-00'             7809   	l	er6,	NEAR _Range_PID_kd+02h
00:010C 6E-F4                    7810   	push	xr4
00:010E 12-94 00-00'             7811   	l	er4,	NEAR _Range_PIDdErr
00:0112 12-96 00-00'             7812   	l	er6,	NEAR _Range_PIDdErr+02h
00:0116 6E-F4                    7813   	push	xr4
00:0118 01-F0'00-00'             7814   	bl	__fmulu8sw
00:011C 04 E1                    7815   	add	sp,	#4 
00:011E 2E-F4                    7816   	pop	xr4
00:0120 6E-F0                    7817   	push	xr0
00:0122 6E-F4                    7818   	push	xr4
00:0124 01-F0'00-00'             7819   	bl	__faddu8sw
00:0128 04 E1                    7820   	add	sp,	#4 
00:012A 2E-F0                    7821   	pop	xr0
00:012C 13-90 00-00'             7822   	st	er0,	NEAR _Range_PIDOutput
00:0130 13-92 00-00'             7823   	st	er2,	NEAR _Range_PIDOutput+02h
                                 7824   
                                 7825   ;;	PFRUN = 0;	//Turn OFF PWM
                                 7826   CLINEA 0000H 0001H 0A69H 0002H 001AH
00:0134 82-A0 73-F9              7827   	rb	0f973h.0
                                 7828   
                                 7829   ;;	PERUN = 0;
                                 7830   CLINEA 0000H 0001H 0A6AH 0002H 000BH
00:0138 82-A0 37-F9              7831   	rb	0f937h.0
                                 7832   
                                 7833   ;;	PDRUN = 0;
                                 7834   CLINEA 0000H 0001H 0A6BH 0002H 000BH
00:013C 82-A0 27-F9              7835   	rb	0f927h.0
                                 7836   
                                 7837   ;;	PCRUN = 0;
                                 7838   CLINEA 0000H 0001H 0A6CH 0002H 000BH
00:0140 82-A0 17-F9              7839   	rb	0f917h.0
                                 7840   
                                 7841   ;;	PWF0D += Range_PIDOutput; 		//Can't be running to change (Only this variable)
                                 7842   CLINEA 0000H 0001H 0A6DH 0002H 004EH
00:0144 12-90 62-F9              7843   	l	er0,	0f962h
00:0148 00 E2                    7844   	mov	er2,	#0 
00:014A 6E-F0                    7845   	push	xr0
00:014C 01-F0'00-00'             7846   	bl	__fuldu8sw
00:0150 12-90 00-00'             7847   	l	er0,	NEAR _Range_PIDOutput
00:0154 12-92 00-00'             7848   	l	er2,	NEAR _Range_PIDOutput+02h
00:0158 6E-F0                    7849   	push	xr0
00:015A 01-F0'00-00'             7850   	bl	__faddu8sw
00:015E 04 E1                    7851   	add	sp,	#4 
00:0160 01-F0'00-00'             7852   	bl	__ftolu8sw
00:0164 1E-F0                    7853   	pop	er0
00:0166 02 E1                    7854   	add	sp,	#2 
00:0168 13-90 62-F9              7855   	st	er0,	0f962h
                                 7856   
                                 7857   ;;	PWED += Range_PIDOutput;	
                                 7858   CLINEA 0000H 0001H 0A6EH 0002H 001AH
00:016C 12-90 32-F9              7859   	l	er0,	0f932h
00:0170 00 E2                    7860   	mov	er2,	#0 
00:0172 6E-F0                    7861   	push	xr0
00:0174 01-F0'00-00'             7862   	bl	__fuldu8sw
00:0178 12-90 00-00'             7863   	l	er0,	NEAR _Range_PIDOutput
00:017C 12-92 00-00'             7864   	l	er2,	NEAR _Range_PIDOutput+02h
00:0180 6E-F0                    7865   	push	xr0
00:0182 01-F0'00-00'             7866   	bl	__faddu8sw
00:0186 04 E1                    7867   	add	sp,	#4 
00:0188 01-F0'00-00'             7868   	bl	__ftolu8sw
00:018C 1E-F0                    7869   	pop	er0
00:018E 02 E1                    7870   	add	sp,	#2 
00:0190 13-90 32-F9              7871   	st	er0,	0f932h
                                 7872   
                                 7873   ;;	PWDD += Range_PIDOutput;	
                                 7874   CLINEA 0000H 0001H 0A6FH 0002H 001AH
00:0194 12-90 22-F9              7875   	l	er0,	0f922h
00:0198 00 E2                    7876   	mov	er2,	#0 
00:019A 6E-F0                    7877   	push	xr0
00:019C 01-F0'00-00'             7878   	bl	__fuldu8sw
00:01A0 12-90 00-00'             7879   	l	er0,	NEAR _Range_PIDOutput
00:01A4 12-92 00-00'             7880   	l	er2,	NEAR _Range_PIDOutput+02h
00:01A8 6E-F0                    7881   	push	xr0
00:01AA 01-F0'00-00'             7882   	bl	__faddu8sw
00:01AE 04 E1                    7883   	add	sp,	#4 
00:01B0 01-F0'00-00'             7884   	bl	__ftolu8sw
00:01B4 1E-F0                    7885   	pop	er0
00:01B6 02 E1                    7886   	add	sp,	#2 
00:01B8 13-90 22-F9              7887   	st	er0,	0f922h
                                 7888   
                                 7889   ;;	PWCD += Range_PIDOutput;
                                 7890   CLINEA 0000H 0001H 0A70H 0002H 0019H
00:01BC 12-90 12-F9              7891   	l	er0,	0f912h
00:01C0 00 E2                    7892   	mov	er2,	#0 
00:01C2 6E-F0                    7893   	push	xr0
00:01C4 01-F0'00-00'             7894   	bl	__fuldu8sw
00:01C8 12-90 00-00'             7895   	l	er0,	NEAR _Range_PIDOutput
00:01CC 12-92 00-00'             7896   	l	er2,	NEAR _Range_PIDOutput+02h
00:01D0 6E-F0                    7897   	push	xr0
00:01D2 01-F0'00-00'             7898   	bl	__faddu8sw
00:01D6 04 E1                    7899   	add	sp,	#4 
00:01D8 01-F0'00-00'             7900   	bl	__ftolu8sw
00:01DC 1E-F0                    7901   	pop	er0
00:01DE 02 E1                    7902   	add	sp,	#2 
00:01E0 13-90 12-F9              7903   	st	er0,	0f912h
                                 7904   
                                 7905   ;;	CheckSafetyLimit();
                                 7906   CLINEA 0000H 0001H 0A71H 0002H 0014H
00:01E4 01-F0'00-00'             7907   	bl	_CheckSafetyLimit
                                 7908   
                                 7909   ;;	PFRUN = 1;	//Turn ON PWM
                                 7910   CLINEA 0000H 0001H 0A72H 0002H 0019H
00:01E8 80-A0 73-F9              7911   	sb	0f973h.0
                                 7912   
                                 7913   ;;	PERUN = 1;
                                 7914   CLINEA 0000H 0001H 0A73H 0002H 000BH
00:01EC 80-A0 37-F9              7915   	sb	0f937h.0
                                 7916   
                                 7917   ;;	PDRUN = 1;
                                 7918   CLINEA 0000H 0001H 0A74H 0002H 000BH
00:01F0 80-A0 27-F9              7919   	sb	0f927h.0
                                 7920   
                                 7921   ;;	PCRUN = 1;
                                 7922   CLINEA 0000H 0001H 0A75H 0002H 000BH
00:01F4 80-A0 17-F9              7923   	sb	0f917h.0
                                 7924   
                                 7925   ;;	for(i = 0; i<150; i++)
                                 7926   CLINEA 0000H 0001H 0A77H 0002H 0017H
00:01F8 00 E0                    7927   	mov	er0,	#0 
00:01FA                          7928   _$L498 :
                                 7929   CBLOCK 239 3 2680
                                 7930   
                                 7931   ;;		SensorReturn[i] = 0x20;
                                 7932   CLINEA 0000H 0001H 0A79H 0003H 0019H
00:01FA 20 02                    7933   	mov	r2,	#020h
00:01FC 09-92 00-00'             7934   	st	r2,	NEAR _SensorReturn[er0]
                                 7935   CBLOCKEND 239 3 2682
                                 7936   
                                 7937   ;;	for(i = 0; i<150; i++)
                                 7938   CLINEA 0000H 0000H 0A77H 0002H 0017H
00:0200 81 E0                    7939   	add	er0,	#1 
                                 7940   
                                 7941   ;;	for(i = 0; i<150; i++)
                                 7942   CLINEA 0000H 0000H 0A77H 000EH 0013H
00:0202 96 70                    7943   	cmp	r0,	#096h
00:0204 00 51                    7944   	cmpc	r1,	#00h
00:0206 F9 C5                    7945   	blts	_$L498
                                 7946   
                                 7947   ;;	sprintf(SensorReturn, "%f,%f,%f", Range_out, Range_PIDCurrentCount,Range_PIDOutput);
                                 7948   CLINEA 0000H 0001H 0A7DH 0002H 0055H
00:0208 12-90 00-00'             7949   	l	er0,	NEAR _Range_PIDOutput
00:020C 12-92 00-00'             7950   	l	er2,	NEAR _Range_PIDOutput+02h
00:0210 6E-F0                    7951   	push	xr0
00:0212 FC E1                    7952   	add	sp,	#-4
00:0214 01-F0'00-00'             7953   	bl	__ftodu8sw
00:0218 12-90 00-00'             7954   	l	er0,	NEAR _Range_PIDCurrentCount
00:021C 12-92 00-00'             7955   	l	er2,	NEAR _Range_PIDCurrentCount+02h
00:0220 6E-F0                    7956   	push	xr0
00:0222 FC E1                    7957   	add	sp,	#-4
00:0224 01-F0'00-00'             7958   	bl	__ftodu8sw
00:0228 12-90 00-00'             7959   	l	er0,	NEAR _Range_out
00:022C 5E-F0                    7960   	push	er0
00:022E 00'00                    7961   	mov	r0,	#BYTE1 OFFSET $$S198
00:0230 00'01                    7962   	mov	r1,	#BYTE2 OFFSET $$S198
00:0232 5E-F0                    7963   	push	er0
00:0234 00'00                    7964   	mov	r0,	#BYTE1 OFFSET _SensorReturn
00:0236 00'01                    7965   	mov	r1,	#BYTE2 OFFSET _SensorReturn
00:0238 5E-F0                    7966   	push	er0
00:023A 01-F0'00-00'             7967   	bl	_sprintf_nn
00:023E 16 E1                    7968   	add	sp,	#22
                                 7969   
                                 7970   ;;	SensorReturn[148] = 0x0D;
                                 7971   CLINEA 0000H 0001H 0A7FH 0002H 001AH
00:0240 0D 00                    7972   	mov	r0,	#0dh
00:0242 11-90 00-00'             7973   	st	r0,	NEAR _SensorReturn+094h
                                 7974   
                                 7975   ;;	SensorReturn[149] = 0x0A;
                                 7976   CLINEA 0000H 0001H 0A80H 0002H 001AH
00:0246 0A 00                    7977   	mov	r0,	#0ah
00:0248 11-90 00-00'             7978   	st	r0,	NEAR _SensorReturn+095h
                                 7979   
                                 7980   ;;	_flgUartFin = 0;
                                 7981   CLINEA 0000H 0001H 0A83H 0002H 0011H
00:024C 00 00                    7982   	mov	r0,	#00h
00:024E 11-90 00-00'             7983   	st	r0,	NEAR __flgUartFin
                                 7984   
                                 7985   ;;	uart_stop();
                                 7986   CLINEA 0000H 0001H 0A84H 0002H 000DH
00:0252 01-F0'00-00'             7987   	bl	_uart_stop
                                 7988   
                                 7989   ;;	uart_startSend(SensorReturn, 150, _funcUartFin);
                                 7990   CLINEA 0000H 0001H 0A85H 0002H 0031H
00:0256 00'00                    7991   	mov	r0,	#BYTE1 OFFSET __funcUartFin
00:0258 00'01                    7992   	mov	r1,	#BYTE2 OFFSET __funcUartFin
00:025A 5E-F0                    7993   	push	er0
00:025C 96 02                    7994   	mov	r2,	#096h
00:025E 00 03                    7995   	mov	r3,	#00h
00:0260 00'00                    7996   	mov	r0,	#BYTE1 OFFSET _SensorReturn
00:0262 00'01                    7997   	mov	r1,	#BYTE2 OFFSET _SensorReturn
00:0264 01-F0'00-00'             7998   	bl	_uart_startSend
00:0268 02 E1                    7999   	add	sp,	#2 
                                 8000   
                                 8001   ;;	while(_flgUartFin != 1){
                                 8002   CLINEA 0000H 0000H 0A86H 0001H 0001H
00:026A 02 CE                    8003   	bal	_$L506
                                 8004   
                                 8005   ;;	while(_flgUartFin != 1){
                                 8006   CLINEA 0000H 0000H 0A86H 0002H 0019H
00:026C                          8007   _$L504 :
                                 8008   CBLOCK 239 4 2694
                                 8009   
                                 8010   ;;		main_clrWDT();
                                 8011   CLINEA 0000H 0001H 0A87H 0003H 0010H
00:026C 01-F0'00-00'             8012   	bl	_main_clrWDT
                                 8013   CBLOCKEND 239 4 2696
                                 8014   
                                 8015   ;;	while(_flgUartFin != 1){
                                 8016   CLINEA 0000H 0000H 0A86H 0001H 0001H
00:0270                          8017   _$L506 :
                                 8018   
                                 8019   ;;	while(_flgUartFin != 1){
                                 8020   CLINEA 0000H 0000H 0A86H 000EH 0013H
00:0270 10-90 00-00'             8021   	l	r0,	NEAR __flgUartFin
00:0274 01 70                    8022   	cmp	r0,	#01h
00:0276 FA C8                    8023   	bne	_$L504
                                 8024   CBLOCKEND 239 2 2698
                                 8025   
                                 8026   ;;}
                                 8027   CLINEA 0000H 0001H 0A8AH 0001H 0001H
00:0278 2E-F4                    8028   	pop	xr4
00:027A 2E-F8                    8029   	pop	xr8
00:027C 8E-F2                    8030   	pop	pc
                                 8031   CBLOCKEND 239 1 2698
                                 8032   CFUNCTIONEND 239
                                 8033   
                                 8034   
  --------------------------     8035   	rseg $$CheckSafetyLimit$main
                                 8036   CFUNCTION 240
                                 8037   
00:0000                          8038   _CheckSafetyLimit	:
                                 8039   CBLOCK 240 1 2700
                                 8040   
                                 8041   ;;void CheckSafetyLimit(void){	
                                 8042   CLINEA 0000H 0001H 0A8CH 0001H 001DH
                                 8043   CBLOCK 240 2 2700
                                 8044   
                                 8045   ;;	if(PWED > PWMUpperDutyLimitRun){
                                 8046   CLINEA 0000H 0001H 0A8EH 0002H 0021H
00:0000 12-90 32-F9              8047   	l	er0,	0f932h
00:0004 12-92 00-00'             8048   	l	er2,	NEAR _PWMUpperDutyLimitRun
00:0008 27-F0                    8049   	cmp	er0,	er2
00:000A 02 C3                    8050   	ble	_$L508
                                 8051   CBLOCK 240 3 2702
                                 8052   
                                 8053   ;;		PWED = PWMUpperDutyLimitRun;
                                 8054   CLINEA 0000H 0001H 0A8FH 0003H 001EH
00:000C 13-92 32-F9              8055   	st	er2,	0f932h
                                 8056   CBLOCKEND 240 3 2704
                                 8057   
                                 8058   ;;	}
                                 8059   CLINEA 0000H 0000H 0A90H 0002H 0002H
00:0010                          8060   _$L508 :
                                 8061   
                                 8062   ;;	if(PWED < PWMLowerDutyLimitRun){
                                 8063   CLINEA 0000H 0001H 0A91H 0002H 0021H
00:0010 12-90 32-F9              8064   	l	er0,	0f932h
00:0014 12-92 00-00'             8065   	l	er2,	NEAR _PWMLowerDutyLimitRun
00:0018 27-F0                    8066   	cmp	er0,	er2
00:001A 02 C0                    8067   	bge	_$L510
                                 8068   CBLOCK 240 4 2705
                                 8069   
                                 8070   ;;		PWED = PWMLowerDutyLimitRun;
                                 8071   CLINEA 0000H 0001H 0A92H 0003H 001EH
00:001C 13-92 32-F9              8072   	st	er2,	0f932h
                                 8073   CBLOCKEND 240 4 2707
                                 8074   
                                 8075   ;;	}
                                 8076   CLINEA 0000H 0000H 0A93H 0002H 0002H
00:0020                          8077   _$L510 :
                                 8078   
                                 8079   ;;	if(PWF0D > PWMUpperDutyLimitRun){
                                 8080   CLINEA 0000H 0001H 0A94H 0002H 0022H
00:0020 12-90 62-F9              8081   	l	er0,	0f962h
00:0024 12-92 00-00'             8082   	l	er2,	NEAR _PWMUpperDutyLimitRun
00:0028 27-F0                    8083   	cmp	er0,	er2
00:002A 02 C3                    8084   	ble	_$L512
                                 8085   CBLOCK 240 5 2708
                                 8086   
                                 8087   ;;		PWF0D = PWMUpperDutyLimitRun;
                                 8088   CLINEA 0000H 0001H 0A95H 0003H 001FH
00:002C 13-92 62-F9              8089   	st	er2,	0f962h
                                 8090   CBLOCKEND 240 5 2710
                                 8091   
                                 8092   ;;	}
                                 8093   CLINEA 0000H 0000H 0A96H 0002H 0002H
00:0030                          8094   _$L512 :
                                 8095   
                                 8096   ;;	if(PWF0D < PWMLowerDutyLimitRun){
                                 8097   CLINEA 0000H 0001H 0A97H 0002H 0022H
00:0030 12-90 62-F9              8098   	l	er0,	0f962h
00:0034 12-92 00-00'             8099   	l	er2,	NEAR _PWMLowerDutyLimitRun
00:0038 27-F0                    8100   	cmp	er0,	er2
00:003A 02 C0                    8101   	bge	_$L514
                                 8102   CBLOCK 240 6 2711
                                 8103   
                                 8104   ;;		PWF0D = PWMLowerDutyLimitRun;
                                 8105   CLINEA 0000H 0001H 0A98H 0003H 001FH
00:003C 13-92 62-F9              8106   	st	er2,	0f962h
                                 8107   CBLOCKEND 240 6 2713
                                 8108   
                                 8109   ;;	}
                                 8110   CLINEA 0000H 0000H 0A99H 0002H 0002H
00:0040                          8111   _$L514 :
                                 8112   
                                 8113   ;;	if(PWDD > PWMUpperDutyLimitRun){
                                 8114   CLINEA 0000H 0001H 0A9AH 0002H 0021H
00:0040 12-90 22-F9              8115   	l	er0,	0f922h
00:0044 12-92 00-00'             8116   	l	er2,	NEAR _PWMUpperDutyLimitRun
00:0048 27-F0                    8117   	cmp	er0,	er2
00:004A 02 C3                    8118   	ble	_$L516
                                 8119   CBLOCK 240 7 2714
                                 8120   
                                 8121   ;;		PWDD = PWMUpperDutyLimitRun;
                                 8122   CLINEA 0000H 0001H 0A9BH 0003H 001EH
00:004C 13-92 22-F9              8123   	st	er2,	0f922h
                                 8124   CBLOCKEND 240 7 2716
                                 8125   
                                 8126   ;;	}
                                 8127   CLINEA 0000H 0000H 0A9CH 0002H 0002H
00:0050                          8128   _$L516 :
                                 8129   
                                 8130   ;;	if(PWDD < PWMLowerDutyLimitRun){
                                 8131   CLINEA 0000H 0001H 0A9DH 0002H 0021H
00:0050 12-90 22-F9              8132   	l	er0,	0f922h
00:0054 12-92 00-00'             8133   	l	er2,	NEAR _PWMLowerDutyLimitRun
00:0058 27-F0                    8134   	cmp	er0,	er2
00:005A 02 C0                    8135   	bge	_$L518
                                 8136   CBLOCK 240 8 2717
                                 8137   
                                 8138   ;;		PWDD = PWMLowerDutyLimitRun;
                                 8139   CLINEA 0000H 0001H 0A9EH 0003H 001EH
00:005C 13-92 22-F9              8140   	st	er2,	0f922h
                                 8141   CBLOCKEND 240 8 2719
                                 8142   
                                 8143   ;;	}
                                 8144   CLINEA 0000H 0000H 0A9FH 0002H 0002H
00:0060                          8145   _$L518 :
                                 8146   
                                 8147   ;;	if(PWCD > PWMUpperDutyLimitRun){
                                 8148   CLINEA 0000H 0001H 0AA0H 0002H 0021H
00:0060 12-90 12-F9              8149   	l	er0,	0f912h
00:0064 12-92 00-00'             8150   	l	er2,	NEAR _PWMUpperDutyLimitRun
00:0068 27-F0                    8151   	cmp	er0,	er2
00:006A 02 C3                    8152   	ble	_$L520
                                 8153   CBLOCK 240 9 2720
                                 8154   
                                 8155   ;;		PWCD = PWMUpperDutyLimitRun;
                                 8156   CLINEA 0000H 0001H 0AA1H 0003H 001EH
00:006C 13-92 12-F9              8157   	st	er2,	0f912h
                                 8158   CBLOCKEND 240 9 2722
                                 8159   
                                 8160   ;;	}
                                 8161   CLINEA 0000H 0000H 0AA2H 0002H 0002H
00:0070                          8162   _$L520 :
                                 8163   
                                 8164   ;;	if(PWCD < PWMLowerDutyLimitRun){
                                 8165   CLINEA 0000H 0001H 0AA3H 0002H 0021H
00:0070 12-90 12-F9              8166   	l	er0,	0f912h
00:0074 12-92 00-00'             8167   	l	er2,	NEAR _PWMLowerDutyLimitRun
00:0078 27-F0                    8168   	cmp	er0,	er2
00:007A 02 C0                    8169   	bge	_$L522
                                 8170   CBLOCK 240 10 2723
                                 8171   
                                 8172   ;;		PWCD = PWMLowerDutyLimitRun;
                                 8173   CLINEA 0000H 0001H 0AA4H 0003H 001EH
00:007C 13-92 12-F9              8174   	st	er2,	0f912h
                                 8175   CBLOCKEND 240 10 2725
                                 8176   
                                 8177   ;;	}
                                 8178   CLINEA 0000H 0000H 0AA5H 0002H 0002H
00:0080                          8179   _$L522 :
                                 8180   CBLOCKEND 240 2 2726
                                 8181   
                                 8182   ;;}
                                 8183   CLINEA 0000H 0001H 0AA6H 0001H 0001H
00:0080 1F-FE                    8184   	rt
                                 8185   CBLOCKEND 240 1 2726
                                 8186   CFUNCTIONEND 240
                                 8187   
                                 8188   
  --------------------------     8189   	rseg $$CheckSafetyLimitUnscaled$main
                                 8190   CFUNCTION 241
                                 8191   
00:0000                          8192   _CheckSafetyLimitUnscaled	:
                                 8193   CBLOCK 241 1 2728
                                 8194   
                                 8195   ;;void CheckSafetyLimitUnscaled(void){	
                                 8196   CLINEA 0000H 0001H 0AA8H 0001H 0025H
                                 8197   CBLOCK 241 2 2728
                                 8198   
                                 8199   ;;	if(Accel_PID_Motor1 > (49151)){
                                 8200   CLINEA 0000H 0001H 0AAAH 0002H 0020H
00:0000 12-90 00-00'             8201   	l	er0,	NEAR _Accel_PID_Motor1
00:0004 00 E2                    8202   	mov	er2,	#0 
00:0006 FF 70                    8203   	cmp	r0,	#0ffh
00:0008 BF 51                    8204   	cmpc	r1,	#0bfh
00:000A 00 52                    8205   	cmpc	r2,	#00h
00:000C 00 53                    8206   	cmpc	r3,	#00h
00:000E 04 C7                    8207   	bles	_$L525
                                 8208   CBLOCK 241 3 2730
                                 8209   
                                 8210   ;;		Accel_PID_Motor1 = 49151;
                                 8211   CLINEA 0000H 0001H 0AABH 0003H 001BH
00:0010 FF 00                    8212   	mov	r0,	#0ffh
00:0012 BF 01                    8213   	mov	r1,	#0bfh
00:0014 13-90 00-00'             8214   	st	er0,	NEAR _Accel_PID_Motor1
                                 8215   CBLOCKEND 241 3 2732
                                 8216   
                                 8217   ;;	}
                                 8218   CLINEA 0000H 0000H 0AACH 0002H 0002H
00:0018                          8219   _$L525 :
                                 8220   
                                 8221   ;;	if(Accel_PID_Motor1 < 16383){
                                 8222   CLINEA 0000H 0001H 0AADH 0002H 001EH
00:0018 12-90 00-00'             8223   	l	er0,	NEAR _Accel_PID_Motor1
00:001C FF 70                    8224   	cmp	r0,	#0ffh
00:001E 3F 51                    8225   	cmpc	r1,	#03fh
00:0020 04 C0                    8226   	bge	_$L527
                                 8227   CBLOCK 241 4 2733
                                 8228   
                                 8229   ;;		Accel_PID_Motor1 = 16383;
                                 8230   CLINEA 0000H 0001H 0AAEH 0003H 001BH
00:0022 FF 00                    8231   	mov	r0,	#0ffh
00:0024 3F 01                    8232   	mov	r1,	#03fh
00:0026 13-90 00-00'             8233   	st	er0,	NEAR _Accel_PID_Motor1
                                 8234   CBLOCKEND 241 4 2735
                                 8235   
                                 8236   ;;	}
                                 8237   CLINEA 0000H 0000H 0AAFH 0002H 0002H
00:002A                          8238   _$L527 :
                                 8239   
                                 8240   ;;	if(Accel_PID_Motor2 > (49151)){
                                 8241   CLINEA 0000H 0001H 0AB0H 0002H 0020H
00:002A 12-90 00-00'             8242   	l	er0,	NEAR _Accel_PID_Motor2
00:002E 00 E2                    8243   	mov	er2,	#0 
00:0030 FF 70                    8244   	cmp	r0,	#0ffh
00:0032 BF 51                    8245   	cmpc	r1,	#0bfh
00:0034 00 52                    8246   	cmpc	r2,	#00h
00:0036 00 53                    8247   	cmpc	r3,	#00h
00:0038 04 C7                    8248   	bles	_$L529
                                 8249   CBLOCK 241 5 2736
                                 8250   
                                 8251   ;;		Accel_PID_Motor2 = 49151;
                                 8252   CLINEA 0000H 0001H 0AB1H 0003H 001BH
00:003A FF 00                    8253   	mov	r0,	#0ffh
00:003C BF 01                    8254   	mov	r1,	#0bfh
00:003E 13-90 00-00'             8255   	st	er0,	NEAR _Accel_PID_Motor2
                                 8256   CBLOCKEND 241 5 2738
                                 8257   
                                 8258   ;;	}
                                 8259   CLINEA 0000H 0000H 0AB2H 0002H 0002H
00:0042                          8260   _$L529 :
                                 8261   
                                 8262   ;;	if(Accel_PID_Motor2 < (16383)){
                                 8263   CLINEA 0000H 0001H 0AB3H 0002H 0020H
00:0042 12-90 00-00'             8264   	l	er0,	NEAR _Accel_PID_Motor2
00:0046 FF 70                    8265   	cmp	r0,	#0ffh
00:0048 3F 51                    8266   	cmpc	r1,	#03fh
00:004A 04 C0                    8267   	bge	_$L531
                                 8268   CBLOCK 241 6 2739
                                 8269   
                                 8270   ;;		Accel_PID_Motor2 = 16383;
                                 8271   CLINEA 0000H 0001H 0AB4H 0003H 001BH
00:004C FF 00                    8272   	mov	r0,	#0ffh
00:004E 3F 01                    8273   	mov	r1,	#03fh
00:0050 13-90 00-00'             8274   	st	er0,	NEAR _Accel_PID_Motor2
                                 8275   CBLOCKEND 241 6 2741
                                 8276   
                                 8277   ;;	}
                                 8278   CLINEA 0000H 0000H 0AB5H 0002H 0002H
00:0054                          8279   _$L531 :
                                 8280   
                                 8281   ;;	if(Accel_PID_Motor3 > (49151)){
                                 8282   CLINEA 0000H 0001H 0AB6H 0002H 0020H
00:0054 12-90 00-00'             8283   	l	er0,	NEAR _Accel_PID_Motor3
00:0058 00 E2                    8284   	mov	er2,	#0 
00:005A FF 70                    8285   	cmp	r0,	#0ffh
00:005C BF 51                    8286   	cmpc	r1,	#0bfh
00:005E 00 52                    8287   	cmpc	r2,	#00h
00:0060 00 53                    8288   	cmpc	r3,	#00h
00:0062 04 C7                    8289   	bles	_$L533
                                 8290   CBLOCK 241 7 2742
                                 8291   
                                 8292   ;;		Accel_PID_Motor3 = 49151;
                                 8293   CLINEA 0000H 0001H 0AB7H 0003H 001BH
00:0064 FF 00                    8294   	mov	r0,	#0ffh
00:0066 BF 01                    8295   	mov	r1,	#0bfh
00:0068 13-90 00-00'             8296   	st	er0,	NEAR _Accel_PID_Motor3
                                 8297   CBLOCKEND 241 7 2744
                                 8298   
                                 8299   ;;	}
                                 8300   CLINEA 0000H 0000H 0AB8H 0002H 0002H
00:006C                          8301   _$L533 :
                                 8302   
                                 8303   ;;	if(Accel_PID_Motor3 < (16383)){
                                 8304   CLINEA 0000H 0001H 0AB9H 0002H 0020H
00:006C 12-90 00-00'             8305   	l	er0,	NEAR _Accel_PID_Motor3
00:0070 FF 70                    8306   	cmp	r0,	#0ffh
00:0072 3F 51                    8307   	cmpc	r1,	#03fh
00:0074 04 C0                    8308   	bge	_$L535
                                 8309   CBLOCK 241 8 2745
                                 8310   
                                 8311   ;;		Accel_PID_Motor3 = 16383;
                                 8312   CLINEA 0000H 0001H 0ABAH 0003H 001BH
00:0076 FF 00                    8313   	mov	r0,	#0ffh
00:0078 3F 01                    8314   	mov	r1,	#03fh
00:007A 13-90 00-00'             8315   	st	er0,	NEAR _Accel_PID_Motor3
                                 8316   CBLOCKEND 241 8 2747
                                 8317   
                                 8318   ;;	}
                                 8319   CLINEA 0000H 0000H 0ABBH 0002H 0002H
00:007E                          8320   _$L535 :
                                 8321   
                                 8322   ;;	if(Accel_PID_Motor4 > (49151)){
                                 8323   CLINEA 0000H 0001H 0ABCH 0002H 0020H
00:007E 12-90 00-00'             8324   	l	er0,	NEAR _Accel_PID_Motor4
00:0082 00 E2                    8325   	mov	er2,	#0 
00:0084 FF 70                    8326   	cmp	r0,	#0ffh
00:0086 BF 51                    8327   	cmpc	r1,	#0bfh
00:0088 00 52                    8328   	cmpc	r2,	#00h
00:008A 00 53                    8329   	cmpc	r3,	#00h
00:008C 04 C7                    8330   	bles	_$L537
                                 8331   CBLOCK 241 9 2748
                                 8332   
                                 8333   ;;		Accel_PID_Motor4 = 49151;
                                 8334   CLINEA 0000H 0001H 0ABDH 0003H 001BH
00:008E FF 00                    8335   	mov	r0,	#0ffh
00:0090 BF 01                    8336   	mov	r1,	#0bfh
00:0092 13-90 00-00'             8337   	st	er0,	NEAR _Accel_PID_Motor4
                                 8338   CBLOCKEND 241 9 2750
                                 8339   
                                 8340   ;;	}
                                 8341   CLINEA 0000H 0000H 0ABEH 0002H 0002H
00:0096                          8342   _$L537 :
                                 8343   
                                 8344   ;;	if(Accel_PID_Motor4 < (16383)){
                                 8345   CLINEA 0000H 0001H 0ABFH 0002H 0020H
00:0096 12-90 00-00'             8346   	l	er0,	NEAR _Accel_PID_Motor4
00:009A FF 70                    8347   	cmp	r0,	#0ffh
00:009C 3F 51                    8348   	cmpc	r1,	#03fh
00:009E 04 C0                    8349   	bge	_$L539
                                 8350   CBLOCK 241 10 2751
                                 8351   
                                 8352   ;;		Accel_PID_Motor4 = 16383;
                                 8353   CLINEA 0000H 0001H 0AC0H 0003H 001BH
00:00A0 FF 00                    8354   	mov	r0,	#0ffh
00:00A2 3F 01                    8355   	mov	r1,	#03fh
00:00A4 13-90 00-00'             8356   	st	er0,	NEAR _Accel_PID_Motor4
                                 8357   CBLOCKEND 241 10 2753
                                 8358   
                                 8359   ;;	}
                                 8360   CLINEA 0000H 0000H 0AC1H 0002H 0002H
00:00A8                          8361   _$L539 :
                                 8362   CBLOCKEND 241 2 2754
                                 8363   
                                 8364   ;;}
                                 8365   CLINEA 0000H 0001H 0AC2H 0001H 0001H
00:00A8 1F-FE                    8366   	rt
                                 8367   CBLOCKEND 241 1 2754
                                 8368   CFUNCTIONEND 241
                                 8369   
                                 8370   
  --------------------------     8371   	rseg $$Shutdown$main
                                 8372   CFUNCTION 242
                                 8373   
00:0000                          8374   _Shutdown	:
                                 8375   CBLOCK 242 1 2756
                                 8376   
                                 8377   ;;void Shutdown(void){
                                 8378   CLINEA 0000H 0001H 0AC4H 0001H 0014H
00:0000 CE-F8                    8379   	push	lr
                                 8380   CBLOCK 242 2 2756
                                 8381   CRET 0000H
                                 8382   
                                 8383   ;;	if((PWED > PWMSafeDuty)||(PWF0D > PWMSafeDuty)||(PWDD > PWMSafeDuty)||(PWCD > PWMSafeDuty)){
                                 8384   CLINEA 0000H 0001H 0AC5H 0002H 005DH
00:0002 12-90 32-F9              8385   	l	er0,	0f932h
00:0006 12-92 00-00'             8386   	l	er2,	NEAR _PWMSafeDuty
00:000A 27-F0                    8387   	cmp	er0,	er2
00:000C 0E C2                    8388   	bgt	_$L543
00:000E 12-90 62-F9              8389   	l	er0,	0f962h
00:0012 27-F0                    8390   	cmp	er0,	er2
00:0014 0A C2                    8391   	bgt	_$L543
00:0016 12-90 22-F9              8392   	l	er0,	0f922h
00:001A 27-F0                    8393   	cmp	er0,	er2
00:001C 06 C2                    8394   	bgt	_$L543
00:001E 12-90 12-F9              8395   	l	er0,	0f912h
00:0022 27-F0                    8396   	cmp	er0,	er2
00:0024 02 C2                    8397   	bgt	_$M41
00:0026 00-F0'00-00'             8398   	b	_$L556
00:002A                          8399   _$M41 :
00:002A                          8400   _$L543 :
                                 8401   CBLOCK 242 3 2757
                                 8402   CBLOCK 242 4 2758
                                 8403   
                                 8404   ;;			main_clrWDT();					
                                 8405   CLINEA 0000H 0001H 0AC7H 0004H 0016H
00:002A 01-F0'00-00'             8406   	bl	_main_clrWDT
                                 8407   
                                 8408   ;;			PFRUN = 0;	//Turn OFF PWM
                                 8409   CLINEA 0000H 0001H 0AC8H 0004H 001CH
00:002E 82-A0 73-F9              8410   	rb	0f973h.0
                                 8411   
                                 8412   ;;			PERUN = 0;
                                 8413   CLINEA 0000H 0001H 0AC9H 0004H 000DH
00:0032 82-A0 37-F9              8414   	rb	0f937h.0
                                 8415   
                                 8416   ;;			PDRUN = 0;
                                 8417   CLINEA 0000H 0001H 0ACAH 0004H 000DH
00:0036 82-A0 27-F9              8418   	rb	0f927h.0
                                 8419   
                                 8420   ;;			PCRUN = 0;
                                 8421   CLINEA 0000H 0001H 0ACBH 0004H 000DH
00:003A 82-A0 17-F9              8422   	rb	0f917h.0
                                 8423   
                                 8424   ;;			PWF0D -= 10; //Can't be running to change (Only this variable)
                                 8425   CLINEA 0000H 0001H 0ACCH 0004H 0041H
00:003E 12-90 62-F9              8426   	l	er0,	0f962h
00:0042 F6 E0                    8427   	add	er0,	#-10
00:0044 13-90 62-F9              8428   	st	er0,	0f962h
                                 8429   
                                 8430   ;;			PWED -= 10;
                                 8431   CLINEA 0000H 0001H 0ACDH 0004H 000EH
00:0048 12-90 32-F9              8432   	l	er0,	0f932h
00:004C F6 E0                    8433   	add	er0,	#-10
00:004E 13-90 32-F9              8434   	st	er0,	0f932h
                                 8435   
                                 8436   ;;			PWDD -= 10;
                                 8437   CLINEA 0000H 0001H 0ACEH 0004H 000EH
00:0052 12-90 22-F9              8438   	l	er0,	0f922h
00:0056 F6 E0                    8439   	add	er0,	#-10
00:0058 13-90 22-F9              8440   	st	er0,	0f922h
                                 8441   
                                 8442   ;;			PWCD -= 10;
                                 8443   CLINEA 0000H 0001H 0ACFH 0004H 000EH
00:005C 12-90 12-F9              8444   	l	er0,	0f912h
00:0060 F6 E0                    8445   	add	er0,	#-10
00:0062 13-90 12-F9              8446   	st	er0,	0f912h
                                 8447   
                                 8448   ;;			PFRUN = 1;	//Turn ON PWM
                                 8449   CLINEA 0000H 0001H 0AD0H 0004H 001BH
00:0066 80-A0 73-F9              8450   	sb	0f973h.0
                                 8451   
                                 8452   ;;			PERUN = 1;
                                 8453   CLINEA 0000H 0001H 0AD1H 0004H 000DH
00:006A 80-A0 37-F9              8454   	sb	0f937h.0
                                 8455   
                                 8456   ;;			PDRUN = 1;
                                 8457   CLINEA 0000H 0001H 0AD2H 0004H 000DH
00:006E 80-A0 27-F9              8458   	sb	0f927h.0
                                 8459   
                                 8460   ;;			PCRUN = 1;
                                 8461   CLINEA 0000H 0001H 0AD3H 0004H 000DH
00:0072 80-A0 17-F9              8462   	sb	0f917h.0
                                 8463   
                                 8464   ;;			NOPms(100);
                                 8465   CLINEA 0000H 0001H 0AD4H 0004H 000EH
00:0076 64 00                    8466   	mov	r0,	#064h
00:0078 00 01                    8467   	mov	r1,	#00h
00:007A 01-F0'00-00'             8468   	bl	_NOPms
                                 8469   
                                 8470   ;;			if(PWED <= PWMSafeDuty){
                                 8471   CLINEA 0000H 0001H 0AD6H 0004H 001BH
00:007E 12-90 32-F9              8472   	l	er0,	0f932h
00:0082 12-92 00-00'             8473   	l	er2,	NEAR _PWMSafeDuty
00:0086 27-F0                    8474   	cmp	er0,	er2
00:0088 02 C2                    8475   	bgt	_$L559
                                 8476   CBLOCK 242 5 2774
                                 8477   
                                 8478   ;;				PWED = PWMSafeDuty;
                                 8479   CLINEA 0000H 0001H 0AD7H 0005H 0017H
00:008A 13-92 32-F9              8480   	st	er2,	0f932h
                                 8481   CBLOCKEND 242 5 2776
                                 8482   
                                 8483   ;;			}
                                 8484   CLINEA 0000H 0000H 0AD8H 0004H 0004H
00:008E                          8485   _$L559 :
                                 8486   
                                 8487   ;;			if(PWF0D <= PWMSafeDuty){
                                 8488   CLINEA 0000H 0001H 0AD9H 0004H 001CH
00:008E 12-90 62-F9              8489   	l	er0,	0f962h
00:0092 27-F0                    8490   	cmp	er0,	er2
00:0094 02 C2                    8491   	bgt	_$L561
                                 8492   CBLOCK 242 6 2777
                                 8493   
                                 8494   ;;				PWF0D = PWMSafeDuty;
                                 8495   CLINEA 0000H 0001H 0ADAH 0005H 0018H
00:0096 13-92 62-F9              8496   	st	er2,	0f962h
                                 8497   CBLOCKEND 242 6 2779
                                 8498   
                                 8499   ;;			}
                                 8500   CLINEA 0000H 0000H 0ADBH 0004H 0004H
00:009A                          8501   _$L561 :
                                 8502   
                                 8503   ;;			if(PWDD <= PWMSafeDuty){
                                 8504   CLINEA 0000H 0001H 0ADCH 0004H 001BH
00:009A 12-90 22-F9              8505   	l	er0,	0f922h
00:009E 27-F0                    8506   	cmp	er0,	er2
00:00A0 02 C2                    8507   	bgt	_$L563
                                 8508   CBLOCK 242 7 2780
                                 8509   
                                 8510   ;;				PWDD = PWMSafeDuty;
                                 8511   CLINEA 0000H 0001H 0ADDH 0005H 0017H
00:00A2 13-92 22-F9              8512   	st	er2,	0f922h
                                 8513   CBLOCKEND 242 7 2782
                                 8514   
                                 8515   ;;			}
                                 8516   CLINEA 0000H 0000H 0ADEH 0004H 0004H
00:00A6                          8517   _$L563 :
                                 8518   
                                 8519   ;;			if(PWCD <= PWMSafeDuty){
                                 8520   CLINEA 0000H 0001H 0ADFH 0004H 001BH
00:00A6 12-90 12-F9              8521   	l	er0,	0f912h
00:00AA 27-F0                    8522   	cmp	er0,	er2
00:00AC 02 C2                    8523   	bgt	_$L565
                                 8524   CBLOCK 242 8 2783
                                 8525   
                                 8526   ;;				PWCD = PWMSafeDuty;
                                 8527   CLINEA 0000H 0001H 0AE0H 0005H 0017H
00:00AE 13-92 12-F9              8528   	st	er2,	0f912h
                                 8529   CBLOCKEND 242 8 2785
                                 8530   
                                 8531   ;;			}
                                 8532   CLINEA 0000H 0000H 0AE1H 0004H 0004H
00:00B2                          8533   _$L565 :
                                 8534   CBLOCKEND 242 4 2787
                                 8535   
                                 8536   ;;		}while((PWED > PWMSafeDuty)||(PWF0D > PWMSafeDuty)||(PWDD > PWMSafeDuty)||(PWCD > PWMSafeDuty));
                                 8537   CLINEA 0000H 0000H 0AE3H 0003H 0062H
00:00B2 12-90 32-F9              8538   	l	er0,	0f932h
00:00B6 27-F0                    8539   	cmp	er0,	er2
00:00B8 02 C3                    8540   	ble	_$M42
00:00BA 00-F0'00-00'             8541   	b	_$L543
00:00BE                          8542   _$M42 :
00:00BE 12-90 62-F9              8543   	l	er0,	0f962h
00:00C2 27-F0                    8544   	cmp	er0,	er2
00:00C4 02 C3                    8545   	ble	_$M43
00:00C6 00-F0'00-00'             8546   	b	_$L543
00:00CA                          8547   _$M43 :
00:00CA 12-90 22-F9              8548   	l	er0,	0f922h
00:00CE 27-F0                    8549   	cmp	er0,	er2
00:00D0 02 C3                    8550   	ble	_$M44
00:00D2 00-F0'00-00'             8551   	b	_$L543
00:00D6                          8552   _$M44 :
00:00D6 12-90 12-F9              8553   	l	er0,	0f912h
00:00DA 27-F0                    8554   	cmp	er0,	er2
00:00DC 02 C3                    8555   	ble	_$M45
00:00DE 00-F0'00-00'             8556   	b	_$L543
00:00E2                          8557   _$M45 :
00:00E2                          8558   _$L556 :
                                 8559   CBLOCKEND 242 3 2788
                                 8560   
                                 8561   ;;	Accel_PID_Motor1 = 16383;
                                 8562   CLINEA 0000H 0001H 0AE5H 0002H 001AH
00:00E2 FF 00                    8563   	mov	r0,	#0ffh
00:00E4 3F 01                    8564   	mov	r1,	#03fh
00:00E6 13-90 00-00'             8565   	st	er0,	NEAR _Accel_PID_Motor1
                                 8566   
                                 8567   ;;	Accel_PID_Motor2 = 16383;
                                 8568   CLINEA 0000H 0001H 0AE6H 0002H 001AH
00:00EA 13-90 00-00'             8569   	st	er0,	NEAR _Accel_PID_Motor2
                                 8570   
                                 8571   ;;	Accel_PID_Motor3 = 16383;
                                 8572   CLINEA 0000H 0001H 0AE7H 0002H 001AH
00:00EE 13-90 00-00'             8573   	st	er0,	NEAR _Accel_PID_Motor3
                                 8574   
                                 8575   ;;	Accel_PID_Motor4 = 16383;
                                 8576   CLINEA 0000H 0001H 0AE8H 0002H 001AH
00:00F2 13-90 00-00'             8577   	st	er0,	NEAR _Accel_PID_Motor4
                                 8578   CBLOCKEND 242 2 2794
                                 8579   
                                 8580   ;;}
                                 8581   CLINEA 0000H 0001H 0AEAH 0001H 0001H
00:00F6 8E-F2                    8582   	pop	pc
                                 8583   CBLOCKEND 242 1 2794
                                 8584   CFUNCTIONEND 242
                                 8585   
                                 8586   
  --------------------------     8587   	rseg $$ESC1_PWM$main
                                 8588   CFUNCTION 215
                                 8589   
00:0000                          8590   _ESC1_PWM	:
                                 8591   CBLOCK 215 1 2798
                                 8592   
                                 8593   ;;void ESC1_PWM(void){
                                 8594   CLINEA 0000H 0001H 0AEEH 0001H 0014H
                                 8595   CBLOCK 215 2 2798
                                 8596   
                                 8597   ;;      PC0DIR = 0;       // PortB Bit0 set to Output Mode...
                                 8598   CLINEA 0000H 0001H 0AFDH 0007H 003BH
00:0000 82-A0 61-F2              8599   	rb	0f261h.0
                                 8600   
                                 8601   ;;      PC0C1  = 1;       // PortB Bit0 set to CMOS Output...
                                 8602   CLINEA 0000H 0001H 0B00H 0007H 003BH
00:0004 80-A0 63-F2              8603   	sb	0f263h.0
                                 8604   
                                 8605   ;;      PC0C0  = 1;       
                                 8606   CLINEA 0000H 0001H 0B01H 0007H 0018H
00:0008 80-A0 62-F2              8607   	sb	0f262h.0
                                 8608   
                                 8609   ;;      PC0MD1  = 1;            // PortC Bit0 set to PWM Output (1,0)...
                                 8610   CLINEA 0000H 0001H 0B04H 0007H 0046H
00:000C 80-A0 65-F2              8611   	sb	0f265h.0
                                 8612   
                                 8613   ;;      PC0MD0  = 0;      
                                 8614   CLINEA 0000H 0001H 0B05H 0007H 0018H
00:0010 82-A0 64-F2              8615   	rb	0f264h.0
                                 8616   
                                 8617   ;;      PFCS1 = 0;        //00= LS; 01=HS; 10=PLL
                                 8618   CLINEA 0000H 0001H 0B09H 0007H 002FH
00:0014 92-A0 72-F9              8619   	rb	0f972h.1
                                 8620   
                                 8621   ;;      PFCS0 = 1;
                                 8622   CLINEA 0000H 0001H 0B0AH 0007H 0010H
00:0018 80-A0 72-F9              8623   	sb	0f972h.0
                                 8624   
                                 8625   ;;      PWFP = PWMPeriod;            // Init Period to (1=255kHz; 10=46kHz; 50=10kHz; 200=2.5kH; ; 3185 = 160Hz; 3400=150Hz; 4250=120Hz; 5000=102Hz)
                                 8626   CLINEA 0000H 0001H 0B0DH 0007H 0092H
00:001C 12-90 00-00'             8627   	l	er0,	NEAR _PWMPeriod
00:0020 13-90 60-F9              8628   	st	er0,	0f960h
                                 8629   
                                 8630   ;;      PWF0D =    PWMSafeDuty;           //12    ~  0.25 % duty cycle @ 160Hz
                                 8631   CLINEA 0000H 0001H 0B17H 0007H 004CH
00:0024 12-90 00-00'             8632   	l	er0,	NEAR _PWMSafeDuty
00:0028 13-90 62-F9              8633   	st	er0,	0f962h
                                 8634   
                                 8635   ;;      PFRUN = 0;        // OFF to start
                                 8636   CLINEA 0000H 0001H 0B19H 0007H 0027H
00:002C 82-A0 73-F9              8637   	rb	0f973h.0
                                 8638   CBLOCKEND 215 2 2842
                                 8639   
                                 8640   ;;}
                                 8641   CLINEA 0000H 0001H 0B1AH 0001H 0001H
00:0030 1F-FE                    8642   	rt
                                 8643   CBLOCKEND 215 1 2842
                                 8644   CFUNCTIONEND 215
                                 8645   
                                 8646   
  --------------------------     8647   	rseg $$ESC2_PWM$main
                                 8648   CFUNCTION 216
                                 8649   
00:0000                          8650   _ESC2_PWM	:
                                 8651   CBLOCK 216 1 2847
                                 8652   
                                 8653   ;;void ESC2_PWM(void){
                                 8654   CLINEA 0000H 0001H 0B1FH 0001H 0014H
                                 8655   CBLOCK 216 2 2847
                                 8656   
                                 8657   ;;      PB2DIR = 0;       // PortB Bit0 set to Output Mode...
                                 8658   CLINEA 0000H 0001H 0B2EH 0007H 003BH
00:0000 A2-A0 59-F2              8659   	rb	0f259h.2
                                 8660   
                                 8661   ;;      PB2C1  = 1;       // PortB Bit0 set to CMOS Output...
                                 8662   CLINEA 0000H 0001H 0B31H 0007H 003BH
00:0004 A0-A0 5B-F2              8663   	sb	0f25bh.2
                                 8664   
                                 8665   ;;      PB2C0  = 1;       
                                 8666   CLINEA 0000H 0001H 0B32H 0007H 0018H
00:0008 A0-A0 5A-F2              8667   	sb	0f25ah.2
                                 8668   
                                 8669   ;;      PB2MD1  = 0;            // PortB Bit0 set to PWM Output (0,1)...
                                 8670   CLINEA 0000H 0001H 0B35H 0007H 0046H
00:000C A2-A0 5D-F2              8671   	rb	0f25dh.2
                                 8672   
                                 8673   ;;      PB2MD0  = 1;      
                                 8674   CLINEA 0000H 0001H 0B36H 0007H 0018H
00:0010 A0-A0 5C-F2              8675   	sb	0f25ch.2
                                 8676   
                                 8677   ;;      PECS1 = 0;        //00= LS; 01=HS; 10=PLL
                                 8678   CLINEA 0000H 0001H 0B3AH 0007H 002FH
00:0014 92-A0 36-F9              8679   	rb	0f936h.1
                                 8680   
                                 8681   ;;      PECS0 = 1;
                                 8682   CLINEA 0000H 0001H 0B3BH 0007H 0010H
00:0018 80-A0 36-F9              8683   	sb	0f936h.0
                                 8684   
                                 8685   ;;      PWEP = PWMPeriod;            // Init Period to (1=255kHz; 10=46kHz; 50=10kHz; 200=2.5kH; ; 3185 = 160Hz; 3400=150Hz; 4250=120Hz; 5000=102Hz)
                                 8686   CLINEA 0000H 0001H 0B3EH 0007H 0092H
00:001C 12-90 00-00'             8687   	l	er0,	NEAR _PWMPeriod
00:0020 13-90 30-F9              8688   	st	er0,	0f930h
                                 8689   
                                 8690   ;;      PWED =    PWMSafeDuty;           //12    ~  0.25 % duty cycle @ 160Hz
                                 8691   CLINEA 0000H 0001H 0B48H 0007H 004BH
00:0024 12-90 00-00'             8692   	l	er0,	NEAR _PWMSafeDuty
00:0028 13-90 32-F9              8693   	st	er0,	0f932h
                                 8694   
                                 8695   ;;      PERUN = 0;        // OFF to start
                                 8696   CLINEA 0000H 0001H 0B4AH 0007H 0027H
00:002C 82-A0 37-F9              8697   	rb	0f937h.0
                                 8698   CBLOCKEND 216 2 2891
                                 8699   
                                 8700   ;;}
                                 8701   CLINEA 0000H 0001H 0B4BH 0001H 0001H
00:0030 1F-FE                    8702   	rt
                                 8703   CBLOCKEND 216 1 2891
                                 8704   CFUNCTIONEND 216
                                 8705   
                                 8706   
  --------------------------     8707   	rseg $$ESC3_PWM$main
                                 8708   CFUNCTION 217
                                 8709   
00:0000                          8710   _ESC3_PWM	:
                                 8711   CBLOCK 217 1 2897
                                 8712   
                                 8713   ;;void ESC3_PWM(void){
                                 8714   CLINEA 0000H 0001H 0B51H 0001H 0014H
                                 8715   CBLOCK 217 2 2897
                                 8716   
                                 8717   ;;      PA1DIR = 0;       // PortB Bit0 set to Output Mode...
                                 8718   CLINEA 0000H 0001H 0B60H 0007H 003BH
00:0000 92-A0 51-F2              8719   	rb	0f251h.1
                                 8720   
                                 8721   ;;      PA1C1  = 1;       // PortB Bit0 set to CMOS Output...
                                 8722   CLINEA 0000H 0001H 0B63H 0007H 003BH
00:0004 90-A0 53-F2              8723   	sb	0f253h.1
                                 8724   
                                 8725   ;;      PA1C0  = 1;       
                                 8726   CLINEA 0000H 0001H 0B64H 0007H 0018H
00:0008 90-A0 52-F2              8727   	sb	0f252h.1
                                 8728   
                                 8729   ;;      PA1MD1  = 0;            // PortB Bit0 set to PWM Output (0,1)...
                                 8730   CLINEA 0000H 0001H 0B67H 0007H 0046H
00:000C 92-A0 55-F2              8731   	rb	0f255h.1
                                 8732   
                                 8733   ;;      PA1MD0  = 1;      
                                 8734   CLINEA 0000H 0001H 0B68H 0007H 0018H
00:0010 90-A0 54-F2              8735   	sb	0f254h.1
                                 8736   
                                 8737   ;;      PDCS1 = 0;        //00= LS; 01=HS; 10=PLL
                                 8738   CLINEA 0000H 0001H 0B6CH 0007H 002FH
00:0014 92-A0 26-F9              8739   	rb	0f926h.1
                                 8740   
                                 8741   ;;      PDCS0 = 1;
                                 8742   CLINEA 0000H 0001H 0B6DH 0007H 0010H
00:0018 80-A0 26-F9              8743   	sb	0f926h.0
                                 8744   
                                 8745   ;;      PWDP = PWMPeriod;            // Init Period to (1=255kHz; 10=46kHz; 50=10kHz; 200=2.5kH; ; 3185 = 160Hz; 3400=150Hz; 4250=120Hz; 5000=102Hz)
                                 8746   CLINEA 0000H 0001H 0B70H 0007H 0092H
00:001C 12-90 00-00'             8747   	l	er0,	NEAR _PWMPeriod
00:0020 13-90 20-F9              8748   	st	er0,	0f920h
                                 8749   
                                 8750   ;;      PWDD =    PWMSafeDuty;           //12    ~  0.25 % duty cycle @ 160Hz
                                 8751   CLINEA 0000H 0001H 0B7AH 0007H 004BH
00:0024 12-90 00-00'             8752   	l	er0,	NEAR _PWMSafeDuty
00:0028 13-90 22-F9              8753   	st	er0,	0f922h
                                 8754   
                                 8755   ;;      PDRUN = 0;        // OFF to start
                                 8756   CLINEA 0000H 0001H 0B7CH 0007H 0027H
00:002C 82-A0 27-F9              8757   	rb	0f927h.0
                                 8758   CBLOCKEND 217 2 2941
                                 8759   
                                 8760   ;;}
                                 8761   CLINEA 0000H 0001H 0B7DH 0001H 0001H
00:0030 1F-FE                    8762   	rt
                                 8763   CBLOCKEND 217 1 2941
                                 8764   CFUNCTIONEND 217
                                 8765   
                                 8766   
  --------------------------     8767   	rseg $$ESC4_PWM$main
                                 8768   CFUNCTION 218
                                 8769   
00:0000                          8770   _ESC4_PWM	:
                                 8771   CBLOCK 218 1 2948
                                 8772   
                                 8773   ;;void ESC4_PWM(void){
                                 8774   CLINEA 0000H 0001H 0B84H 0001H 0014H
                                 8775   CBLOCK 218 2 2948
                                 8776   
                                 8777   ;;      PA0DIR = 0;       // PortB Bit0 set to Output Mode...
                                 8778   CLINEA 0000H 0001H 0B93H 0007H 003BH
00:0000 82-A0 51-F2              8779   	rb	0f251h.0
                                 8780   
                                 8781   ;;      PA0C1  = 1;       // PortB Bit0 set to CMOS Output...
                                 8782   CLINEA 0000H 0001H 0B96H 0007H 003BH
00:0004 80-A0 53-F2              8783   	sb	0f253h.0
                                 8784   
                                 8785   ;;      PA0C0  = 1;       
                                 8786   CLINEA 0000H 0001H 0B97H 0007H 0018H
00:0008 80-A0 52-F2              8787   	sb	0f252h.0
                                 8788   
                                 8789   ;;      PA0MD1  = 0;            // PortB Bit0 set to PWM Output (0,1)...
                                 8790   CLINEA 0000H 0001H 0B9AH 0007H 0046H
00:000C 82-A0 55-F2              8791   	rb	0f255h.0
                                 8792   
                                 8793   ;;      PA0MD0  = 1;      
                                 8794   CLINEA 0000H 0001H 0B9BH 0007H 0018H
00:0010 80-A0 54-F2              8795   	sb	0f254h.0
                                 8796   
                                 8797   ;;      PCCS1 = 0;        //00= LS; 01=HS; 10=PLL
                                 8798   CLINEA 0000H 0001H 0B9FH 0007H 002FH
00:0014 92-A0 16-F9              8799   	rb	0f916h.1
                                 8800   
                                 8801   ;;      PCCS0 = 1;
                                 8802   CLINEA 0000H 0001H 0BA0H 0007H 0010H
00:0018 80-A0 16-F9              8803   	sb	0f916h.0
                                 8804   
                                 8805   ;;      PWCP = PWMPeriod;            // Init Period to (1=255kHz; 10=46kHz; 50=10kHz; 200=2.5kH; ; 3185 = 160Hz; 3400=150Hz; 4250=120Hz; 5000=102Hz)
                                 8806   CLINEA 0000H 0001H 0BA3H 0007H 0092H
00:001C 12-90 00-00'             8807   	l	er0,	NEAR _PWMPeriod
00:0020 13-90 10-F9              8808   	st	er0,	0f910h
                                 8809   
                                 8810   ;;      PWCD =    PWMSafeDuty;           //12    ~  0.25 % duty cycle @ 160Hz
                                 8811   CLINEA 0000H 0001H 0BAEH 0007H 004BH
00:0024 12-90 00-00'             8812   	l	er0,	NEAR _PWMSafeDuty
00:0028 13-90 12-F9              8813   	st	er0,	0f912h
                                 8814   
                                 8815   ;;      PCRUN = 0;        // OFF to start
                                 8816   CLINEA 0000H 0001H 0BB2H 0007H 0027H
00:002C 82-A0 17-F9              8817   	rb	0f917h.0
                                 8818   CBLOCKEND 218 2 2995
                                 8819   
                                 8820   ;;}
                                 8821   CLINEA 0000H 0001H 0BB3H 0001H 0001H
00:0030 1F-FE                    8822   	rt
                                 8823   CBLOCKEND 218 1 2995
                                 8824   CFUNCTIONEND 218
                                 8825   
                                 8826   
  --------------------------     8827   	rseg $$TBC_ISR$main
                                 8828   CFUNCTION 254
                                 8829   
00:0000                          8830   _TBC_ISR	:
                                 8831   CBLOCK 254 1 3000
                                 8832   
                                 8833   ;;{
                                 8834   CLINEA 0000H 0001H 0BB8H 0001H 0001H
                                 8835   CBLOCK 254 2 3000
                                 8836   
                                 8837   ;;	E128H = 0;	//Turn OFF TBC Interrupt
                                 8838   CLINEA 0000H 0001H 0BB9H 0002H 0024H
00:0000 D2-A0 16-F0              8839   	rb	0f016h.5
                                 8840   
                                 8841   ;;	E128H = 1;	//Turn ON TBC Interrupt
                                 8842   CLINEA 0000H 0001H 0BBAH 0002H 0023H
00:0004 D0-A0 16-F0              8843   	sb	0f016h.5
                                 8844   CBLOCKEND 254 2 3003
                                 8845   
                                 8846   ;;}
                                 8847   CLINEA 0000H 0001H 0BBBH 0001H 0001H
00:0008 1F-FE                    8848   	rt
                                 8849   CBLOCKEND 254 1 3003
                                 8850   CFUNCTIONEND 254
                                 8851   
                                 8852   
  --------------------------     8853   	rseg $$TMR89_ISR$main
                                 8854   CFUNCTION 255
                                 8855   
00:0000                          8856   _TMR89_ISR	:
                                 8857   CBLOCK 255 1 3008
                                 8858   
                                 8859   ;;{
                                 8860   CLINEA 0000H 0001H 0BC0H 0001H 0001H
00:0000 CE-F8                    8861   	push	lr
                                 8862   CBLOCK 255 2 3008
                                 8863   CRET 0000H
                                 8864   
                                 8865   ;;	LED_1 ^= 1;
                                 8866   CLINEA 0000H 0001H 0BC1H 0002H 000CH
00:0002 A1-A0 50-F2              8867   	tb	0f250h.2
00:0006 03 C9                    8868   	beq	_$M52
00:0008 A2-A0 50-F2              8869   	rb	0f250h.2
00:000C 02 CE                    8870   	bal	_$M53
00:000E                          8871   _$M52 :
00:000E A0-A0 50-F2              8872   	sb	0f250h.2
00:0012                          8873   _$M53 :
                                 8874   
                                 8875   ;;	Mag_PIDCounter++;
                                 8876   CLINEA 0000H 0000H 0BC2H 0002H 0012H
00:0012 12-90 00-00'             8877   	l	er0,	NEAR _Mag_PIDCounter
00:0016 81 E0                    8878   	add	er0,	#1 
00:0018 13-90 00-00'             8879   	st	er0,	NEAR _Mag_PIDCounter
                                 8880   
                                 8881   ;;	if(Mag_PIDCounter >= 65535){
                                 8882   CLINEA 0000H 0001H 0BC3H 0002H 001DH
00:001C 00 E2                    8883   	mov	er2,	#0 
00:001E FF 70                    8884   	cmp	r0,	#0ffh
00:0020 FF 51                    8885   	cmpc	r1,	#0ffh
00:0022 00 52                    8886   	cmpc	r2,	#00h
00:0024 00 53                    8887   	cmpc	r3,	#00h
00:0026 03 C5                    8888   	blts	_$L584
                                 8889   CBLOCK 255 3 3011
                                 8890   
                                 8891   ;;		Mag_PIDCounter = 0;
                                 8892   CLINEA 0000H 0001H 0BC4H 0003H 0015H
00:0028 00 E0                    8893   	mov	er0,	#0 
00:002A 13-90 00-00'             8894   	st	er0,	NEAR _Mag_PIDCounter
                                 8895   CBLOCKEND 255 3 3013
                                 8896   
                                 8897   ;;	}
                                 8898   CLINEA 0000H 0000H 0BC5H 0002H 0002H
00:002E                          8899   _$L584 :
                                 8900   
                                 8901   ;;	Accel_PID_Counter++;
                                 8902   CLINEA 0000H 0000H 0BC6H 0002H 0015H
00:002E 12-90 00-00'             8903   	l	er0,	NEAR _Accel_PID_Counter
00:0032 81 E0                    8904   	add	er0,	#1 
00:0034 13-90 00-00'             8905   	st	er0,	NEAR _Accel_PID_Counter
                                 8906   
                                 8907   ;;	if(Accel_PID_Counter >= 65535){
                                 8908   CLINEA 0000H 0001H 0BC7H 0002H 0020H
00:0038 00 E2                    8909   	mov	er2,	#0 
00:003A FF 70                    8910   	cmp	r0,	#0ffh
00:003C FF 51                    8911   	cmpc	r1,	#0ffh
00:003E 00 52                    8912   	cmpc	r2,	#00h
00:0040 00 53                    8913   	cmpc	r3,	#00h
00:0042 03 C5                    8914   	blts	_$L586
                                 8915   CBLOCK 255 4 3015
                                 8916   
                                 8917   ;;		Accel_PID_Counter = 0;
                                 8918   CLINEA 0000H 0001H 0BC8H 0003H 0018H
00:0044 00 E0                    8919   	mov	er0,	#0 
00:0046 13-90 00-00'             8920   	st	er0,	NEAR _Accel_PID_Counter
                                 8921   CBLOCKEND 255 4 3017
                                 8922   
                                 8923   ;;	}
                                 8924   CLINEA 0000H 0000H 0BC9H 0002H 0002H
00:004A                          8925   _$L586 :
                                 8926   
                                 8927   ;;	Accel_PID_XRollCounter++;
                                 8928   CLINEA 0000H 0000H 0BCAH 0002H 001AH
00:004A 12-90 00-00'             8929   	l	er0,	NEAR _Accel_PID_XRollCounter
00:004E 81 E0                    8930   	add	er0,	#1 
00:0050 13-90 00-00'             8931   	st	er0,	NEAR _Accel_PID_XRollCounter
                                 8932   
                                 8933   ;;	if(Accel_PID_XRollCounter >= 65535){
                                 8934   CLINEA 0000H 0001H 0BCBH 0002H 0025H
00:0054 00 E2                    8935   	mov	er2,	#0 
00:0056 FF 70                    8936   	cmp	r0,	#0ffh
00:0058 FF 51                    8937   	cmpc	r1,	#0ffh
00:005A 00 52                    8938   	cmpc	r2,	#00h
00:005C 00 53                    8939   	cmpc	r3,	#00h
00:005E 03 C5                    8940   	blts	_$L588
                                 8941   CBLOCK 255 5 3019
                                 8942   
                                 8943   ;;		Accel_PID_XRollCounter = 0;
                                 8944   CLINEA 0000H 0001H 0BCCH 0003H 001DH
00:0060 00 E0                    8945   	mov	er0,	#0 
00:0062 13-90 00-00'             8946   	st	er0,	NEAR _Accel_PID_XRollCounter
                                 8947   CBLOCKEND 255 5 3021
                                 8948   
                                 8949   ;;	}
                                 8950   CLINEA 0000H 0000H 0BCDH 0002H 0002H
00:0066                          8951   _$L588 :
                                 8952   
                                 8953   ;;	Accel_PID_YPitchCounter++;
                                 8954   CLINEA 0000H 0000H 0BCEH 0002H 001BH
00:0066 12-90 00-00'             8955   	l	er0,	NEAR _Accel_PID_YPitchCounter
00:006A 81 E0                    8956   	add	er0,	#1 
00:006C 13-90 00-00'             8957   	st	er0,	NEAR _Accel_PID_YPitchCounter
                                 8958   
                                 8959   ;;	if(Accel_PID_YPitchCounter >= 65535){
                                 8960   CLINEA 0000H 0001H 0BCFH 0002H 0026H
00:0070 00 E2                    8961   	mov	er2,	#0 
00:0072 FF 70                    8962   	cmp	r0,	#0ffh
00:0074 FF 51                    8963   	cmpc	r1,	#0ffh
00:0076 00 52                    8964   	cmpc	r2,	#00h
00:0078 00 53                    8965   	cmpc	r3,	#00h
00:007A 03 C5                    8966   	blts	_$L590
                                 8967   CBLOCK 255 6 3023
                                 8968   
                                 8969   ;;		Accel_PID_YPitchCounter = 0;
                                 8970   CLINEA 0000H 0001H 0BD0H 0003H 001EH
00:007C 00 E0                    8971   	mov	er0,	#0 
00:007E 13-90 00-00'             8972   	st	er0,	NEAR _Accel_PID_YPitchCounter
                                 8973   CBLOCKEND 255 6 3025
                                 8974   
                                 8975   ;;	}
                                 8976   CLINEA 0000H 0000H 0BD1H 0002H 0002H
00:0082                          8977   _$L590 :
                                 8978   
                                 8979   ;;	Range_PIDCounter++;
                                 8980   CLINEA 0000H 0000H 0BD2H 0002H 0014H
00:0082 12-90 00-00'             8981   	l	er0,	NEAR _Range_PIDCounter
00:0086 81 E0                    8982   	add	er0,	#1 
00:0088 13-90 00-00'             8983   	st	er0,	NEAR _Range_PIDCounter
                                 8984   
                                 8985   ;;	if(Range_PIDCounter >= 65535){
                                 8986   CLINEA 0000H 0001H 0BD3H 0002H 001FH
00:008C 00 E2                    8987   	mov	er2,	#0 
00:008E FF 70                    8988   	cmp	r0,	#0ffh
00:0090 FF 51                    8989   	cmpc	r1,	#0ffh
00:0092 00 52                    8990   	cmpc	r2,	#00h
00:0094 00 53                    8991   	cmpc	r3,	#00h
00:0096 03 C5                    8992   	blts	_$L592
                                 8993   CBLOCK 255 7 3027
                                 8994   
                                 8995   ;;		Range_PIDCounter = 0;
                                 8996   CLINEA 0000H 0001H 0BD4H 0003H 0017H
00:0098 00 E0                    8997   	mov	er0,	#0 
00:009A 13-90 00-00'             8998   	st	er0,	NEAR _Range_PIDCounter
                                 8999   CBLOCKEND 255 7 3029
                                 9000   
                                 9001   ;;	}
                                 9002   CLINEA 0000H 0000H 0BD5H 0002H 0002H
00:009E                          9003   _$L592 :
                                 9004   
                                 9005   ;;	CF_Gyro_Counter++;
                                 9006   CLINEA 0000H 0000H 0BD6H 0002H 0013H
00:009E 12-90 00-00'             9007   	l	er0,	NEAR _CF_Gyro_Counter
00:00A2 12-92 00-00'             9008   	l	er2,	NEAR _CF_Gyro_Counter+02h
00:00A6 6E-F0                    9009   	push	xr0
00:00A8 00 E0                    9010   	mov	er0,	#0 
00:00AA 80 02                    9011   	mov	r2,	#080h
00:00AC 3F 03                    9012   	mov	r3,	#03fh
00:00AE 6E-F0                    9013   	push	xr0
00:00B0 01-F0'00-00'             9014   	bl	__faddu8sw
00:00B4 04 E1                    9015   	add	sp,	#4 
00:00B6 2E-F0                    9016   	pop	xr0
00:00B8 13-90 00-00'             9017   	st	er0,	NEAR _CF_Gyro_Counter
00:00BC 13-92 00-00'             9018   	st	er2,	NEAR _CF_Gyro_Counter+02h
                                 9019   
                                 9020   ;;	if(CF_Gyro_Counter >= 65535){
                                 9021   CLINEA 0000H 0001H 0BD7H 0002H 001EH
00:00C0 6E-F0                    9022   	push	xr0
00:00C2 00 00                    9023   	mov	r0,	#00h
00:00C4 FF 01                    9024   	mov	r1,	#0ffh
00:00C6 7F 02                    9025   	mov	r2,	#07fh
00:00C8 47 03                    9026   	mov	r3,	#047h
00:00CA 6E-F0                    9027   	push	xr0
00:00CC 01-F0'00-00'             9028   	bl	__fcmpu8sw
00:00D0 08 E1                    9029   	add	sp,	#8 
00:00D2 0B-A0                    9030   	mov	psw,	r0
00:00D4 05 C1                    9031   	blt	_$L594
                                 9032   CBLOCK 255 8 3031
                                 9033   
                                 9034   ;;		CF_Gyro_Counter = 0;
                                 9035   CLINEA 0000H 0001H 0BD8H 0003H 0016H
00:00D6 00 E0                    9036   	mov	er0,	#0 
00:00D8 13-90 00-00'             9037   	st	er0,	NEAR _CF_Gyro_Counter
00:00DC 13-90 00-00'             9038   	st	er0,	NEAR _CF_Gyro_Counter+02h
                                 9039   CBLOCKEND 255 8 3033
                                 9040   
                                 9041   ;;	}
                                 9042   CLINEA 0000H 0000H 0BD9H 0002H 0002H
00:00E0                          9043   _$L594 :
                                 9044   CBLOCKEND 255 2 3034
                                 9045   
                                 9046   ;;}
                                 9047   CLINEA 0000H 0001H 0BDAH 0001H 0001H
00:00E0 8E-F2                    9048   	pop	pc
                                 9049   CBLOCKEND 255 1 3034
                                 9050   CFUNCTIONEND 255
                                 9051   
                                 9052   
  --------------------------     9053   	rseg $$AccelGyroDataReady_ISR$main
                                 9054   CFUNCTION 256
                                 9055   
00:0000                          9056   _AccelGyroDataReady_ISR	:
                                 9057   CBLOCK 256 1 3038
                                 9058   
                                 9059   ;;{
                                 9060   CLINEA 0000H 0001H 0BDEH 0001H 0001H
                                 9061   CBLOCK 256 2 3038
                                 9062   
                                 9063   ;;	AccGyro_ReadFlag = 1;
                                 9064   CLINEA 0000H 0001H 0BDFH 0002H 0016H
00:0000 01 00                    9065   	mov	r0,	#01h
00:0002 11-90 00-00'             9066   	st	r0,	NEAR _AccGyro_ReadFlag
                                 9067   CBLOCKEND 256 2 3040
                                 9068   
                                 9069   ;;}
                                 9070   CLINEA 0000H 0001H 0BE0H 0001H 0001H
00:0006 1F-FE                    9071   	rt
                                 9072   CBLOCKEND 256 1 3040
                                 9073   CFUNCTIONEND 256
                                 9074   
                                 9075   
  --------------------------     9076   	rseg $$_funcUartFin$main
                                 9077   CFUNCTION 243
                                 9078   
00:0000                          9079   __funcUartFin	:
                                 9080   CBLOCK 243 1 3051
                                 9081   
                                 9082   ;;{
                                 9083   CLINEA 0000H 0001H 0BEBH 0001H 0001H
00:0000 CE-F8                    9084   	push	lr
                                 9085   CBLOCK 243 2 3051
                                 9086   CRET 0000H
                                 9087   CARGUMENT 46H 0002H 0000H "size" 02H 00H 01H
                                 9088   CARGUMENT 46H 0001H 0000H "errStat" 02H 00H 00H
                                 9089   
                                 9090   ;;	uart_continue();					// Function in UART.c: process to continue send and receive...
                                 9091   CLINEA 0000H 0001H 0BECH 0002H 0054H
00:0002 01-F0'00-00'             9092   	bl	_uart_continue
                                 9093   
                                 9094   ;;	_flgUartFin = (unsigned char)FLG_SET;
                                 9095   CLINEA 0000H 0001H 0BEDH 0002H 0026H
00:0006 01 00                    9096   	mov	r0,	#01h
00:0008 11-90 00-00'             9097   	st	r0,	NEAR __flgUartFin
                                 9098   CBLOCKEND 243 2 3055
                                 9099   
                                 9100   ;;}
                                 9101   CLINEA 0000H 0001H 0BEFH 0001H 0001H
00:000C 8E-F2                    9102   	pop	pc
                                 9103   CBLOCKEND 243 1 3055
                                 9104   CFUNCTIONEND 243
                                 9105   
                                 9106   
  --------------------------     9107   	rseg $$_funcI2CFin$main
                                 9108   CFUNCTION 244
                                 9109   
00:0000                          9110   __funcI2CFin	:
                                 9111   CBLOCK 244 1 3066
                                 9112   
                                 9113   ;;{
                                 9114   CLINEA 0000H 0001H 0BFAH 0001H 0001H
00:0000 CE-F8                    9115   	push	lr
                                 9116   CBLOCK 244 2 3066
                                 9117   CRET 0000H
                                 9118   CARGUMENT 46H 0002H 0000H "size" 02H 00H 01H
                                 9119   CARGUMENT 46H 0001H 0000H "errStat" 02H 00H 00H
                                 9120   
                                 9121   ;;	i2c_continue();					// Function in UART.c: process to continue send and receive...
                                 9122   CLINEA 0000H 0001H 0BFBH 0002H 0053H
00:0002 01-F0'00-00'             9123   	bl	_i2c_continue
                                 9124   
                                 9125   ;;	_flgI2CFin = (unsigned char)FLG_SET;
                                 9126   CLINEA 0000H 0001H 0BFCH 0002H 0025H
00:0006 01 00                    9127   	mov	r0,	#01h
00:0008 11-90 00-00'             9128   	st	r0,	NEAR __flgI2CFin
                                 9129   CBLOCKEND 244 2 3070
                                 9130   
                                 9131   ;;}
                                 9132   CLINEA 0000H 0001H 0BFEH 0001H 0001H
00:000C 8E-F2                    9133   	pop	pc
                                 9134   CBLOCKEND 244 1 3070
                                 9135   CFUNCTIONEND 244
                                 9136   
                                 9137   
  --------------------------     9138   	rseg $$_intI2c$main
                                 9139   CFUNCTION 248
                                 9140   
00:0000                          9141   __intI2c	:
                                 9142   CBLOCK 248 1 3080
                                 9143   
                                 9144   ;;{
                                 9145   CLINEA 0000H 0001H 0C08H 0001H 0001H
                                 9146   CBLOCK 248 2 3080
                                 9147   
                                 9148   ;;	i2c_continue();
                                 9149   CLINEA 0000H 0001H 0C09H 0002H 0010H
00:0000 00-F0'00-00'             9150   	b	_i2c_continue
                                 9151   CBLOCKEND 248 2 3083
                                 9152   CLINEA 0000H 0001H 0C0BH 0001H 0001H
                                 9153   CBLOCKEND 248 1 3083
                                 9154   CFUNCTIONEND 248
                                 9155   
                                 9156   
  --------------------------     9157   	rseg $$checkI2C$main
                                 9158   CFUNCTION 245
                                 9159   
00:0000                          9160   _checkI2C	:
                                 9161   CBLOCK 245 1 3093
                                 9162   
                                 9163   ;;{
                                 9164   CLINEA 0000H 0001H 0C15H 0001H 0001H
00:0000 CE-F8                    9165   	push	lr
                                 9166   CBLOCK 245 2 3093
                                 9167   CRET 0000H
                                 9168   CLOCAL 47H 0002H 0024H 0002H "ret" 02H 00H 01H
                                 9169   
                                 9170   ;;	while (ret != 1) {
                                 9171   CLINEA 0000H 0000H 0C1AH 0002H 0013H
00:0002                          9172   _$L603 :
                                 9173   CBLOCK 245 3 3098
                                 9174   
                                 9175   ;;		ret = i2c_continue();
                                 9176   CLINEA 0000H 0000H 0C1BH 0003H 0017H
00:0002 01-F0'00-00'             9177   	bl	_i2c_continue
                                 9178   CBLOCK 245 4 3100
                                 9179   CBLOCKEND 245 4 3102
                                 9180   CBLOCKEND 245 3 3103
                                 9181   
                                 9182   ;;	while (ret != 1) {
                                 9183   CLINEA 0000H 0000H 0C1AH 000EH 0013H
00:0006 01 70                    9184   	cmp	r0,	#01h
00:0008 00 51                    9185   	cmpc	r1,	#00h
00:000A FB C8                    9186   	bne	_$L603
                                 9187   CBLOCKEND 245 2 3104
                                 9188   
                                 9189   ;;}
                                 9190   CLINEA 0000H 0001H 0C20H 0001H 0001H
00:000C 8E-F2                    9191   	pop	pc
                                 9192   CBLOCKEND 245 1 3104
                                 9193   CFUNCTIONEND 245
                                 9194   
                                 9195   
  --------------------------     9196   	rseg $$main_reqNotHalt$main
                                 9197   CFUNCTION 246
                                 9198   
00:0000                          9199   _main_reqNotHalt	:
                                 9200   CBLOCK 246 1 3114
                                 9201   
                                 9202   ;;{
                                 9203   CLINEA 0000H 0001H 0C2AH 0001H 0001H
                                 9204   CBLOCK 246 2 3114
                                 9205   
                                 9206   ;;	_reqNotHalt = (unsigned char)FLG_SET;
                                 9207   CLINEA 0000H 0001H 0C2BH 0002H 0026H
00:0000 01 00                    9208   	mov	r0,	#01h
00:0002 11-90 00-00'             9209   	st	r0,	NEAR __reqNotHalt
                                 9210   CBLOCKEND 246 2 3116
                                 9211   
                                 9212   ;;}
                                 9213   CLINEA 0000H 0001H 0C2CH 0001H 0001H
00:0006 1F-FE                    9214   	rt
                                 9215   CBLOCKEND 246 1 3116
                                 9216   CFUNCTIONEND 246
                                 9217   
                                 9218   
  --------------------------     9219   	rseg $$_intUart$main
                                 9220   CFUNCTION 247
                                 9221   
00:0000                          9222   __intUart	:
                                 9223   CBLOCK 247 1 3126
                                 9224   
                                 9225   ;;{
                                 9226   CLINEA 0000H 0001H 0C36H 0001H 0001H
                                 9227   CBLOCK 247 2 3126
                                 9228   
                                 9229   ;;		uart_continue(); //in UART.c: process to continue send and receive...
                                 9230   CLINEA 0000H 0001H 0C37H 0003H 0047H
00:0000 00-F0'00-00'             9231   	b	_uart_continue
                                 9232   CBLOCKEND 247 2 3128
                                 9233   CLINEA 0000H 0001H 0C38H 0001H 0001H
                                 9234   CBLOCKEND 247 1 3128
                                 9235   CFUNCTIONEND 247
                                 9236   
                                 9237   
  --------------------------     9238   	rseg $$SetOSC$main
                                 9239   CFUNCTION 208
                                 9240   
00:0000                          9241   _SetOSC	:
                                 9242   CBLOCK 208 1 3133
                                 9243   
                                 9244   ;;static void SetOSC(void){
                                 9245   CLINEA 0000H 0001H 0C3DH 0001H 0019H
                                 9246   CBLOCK 208 2 3133
                                 9247   
                                 9248   ;;	SYSC0 = 0;			// Used to select the frequency of the HSCLK => 00=8.192MHz.
                                 9249   CLINEA 0000H 0001H 0C40H 0002H 004AH
00:0000 82-A0 02-F0              9250   	rb	0f002h.0
                                 9251   
                                 9252   ;;	SYSC1 = 0;
                                 9253   CLINEA 0000H 0001H 0C41H 0002H 000BH
00:0004 92-A0 02-F0              9254   	rb	0f002h.1
                                 9255   
                                 9256   ;;	OSCM1 = 1;			// 10 => Built-in PLL oscillation mode
                                 9257   CLINEA 0000H 0001H 0C43H 0002H 0034H
00:0008 B0-A0 02-F0              9258   	sb	0f002h.3
                                 9259   
                                 9260   ;;	OSCM0 = 0;
                                 9261   CLINEA 0000H 0001H 0C44H 0002H 000BH
00:000C A2-A0 02-F0              9262   	rb	0f002h.2
                                 9263   
                                 9264   ;;	ENOSC = 1;			//1=Enable High Speed Oscillator...
                                 9265   CLINEA 0000H 0001H 0C46H 0002H 0031H
00:0010 90-A0 03-F0              9266   	sb	0f003h.1
                                 9267   
                                 9268   ;;	SYSCLK = 1;			//1=HSCLK; 0=LSCLK 
                                 9269   CLINEA 0000H 0001H 0C47H 0002H 0022H
00:0014 80-A0 03-F0              9270   	sb	0f003h.0
                                 9271   
                                 9272   ;;	LPLL = 1;			//1=Enables the use of PLL oscillation - ADDED 4/30/2013
                                 9273   CLINEA 0000H 0001H 0C49H 0002H 0045H
00:0018 F0-A0 03-F0              9274   	sb	0f003h.7
                                 9275   
                                 9276   ;;	__EI();			//INT enable
                                 9277   CLINEA 0000H 0001H 0C4BH 0002H 0017H
00:001C 08-ED                    9278   	ei
                                 9279   CBLOCKEND 208 2 3148
                                 9280   
                                 9281   ;;}
                                 9282   CLINEA 0000H 0001H 0C4CH 0001H 0001H
00:001E 1F-FE                    9283   	rt
                                 9284   CBLOCKEND 208 1 3148
                                 9285   CFUNCTIONEND 208
                                 9286   
                                 9287   
  --------------------------     9288   	rseg $$analog_comparator$main
                                 9289   CFUNCTION 209
                                 9290   
00:0000                          9291   _analog_comparator	:
                                 9292   CBLOCK 209 1 3155
                                 9293   
                                 9294   ;;void analog_comparator(void){
                                 9295   CLINEA 0000H 0001H 0C53H 0001H 001DH
                                 9296   CBLOCK 209 2 3155
                                 9297   
                                 9298   ;;	CMP0EN  = 0x01; 	// Comparator ON...
                                 9299   CLINEA 0000H 0001H 0C69H 0002H 0025H
00:0000 80-A0 50-F9              9300   	sb	0f950h.0
                                 9301   
                                 9302   ;;	CMP0E1  = 0x00; 	// No Interupt...
                                 9303   CLINEA 0000H 0001H 0C6AH 0002H 0023H
00:0004 92-A0 51-F9              9304   	rb	0f951h.1
                                 9305   
                                 9306   ;;	CMP0E0  = 0x00;
                                 9307   CLINEA 0000H 0001H 0C6BH 0002H 0010H
00:0008 82-A0 51-F9              9308   	rb	0f951h.0
                                 9309   
                                 9310   ;;	CMP0SM1 = 0x00; 	// Detect without Sampling... 
                                 9311   CLINEA 0000H 0001H 0C6CH 0002H 0030H
00:000C B2-A0 51-F9              9312   	rb	0f951h.3
                                 9313   
                                 9314   ;;	CMP0RFS = 0x01; 	// Differential Input on B5
                                 9315   CLINEA 0000H 0001H 0C6DH 0002H 002DH
00:0010 C0-A0 51-F9              9316   	sb	0f951h.4
                                 9317   
                                 9318   ;;	CMP0EN  = 0x00;
                                 9319   CLINEA 0000H 0001H 0C70H 0002H 0010H
00:0014 82-A0 50-F9              9320   	rb	0f950h.0
                                 9321   CBLOCKEND 209 2 3187
                                 9322   
                                 9323   ;;}
                                 9324   CLINEA 0000H 0001H 0C73H 0001H 0001H
00:0018 1F-FE                    9325   	rt
                                 9326   CBLOCKEND 209 1 3187
                                 9327   CFUNCTIONEND 209
                                 9328   
                                 9329   
  --------------------------     9330   	rseg $$PortA_Low$main
                                 9331   CFUNCTION 210
                                 9332   
00:0000                          9333   _PortA_Low	:
                                 9334   CBLOCK 210 1 3195
                                 9335   
                                 9336   ;;void PortA_Low(void){
                                 9337   CLINEA 0000H 0001H 0C7BH 0001H 0015H
                                 9338   CBLOCK 210 2 3195
                                 9339   
                                 9340   ;;	PA0DIR = 0;		// PortA Bit0 set to Output Mode...
                                 9341   CLINEA 0000H 0001H 0C85H 0002H 0031H
00:0000 82-A0 51-F2              9342   	rb	0f251h.0
                                 9343   
                                 9344   ;;	PA1DIR = 0;		// PortA Bit1 set to Output Mode...
                                 9345   CLINEA 0000H 0001H 0C86H 0002H 0031H
00:0004 92-A0 51-F2              9346   	rb	0f251h.1
                                 9347   
                                 9348   ;;	PA2DIR = 0;		// PortA Bit2 set to Output Mode...
                                 9349   CLINEA 0000H 0001H 0C87H 0002H 0031H
00:0008 A2-A0 51-F2              9350   	rb	0f251h.2
                                 9351   
                                 9352   ;;	PA0C1  = 1;		// PortA Bit0 set to CMOS Output...
                                 9353   CLINEA 0000H 0001H 0C8AH 0002H 0031H
00:000C 80-A0 53-F2              9354   	sb	0f253h.0
                                 9355   
                                 9356   ;;	PA0C0  = 1;		
                                 9357   CLINEA 0000H 0001H 0C8BH 0002H 000EH
00:0010 80-A0 52-F2              9358   	sb	0f252h.0
                                 9359   
                                 9360   ;;	PA1C1  = 1;		// PortA Bit1 set to CMOS Output...
                                 9361   CLINEA 0000H 0001H 0C8CH 0002H 0031H
00:0014 90-A0 53-F2              9362   	sb	0f253h.1
                                 9363   
                                 9364   ;;	PA1C0  = 1;	
                                 9365   CLINEA 0000H 0001H 0C8DH 0002H 000DH
00:0018 90-A0 52-F2              9366   	sb	0f252h.1
                                 9367   
                                 9368   ;;	PA2C1  = 1;		// PortA Bit2 set to CMOS Output...
                                 9369   CLINEA 0000H 0001H 0C8EH 0002H 0031H
00:001C A0-A0 53-F2              9370   	sb	0f253h.2
                                 9371   
                                 9372   ;;	PA2C0  = 1;	
                                 9373   CLINEA 0000H 0001H 0C8FH 0002H 000DH
00:0020 A0-A0 52-F2              9374   	sb	0f252h.2
                                 9375   
                                 9376   ;;	PA0MD1  = 0;	// PortA Bit0 set to General Purpose Output...
                                 9377   CLINEA 0000H 0001H 0C92H 0002H 003CH
00:0024 82-A0 55-F2              9378   	rb	0f255h.0
                                 9379   
                                 9380   ;;	PA0MD0  = 0;	
                                 9381   CLINEA 0000H 0001H 0C93H 0002H 000EH
00:0028 82-A0 54-F2              9382   	rb	0f254h.0
                                 9383   
                                 9384   ;;	PA1MD1  = 0;	// PortA Bit1 set to General Purpose Output...
                                 9385   CLINEA 0000H 0001H 0C94H 0002H 003CH
00:002C 92-A0 55-F2              9386   	rb	0f255h.1
                                 9387   
                                 9388   ;;	PA1MD0  = 0;	
                                 9389   CLINEA 0000H 0001H 0C95H 0002H 000EH
00:0030 92-A0 54-F2              9390   	rb	0f254h.1
                                 9391   
                                 9392   ;;	PA2MD1  = 0;	// PortA Bit2 set to General Purpose Output...
                                 9393   CLINEA 0000H 0001H 0C96H 0002H 003CH
00:0034 A2-A0 55-F2              9394   	rb	0f255h.2
                                 9395   
                                 9396   ;;	PA2MD0  = 0;	
                                 9397   CLINEA 0000H 0001H 0C97H 0002H 000EH
00:0038 A2-A0 54-F2              9398   	rb	0f254h.2
                                 9399   
                                 9400   ;;	PA0D = 0;		// A.0 Output OFF....
                                 9401   CLINEA 0000H 0001H 0C9AH 0002H 0021H
00:003C 82-A0 50-F2              9402   	rb	0f250h.0
                                 9403   
                                 9404   ;;	PA1D = 0;		// A.1 Output OFF....
                                 9405   CLINEA 0000H 0001H 0C9BH 0002H 0021H
00:0040 92-A0 50-F2              9406   	rb	0f250h.1
                                 9407   
                                 9408   ;;	PA2D = 0;		// A.2 Output OFF....
                                 9409   CLINEA 0000H 0001H 0C9CH 0002H 0021H
00:0044 A2-A0 50-F2              9410   	rb	0f250h.2
                                 9411   
                                 9412   ;;	main_clrWDT(); 	// Clear WDT
                                 9413   CLINEA 0000H 0001H 0C9EH 0002H 001DH
00:0048 00-F0'00-00'             9414   	b	_main_clrWDT
                                 9415   CBLOCKEND 210 2 3232
                                 9416   CLINEA 0000H 0001H 0CA0H 0001H 0001H
                                 9417   CBLOCKEND 210 1 3232
                                 9418   CFUNCTIONEND 210
                                 9419   
                                 9420   
  --------------------------     9421   	rseg $$PortB_Low$main
                                 9422   CFUNCTION 211
                                 9423   
00:0000                          9424   _PortB_Low	:
                                 9425   CBLOCK 211 1 3238
                                 9426   
                                 9427   ;;void PortB_Low(void){
                                 9428   CLINEA 0000H 0001H 0CA6H 0001H 0015H
                                 9429   CBLOCK 211 2 3238
                                 9430   
                                 9431   ;;	PB0DIR = 0;		// PortB Bit0 set to Output Mode...
                                 9432   CLINEA 0000H 0001H 0CB0H 0002H 0031H
00:0000 82-A0 59-F2              9433   	rb	0f259h.0
                                 9434   
                                 9435   ;;	PB1DIR = 0;		// PortB Bit1 set to Output Mode...
                                 9436   CLINEA 0000H 0001H 0CB1H 0002H 0031H
00:0004 92-A0 59-F2              9437   	rb	0f259h.1
                                 9438   
                                 9439   ;;	PB2DIR = 0;		// PortB Bit2 set to Output Mode...
                                 9440   CLINEA 0000H 0001H 0CB2H 0002H 0031H
00:0008 A2-A0 59-F2              9441   	rb	0f259h.2
                                 9442   
                                 9443   ;;	PB3DIR = 0;		// PortB Bit3 set to Output Mode...
                                 9444   CLINEA 0000H 0001H 0CB3H 0002H 0031H
00:000C B2-A0 59-F2              9445   	rb	0f259h.3
                                 9446   
                                 9447   ;;	PB4DIR = 0;		// PortB Bit4 set to Output Mode...
                                 9448   CLINEA 0000H 0001H 0CB4H 0002H 0031H
00:0010 C2-A0 59-F2              9449   	rb	0f259h.4
                                 9450   
                                 9451   ;;	PB5DIR = 0;		// PortB Bit5 set to Output Mode...
                                 9452   CLINEA 0000H 0001H 0CB5H 0002H 0031H
00:0014 D2-A0 59-F2              9453   	rb	0f259h.5
                                 9454   
                                 9455   ;;	PB6DIR = 0;		// PortB Bit6 set to Output Mode...
                                 9456   CLINEA 0000H 0001H 0CB6H 0002H 0031H
00:0018 E2-A0 59-F2              9457   	rb	0f259h.6
                                 9458   
                                 9459   ;;	PB7DIR = 0;		// PortB Bit7 set to Output Mode...
                                 9460   CLINEA 0000H 0001H 0CB7H 0002H 0031H
00:001C F2-A0 59-F2              9461   	rb	0f259h.7
                                 9462   
                                 9463   ;;	PB0C1  = 1;		// PortB Bit0 set to CMOS Output...
                                 9464   CLINEA 0000H 0001H 0CBAH 0002H 0031H
00:0020 80-A0 5B-F2              9465   	sb	0f25bh.0
                                 9466   
                                 9467   ;;	PB0C0  = 1;		
                                 9468   CLINEA 0000H 0001H 0CBBH 0002H 000EH
00:0024 80-A0 5A-F2              9469   	sb	0f25ah.0
                                 9470   
                                 9471   ;;	PB1C1  = 1;		// PortB Bit1 set to CMOS Output...
                                 9472   CLINEA 0000H 0001H 0CBCH 0002H 0031H
00:0028 90-A0 5B-F2              9473   	sb	0f25bh.1
                                 9474   
                                 9475   ;;	PB1C0  = 1;	
                                 9476   CLINEA 0000H 0001H 0CBDH 0002H 000DH
00:002C 90-A0 5A-F2              9477   	sb	0f25ah.1
                                 9478   
                                 9479   ;;	PB2C1  = 1;		// PortB Bit2 set to CMOS Output...
                                 9480   CLINEA 0000H 0001H 0CBEH 0002H 0031H
00:0030 A0-A0 5B-F2              9481   	sb	0f25bh.2
                                 9482   
                                 9483   ;;	PB2C0  = 1;	
                                 9484   CLINEA 0000H 0001H 0CBFH 0002H 000DH
00:0034 A0-A0 5A-F2              9485   	sb	0f25ah.2
                                 9486   
                                 9487   ;;	PB3C1  = 1;		// PortB Bit3 set to CMOS Output...
                                 9488   CLINEA 0000H 0001H 0CC0H 0002H 0031H
00:0038 B0-A0 5B-F2              9489   	sb	0f25bh.3
                                 9490   
                                 9491   ;;	PB3C0  = 1;		
                                 9492   CLINEA 0000H 0001H 0CC1H 0002H 000EH
00:003C B0-A0 5A-F2              9493   	sb	0f25ah.3
                                 9494   
                                 9495   ;;	PB4C1  = 1;		// PortB Bit4 set to CMOS Output...
                                 9496   CLINEA 0000H 0001H 0CC2H 0002H 0031H
00:0040 C0-A0 5B-F2              9497   	sb	0f25bh.4
                                 9498   
                                 9499   ;;	PB4C0  = 1;	
                                 9500   CLINEA 0000H 0001H 0CC3H 0002H 000DH
00:0044 C0-A0 5A-F2              9501   	sb	0f25ah.4
                                 9502   
                                 9503   ;;	PB5C1  = 1;		// PortB Bit5 set to CMOS Output...
                                 9504   CLINEA 0000H 0001H 0CC4H 0002H 0031H
00:0048 D0-A0 5B-F2              9505   	sb	0f25bh.5
                                 9506   
                                 9507   ;;	PB5C0  = 1;	
                                 9508   CLINEA 0000H 0001H 0CC5H 0002H 000DH
00:004C D0-A0 5A-F2              9509   	sb	0f25ah.5
                                 9510   
                                 9511   ;;	PB6C1  = 1;		// PortB Bit6 set to CMOS Output...
                                 9512   CLINEA 0000H 0001H 0CC6H 0002H 0031H
00:0050 E0-A0 5B-F2              9513   	sb	0f25bh.6
                                 9514   
                                 9515   ;;	PB6C0  = 1;	
                                 9516   CLINEA 0000H 0001H 0CC7H 0002H 000DH
00:0054 E0-A0 5A-F2              9517   	sb	0f25ah.6
                                 9518   
                                 9519   ;;	PB7C1  = 1;		// PortB Bit7 set to CMOS Output...
                                 9520   CLINEA 0000H 0001H 0CC8H 0002H 0031H
00:0058 F0-A0 5B-F2              9521   	sb	0f25bh.7
                                 9522   
                                 9523   ;;	PB7C0  = 1;	
                                 9524   CLINEA 0000H 0001H 0CC9H 0002H 000DH
00:005C F0-A0 5A-F2              9525   	sb	0f25ah.7
                                 9526   
                                 9527   ;;	PB0MD1  = 0;	// PortB Bit0 set to General Purpose Output...
                                 9528   CLINEA 0000H 0001H 0CCCH 0002H 003CH
00:0060 82-A0 5D-F2              9529   	rb	0f25dh.0
                                 9530   
                                 9531   ;;	PB0MD0  = 0;	
                                 9532   CLINEA 0000H 0001H 0CCDH 0002H 000EH
00:0064 82-A0 5C-F2              9533   	rb	0f25ch.0
                                 9534   
                                 9535   ;;	PB1MD1  = 0;	// PortB Bit1 set to General Purpose Output...
                                 9536   CLINEA 0000H 0001H 0CCEH 0002H 003CH
00:0068 92-A0 5D-F2              9537   	rb	0f25dh.1
                                 9538   
                                 9539   ;;	PB1MD0  = 0;	
                                 9540   CLINEA 0000H 0001H 0CCFH 0002H 000EH
00:006C 92-A0 5C-F2              9541   	rb	0f25ch.1
                                 9542   
                                 9543   ;;	PB2MD1  = 0;	// PortB Bit2 set to General Purpose Output...
                                 9544   CLINEA 0000H 0001H 0CD0H 0002H 003CH
00:0070 A2-A0 5D-F2              9545   	rb	0f25dh.2
                                 9546   
                                 9547   ;;	PB2MD0  = 0;	
                                 9548   CLINEA 0000H 0001H 0CD1H 0002H 000EH
00:0074 A2-A0 5C-F2              9549   	rb	0f25ch.2
                                 9550   
                                 9551   ;;	PB3MD1  = 0;	// PortB Bit3 set to General Purpose Output...
                                 9552   CLINEA 0000H 0001H 0CD2H 0002H 003CH
00:0078 B2-A0 5D-F2              9553   	rb	0f25dh.3
                                 9554   
                                 9555   ;;	PB3MD0  = 0;	
                                 9556   CLINEA 0000H 0001H 0CD3H 0002H 000EH
00:007C B2-A0 5C-F2              9557   	rb	0f25ch.3
                                 9558   
                                 9559   ;;	PB4MD1  = 0;	// PortB Bit4 set to General Purpose Output...
                                 9560   CLINEA 0000H 0001H 0CD4H 0002H 003CH
00:0080 C2-A0 5D-F2              9561   	rb	0f25dh.4
                                 9562   
                                 9563   ;;	PB4MD0  = 0;	
                                 9564   CLINEA 0000H 0001H 0CD5H 0002H 000EH
00:0084 C2-A0 5C-F2              9565   	rb	0f25ch.4
                                 9566   
                                 9567   ;;	PB5MD1  = 0;	// PortB Bit5 set to General Purpose Output...
                                 9568   CLINEA 0000H 0001H 0CD6H 0002H 003CH
00:0088 D2-A0 5D-F2              9569   	rb	0f25dh.5
                                 9570   
                                 9571   ;;	PB5MD0  = 0;
                                 9572   CLINEA 0000H 0001H 0CD7H 0002H 000DH
00:008C D2-A0 5C-F2              9573   	rb	0f25ch.5
                                 9574   
                                 9575   ;;	PB6MD1  = 0;	// PortB Bit6 set to General Purpose Output...
                                 9576   CLINEA 0000H 0001H 0CD8H 0002H 003CH
00:0090 E2-A0 5D-F2              9577   	rb	0f25dh.6
                                 9578   
                                 9579   ;;	PB6MD0  = 0;	
                                 9580   CLINEA 0000H 0001H 0CD9H 0002H 000EH
00:0094 E2-A0 5C-F2              9581   	rb	0f25ch.6
                                 9582   
                                 9583   ;;	PB7MD1  = 0;	// PortB Bit7 set to General Purpose Output...
                                 9584   CLINEA 0000H 0001H 0CDAH 0002H 003CH
00:0098 F2-A0 5D-F2              9585   	rb	0f25dh.7
                                 9586   
                                 9587   ;;	PB7MD0  = 0;
                                 9588   CLINEA 0000H 0001H 0CDBH 0002H 000DH
00:009C F2-A0 5C-F2              9589   	rb	0f25ch.7
                                 9590   
                                 9591   ;;	PB0D = 0;		// B.0 Output OFF....
                                 9592   CLINEA 0000H 0001H 0CDEH 0002H 0021H
00:00A0 82-A0 58-F2              9593   	rb	0f258h.0
                                 9594   
                                 9595   ;;	PB1D = 0;		// B.1 Output OFF....
                                 9596   CLINEA 0000H 0001H 0CDFH 0002H 0021H
00:00A4 92-A0 58-F2              9597   	rb	0f258h.1
                                 9598   
                                 9599   ;;	PB2D = 0;		// B.2 Output OFF....
                                 9600   CLINEA 0000H 0001H 0CE0H 0002H 0021H
00:00A8 A2-A0 58-F2              9601   	rb	0f258h.2
                                 9602   
                                 9603   ;;	PB3D = 0;		// B.3 Output OFF....
                                 9604   CLINEA 0000H 0001H 0CE1H 0002H 0021H
00:00AC B2-A0 58-F2              9605   	rb	0f258h.3
                                 9606   
                                 9607   ;;	PB4D = 0;		// B.4 Output OFF....
                                 9608   CLINEA 0000H 0001H 0CE2H 0002H 0021H
00:00B0 C2-A0 58-F2              9609   	rb	0f258h.4
                                 9610   
                                 9611   ;;	PB5D = 0;		// B.5 Output OFF....
                                 9612   CLINEA 0000H 0001H 0CE3H 0002H 0021H
00:00B4 D2-A0 58-F2              9613   	rb	0f258h.5
                                 9614   
                                 9615   ;;	PB6D = 0;		// B.6 Output OFF....
                                 9616   CLINEA 0000H 0001H 0CE4H 0002H 0021H
00:00B8 E2-A0 58-F2              9617   	rb	0f258h.6
                                 9618   
                                 9619   ;;	PB7D = 0;		// B.7 Output OFF....
                                 9620   CLINEA 0000H 0001H 0CE5H 0002H 0021H
00:00BC F2-A0 58-F2              9621   	rb	0f258h.7
                                 9622   
                                 9623   ;;	main_clrWDT(); 	// Clear WDT
                                 9624   CLINEA 0000H 0001H 0CE7H 0002H 001DH
00:00C0 00-F0'00-00'             9625   	b	_main_clrWDT
                                 9626   CBLOCKEND 211 2 3305
                                 9627   CLINEA 0000H 0001H 0CE9H 0001H 0001H
                                 9628   CBLOCKEND 211 1 3305
                                 9629   CFUNCTIONEND 211
                                 9630   
                                 9631   
  --------------------------     9632   	rseg $$PortC_Low$main
                                 9633   CFUNCTION 212
                                 9634   
00:0000                          9635   _PortC_Low	:
                                 9636   CBLOCK 212 1 3311
                                 9637   
                                 9638   ;;void PortC_Low(void){
                                 9639   CLINEA 0000H 0001H 0CEFH 0001H 0015H
                                 9640   CBLOCK 212 2 3311
                                 9641   
                                 9642   ;;	PC0DIR = 0;		// PortC Bit0 set to Output Mode...
                                 9643   CLINEA 0000H 0001H 0CF9H 0002H 0031H
00:0000 82-A0 61-F2              9644   	rb	0f261h.0
                                 9645   
                                 9646   ;;	PC1DIR = 0;		// PortC Bit1 set to Output Mode...
                                 9647   CLINEA 0000H 0001H 0CFAH 0002H 0031H
00:0004 92-A0 61-F2              9648   	rb	0f261h.1
                                 9649   
                                 9650   ;;	PC2DIR = 0;		// PortC Bit2 set to Output Mode...
                                 9651   CLINEA 0000H 0001H 0CFBH 0002H 0031H
00:0008 A2-A0 61-F2              9652   	rb	0f261h.2
                                 9653   
                                 9654   ;;	PC3DIR = 0;		// PortC Bit3 set to Output Mode...
                                 9655   CLINEA 0000H 0001H 0CFCH 0002H 0031H
00:000C B2-A0 61-F2              9656   	rb	0f261h.3
                                 9657   
                                 9658   ;;	PC4DIR = 0;		// PortC Bit4 set to Output Mode...
                                 9659   CLINEA 0000H 0001H 0CFDH 0002H 0031H
00:0010 C2-A0 61-F2              9660   	rb	0f261h.4
                                 9661   
                                 9662   ;;	PC5DIR = 0;		// PortC Bit5 set to Output Mode...
                                 9663   CLINEA 0000H 0001H 0CFEH 0002H 0031H
00:0014 D2-A0 61-F2              9664   	rb	0f261h.5
                                 9665   
                                 9666   ;;	PC6DIR = 0;		// PortC Bit6 set to Output Mode...
                                 9667   CLINEA 0000H 0001H 0CFFH 0002H 0031H
00:0018 E2-A0 61-F2              9668   	rb	0f261h.6
                                 9669   
                                 9670   ;;	PC7DIR = 0;		// PortC Bit7 set to Output Mode...
                                 9671   CLINEA 0000H 0001H 0D00H 0002H 0031H
00:001C F2-A0 61-F2              9672   	rb	0f261h.7
                                 9673   
                                 9674   ;;	PC0C1  = 1;		// PortC Bit0 set to High-Impedance Output...
                                 9675   CLINEA 0000H 0001H 0D03H 0002H 003BH
00:0020 80-A0 63-F2              9676   	sb	0f263h.0
                                 9677   
                                 9678   ;;	PC0C0  = 1;		
                                 9679   CLINEA 0000H 0001H 0D04H 0002H 000EH
00:0024 80-A0 62-F2              9680   	sb	0f262h.0
                                 9681   
                                 9682   ;;	PC1C1  = 1;		// PortC Bit1 set to High-Impedance Output...
                                 9683   CLINEA 0000H 0001H 0D05H 0002H 003BH
00:0028 90-A0 63-F2              9684   	sb	0f263h.1
                                 9685   
                                 9686   ;;	PC1C0  = 1;	
                                 9687   CLINEA 0000H 0001H 0D06H 0002H 000DH
00:002C 90-A0 62-F2              9688   	sb	0f262h.1
                                 9689   
                                 9690   ;;	PC2C1  = 1;		// PortC Bit2 set to High-Impedance Output...
                                 9691   CLINEA 0000H 0001H 0D07H 0002H 003BH
00:0030 A0-A0 63-F2              9692   	sb	0f263h.2
                                 9693   
                                 9694   ;;	PC2C0  = 1;	
                                 9695   CLINEA 0000H 0001H 0D08H 0002H 000DH
00:0034 A0-A0 62-F2              9696   	sb	0f262h.2
                                 9697   
                                 9698   ;;	PC3C1  = 1;		// PortC Bit3 set to High-Impedance Output...
                                 9699   CLINEA 0000H 0001H 0D09H 0002H 003BH
00:0038 B0-A0 63-F2              9700   	sb	0f263h.3
                                 9701   
                                 9702   ;;	PC3C0  = 1;		
                                 9703   CLINEA 0000H 0001H 0D0AH 0002H 000EH
00:003C B0-A0 62-F2              9704   	sb	0f262h.3
                                 9705   
                                 9706   ;;	PC4C1  = 1;		// PortC Bit4 set to High-Impedance Output...
                                 9707   CLINEA 0000H 0001H 0D0BH 0002H 003BH
00:0040 C0-A0 63-F2              9708   	sb	0f263h.4
                                 9709   
                                 9710   ;;	PC4C0  = 1;	
                                 9711   CLINEA 0000H 0001H 0D0CH 0002H 000DH
00:0044 C0-A0 62-F2              9712   	sb	0f262h.4
                                 9713   
                                 9714   ;;	PC5C1  = 1;		// PortC Bit5 set to High-Impedance Output...
                                 9715   CLINEA 0000H 0001H 0D0DH 0002H 003BH
00:0048 D0-A0 63-F2              9716   	sb	0f263h.5
                                 9717   
                                 9718   ;;	PC5C0  = 1;	
                                 9719   CLINEA 0000H 0001H 0D0EH 0002H 000DH
00:004C D0-A0 62-F2              9720   	sb	0f262h.5
                                 9721   
                                 9722   ;;	PC6C1  = 1;		// PortC Bit6 set to High-Impedance Output...
                                 9723   CLINEA 0000H 0001H 0D0FH 0002H 003BH
00:0050 E0-A0 63-F2              9724   	sb	0f263h.6
                                 9725   
                                 9726   ;;	PC6C0  = 1;	
                                 9727   CLINEA 0000H 0001H 0D10H 0002H 000DH
00:0054 E0-A0 62-F2              9728   	sb	0f262h.6
                                 9729   
                                 9730   ;;	PC7C1  = 1;		// PortC Bit7 set to High-Impedance Output...
                                 9731   CLINEA 0000H 0001H 0D11H 0002H 003BH
00:0058 F0-A0 63-F2              9732   	sb	0f263h.7
                                 9733   
                                 9734   ;;	PC7C0  = 1;	
                                 9735   CLINEA 0000H 0001H 0D12H 0002H 000DH
00:005C F0-A0 62-F2              9736   	sb	0f262h.7
                                 9737   
                                 9738   ;;	PC0MD1  = 0;	// PortC Bit0 set to General Purpose Output...
                                 9739   CLINEA 0000H 0001H 0D15H 0002H 003CH
00:0060 82-A0 65-F2              9740   	rb	0f265h.0
                                 9741   
                                 9742   ;;	PC0MD0  = 0;	
                                 9743   CLINEA 0000H 0001H 0D16H 0002H 000EH
00:0064 82-A0 64-F2              9744   	rb	0f264h.0
                                 9745   
                                 9746   ;;	PC1MD1  = 0;	// PortC Bit1 set to General Purpose Output...
                                 9747   CLINEA 0000H 0001H 0D17H 0002H 003CH
00:0068 92-A0 65-F2              9748   	rb	0f265h.1
                                 9749   
                                 9750   ;;	PC1MD0  = 0;	
                                 9751   CLINEA 0000H 0001H 0D18H 0002H 000EH
00:006C 92-A0 64-F2              9752   	rb	0f264h.1
                                 9753   
                                 9754   ;;	PC2MD1  = 0;	// PortC Bit2 set to General Purpose Output...
                                 9755   CLINEA 0000H 0001H 0D19H 0002H 003CH
00:0070 A2-A0 65-F2              9756   	rb	0f265h.2
                                 9757   
                                 9758   ;;	PC2MD0  = 0;	
                                 9759   CLINEA 0000H 0001H 0D1AH 0002H 000EH
00:0074 A2-A0 64-F2              9760   	rb	0f264h.2
                                 9761   
                                 9762   ;;	PC3MD1  = 0;	// PortC Bit3 set to General Purpose Output...
                                 9763   CLINEA 0000H 0001H 0D1BH 0002H 003CH
00:0078 B2-A0 65-F2              9764   	rb	0f265h.3
                                 9765   
                                 9766   ;;	PC3MD0  = 0;	
                                 9767   CLINEA 0000H 0001H 0D1CH 0002H 000EH
00:007C B2-A0 64-F2              9768   	rb	0f264h.3
                                 9769   
                                 9770   ;;	PC4MD1  = 0;	// PortC Bit4 set to General Purpose Output...
                                 9771   CLINEA 0000H 0001H 0D1DH 0002H 003CH
00:0080 C2-A0 65-F2              9772   	rb	0f265h.4
                                 9773   
                                 9774   ;;	PC4MD0  = 0;	
                                 9775   CLINEA 0000H 0001H 0D1EH 0002H 000EH
00:0084 C2-A0 64-F2              9776   	rb	0f264h.4
                                 9777   
                                 9778   ;;	PC5MD1  = 0;	// PortC Bit5 set to General Purpose Output...
                                 9779   CLINEA 0000H 0001H 0D1FH 0002H 003CH
00:0088 D2-A0 65-F2              9780   	rb	0f265h.5
                                 9781   
                                 9782   ;;	PC5MD0  = 0;
                                 9783   CLINEA 0000H 0001H 0D20H 0002H 000DH
00:008C D2-A0 64-F2              9784   	rb	0f264h.5
                                 9785   
                                 9786   ;;	PC6MD1  = 0;	// PortC Bit6 set to General Purpose Output...
                                 9787   CLINEA 0000H 0001H 0D21H 0002H 003CH
00:0090 E2-A0 65-F2              9788   	rb	0f265h.6
                                 9789   
                                 9790   ;;	PC6MD0  = 0;	
                                 9791   CLINEA 0000H 0001H 0D22H 0002H 000EH
00:0094 E2-A0 64-F2              9792   	rb	0f264h.6
                                 9793   
                                 9794   ;;	PC7MD1  = 0;	// PortC Bit7 set to General Purpose Output...
                                 9795   CLINEA 0000H 0001H 0D23H 0002H 003CH
00:0098 F2-A0 65-F2              9796   	rb	0f265h.7
                                 9797   
                                 9798   ;;	PC7MD0  = 0;
                                 9799   CLINEA 0000H 0001H 0D24H 0002H 000DH
00:009C F2-A0 64-F2              9800   	rb	0f264h.7
                                 9801   
                                 9802   ;;	PC0D = 0;		// C.0 Output OFF....
                                 9803   CLINEA 0000H 0001H 0D27H 0002H 0021H
00:00A0 82-A0 60-F2              9804   	rb	0f260h.0
                                 9805   
                                 9806   ;;	PC1D = 0;		// C.1 Output OFF....
                                 9807   CLINEA 0000H 0001H 0D28H 0002H 0021H
00:00A4 92-A0 60-F2              9808   	rb	0f260h.1
                                 9809   
                                 9810   ;;	PC2D = 0;		// C.2 Output OFF....
                                 9811   CLINEA 0000H 0001H 0D29H 0002H 0021H
00:00A8 A2-A0 60-F2              9812   	rb	0f260h.2
                                 9813   
                                 9814   ;;	PC3D = 0;		// C.3 Output OFF....
                                 9815   CLINEA 0000H 0001H 0D2AH 0002H 0021H
00:00AC B2-A0 60-F2              9816   	rb	0f260h.3
                                 9817   
                                 9818   ;;	PC4D = 0;		// C.4 Output OFF....
                                 9819   CLINEA 0000H 0001H 0D2BH 0002H 0021H
00:00B0 C2-A0 60-F2              9820   	rb	0f260h.4
                                 9821   
                                 9822   ;;	PC5D = 0;		// C.5 Output OFF....
                                 9823   CLINEA 0000H 0001H 0D2CH 0002H 0021H
00:00B4 D2-A0 60-F2              9824   	rb	0f260h.5
                                 9825   
                                 9826   ;;	PC6D = 0;		// C.6 Output OFF....
                                 9827   CLINEA 0000H 0001H 0D2DH 0002H 0021H
00:00B8 E2-A0 60-F2              9828   	rb	0f260h.6
                                 9829   
                                 9830   ;;	PC7D = 0;		// C.7 Output OFF....
                                 9831   CLINEA 0000H 0001H 0D2EH 0002H 0021H
00:00BC F2-A0 60-F2              9832   	rb	0f260h.7
                                 9833   
                                 9834   ;;	main_clrWDT(); 	// Clear WDT
                                 9835   CLINEA 0000H 0001H 0D30H 0002H 001DH
00:00C0 00-F0'00-00'             9836   	b	_main_clrWDT
                                 9837   CBLOCKEND 212 2 3378
                                 9838   CLINEA 0000H 0001H 0D32H 0001H 0001H
                                 9839   CBLOCKEND 212 1 3378
                                 9840   CFUNCTIONEND 212
                                 9841   
                                 9842   
  --------------------------     9843   	rseg $$PortD_Low$main
                                 9844   CFUNCTION 213
                                 9845   
00:0000                          9846   _PortD_Low	:
                                 9847   CBLOCK 213 1 3384
                                 9848   
                                 9849   ;;void PortD_Low(void){
                                 9850   CLINEA 0000H 0001H 0D38H 0001H 0015H
                                 9851   CBLOCK 213 2 3384
                                 9852   
                                 9853   ;;	PD0DIR = 0;		// PortD Bit0 set to Output Mode...
                                 9854   CLINEA 0000H 0001H 0D41H 0002H 0031H
00:0000 82-A0 69-F2              9855   	rb	0f269h.0
                                 9856   
                                 9857   ;;	PD1DIR = 0;		// PortD Bit1 set to Output Mode...
                                 9858   CLINEA 0000H 0001H 0D42H 0002H 0031H
00:0004 92-A0 69-F2              9859   	rb	0f269h.1
                                 9860   
                                 9861   ;;	PD2DIR = 0;		// PortD Bit2 set to Output Mode...
                                 9862   CLINEA 0000H 0001H 0D43H 0002H 0031H
00:0008 A2-A0 69-F2              9863   	rb	0f269h.2
                                 9864   
                                 9865   ;;	PD3DIR = 0;		// PortD Bit3 set to Output Mode...
                                 9866   CLINEA 0000H 0001H 0D44H 0002H 0031H
00:000C B2-A0 69-F2              9867   	rb	0f269h.3
                                 9868   
                                 9869   ;;	PD4DIR = 0;		// PortD Bit4 set to Output Mode...
                                 9870   CLINEA 0000H 0001H 0D45H 0002H 0031H
00:0010 C2-A0 69-F2              9871   	rb	0f269h.4
                                 9872   
                                 9873   ;;	PD5DIR = 0;		// PortD Bit5 set to Output Mode...
                                 9874   CLINEA 0000H 0001H 0D46H 0002H 0031H
00:0014 D2-A0 69-F2              9875   	rb	0f269h.5
                                 9876   
                                 9877   ;;	PD0C1= 1;		// PortD Bit0 set to CMOS Output...
                                 9878   CLINEA 0000H 0001H 0D49H 0002H 002FH
00:0018 80-A0 6B-F2              9879   	sb	0f26bh.0
                                 9880   
                                 9881   ;;	PD0C0= 1;		
                                 9882   CLINEA 0000H 0001H 0D4AH 0002H 000CH
00:001C 80-A0 6A-F2              9883   	sb	0f26ah.0
                                 9884   
                                 9885   ;;	PD1C1= 1;		// PortD Bit1 set to CMOS Output...
                                 9886   CLINEA 0000H 0001H 0D4BH 0002H 002FH
00:0020 90-A0 6B-F2              9887   	sb	0f26bh.1
                                 9888   
                                 9889   ;;	PD1C0= 1;	
                                 9890   CLINEA 0000H 0001H 0D4CH 0002H 000BH
00:0024 90-A0 6A-F2              9891   	sb	0f26ah.1
                                 9892   
                                 9893   ;;	PD2C1= 1;		// PortD Bit2 set to CMOS Output...
                                 9894   CLINEA 0000H 0001H 0D4DH 0002H 002FH
00:0028 A0-A0 6B-F2              9895   	sb	0f26bh.2
                                 9896   
                                 9897   ;;	PD2C0= 1;	
                                 9898   CLINEA 0000H 0001H 0D4EH 0002H 000BH
00:002C A0-A0 6A-F2              9899   	sb	0f26ah.2
                                 9900   
                                 9901   ;;	PD3C1= 1;		// PortD Bit3 set to CMOS Output...
                                 9902   CLINEA 0000H 0001H 0D4FH 0002H 002FH
00:0030 B0-A0 6B-F2              9903   	sb	0f26bh.3
                                 9904   
                                 9905   ;;	PD3C0= 1;		
                                 9906   CLINEA 0000H 0001H 0D50H 0002H 000CH
00:0034 B0-A0 6A-F2              9907   	sb	0f26ah.3
                                 9908   
                                 9909   ;;	PD4C1= 1;		// PortD Bit4 set to CMOS Output...
                                 9910   CLINEA 0000H 0001H 0D51H 0002H 002FH
00:0038 C0-A0 6B-F2              9911   	sb	0f26bh.4
                                 9912   
                                 9913   ;;	PD4C0= 1;	
                                 9914   CLINEA 0000H 0001H 0D52H 0002H 000BH
00:003C C0-A0 6A-F2              9915   	sb	0f26ah.4
                                 9916   
                                 9917   ;;	PD5C1= 1;		// PortD Bit5 set to CMOS Output...
                                 9918   CLINEA 0000H 0001H 0D53H 0002H 002FH
00:0040 D0-A0 6B-F2              9919   	sb	0f26bh.5
                                 9920   
                                 9921   ;;	PD5C0= 1;	
                                 9922   CLINEA 0000H 0001H 0D54H 0002H 000BH
00:0044 D0-A0 6A-F2              9923   	sb	0f26ah.5
                                 9924   
                                 9925   ;;	PD0D = 0;		// D.0 Output OFF....
                                 9926   CLINEA 0000H 0001H 0D57H 0002H 0021H
00:0048 82-A0 68-F2              9927   	rb	0f268h.0
                                 9928   
                                 9929   ;;	PD1D = 0;		// D.1 Output OFF....
                                 9930   CLINEA 0000H 0001H 0D58H 0002H 0021H
00:004C 92-A0 68-F2              9931   	rb	0f268h.1
                                 9932   
                                 9933   ;;	PD2D = 0;		// D.2 Output OFF....
                                 9934   CLINEA 0000H 0001H 0D59H 0002H 0021H
00:0050 A2-A0 68-F2              9935   	rb	0f268h.2
                                 9936   
                                 9937   ;;	PD3D = 0;		// D.3 Output OFF....
                                 9938   CLINEA 0000H 0001H 0D5AH 0002H 0021H
00:0054 B2-A0 68-F2              9939   	rb	0f268h.3
                                 9940   
                                 9941   ;;	PD4D = 0;		// D.4 Output OFF....
                                 9942   CLINEA 0000H 0001H 0D5BH 0002H 0021H
00:0058 C2-A0 68-F2              9943   	rb	0f268h.4
                                 9944   
                                 9945   ;;	PD5D = 0;		// D.5 Output OFF....
                                 9946   CLINEA 0000H 0001H 0D5CH 0002H 0021H
00:005C D2-A0 68-F2              9947   	rb	0f268h.5
                                 9948   
                                 9949   ;;	main_clrWDT(); 	// Clear WDT
                                 9950   CLINEA 0000H 0001H 0D5FH 0002H 001DH
00:0060 00-F0'00-00'             9951   	b	_main_clrWDT
                                 9952   CBLOCKEND 213 2 3425
                                 9953   CLINEA 0000H 0001H 0D61H 0001H 0001H
                                 9954   CBLOCKEND 213 1 3425
                                 9955   CFUNCTIONEND 213
                                 9956   
                                 9957   
  --------------------------     9958   	rseg $$PortA_Digital_Inputs$main
                                 9959   CFUNCTION 214
                                 9960   
00:0000                          9961   _PortA_Digital_Inputs	:
                                 9962   CBLOCK 214 1 3431
                                 9963   
                                 9964   ;;void PortA_Digital_Inputs(void){
                                 9965   CLINEA 0000H 0001H 0D67H 0001H 0020H
                                 9966   CBLOCK 214 2 3431
                                 9967   
                                 9968   ;;	PA0DIR = 1;		// PortA Bit0 set to Input Mode...
                                 9969   CLINEA 0000H 0001H 0D71H 0002H 0030H
00:0000 80-A0 51-F2              9970   	sb	0f251h.0
                                 9971   
                                 9972   ;;	PA1DIR = 1;		// PortA Bit1 set to Input Mode...
                                 9973   CLINEA 0000H 0001H 0D72H 0002H 0030H
00:0004 90-A0 51-F2              9974   	sb	0f251h.1
                                 9975   
                                 9976   ;;	PA2DIR = 1;		// PortA Bit2 set to Input Mode...
                                 9977   CLINEA 0000H 0001H 0D73H 0002H 0030H
00:0008 A0-A0 51-F2              9978   	sb	0f251h.2
                                 9979   
                                 9980   ;;	PA0C1  = 1;		// PortA Bit0 set to Input with Pull-Up Resistor...
                                 9981   CLINEA 0000H 0001H 0D77H 0002H 0041H
00:000C 80-A0 53-F2              9982   	sb	0f253h.0
                                 9983   
                                 9984   ;;	PA0C0  = 0;		
                                 9985   CLINEA 0000H 0001H 0D78H 0002H 000EH
00:0010 82-A0 52-F2              9986   	rb	0f252h.0
                                 9987   
                                 9988   ;;	PA1C1  = 1;		// PortA Bit1 set to Input with Pull-Up Resistor...
                                 9989   CLINEA 0000H 0001H 0D79H 0002H 0041H
00:0014 90-A0 53-F2              9990   	sb	0f253h.1
                                 9991   
                                 9992   ;;	PA1C0  = 0;	
                                 9993   CLINEA 0000H 0001H 0D7AH 0002H 000DH
00:0018 92-A0 52-F2              9994   	rb	0f252h.1
                                 9995   
                                 9996   ;;	PA2C1  = 1;		// PortA Bit2 set to Input with Pull-Up Resistor...
                                 9997   CLINEA 0000H 0001H 0D7BH 0002H 0041H
00:001C A0-A0 53-F2              9998   	sb	0f253h.2
                                 9999   
                                10000   ;;	PA2C0  = 0;	
                                10001   CLINEA 0000H 0001H 0D7CH 0002H 000DH
00:0020 A2-A0 52-F2             10002   	rb	0f252h.2
                                10003   
                                10004   ;;	PA0MD1  = 0;	// PortA Bit0 set to General Purpose I/O...
                                10005   CLINEA 0000H 0001H 0D7FH 0002H 0039H
00:0024 82-A0 55-F2             10006   	rb	0f255h.0
                                10007   
                                10008   ;;	PA0MD0  = 0;	
                                10009   CLINEA 0000H 0001H 0D80H 0002H 000EH
00:0028 82-A0 54-F2             10010   	rb	0f254h.0
                                10011   
                                10012   ;;	PA1MD1  = 0;	// PortA Bit1 set to General Purpose I/O...
                                10013   CLINEA 0000H 0001H 0D81H 0002H 0039H
00:002C 92-A0 55-F2             10014   	rb	0f255h.1
                                10015   
                                10016   ;;	PA1MD0  = 0;	
                                10017   CLINEA 0000H 0001H 0D82H 0002H 000EH
00:0030 92-A0 54-F2             10018   	rb	0f254h.1
                                10019   
                                10020   ;;	PA2MD1  = 0;	// PortA Bit2 set to General Purpose I/O...
                                10021   CLINEA 0000H 0001H 0D83H 0002H 0039H
00:0034 A2-A0 55-F2             10022   	rb	0f255h.2
                                10023   
                                10024   ;;	PA2MD0  = 0;	
                                10025   CLINEA 0000H 0001H 0D84H 0002H 000EH
00:0038 A2-A0 54-F2             10026   	rb	0f254h.2
                                10027   
                                10028   ;;	main_clrWDT(); 	// Clear WDT
                                10029   CLINEA 0000H 0001H 0D86H 0002H 001DH
00:003C 00-F0'00-00'            10030   	b	_main_clrWDT
                                10031   CBLOCKEND 214 2 3464
                                10032   CLINEA 0000H 0001H 0D88H 0001H 0001H
                                10033   CBLOCKEND 214 1 3464
                                10034   CFUNCTIONEND 214
                                10035   
                                10036   
  --------------------------    10037   	rseg $$NOP$main
                                10038   CFUNCTION 249
                                10039   
00:0000                         10040   _NOP	:
                                10041   CBLOCK 249 1 3527
                                10042   
                                10043   ;;{
                                10044   CLINEA 0000H 0001H 0DC7H 0001H 0001H
00:0000 CE-F8                   10045   	push	lr
00:0002 6E-F4                   10046   	push	xr4
00:0004 5E-F8                   10047   	push	er8
00:0006 00-88                   10048   	mov	r8,	r0
                                10049   CBLOCK 249 2 3527
                                10050   CRET 0006H
                                10051   CARGUMENT 46H 0001H 001CH "sec" 02H 00H 00H
                                10052   CLOCAL 46H 0002H 0027H 0002H "timerThres" 02H 00H 01H
                                10053   CLOCAL 46H 0001H 0018H 0002H "TimeFlag" 02H 00H 00H
                                10054   CLOCAL 46H 0001H 0016H 0002H "TempSec" 02H 00H 00H
                                10055   CLOCAL 46H 0002H 0024H 0002H "timer" 02H 00H 01H
                                10056   CLOCAL 4AH 0002H 0000H 0002H "timertest" 02H 00H 01H
                                10057   
                                10058   ;;	tm_init(TM_CH_NO_AB);
                                10059   CLINEA 0000H 0001H 0DCEH 0002H 0016H
00:0008 01 00                   10060   	mov	r0,	#01h
00:000A 01-F0'00-00'            10061   	bl	_tm_init
                                10062   
                                10063   ;;	TempSec = sec;
                                10064   CLINEA 0000H 0001H 0DCFH 0002H 000FH
00:000E 80-82                   10065   	mov	r2,	r8
                                10066   
                                10067   ;;	TimeFlag = 0;
                                10068   CLINEA 0000H 0001H 0DD0H 0002H 000EH
00:0010 00 04                   10069   	mov	r4,	#00h
                                10070   
                                10071   ;;	tm_setABSource(TM_CS_LSCLK);
                                10072   CLINEA 0000H 0000H 018DH 0002H 0015H
00:0012 82-A0 EA-F8             10073   	rb	0f8eah.0
                                10074   
                                10075   ;;	tm_setABSource(TM_CS_LSCLK);
                                10076   CLINEA 0000H 0000H 018EH 0002H 001AH
00:0016 92-A0 EA-F8             10077   	rb	0f8eah.1
                                10078   
                                10079   ;;	tm_setABData(0xffff);
                                10080   CLINEA 0000H 0000H 0157H 0002H 0025H
00:001A FF 00                   10081   	mov	r0,	#0ffh
00:001C 11-90 E8-F8             10082   	st	r0,	0f8e8h
                                10083   
                                10084   ;;	tm_setABData(0xffff);
                                10085   CLINEA 0000H 0000H 0158H 0002H 0023H
00:0020 11-90 EC-F8             10086   	st	r0,	0f8ech
                                10087   
                                10088   ;;	if(sec == 1){
                                10089   CLINEA 0000H 0001H 0DD5H 0002H 000EH
00:0024 01 78                   10090   	cmp	r8,	#01h
00:0026 02 C8                   10091   	bne	_$L617
                                10092   CBLOCK 249 3 3541
                                10093   
                                10094   ;;		timerThres = 0x7FFF;
                                10095   CLINEA 0000H 0001H 0DD6H 0003H 0016H
00:0028 FF 06                   10096   	mov	r6,	#0ffh
00:002A 7F 07                   10097   	mov	r7,	#07fh
                                10098   
                                10099   ;;		TimeFlag = 0;
                                10100   CLINEA 0000H 0001H 0DD7H 0003H 000FH
                                10101   CBLOCKEND 249 3 3544
                                10102   
                                10103   ;;	}
                                10104   CLINEA 0000H 0000H 0DD8H 0002H 0002H
00:002C                         10105   _$L617 :
                                10106   
                                10107   ;;	if(sec == 2){
                                10108   CLINEA 0000H 0001H 0DD9H 0002H 000EH
00:002C 02 78                   10109   	cmp	r8,	#02h
00:002E 02 C8                   10110   	bne	_$L619
                                10111   CBLOCK 249 4 3545
                                10112   
                                10113   ;;		timerThres = 0xFFFF;
                                10114   CLINEA 0000H 0001H 0DDAH 0003H 0016H
00:0030 7F E6                   10115   	mov	er6,	#-1
                                10116   
                                10117   ;;		TimeFlag = 0;
                                10118   CLINEA 0000H 0001H 0DDBH 0003H 000FH
00:0032 00 04                   10119   	mov	r4,	#00h
                                10120   CBLOCKEND 249 4 3548
                                10121   
                                10122   ;;	}
                                10123   CLINEA 0000H 0000H 0DDCH 0002H 0002H
00:0034                         10124   _$L619 :
                                10125   
                                10126   ;;	if(sec > 2){
                                10127   CLINEA 0000H 0001H 0DDDH 0002H 000DH
00:0034 02 78                   10128   	cmp	r8,	#02h
00:0036 0C C3                   10129   	ble	_$L629
                                10130   CBLOCK 249 5 3549
                                10131   
                                10132   ;;	while(TempSec > 1){
                                10133   CLINEA 0000H 0000H 0DDEH 0001H 0001H
00:0038 02 CE                   10134   	bal	_$L639
                                10135   
                                10136   ;;	while(TempSec > 1){
                                10137   CLINEA 0000H 0000H 0DDEH 0002H 0014H
00:003A                         10138   _$L625 :
                                10139   CBLOCK 249 6 3550
                                10140   
                                10141   ;;		TempSec -= 2;
                                10142   CLINEA 0000H 0001H 0DDFH 0003H 000FH
00:003A FE 12                   10143   	add	r2,	#0feh
                                10144   
                                10145   ;;		TimeFlag++;
                                10146   CLINEA 0000H 0000H 0DE0H 0003H 000DH
00:003C 01 14                   10147   	add	r4,	#01h
                                10148   CBLOCKEND 249 6 3553
                                10149   
                                10150   ;;	while(TempSec > 1){
                                10151   CLINEA 0000H 0000H 0DDEH 0001H 0001H
00:003E                         10152   _$L639 :
                                10153   
                                10154   ;;	while(TempSec > 1){
                                10155   CLINEA 0000H 0000H 0DDEH 000EH 0013H
00:003E 01 72                   10156   	cmp	r2,	#01h
00:0040 FC C2                   10157   	bgt	_$L625
                                10158   
                                10159   ;;	if(TempSec == 1){
                                10160   CLINEA 0000H 0001H 0DE2H 0002H 0012H
00:0042 01 72                   10161   	cmp	r2,	#01h
00:0044 03 C8                   10162   	bne	_$L627
                                10163   CBLOCK 249 7 3554
                                10164   
                                10165   ;;		timerThres = 0x7FFF;
                                10166   CLINEA 0000H 0001H 0DE3H 0003H 0016H
00:0046 FF 06                   10167   	mov	r6,	#0ffh
00:0048 7F 07                   10168   	mov	r7,	#07fh
                                10169   CBLOCKEND 249 7 3556
                                10170   
                                10171   ;;	else{
                                10172   CLINEA 0000H 0001H 0DE5H 0002H 0006H
00:004A 02 CE                   10173   	bal	_$L629
00:004C                         10174   _$L627 :
                                10175   CBLOCK 249 8 3557
                                10176   
                                10177   ;;		timerThres = 0xFFFF;
                                10178   CLINEA 0000H 0001H 0DE6H 0003H 0016H
00:004C 7F E6                   10179   	mov	er6,	#-1
                                10180   
                                10181   ;;		TimeFlag--;
                                10182   CLINEA 0000H 0000H 0DE7H 0003H 000DH
00:004E FF 14                   10183   	add	r4,	#0ffh
                                10184   CBLOCKEND 249 8 3560
                                10185   
                                10186   ;;	}
                                10187   CLINEA 0000H 0000H 0DE8H 0002H 0002H
00:0050                         10188   _$L629 :
                                10189   CBLOCKEND 249 5 3561
                                10190   
                                10191   ;;	main_clrWDT();	
                                10192   CLINEA 0000H 0001H 0DECH 0002H 0010H
00:0050 01-F0'00-00'            10193   	bl	_main_clrWDT
                                10194   
                                10195   ;;	tm_startAB();
                                10196   CLINEA 0000H 0001H 00D1H 0002H 000AH
00:0054 00 00                   10197   	mov	r0,	#00h
00:0056 11-90 E9-F8             10198   	st	r0,	0f8e9h
                                10199   
                                10200   ;;	tm_startAB();
                                10201   CLINEA 0000H 0000H 00D2H 0002H 000BH
00:005A 80-A0 EB-F8             10202   	sb	0f8ebh.0
                                10203   
                                10204   ;;	timer = tm_getABCounter();
                                10205   CLINEA 0000H 0000H 0120H 0002H 001BH
00:005E 10-90 E9-F8             10206   	l	r0,	0f8e9h
00:0062 00 01                   10207   	mov	r1,	#00h
00:0064 05-F2                   10208   	mov	er2,	er0
                                10209   
                                10210   ;;	timer = tm_getABCounter();
                                10211   CLINEA 0000H 0000H 0121H 0002H 0014H
00:0066 10-90 ED-F8             10212   	l	r0,	0f8edh
00:006A 03-83                   10213   	or	r3,	r0
                                10214   
                                10215   ;;	timer = tm_getABCounter();
                                10216   CLINEA 0000H 0000H 0122H 0002H 000CH
00:006C 25-F0                   10217   	mov	er0,	er2
                                10218   
                                10219   ;;	while(timer < timerThres){
                                10220   CLINEA 0000H 0001H 0DF0H 0002H 001BH
00:006E 08 CE                   10221   	bal	_$L632
00:0070                         10222   _$L634 :
                                10223   CBLOCK 249 9 3568
                                10224   
                                10225   ;;		timer = tm_getABCounter();
                                10226   CLINEA 0000H 0000H 0120H 0002H 001BH
00:0070 10-90 E9-F8             10227   	l	r0,	0f8e9h
00:0074 00 01                   10228   	mov	r1,	#00h
00:0076 05-F2                   10229   	mov	er2,	er0
                                10230   
                                10231   ;;		timer = tm_getABCounter();
                                10232   CLINEA 0000H 0000H 0121H 0002H 0014H
00:0078 10-90 ED-F8             10233   	l	r0,	0f8edh
00:007C 03-83                   10234   	or	r3,	r0
                                10235   
                                10236   ;;		timer = tm_getABCounter();
                                10237   CLINEA 0000H 0000H 0122H 0002H 000CH
00:007E 25-F0                   10238   	mov	er0,	er2
                                10239   
                                10240   ;;		timer = tm_getABCounter();
                                10241   CLINEA 0000H 0000H 0DF1H 0003H 001CH
                                10242   CBLOCKEND 249 9 3571
                                10243   
                                10244   ;;	}
                                10245   CLINEA 0000H 0000H 0DF3H 0002H 0002H
00:0080                         10246   _$L632 :
                                10247   
                                10248   ;;	while(timer < timerThres){
                                10249   CLINEA 0000H 0000H 0DF0H 000EH 0013H
00:0080 67-F0                   10250   	cmp	er0,	er6
00:0082 F6 C1                   10251   	blt	_$L634
                                10252   
                                10253   ;;	if(TimeFlag !=0){
                                10254   CLINEA 0000H 0001H 0DF4H 0002H 0012H
00:0084 00 74                   10255   	cmp	r4,	#00h
00:0086 05 C9                   10256   	beq	_$L637
                                10257   
                                10258   ;;		tm_stopAB();
                                10259   CLINEA 0000H 0001H 0105H 0002H 000BH
00:0088 82-A0 EB-F8             10260   	rb	0f8ebh.0
                                10261   
                                10262   ;;		TimeFlag--;
                                10263   CLINEA 0000H 0000H 0DF6H 0003H 000DH
00:008C FF 14                   10264   	add	r4,	#0ffh
                                10265   
                                10266   ;;		timerThres = 0xFFFF;
                                10267   CLINEA 0000H 0001H 0DF7H 0003H 0016H
00:008E 7F E6                   10268   	mov	er6,	#-1
                                10269   
                                10270   ;;		goto TimerRestart;
                                10271   CLINEA 0000H 0001H 0DF8H 0003H 0014H
00:0090 DF CE                   10272   	bal	_$L629
                                10273   
                                10274   ;;	}
                                10275   CLINEA 0000H 0000H 0DF9H 0002H 0002H
00:0092                         10276   _$L637 :
                                10277   CBLOCKEND 249 2 3578
                                10278   
                                10279   ;;}
                                10280   CLINEA 0000H 0001H 0DFAH 0001H 0001H
00:0092 1E-F8                   10281   	pop	er8
00:0094 2E-F4                   10282   	pop	xr4
00:0096 8E-F2                   10283   	pop	pc
                                10284   CBLOCKEND 249 1 3578
                                10285   CFUNCTIONEND 249
                                10286   
                                10287   
  --------------------------    10288   	rseg $$NOPms$main
                                10289   CFUNCTION 250
                                10290   
00:0000                         10291   _NOPms	:
                                10292   CBLOCK 250 1 3591
                                10293   
                                10294   ;;{
                                10295   CLINEA 0000H 0001H 0E07H 0001H 0001H
00:0000 CE-F8                   10296   	push	lr
00:0002 6E-F4                   10297   	push	xr4
00:0004 5E-FC                   10298   	push	bp
00:0006 5E-F8                   10299   	push	er8
00:0008 05-F8                   10300   	mov	er8,	er0
                                10301   CBLOCK 250 2 3591
                                10302   CRET 0008H
                                10303   CARGUMENT 46H 0002H 0028H "ms" 02H 00H 01H
                                10304   CLOCAL 46H 0002H 002AH 0002H "timerThres" 02H 00H 01H
                                10305   CLOCAL 46H 0001H 001AH 0002H "TimeFlag" 02H 00H 00H
                                10306   CLOCAL 46H 0002H 0026H 0002H "TempSec" 02H 00H 01H
                                10307   CLOCAL 46H 0002H 0024H 0002H "timer" 02H 00H 01H
                                10308   CLOCAL 4AH 0002H 0000H 0002H "timertest" 02H 00H 01H
                                10309   
                                10310   ;;TempSec = ms;
                                10311   CLINEA 0000H 0001H 0E0EH 0001H 000DH
00:000A 05-F4                   10312   	mov	er4,	er0
                                10313   
                                10314   ;;TimeFlag = 0;
                                10315   CLINEA 0000H 0001H 0E0FH 0001H 000DH
00:000C 00 06                   10316   	mov	r6,	#00h
                                10317   
                                10318   ;;tm_init(TM_CH_NO_AB);
                                10319   CLINEA 0000H 0001H 0E11H 0001H 0015H
00:000E 01 00                   10320   	mov	r0,	#01h
00:0010 01-F0'00-00'            10321   	bl	_tm_init
                                10322   
                                10323   ;;tm_setABSource(TM_CS_HTBCLK);
                                10324   CLINEA 0000H 0000H 018DH 0002H 0015H
00:0014 80-A0 EA-F8             10325   	sb	0f8eah.0
                                10326   
                                10327   ;;tm_setABSource(TM_CS_HTBCLK);
                                10328   CLINEA 0000H 0000H 018EH 0002H 001AH
00:0018 92-A0 EA-F8             10329   	rb	0f8eah.1
                                10330   
                                10331   ;;tm_setABData(0xffff);
                                10332   CLINEA 0000H 0000H 0157H 0002H 0025H
00:001C FF 00                   10333   	mov	r0,	#0ffh
00:001E 11-90 E8-F8             10334   	st	r0,	0f8e8h
                                10335   
                                10336   ;;tm_setABData(0xffff);
                                10337   CLINEA 0000H 0000H 0158H 0002H 0023H
00:0022 11-90 EC-F8             10338   	st	r0,	0f8ech
                                10339   
                                10340   ;;if(ms < 128){
                                10341   CLINEA 0000H 0001H 0E15H 0001H 000DH
00:0026 85-F0                   10342   	mov	er0,	er8
00:0028 80 78                   10343   	cmp	r8,	#080h
00:002A 00 59                   10344   	cmpc	r9,	#00h
00:002C 07 C0                   10345   	bge	_$L641
                                10346   CBLOCK 250 3 3605
                                10347   
                                10348   ;;	timerThres = 0x1FF * ms;
                                10349   CLINEA 0000H 0001H 0E16H 0002H 0019H
00:002E 7B-91                   10350   	sllc	r1,	#07h
00:0030 7A-90                   10351   	sll	r0,	#07h
00:0032 2B-91                   10352   	sllc	r1,	#02h
00:0034 2A-90                   10353   	sll	r0,	#02h
00:0036 88-80                   10354   	sub	r0,	r8
00:0038 99-81                   10355   	subc	r1,	r9
00:003A 05-FC                   10356   	mov	bp,	er0
                                10357   
                                10358   ;;	TimeFlag = 0;
                                10359   CLINEA 0000H 0001H 0E17H 0002H 000EH
                                10360   CBLOCKEND 250 3 3608
                                10361   
                                10362   ;;}
                                10363   CLINEA 0000H 0000H 0E18H 0001H 0001H
00:003C                         10364   _$L641 :
                                10365   
                                10366   ;;if(ms == 128){
                                10367   CLINEA 0000H 0001H 0E19H 0001H 000EH
00:003C 80 78                   10368   	cmp	r8,	#080h
00:003E 00 59                   10369   	cmpc	r9,	#00h
00:0040 02 C8                   10370   	bne	_$L643
                                10371   CBLOCK 250 4 3609
                                10372   
                                10373   ;;	timerThres = 0xFFFF;
                                10374   CLINEA 0000H 0001H 0E1AH 0002H 0015H
00:0042 7F EC                   10375   	mov	bp,	#-1
                                10376   
                                10377   ;;	TimeFlag = 0;
                                10378   CLINEA 0000H 0001H 0E1BH 0002H 000EH
00:0044 00 06                   10379   	mov	r6,	#00h
                                10380   CBLOCKEND 250 4 3612
                                10381   
                                10382   ;;}
                                10383   CLINEA 0000H 0000H 0E1CH 0001H 0001H
00:0046                         10384   _$L643 :
                                10385   
                                10386   ;;if(ms > 128){
                                10387   CLINEA 0000H 0001H 0E1DH 0001H 000DH
00:0046 80 78                   10388   	cmp	r8,	#080h
00:0048 00 59                   10389   	cmpc	r9,	#00h
00:004A 15 C3                   10390   	ble	_$L653
                                10391   CBLOCK 250 5 3613
                                10392   
                                10393   ;;	while(TempSec > 128){
                                10394   CLINEA 0000H 0000H 0E1EH 0001H 0001H
00:004C 04 CE                   10395   	bal	_$L663
                                10396   
                                10397   ;;	while(TempSec > 128){
                                10398   CLINEA 0000H 0000H 0E1EH 0002H 0016H
00:004E                         10399   _$L649 :
                                10400   CBLOCK 250 6 3614
                                10401   
                                10402   ;;		TempSec -= 128;
                                10403   CLINEA 0000H 0001H 0E1FH 0003H 0011H
00:004E 80 10                   10404   	add	r0,	#080h
00:0050 FF 61                   10405   	addc	r1,	#0ffh
00:0052 05-F4                   10406   	mov	er4,	er0
                                10407   
                                10408   ;;		TimeFlag++;
                                10409   CLINEA 0000H 0000H 0E20H 0003H 000DH
00:0054 01 16                   10410   	add	r6,	#01h
                                10411   CBLOCKEND 250 6 3617
                                10412   
                                10413   ;;	while(TempSec > 128){
                                10414   CLINEA 0000H 0000H 0E1EH 0001H 0001H
00:0056                         10415   _$L663 :
                                10416   
                                10417   ;;	while(TempSec > 128){
                                10418   CLINEA 0000H 0000H 0E1EH 000EH 0013H
00:0056 45-F0                   10419   	mov	er0,	er4
00:0058 80 74                   10420   	cmp	r4,	#080h
00:005A 00 55                   10421   	cmpc	r5,	#00h
00:005C F8 C2                   10422   	bgt	_$L649
                                10423   
                                10424   ;;	if(TempSec != 0){
                                10425   CLINEA 0000H 0001H 0E22H 0002H 0012H
00:005E 45-F4                   10426   	mov	er4,	er4
00:0060 08 C9                   10427   	beq	_$L651
                                10428   CBLOCK 250 7 3618
                                10429   
                                10430   ;;		timerThres = 0x1FF * TempSec;
                                10431   CLINEA 0000H 0001H 0E23H 0003H 001FH
00:0062 7B-91                   10432   	sllc	r1,	#07h
00:0064 7A-90                   10433   	sll	r0,	#07h
00:0066 2B-91                   10434   	sllc	r1,	#02h
00:0068 2A-90                   10435   	sll	r0,	#02h
00:006A 48-80                   10436   	sub	r0,	r4
00:006C 59-81                   10437   	subc	r1,	r5
00:006E 05-FC                   10438   	mov	bp,	er0
                                10439   CBLOCKEND 250 7 3620
                                10440   
                                10441   ;;	else{
                                10442   CLINEA 0000H 0001H 0E25H 0002H 0006H
00:0070 02 CE                   10443   	bal	_$L653
00:0072                         10444   _$L651 :
                                10445   CBLOCK 250 8 3621
                                10446   
                                10447   ;;		timerThres = 0xFFFF;
                                10448   CLINEA 0000H 0001H 0E26H 0003H 0016H
00:0072 7F EC                   10449   	mov	bp,	#-1
                                10450   
                                10451   ;;		TimeFlag--;
                                10452   CLINEA 0000H 0000H 0E27H 0003H 000DH
00:0074 FF 16                   10453   	add	r6,	#0ffh
                                10454   CBLOCKEND 250 8 3624
                                10455   
                                10456   ;;	}
                                10457   CLINEA 0000H 0000H 0E28H 0002H 0002H
00:0076                         10458   _$L653 :
                                10459   CBLOCKEND 250 5 3625
                                10460   
                                10461   ;;	main_clrWDT();	
                                10462   CLINEA 0000H 0001H 0E2CH 0002H 0010H
00:0076 01-F0'00-00'            10463   	bl	_main_clrWDT
                                10464   
                                10465   ;;	tm_startAB();
                                10466   CLINEA 0000H 0001H 00D1H 0002H 000AH
00:007A 00 00                   10467   	mov	r0,	#00h
00:007C 11-90 E9-F8             10468   	st	r0,	0f8e9h
                                10469   
                                10470   ;;	tm_startAB();
                                10471   CLINEA 0000H 0000H 00D2H 0002H 000BH
00:0080 80-A0 EB-F8             10472   	sb	0f8ebh.0
                                10473   
                                10474   ;;	timer = tm_getABCounter();
                                10475   CLINEA 0000H 0000H 0120H 0002H 001BH
00:0084 10-90 E9-F8             10476   	l	r0,	0f8e9h
00:0088 00 01                   10477   	mov	r1,	#00h
00:008A 05-F2                   10478   	mov	er2,	er0
                                10479   
                                10480   ;;	timer = tm_getABCounter();
                                10481   CLINEA 0000H 0000H 0121H 0002H 0014H
00:008C 10-90 ED-F8             10482   	l	r0,	0f8edh
00:0090 03-83                   10483   	or	r3,	r0
                                10484   
                                10485   ;;	timer = tm_getABCounter();
                                10486   CLINEA 0000H 0000H 0122H 0002H 000CH
00:0092 25-F0                   10487   	mov	er0,	er2
                                10488   
                                10489   ;;	while(timer < timerThres){
                                10490   CLINEA 0000H 0001H 0E30H 0002H 001BH
00:0094 08 CE                   10491   	bal	_$L656
00:0096                         10492   _$L658 :
                                10493   CBLOCK 250 9 3632
                                10494   
                                10495   ;;		timer = tm_getABCounter();
                                10496   CLINEA 0000H 0000H 0120H 0002H 001BH
00:0096 10-90 E9-F8             10497   	l	r0,	0f8e9h
00:009A 00 01                   10498   	mov	r1,	#00h
00:009C 05-F2                   10499   	mov	er2,	er0
                                10500   
                                10501   ;;		timer = tm_getABCounter();
                                10502   CLINEA 0000H 0000H 0121H 0002H 0014H
00:009E 10-90 ED-F8             10503   	l	r0,	0f8edh
00:00A2 03-83                   10504   	or	r3,	r0
                                10505   
                                10506   ;;		timer = tm_getABCounter();
                                10507   CLINEA 0000H 0000H 0122H 0002H 000CH
00:00A4 25-F0                   10508   	mov	er0,	er2
                                10509   
                                10510   ;;		timer = tm_getABCounter();
                                10511   CLINEA 0000H 0000H 0E31H 0003H 001CH
                                10512   CBLOCKEND 250 9 3635
                                10513   
                                10514   ;;	}
                                10515   CLINEA 0000H 0000H 0E33H 0002H 0002H
00:00A6                         10516   _$L656 :
                                10517   
                                10518   ;;	while(timer < timerThres){
                                10519   CLINEA 0000H 0000H 0E30H 000EH 0013H
00:00A6 C7-F0                   10520   	cmp	er0,	bp
00:00A8 F6 C1                   10521   	blt	_$L658
                                10522   
                                10523   ;;	if(TimeFlag !=0){
                                10524   CLINEA 0000H 0001H 0E34H 0002H 0012H
00:00AA 00 76                   10525   	cmp	r6,	#00h
00:00AC 05 C9                   10526   	beq	_$L661
                                10527   
                                10528   ;;		tm_stopAB();
                                10529   CLINEA 0000H 0001H 0105H 0002H 000BH
00:00AE 82-A0 EB-F8             10530   	rb	0f8ebh.0
                                10531   
                                10532   ;;		TimeFlag--;
                                10533   CLINEA 0000H 0000H 0E36H 0003H 000DH
00:00B2 FF 16                   10534   	add	r6,	#0ffh
                                10535   
                                10536   ;;		timerThres = 0xFFFF;
                                10537   CLINEA 0000H 0001H 0E37H 0003H 0016H
00:00B4 7F EC                   10538   	mov	bp,	#-1
                                10539   
                                10540   ;;		goto TimerRestart;
                                10541   CLINEA 0000H 0001H 0E38H 0003H 0014H
00:00B6 DF CE                   10542   	bal	_$L653
                                10543   
                                10544   ;;	}
                                10545   CLINEA 0000H 0000H 0E39H 0002H 0002H
00:00B8                         10546   _$L661 :
                                10547   CBLOCKEND 250 2 3643
                                10548   
                                10549   ;;}
                                10550   CLINEA 0000H 0001H 0E3BH 0001H 0001H
00:00B8 1E-F8                   10551   	pop	er8
00:00BA 1E-FC                   10552   	pop	bp
00:00BC 2E-F4                   10553   	pop	xr4
00:00BE 8E-F2                   10554   	pop	pc
                                10555   CBLOCKEND 250 1 3643
                                10556   CFUNCTIONEND 250
                                10557   
                                10558   
  --------------------------    10559   	rseg $$NOPus$main
                                10560   CFUNCTION 251
                                10561   
00:0000                         10562   _NOPus	:
                                10563   CBLOCK 251 1 3653
                                10564   
                                10565   ;;{
                                10566   CLINEA 0000H 0001H 0E45H 0001H 0001H
                                10567   CBLOCK 251 2 3653
                                10568   
                                10569   ;;	timer_us = 0;
                                10570   CLINEA 0000H 0001H 0E46H 0002H 000EH
00:0000 00 E0                   10571   	mov	er0,	#0 
00:0002 13-90 00-00'            10572   	st	er0,	NEAR _timer_us
                                10573   
                                10574   ;;	TM8C = 0x00;
                                10575   CLINEA 0000H 0001H 0E47H 0002H 000DH
00:0006 11-90 E1-F8             10576   	st	r0,	0f8e1h
                                10577   
                                10578   ;;	ETM8 = 1;
                                10579   CLINEA 0000H 0001H 0E48H 0002H 000AH
00:000A A0-A0 13-F0             10580   	sb	0f013h.2
                                10581   
                                10582   ;;	while(timer_us == 0);
                                10583   CLINEA 0000H 0000H 0E49H 0002H 0016H
00:000E                         10584   _$L667 :
                                10585   
                                10586   ;;	while(timer_us == 0);
                                10587   CLINEA 0000H 0000H 0E49H 000EH 0013H
00:000E 12-90 00-00'            10588   	l	er0,	NEAR _timer_us
00:0012 FD C9                   10589   	beq	_$L667
                                10590   CBLOCKEND 251 2 3658
                                10591   
                                10592   ;;}
                                10593   CLINEA 0000H 0001H 0E4AH 0001H 0001H
00:0014 1F-FE                   10594   	rt
                                10595   CBLOCKEND 251 1 3658
                                10596   CFUNCTIONEND 251
                                10597   
                                10598   
  --------------------------    10599   	rseg $$NOP1000$main
                                10600   CFUNCTION 252
                                10601   
00:0000                         10602   _NOP1000	:
                                10603   CBLOCK 252 1 3661
                                10604   
                                10605   ;;{
                                10606   CLINEA 0000H 0001H 0E4DH 0001H 0001H
                                10607   CBLOCK 252 2 3661
                                10608   CLOCAL 4AH 0002H 0000H 0002H "ONCNT" 02H 00H 01H
                                10609   CBLOCKEND 252 2 3667
                                10610   
                                10611   ;;}
                                10612   CLINEA 0000H 0001H 0E53H 0001H 0001H
00:0000 1F-FE                   10613   	rt
                                10614   CBLOCKEND 252 1 3667
                                10615   CFUNCTIONEND 252
                                10616   
                                10617   
  --------------------------    10618   	rseg $$approx_arctan2$main
                                10619   CFUNCTION 253
                                10620   
00:0000                         10621   _approx_arctan2	:
                                10622   CBLOCK 253 1 3670
                                10623   
                                10624   ;;{
                                10625   CLINEA 0000H 0001H 0E56H 0001H 0001H
00:0000 CE-F8                   10626   	push	lr
00:0002 5E-FE                   10627   	push	fp
00:0004 1A-AE                   10628   	mov	fp,	sp
00:0006 E4 E1                   10629   	add	sp,	#-028
00:0008 6E-F8                   10630   	push	xr8
00:000A 6E-F4                   10631   	push	xr4
00:000C 05-F8                   10632   	mov	er8,	er0
00:000E 25-FA                   10633   	mov	er10,	er2
                                10634   CBLOCK 253 2 3670
                                10635   CRET 0026H
                                10636   CARGUMENT 47H 0004H 2928H "y" 02H 00H 03H
                                10637   CARGUMENT 43H 0004H 0004H "x" 02H 00H 03H
                                10638   CLOCAL 43H 0004H 001CH 0002H "YoverX" 02H 00H 03H
                                10639   CLOCAL 47H 0004H 2726H 0002H "result" 02H 00H 03H
                                10640   
                                10641   ;;	float YoverX = y/x;
                                10642   CLINEA 0000H 0001H 0E57H 0002H 0014H
00:0010 6E-F0                   10643   	push	xr0
00:0012 44 B0                   10644   	l	er0,	4[fp]
00:0014 46 B2                   10645   	l	er2,	6[fp]
00:0016 6E-F0                   10646   	push	xr0
00:0018 01-F0'00-00'            10647   	bl	__fdivu8sw
00:001C 04 E1                   10648   	add	sp,	#4 
00:001E 2E-F0                   10649   	pop	xr0
00:0020 E4 B0                   10650   	st	er0,	-28[fp]
00:0022 E6 B2                   10651   	st	er2,	-26[fp]
                                10652   
                                10653   ;;	float result = 0;
                                10654   CLINEA 0000H 0001H 0E58H 0002H 0012H
00:0024 00 E4                   10655   	mov	er4,	#0 
00:0026 00 E6                   10656   	mov	er6,	#0 
                                10657   
                                10658   ;;	if(x>0){
                                10659   CLINEA 0000H 0001H 0E5AH 0002H 0009H
00:0028 44 B0                   10660   	l	er0,	4[fp]
00:002A 46 B2                   10661   	l	er2,	6[fp]
00:002C 6E-F0                   10662   	push	xr0
00:002E 00 E0                   10663   	mov	er0,	#0 
00:0030 00 E2                   10664   	mov	er2,	#0 
00:0032 6E-F0                   10665   	push	xr0
00:0034 01-F0'00-00'            10666   	bl	__fcmpu8sw
00:0038 08 E1                   10667   	add	sp,	#8 
00:003A 0B-A0                   10668   	mov	psw,	r0
00:003C 02 C2                   10669   	bgt	_$M73
00:003E 00-F0'00-00'            10670   	b	_$L675
00:0042                         10671   _$M73 :
                                10672   CBLOCK 253 3 3674
                                10673   
                                10674   ;;		result = (0.97239*YoverX)-(0.19195*pow(YoverX,3));
                                10675   CLINEA 0000H 0000H 0E5BH 0003H 0034H
00:0042 64 B0                   10676   	l	er0,	-28[fp]
00:0044 66 B2                   10677   	l	er2,	-26[fp]
00:0046 6E-F0                   10678   	push	xr0
00:0048 FC E1                   10679   	add	sp,	#-4
00:004A 01-F0'00-00'            10680   	bl	__ftodu8sw
00:004E 3E-F0                   10681   	pop	qr0
00:0050 EB-F0 F8-FF             10682   	lea	-8[fp]
00:0054 37-90                   10683   	st	qr0,	[ea]
00:0056 7E-F0                   10684   	push	qr0
00:0058 59 00                   10685   	mov	r0,	#059h
00:005A A3 01                   10686   	mov	r1,	#0a3h
00:005C 1E 02                   10687   	mov	r2,	#01eh
00:005E A2 03                   10688   	mov	r3,	#0a2h
00:0060 D1 04                   10689   	mov	r4,	#0d1h
00:0062 1D 05                   10690   	mov	r5,	#01dh
00:0064 EF 06                   10691   	mov	r6,	#0efh
00:0066 3F 07                   10692   	mov	r7,	#03fh
00:0068 7E-F0                   10693   	push	qr0
00:006A 01-F0'00-00'            10694   	bl	__dmulu8sw
00:006E 08 E1                   10695   	add	sp,	#8 
00:0070 3E-F0                   10696   	pop	qr0
00:0072 EB-F0 F0-FF             10697   	lea	-16[fp]
00:0076 37-90                   10698   	st	qr0,	[ea]
00:0078 00 E0                   10699   	mov	er0,	#0 
00:007A 00 E2                   10700   	mov	er2,	#0 
00:007C 00 E4                   10701   	mov	er4,	#0 
00:007E 08 06                   10702   	mov	r6,	#08h
00:0080 40 07                   10703   	mov	r7,	#040h
00:0082 7E-F0                   10704   	push	qr0
00:0084 EB-F0 F8-FF             10705   	lea	-8[fp]
00:0088 36-90                   10706   	l	qr0,	[ea]
00:008A 7E-F0                   10707   	push	qr0
00:008C E5-F0                   10708   	mov	er0,	fp
00:008E E8 E0                   10709   	add	er0,	#-24
00:0090 01-F0'00-00'            10710   	bl	_pow
00:0094 10 E1                   10711   	add	sp,	#16
00:0096 EB-F0 F0-FF             10712   	lea	-16[fp]
00:009A 36-90                   10713   	l	qr0,	[ea]
00:009C 7E-F0                   10714   	push	qr0
00:009E EB-F0 E8-FF             10715   	lea	-24[fp]
00:00A2 36-90                   10716   	l	qr0,	[ea]
00:00A4 7E-F0                   10717   	push	qr0
00:00A6 36 00                   10718   	mov	r0,	#036h
00:00A8 CD 01                   10719   	mov	r1,	#0cdh
00:00AA 3B 02                   10720   	mov	r2,	#03bh
00:00AC 4E 03                   10721   	mov	r3,	#04eh
00:00AE D1 04                   10722   	mov	r4,	#0d1h
00:00B0 91 05                   10723   	mov	r5,	#091h
00:00B2 C8 06                   10724   	mov	r6,	#0c8h
00:00B4 3F 07                   10725   	mov	r7,	#03fh
00:00B6 7E-F0                   10726   	push	qr0
00:00B8 01-F0'00-00'            10727   	bl	__dmulu8sw
00:00BC 08 E1                   10728   	add	sp,	#8 
00:00BE 01-F0'00-00'            10729   	bl	__dsubu8sw
00:00C2 08 E1                   10730   	add	sp,	#8 
00:00C4 01-F0'00-00'            10731   	bl	__dtofu8sw
00:00C8 04 E1                   10732   	add	sp,	#4 
00:00CA 2E-F0                   10733   	pop	xr0
00:00CC 05-F4                   10734   	mov	er4,	er0
00:00CE 25-F6                   10735   	mov	er6,	er2
                                10736   CBLOCKEND 253 3 3676
                                10737   
                                10738   ;;	}
                                10739   CLINEA 0000H 0000H 0E5CH 0002H 0002H
00:00D0                         10740   _$L675 :
                                10741   
                                10742   ;;	if((x<0)&&(y>=0)){
                                10743   CLINEA 0000H 0001H 0E5DH 0002H 0013H
00:00D0 44 B0                   10744   	l	er0,	4[fp]
00:00D2 46 B2                   10745   	l	er2,	6[fp]
00:00D4 6E-F0                   10746   	push	xr0
00:00D6 00 E0                   10747   	mov	er0,	#0 
00:00D8 00 E2                   10748   	mov	er2,	#0 
00:00DA 6E-F0                   10749   	push	xr0
00:00DC 01-F0'00-00'            10750   	bl	__fcmpu8sw
00:00E0 08 E1                   10751   	add	sp,	#8 
00:00E2 0B-A0                   10752   	mov	psw,	r0
00:00E4 02 C1                   10753   	blt	_$M74
00:00E6 00-F0'00-00'            10754   	b	_$L677
00:00EA                         10755   _$M74 :
00:00EA 6E-F8                   10756   	push	xr8
00:00EC 00 E0                   10757   	mov	er0,	#0 
00:00EE 00 E2                   10758   	mov	er2,	#0 
00:00F0 6E-F0                   10759   	push	xr0
00:00F2 01-F0'00-00'            10760   	bl	__fcmpu8sw
00:00F6 08 E1                   10761   	add	sp,	#8 
00:00F8 0B-A0                   10762   	mov	psw,	r0
00:00FA 02 C0                   10763   	bge	_$M75
00:00FC 00-F0'00-00'            10764   	b	_$L677
00:0100                         10765   _$M75 :
                                10766   CBLOCK 253 4 3677
                                10767   
                                10768   ;;		result = (0.97239*YoverX)-(0.19195*pow(YoverX,3))+3.14;
                                10769   CLINEA 0000H 0000H 0E5EH 0003H 0039H
00:0100 64 B0                   10770   	l	er0,	-28[fp]
00:0102 66 B2                   10771   	l	er2,	-26[fp]
00:0104 6E-F0                   10772   	push	xr0
00:0106 FC E1                   10773   	add	sp,	#-4
00:0108 01-F0'00-00'            10774   	bl	__ftodu8sw
00:010C 3E-F0                   10775   	pop	qr0
00:010E EB-F0 F8-FF             10776   	lea	-8[fp]
00:0112 37-90                   10777   	st	qr0,	[ea]
00:0114 7E-F0                   10778   	push	qr0
00:0116 59 00                   10779   	mov	r0,	#059h
00:0118 A3 01                   10780   	mov	r1,	#0a3h
00:011A 1E 02                   10781   	mov	r2,	#01eh
00:011C A2 03                   10782   	mov	r3,	#0a2h
00:011E D1 04                   10783   	mov	r4,	#0d1h
00:0120 1D 05                   10784   	mov	r5,	#01dh
00:0122 EF 06                   10785   	mov	r6,	#0efh
00:0124 3F 07                   10786   	mov	r7,	#03fh
00:0126 7E-F0                   10787   	push	qr0
00:0128 01-F0'00-00'            10788   	bl	__dmulu8sw
00:012C 08 E1                   10789   	add	sp,	#8 
00:012E 3E-F0                   10790   	pop	qr0
00:0130 EB-F0 F0-FF             10791   	lea	-16[fp]
00:0134 37-90                   10792   	st	qr0,	[ea]
00:0136 00 E0                   10793   	mov	er0,	#0 
00:0138 00 E2                   10794   	mov	er2,	#0 
00:013A 00 E4                   10795   	mov	er4,	#0 
00:013C 08 06                   10796   	mov	r6,	#08h
00:013E 40 07                   10797   	mov	r7,	#040h
00:0140 7E-F0                   10798   	push	qr0
00:0142 EB-F0 F8-FF             10799   	lea	-8[fp]
00:0146 36-90                   10800   	l	qr0,	[ea]
00:0148 7E-F0                   10801   	push	qr0
00:014A E5-F0                   10802   	mov	er0,	fp
00:014C E8 E0                   10803   	add	er0,	#-24
00:014E 01-F0'00-00'            10804   	bl	_pow
00:0152 10 E1                   10805   	add	sp,	#16
00:0154 EB-F0 F0-FF             10806   	lea	-16[fp]
00:0158 36-90                   10807   	l	qr0,	[ea]
00:015A 7E-F0                   10808   	push	qr0
00:015C EB-F0 E8-FF             10809   	lea	-24[fp]
00:0160 36-90                   10810   	l	qr0,	[ea]
00:0162 7E-F0                   10811   	push	qr0
00:0164 36 00                   10812   	mov	r0,	#036h
00:0166 CD 01                   10813   	mov	r1,	#0cdh
00:0168 3B 02                   10814   	mov	r2,	#03bh
00:016A 4E 03                   10815   	mov	r3,	#04eh
00:016C D1 04                   10816   	mov	r4,	#0d1h
00:016E 91 05                   10817   	mov	r5,	#091h
00:0170 C8 06                   10818   	mov	r6,	#0c8h
00:0172 3F 07                   10819   	mov	r7,	#03fh
00:0174 7E-F0                   10820   	push	qr0
00:0176 01-F0'00-00'            10821   	bl	__dmulu8sw
00:017A 08 E1                   10822   	add	sp,	#8 
00:017C 01-F0'00-00'            10823   	bl	__dsubu8sw
00:0180 08 E1                   10824   	add	sp,	#8 
00:0182 1F 00                   10825   	mov	r0,	#01fh
00:0184 85 01                   10826   	mov	r1,	#085h
00:0186 EB 02                   10827   	mov	r2,	#0ebh
00:0188 51 03                   10828   	mov	r3,	#051h
00:018A B8 04                   10829   	mov	r4,	#0b8h
00:018C 1E 05                   10830   	mov	r5,	#01eh
00:018E 09 06                   10831   	mov	r6,	#09h
00:0190 40 07                   10832   	mov	r7,	#040h
00:0192 7E-F0                   10833   	push	qr0
00:0194 01-F0'00-00'            10834   	bl	__daddu8sw
00:0198 08 E1                   10835   	add	sp,	#8 
00:019A 01-F0'00-00'            10836   	bl	__dtofu8sw
00:019E 04 E1                   10837   	add	sp,	#4 
00:01A0 2E-F0                   10838   	pop	xr0
00:01A2 05-F4                   10839   	mov	er4,	er0
00:01A4 25-F6                   10840   	mov	er6,	er2
                                10841   CBLOCKEND 253 4 3679
                                10842   
                                10843   ;;	}	
                                10844   CLINEA 0000H 0000H 0E5FH 0002H 0003H
00:01A6                         10845   _$L677 :
                                10846   
                                10847   ;;	if((y<0)&&(x<0)){
                                10848   CLINEA 0000H 0001H 0E60H 0002H 0012H
00:01A6 6E-F8                   10849   	push	xr8
00:01A8 00 E0                   10850   	mov	er0,	#0 
00:01AA 00 E2                   10851   	mov	er2,	#0 
00:01AC 6E-F0                   10852   	push	xr0
00:01AE 01-F0'00-00'            10853   	bl	__fcmpu8sw
00:01B2 08 E1                   10854   	add	sp,	#8 
00:01B4 0B-A0                   10855   	mov	psw,	r0
00:01B6 02 C1                   10856   	blt	_$M76
00:01B8 00-F0'00-00'            10857   	b	_$L684
00:01BC                         10858   _$M76 :
00:01BC 44 B0                   10859   	l	er0,	4[fp]
00:01BE 46 B2                   10860   	l	er2,	6[fp]
00:01C0 6E-F0                   10861   	push	xr0
00:01C2 00 E0                   10862   	mov	er0,	#0 
00:01C4 00 E2                   10863   	mov	er2,	#0 
00:01C6 6E-F0                   10864   	push	xr0
00:01C8 01-F0'00-00'            10865   	bl	__fcmpu8sw
00:01CC 08 E1                   10866   	add	sp,	#8 
00:01CE 0B-A0                   10867   	mov	psw,	r0
00:01D0 02 C1                   10868   	blt	_$M77
00:01D2 00-F0'00-00'            10869   	b	_$L684
00:01D6                         10870   _$M77 :
                                10871   CBLOCK 253 5 3680
                                10872   
                                10873   ;;		result = (0.97239*YoverX)-(0.19195*pow(YoverX,3))-3.14;
                                10874   CLINEA 0000H 0000H 0E61H 0003H 0039H
00:01D6 64 B0                   10875   	l	er0,	-28[fp]
00:01D8 66 B2                   10876   	l	er2,	-26[fp]
00:01DA 6E-F0                   10877   	push	xr0
00:01DC FC E1                   10878   	add	sp,	#-4
00:01DE 01-F0'00-00'            10879   	bl	__ftodu8sw
00:01E2 3E-F0                   10880   	pop	qr0
00:01E4 EB-F0 F8-FF             10881   	lea	-8[fp]
00:01E8 37-90                   10882   	st	qr0,	[ea]
00:01EA 7E-F0                   10883   	push	qr0
00:01EC 59 00                   10884   	mov	r0,	#059h
00:01EE A3 01                   10885   	mov	r1,	#0a3h
00:01F0 1E 02                   10886   	mov	r2,	#01eh
00:01F2 A2 03                   10887   	mov	r3,	#0a2h
00:01F4 D1 04                   10888   	mov	r4,	#0d1h
00:01F6 1D 05                   10889   	mov	r5,	#01dh
00:01F8 EF 06                   10890   	mov	r6,	#0efh
00:01FA 3F 07                   10891   	mov	r7,	#03fh
00:01FC 7E-F0                   10892   	push	qr0
00:01FE 01-F0'00-00'            10893   	bl	__dmulu8sw
00:0202 08 E1                   10894   	add	sp,	#8 
00:0204 3E-F0                   10895   	pop	qr0
00:0206 EB-F0 F0-FF             10896   	lea	-16[fp]
00:020A 37-90                   10897   	st	qr0,	[ea]
00:020C 00 E0                   10898   	mov	er0,	#0 
00:020E 00 E2                   10899   	mov	er2,	#0 
00:0210 00 E4                   10900   	mov	er4,	#0 
00:0212 08 06                   10901   	mov	r6,	#08h
00:0214 40 07                   10902   	mov	r7,	#040h
00:0216 7E-F0                   10903   	push	qr0
00:0218 EB-F0 F8-FF             10904   	lea	-8[fp]
00:021C 36-90                   10905   	l	qr0,	[ea]
00:021E 7E-F0                   10906   	push	qr0
00:0220 E5-F0                   10907   	mov	er0,	fp
00:0222 E8 E0                   10908   	add	er0,	#-24
00:0224 01-F0'00-00'            10909   	bl	_pow
00:0228 10 E1                   10910   	add	sp,	#16
00:022A EB-F0 F0-FF             10911   	lea	-16[fp]
00:022E 36-90                   10912   	l	qr0,	[ea]
00:0230 7E-F0                   10913   	push	qr0
00:0232 EB-F0 E8-FF             10914   	lea	-24[fp]
00:0236 36-90                   10915   	l	qr0,	[ea]
00:0238 7E-F0                   10916   	push	qr0
00:023A 36 00                   10917   	mov	r0,	#036h
00:023C CD 01                   10918   	mov	r1,	#0cdh
00:023E 3B 02                   10919   	mov	r2,	#03bh
00:0240 4E 03                   10920   	mov	r3,	#04eh
00:0242 D1 04                   10921   	mov	r4,	#0d1h
00:0244 91 05                   10922   	mov	r5,	#091h
00:0246 C8 06                   10923   	mov	r6,	#0c8h
00:0248 3F 07                   10924   	mov	r7,	#03fh
00:024A 7E-F0                   10925   	push	qr0
00:024C 01-F0'00-00'            10926   	bl	__dmulu8sw
00:0250 08 E1                   10927   	add	sp,	#8 
00:0252 01-F0'00-00'            10928   	bl	__dsubu8sw
00:0256 08 E1                   10929   	add	sp,	#8 
00:0258 1F 00                   10930   	mov	r0,	#01fh
00:025A 85 01                   10931   	mov	r1,	#085h
00:025C EB 02                   10932   	mov	r2,	#0ebh
00:025E 51 03                   10933   	mov	r3,	#051h
00:0260 B8 04                   10934   	mov	r4,	#0b8h
00:0262 1E 05                   10935   	mov	r5,	#01eh
00:0264 09 06                   10936   	mov	r6,	#09h
00:0266 C0 07                   10937   	mov	r7,	#0c0h
00:0268 7E-F0                   10938   	push	qr0
00:026A 01-F0'00-00'            10939   	bl	__daddu8sw
00:026E 08 E1                   10940   	add	sp,	#8 
00:0270 01-F0'00-00'            10941   	bl	__dtofu8sw
00:0274 04 E1                   10942   	add	sp,	#4 
00:0276 2E-F0                   10943   	pop	xr0
00:0278 05-F4                   10944   	mov	er4,	er0
00:027A 25-F6                   10945   	mov	er6,	er2
                                10946   CBLOCKEND 253 5 3682
                                10947   
                                10948   ;;	}
                                10949   CLINEA 0000H 0000H 0E62H 0002H 0002H
00:027C                         10950   _$L684 :
                                10951   
                                10952   ;;	if((y>0)&&(x==0)){
                                10953   CLINEA 0000H 0001H 0E63H 0002H 0013H
00:027C 6E-F8                   10954   	push	xr8
00:027E 00 E0                   10955   	mov	er0,	#0 
00:0280 00 E2                   10956   	mov	er2,	#0 
00:0282 6E-F0                   10957   	push	xr0
00:0284 01-F0'00-00'            10958   	bl	__fcmpu8sw
00:0288 08 E1                   10959   	add	sp,	#8 
00:028A 0B-A0                   10960   	mov	psw,	r0
00:028C 11 C3                   10961   	ble	_$L691
00:028E 44 B0                   10962   	l	er0,	4[fp]
00:0290 46 B2                   10963   	l	er2,	6[fp]
00:0292 6E-F0                   10964   	push	xr0
00:0294 00 E0                   10965   	mov	er0,	#0 
00:0296 00 E2                   10966   	mov	er2,	#0 
00:0298 6E-F0                   10967   	push	xr0
00:029A 01-F0'00-00'            10968   	bl	__fcmpu8sw
00:029E 08 E1                   10969   	add	sp,	#8 
00:02A0 0B-A0                   10970   	mov	psw,	r0
00:02A2 06 C8                   10971   	bne	_$L691
                                10972   CBLOCK 253 6 3683
                                10973   
                                10974   ;;		result = 1.57;
                                10975   CLINEA 0000H 0001H 0E64H 0003H 0010H
00:02A4 C3 00                   10976   	mov	r0,	#0c3h
00:02A6 F5 01                   10977   	mov	r1,	#0f5h
00:02A8 C8 02                   10978   	mov	r2,	#0c8h
00:02AA 3F 03                   10979   	mov	r3,	#03fh
00:02AC 05-F4                   10980   	mov	er4,	er0
00:02AE 25-F6                   10981   	mov	er6,	er2
                                10982   CBLOCKEND 253 6 3685
                                10983   
                                10984   ;;	}
                                10985   CLINEA 0000H 0000H 0E65H 0002H 0002H
00:02B0                         10986   _$L691 :
                                10987   
                                10988   ;;	if((y<0)&&(x==0)){
                                10989   CLINEA 0000H 0001H 0E66H 0002H 0013H
00:02B0 6E-F8                   10990   	push	xr8
00:02B2 00 E0                   10991   	mov	er0,	#0 
00:02B4 00 E2                   10992   	mov	er2,	#0 
00:02B6 6E-F0                   10993   	push	xr0
00:02B8 01-F0'00-00'            10994   	bl	__fcmpu8sw
00:02BC 08 E1                   10995   	add	sp,	#8 
00:02BE 0B-A0                   10996   	mov	psw,	r0
00:02C0 11 C0                   10997   	bge	_$L698
00:02C2 44 B0                   10998   	l	er0,	4[fp]
00:02C4 46 B2                   10999   	l	er2,	6[fp]
00:02C6 6E-F0                   11000   	push	xr0
00:02C8 00 E0                   11001   	mov	er0,	#0 
00:02CA 00 E2                   11002   	mov	er2,	#0 
00:02CC 6E-F0                   11003   	push	xr0
00:02CE 01-F0'00-00'            11004   	bl	__fcmpu8sw
00:02D2 08 E1                   11005   	add	sp,	#8 
00:02D4 0B-A0                   11006   	mov	psw,	r0
00:02D6 06 C8                   11007   	bne	_$L698
                                11008   CBLOCK 253 7 3686
                                11009   
                                11010   ;;		result = -1.57;
                                11011   CLINEA 0000H 0001H 0E67H 0003H 0011H
00:02D8 C3 00                   11012   	mov	r0,	#0c3h
00:02DA F5 01                   11013   	mov	r1,	#0f5h
00:02DC C8 02                   11014   	mov	r2,	#0c8h
00:02DE BF 03                   11015   	mov	r3,	#0bfh
00:02E0 05-F4                   11016   	mov	er4,	er0
00:02E2 25-F6                   11017   	mov	er6,	er2
                                11018   CBLOCKEND 253 7 3688
                                11019   
                                11020   ;;	}
                                11021   CLINEA 0000H 0000H 0E68H 0002H 0002H
00:02E4                         11022   _$L698 :
                                11023   
                                11024   ;;	if((x==0)&&(y==0)){			//we made this up....
                                11025   CLINEA 0000H 0001H 0E69H 0002H 002CH
00:02E4 44 B0                   11026   	l	er0,	4[fp]
00:02E6 46 B2                   11027   	l	er2,	6[fp]
00:02E8 6E-F0                   11028   	push	xr0
00:02EA 00 E0                   11029   	mov	er0,	#0 
00:02EC 00 E2                   11030   	mov	er2,	#0 
00:02EE 6E-F0                   11031   	push	xr0
00:02F0 01-F0'00-00'            11032   	bl	__fcmpu8sw
00:02F4 08 E1                   11033   	add	sp,	#8 
00:02F6 0B-A0                   11034   	mov	psw,	r0
00:02F8 38 C8                   11035   	bne	_$L705
00:02FA 6E-F8                   11036   	push	xr8
00:02FC 00 E0                   11037   	mov	er0,	#0 
00:02FE 00 E2                   11038   	mov	er2,	#0 
00:0300 6E-F0                   11039   	push	xr0
00:0302 01-F0'00-00'            11040   	bl	__fcmpu8sw
00:0306 08 E1                   11041   	add	sp,	#8 
00:0308 0B-A0                   11042   	mov	psw,	r0
00:030A 2F C8                   11043   	bne	_$L705
                                11044   CBLOCK 253 8 3689
                                11045   
                                11046   ;;		result = (0.97239*YoverX)-(0.19195*pow(YoverX,3));
                                11047   CLINEA 0000H 0000H 0E6DH 0003H 0034H
00:030C 00 E0                   11048   	mov	er0,	#0 
00:030E 00 E2                   11049   	mov	er2,	#0 
00:0310 00 E4                   11050   	mov	er4,	#0 
00:0312 08 06                   11051   	mov	r6,	#08h
00:0314 40 07                   11052   	mov	r7,	#040h
00:0316 7E-F0                   11053   	push	qr0
00:0318 F0 06                   11054   	mov	r6,	#0f0h
00:031A 3F 07                   11055   	mov	r7,	#03fh
00:031C 7E-F0                   11056   	push	qr0
00:031E E5-F0                   11057   	mov	er0,	fp
00:0320 F0 E0                   11058   	add	er0,	#-16
00:0322 01-F0'00-00'            11059   	bl	_pow
00:0326 10 E1                   11060   	add	sp,	#16
00:0328 59 00                   11061   	mov	r0,	#059h
00:032A A3 01                   11062   	mov	r1,	#0a3h
00:032C 1E 02                   11063   	mov	r2,	#01eh
00:032E A2 03                   11064   	mov	r3,	#0a2h
00:0330 D1 04                   11065   	mov	r4,	#0d1h
00:0332 1D 05                   11066   	mov	r5,	#01dh
00:0334 EF 06                   11067   	mov	r6,	#0efh
00:0336 7E-F0                   11068   	push	qr0
00:0338 EB-F0 F0-FF             11069   	lea	-16[fp]
00:033C 36-90                   11070   	l	qr0,	[ea]
00:033E 7E-F0                   11071   	push	qr0
00:0340 36 00                   11072   	mov	r0,	#036h
00:0342 CD 01                   11073   	mov	r1,	#0cdh
00:0344 3B 02                   11074   	mov	r2,	#03bh
00:0346 4E 03                   11075   	mov	r3,	#04eh
00:0348 D1 04                   11076   	mov	r4,	#0d1h
00:034A 91 05                   11077   	mov	r5,	#091h
00:034C C8 06                   11078   	mov	r6,	#0c8h
00:034E 3F 07                   11079   	mov	r7,	#03fh
00:0350 7E-F0                   11080   	push	qr0
00:0352 01-F0'00-00'            11081   	bl	__dmulu8sw
00:0356 08 E1                   11082   	add	sp,	#8 
00:0358 01-F0'00-00'            11083   	bl	__dsubu8sw
00:035C 08 E1                   11084   	add	sp,	#8 
00:035E 01-F0'00-00'            11085   	bl	__dtofu8sw
00:0362 04 E1                   11086   	add	sp,	#4 
00:0364 2E-F0                   11087   	pop	xr0
00:0366 05-F4                   11088   	mov	er4,	er0
00:0368 25-F6                   11089   	mov	er6,	er2
                                11090   CBLOCKEND 253 8 3694
                                11091   
                                11092   ;;	}
                                11093   CLINEA 0000H 0000H 0E6EH 0002H 0002H
00:036A                         11094   _$L705 :
                                11095   
                                11096   ;;	result *= 57.29;
                                11097   CLINEA 0000H 0001H 0E6FH 0002H 0011H
00:036A 6E-F4                   11098   	push	xr4
00:036C FC E1                   11099   	add	sp,	#-4
00:036E 01-F0'00-00'            11100   	bl	__ftodu8sw
00:0372 85 00                   11101   	mov	r0,	#085h
00:0374 EB 01                   11102   	mov	r1,	#0ebh
00:0376 51 02                   11103   	mov	r2,	#051h
00:0378 B8 03                   11104   	mov	r3,	#0b8h
00:037A 1E 04                   11105   	mov	r4,	#01eh
00:037C A5 05                   11106   	mov	r5,	#0a5h
00:037E 4C 06                   11107   	mov	r6,	#04ch
00:0380 40 07                   11108   	mov	r7,	#040h
00:0382 7E-F0                   11109   	push	qr0
00:0384 01-F0'00-00'            11110   	bl	__dmulu8sw
00:0388 08 E1                   11111   	add	sp,	#8 
00:038A 01-F0'00-00'            11112   	bl	__dtofu8sw
00:038E 04 E1                   11113   	add	sp,	#4 
00:0390 2E-F0                   11114   	pop	xr0
00:0392 05-F4                   11115   	mov	er4,	er0
00:0394 25-F6                   11116   	mov	er6,	er2
                                11117   
                                11118   ;;	if(result > 45){
                                11119   CLINEA 0000H 0001H 0E71H 0002H 0011H
00:0396 6E-F0                   11120   	push	xr0
00:0398 00 E0                   11121   	mov	er0,	#0 
00:039A 34 02                   11122   	mov	r2,	#034h
00:039C 42 03                   11123   	mov	r3,	#042h
00:039E 6E-F0                   11124   	push	xr0
00:03A0 01-F0'00-00'            11125   	bl	__fcmpu8sw
00:03A4 08 E1                   11126   	add	sp,	#8 
00:03A6 0B-A0                   11127   	mov	psw,	r0
00:03A8 04 C3                   11128   	ble	_$L712
                                11129   CBLOCK 253 9 3697
                                11130   
                                11131   ;;		result = 45;
                                11132   CLINEA 0000H 0001H 0E72H 0003H 000EH
00:03AA 34 02                   11133   	mov	r2,	#034h
00:03AC 42 03                   11134   	mov	r3,	#042h
00:03AE 00 E4                   11135   	mov	er4,	#0 
00:03B0 25-F6                   11136   	mov	er6,	er2
                                11137   CBLOCKEND 253 9 3699
                                11138   
                                11139   ;;	}
                                11140   CLINEA 0000H 0000H 0E73H 0002H 0002H
00:03B2                         11141   _$L712 :
                                11142   
                                11143   ;;	if(result < -45){
                                11144   CLINEA 0000H 0001H 0E74H 0002H 0012H
00:03B2 6E-F4                   11145   	push	xr4
00:03B4 00 E0                   11146   	mov	er0,	#0 
00:03B6 34 02                   11147   	mov	r2,	#034h
00:03B8 C2 03                   11148   	mov	r3,	#0c2h
00:03BA 6E-F0                   11149   	push	xr0
00:03BC 01-F0'00-00'            11150   	bl	__fcmpu8sw
00:03C0 08 E1                   11151   	add	sp,	#8 
00:03C2 0B-A0                   11152   	mov	psw,	r0
00:03C4 04 C0                   11153   	bge	_$L714
                                11154   CBLOCK 253 10 3700
                                11155   
                                11156   ;;		result = -45;
                                11157   CLINEA 0000H 0001H 0E75H 0003H 000FH
00:03C6 34 02                   11158   	mov	r2,	#034h
00:03C8 C2 03                   11159   	mov	r3,	#0c2h
00:03CA 00 E4                   11160   	mov	er4,	#0 
00:03CC 25-F6                   11161   	mov	er6,	er2
                                11162   CBLOCKEND 253 10 3702
                                11163   
                                11164   ;;	}
                                11165   CLINEA 0000H 0000H 0E76H 0002H 0002H
00:03CE                         11166   _$L714 :
                                11167   
                                11168   ;;	return(result);
                                11169   CLINEA 0000H 0001H 0E78H 0002H 0010H
00:03CE 45-F0                   11170   	mov	er0,	er4
00:03D0 65-F2                   11171   	mov	er2,	er6
                                11172   CBLOCKEND 253 2 3705
                                11173   
                                11174   ;;}
                                11175   CLINEA 0000H 0000H 0E79H 0001H 0001H
00:03D2 2E-F4                   11176   	pop	xr4
00:03D4 2E-F8                   11177   	pop	xr8
00:03D6 EA-A1                   11178   	mov	sp,	fp
00:03D8 1E-FE                   11179   	pop	fp
00:03DA 8E-F2                   11180   	pop	pc
                                11181   CBLOCKEND 253 1 3705
                                11182   CFUNCTIONEND 253
                                11183   
                                11184   	public _Shutdown
                                11185   	public _NOPms
                                11186   	public _NOPus
                                11187   	public _approx_arctan2
                                11188   	public _checkI2C
                                11189   	public _main_clrWDT
                                11190   	public _Accel_PID_XYChangeFlag
                                11191   	public _main_reqNotHalt
                                11192   	public _ReturnMagData
                                11193   	public _DistanceSensorControl
                                11194   	public _AccelSensorControlPID
                                11195   	public _RangeSensorControlPID
                                11196   	public _PortA_Digital_Inputs
                                11197   	public _MagSensorControl
                                11198   	public _ESC2_PWM
                                11199   	public _Get_AccGyroData
                                11200   	public _main
                                11201   	public _MagSensorControlPID
                                11202   	public _ClearVariables
                                11203   	public _PortD_Low
                                11204   	public _NOP1000
                                11205   	public _ESC1_PWM
                                11206   	public _CheckSafetyLimitUnscaled
                                11207   	public _CalibrateAccel
                                11208   	public _Get_RangeData
                                11209   	public _PortC_Low
                                11210   	public _CheckSafetyLimit
                                11211   	public _ESC4_PWM
                                11212   	public _Get_MagData
                                11213   	public _UARTTunePID
                                11214   	public _Get_PingData
                                11215   	public _SerialOutCoefficients
                                11216   	public _PortB_Low
                                11217   	public _CalibrateMotors
                                11218   	public _ReturnAccelData
                                11219   	public _ESC3_PWM
                                11220   	public _CalibrateGyro
                                11221   	public _RampUpMotorTest
                                11222   	public _NOP
                                11223   	public _PortA_Low
                                11224   	public _analog_comparator
                                11225   	public _Run_AccGyroCF
                                11226   	public _SoftStart
                                11227   	public _ReturnSensorData
                                11228   	__flgUartFin comm data 01h #00h
                                11229   	__flgI2CFin comm data 01h #00h
                                11230   	__reqNotHalt comm data 01h #00h
                                11231   	extrn code near : _abs
                                11232   	extrn code near : _irq_init
                                11233   	extrn code near : _uart_PortSet
                                11234   	extrn code near : _i2c_stop
                                11235   	extrn code near : _i2c_startReceive
                                11236   	extrn code near : _uart_startReceive
                                11237   	extrn code near : _pow
                                11238   	extrn code near : _atan
                                11239   	extrn code near : _uart_init
                                11240   	extrn code near : _i2c_continue
                                11241   	extrn code near : _irq_di
                                11242   	extrn code near : _irq_ei
                                11243   	extrn code near : _sscanf_nn
                                11244   	extrn code near : _irq_setHdr
                                11245   	extrn code near : _sprintf_nn
                                11246   	extrn code near : _uart_stop
                                11247   	extrn code near : _uart_startSend
                                11248   	extrn code near : _i2c_startSend
                                11249   	extrn code near : _uart_continue
                                11250   	extrn code near : _atan2
                                11251   	extrn code near : _i2c_init
                                11252   	extrn code near : _tm_init
                                11253   	extrn code : $$start_up
                                11254   
  --------------------------    11255   	cseg #00h at 02h
00:0002 00-00'                  11256   	dw	$$start_up
                                11257   
  --------------------------    11258   	rseg $$NINITTAB
??:0000 68                      11259   	db	068h
??:0001 6B                      11260   	db	06bh
??:0002 00                      11261   	db	00h
??:0003 1C                      11262   	db	01ch
??:0004 00                      11263   	db	00h
??:0005 00                      11264   	align
??:0006 00-00                   11265   	dw	00h
??:0008 80-46                   11266   	dw	04680h
??:000A 1B                      11267   	db	01bh
??:000B 08                      11268   	db	08h
??:000C 6F-12                   11269   	dw	0126fh
??:000E 83-42                   11270   	dw	04283h
??:0010 1A                      11271   	db	01ah
??:0011 04                      11272   	db	04h
??:0012 19                      11273   	db	019h
??:0013 13                      11274   	db	013h
??:0014 38                      11275   	db	038h
??:0015 01                      11276   	db	01h
??:0016 00                      11277   	db	00h
??:0017 00                      11278   	db	00h
??:0018 3B                      11279   	db	03bh
??:0019 00                      11280   	align
??:001A 00-00                   11281   	dw	00h
??:001C 00-00                   11282   	dw	00h
??:001E 00                      11283   	db	00h
??:001F 00                      11284   	db	00h
??:0020 00                      11285   	db	00h
??:0021 00                      11286   	align
??:0022 00-00                   11287   	dw	00h
??:0024 00-00                   11288   	dw	00h
??:0026 00-00                   11289   	dw	00h
??:0028 00-00                   11290   	dw	00h
??:002A 00-00                   11291   	dw	00h
??:002C 00-00                   11292   	dw	00h
??:002E 00-00                   11293   	dw	00h
??:0030 00-00                   11294   	dw	00h
??:0032 00-00                   11295   	dw	00h
??:0034 00-00                   11296   	dw	00h
??:0036 00-00                   11297   	dw	00h
??:0038 00-00                   11298   	dw	00h
??:003A 00-00                   11299   	dw	00h
??:003C 00-00                   11300   	dw	00h
??:003E 00-00                   11301   	dw	00h
??:0040 00-00                   11302   	dw	00h
??:0042 00-00                   11303   	dw	00h
??:0044 00-00                   11304   	dw	00h
??:0046 1E                      11305   	db	01eh
??:0047 00                      11306   	db	00h
??:0048 78                      11307   	db	078h
??:0049 01                      11308   	db	01h
??:004A 60                      11309   	db	060h
??:004B 02                      11310   	db	02h
??:004C 01                      11311   	db	01h
??:004D 03                      11312   	db	03h
??:004E 09                      11313   	db	09h
??:004F 00                      11314   	align
??:0050 00-00                   11315   	dw	00h
??:0052 00-00                   11316   	dw	00h
??:0054 00-00                   11317   	dw	00h
??:0056 00-00                   11318   	dw	00h
??:0058 00-00                   11319   	dw	00h
??:005A 00-00                   11320   	dw	00h
??:005C 00-00                   11321   	dw	00h
??:005E 00-00                   11322   	dw	00h
??:0060 5C-8F                   11323   	dw	08f5ch
??:0062 C2-3F                   11324   	dw	03fc2h
??:0064 6F-12                   11325   	dw	0126fh
??:0066 03-BE                   11326   	dw	0be03h
??:0068 00-00                   11327   	dw	00h
??:006A 00-00                   11328   	dw	00h
??:006C 00-00                   11329   	dw	00h
??:006E 00-00                   11330   	dw	00h
??:0070 70                      11331   	db	070h
??:0071 51                      11332   	db	051h
??:0072 00-00                   11333   	dw	00h
??:0074 0A-00                   11334   	dw	0ah
??:0076 0A-00                   11335   	dw	0ah
??:0078 00-00                   11336   	dw	00h
??:007A 8C-42                   11337   	dw	0428ch
??:007C 00-00                   11338   	dw	00h
??:007E 48-42                   11339   	dw	04248h
??:0080 00-00                   11340   	dw	00h
??:0082 70-43                   11341   	dw	04370h
??:0084 AE-47                   11342   	dw	047aeh
??:0086 E1-BD                   11343   	dw	0bde1h
??:0088 AE-47                   11344   	dw	047aeh
??:008A E1-3D                   11345   	dw	03de1h
??:008C AE-47                   11346   	dw	047aeh
??:008E E1-BD                   11347   	dw	0bde1h
??:0090 AE-47                   11348   	dw	047aeh
??:0092 E1-3D                   11349   	dw	03de1h
??:0094 00-00                   11350   	dw	00h
??:0096 80-3F                   11351   	dw	03f80h
??:0098 00-80                   11352   	dw	08000h
??:009A B3-43                   11353   	dw	043b3h
??:009C 00-00                   11354   	dw	00h
??:009E 34-43                   11355   	dw	04334h
??:00A0 00-00                   11356   	dw	00h
??:00A2 00-00                   11357   	dw	00h
??:00A4 00-00                   11358   	dw	00h
??:00A6 00-00                   11359   	dw	00h
??:00A8 00-00                   11360   	dw	00h
??:00AA 00-00                   11361   	dw	00h
??:00AC 00-00                   11362   	dw	00h
??:00AE 00-00                   11363   	dw	00h
??:00B0 00-00                   11364   	dw	00h
??:00B2 00-00                   11365   	dw	00h
??:00B4 00-00                   11366   	dw	00h
??:00B6 00-00                   11367   	dw	00h
??:00B8 00-00                   11368   	dw	00h
??:00BA 00-00                   11369   	dw	00h
??:00BC 00-00                   11370   	dw	00h
??:00BE 00-00                   11371   	dw	00h
??:00C0 00-00                   11372   	dw	00h
??:00C2 00-00                   11373   	dw	00h
??:00C4 C0-3E                   11374   	dw	03ec0h
??:00C6 00-00                   11375   	dw	00h
??:00C8 00-00                   11376   	dw	00h
??:00CA 9A-99                   11377   	dw	0999ah
??:00CC 59-3F                   11378   	dw	03f59h
??:00CE 00-00                   11379   	dw	00h
??:00D0 00-00                   11380   	dw	00h
??:00D2 00-00                   11381   	dw	00h
??:00D4 00-00                   11382   	dw	00h
??:00D6 00-00                   11383   	dw	00h
??:00D8 00-00                   11384   	dw	00h
??:00DA 00-00                   11385   	dw	00h
??:00DC 00-00                   11386   	dw	00h
??:00DE 1F-85                   11387   	dw	0851fh
??:00E0 6B-3F                   11388   	dw	03f6bh
??:00E2 0A-D7                   11389   	dw	0d70ah
??:00E4 A3-3D                   11390   	dw	03da3h
??:00E6 00                      11391   	db	00h
??:00E7 00                      11392   	db	00h
??:00E8 00-00                   11393   	dw	00h
??:00EA 00-00                   11394   	dw	00h
??:00EC 00-00                   11395   	dw	00h
??:00EE 00-00                   11396   	dw	00h
??:00F0 01                      11397   	db	01h
??:00F1 00                      11398   	align
??:00F2 00-00                   11399   	dw	00h
??:00F4 00-00                   11400   	dw	00h
??:00F6 00-00                   11401   	dw	00h
??:00F8 00-00                   11402   	dw	00h
??:00FA 00-00                   11403   	dw	00h
??:00FC 00-00                   11404   	dw	00h
??:00FE 00-00                   11405   	dw	00h
??:0100 00-00                   11406   	dw	00h
??:0102 00-00                   11407   	dw	00h
??:0104 00-00                   11408   	dw	00h
??:0106 00-00                   11409   	dw	00h
??:0108 00-00                   11410   	dw	00h
??:010A 00-00                   11411   	dw	00h
??:010C 00-00                   11412   	dw	00h
??:010E 00-00                   11413   	dw	00h
??:0110 00-00                   11414   	dw	00h
??:0112 00-00                   11415   	dw	00h
??:0114 00-00                   11416   	dw	00h
??:0116 00-00                   11417   	dw	00h
??:0118 00-00                   11418   	dw	00h
??:011A 00-00                   11419   	dw	00h
??:011C 00-00                   11420   	dw	00h
??:011E 00-00                   11421   	dw	00h
??:0120 80-3F                   11422   	dw	03f80h
??:0122 00-00                   11423   	dw	00h
??:0124 00-00                   11424   	dw	00h
??:0126 00-00                   11425   	dw	00h
??:0128 00-00                   11426   	dw	00h
??:012A 00-00                   11427   	dw	00h
??:012C 00-00                   11428   	dw	00h
??:012E 00-00                   11429   	dw	00h
??:0130 00-00                   11430   	dw	00h
??:0132 00-00                   11431   	dw	00h
??:0134 00-00                   11432   	dw	00h
??:0136 00-00                   11433   	dw	00h
??:0138 00-00                   11434   	dw	00h
??:013A 00-00                   11435   	dw	00h
??:013C 00-00                   11436   	dw	00h
??:013E 00-00                   11437   	dw	00h
??:0140 20-41                   11438   	dw	04120h
??:0142 00-00                   11439   	dw	00h
??:0144 00-00                   11440   	dw	00h
??:0146 00-00                   11441   	dw	00h
??:0148 00-00                   11442   	dw	00h
??:014A 00-00                   11443   	dw	00h
??:014C 20-41                   11444   	dw	04120h
??:014E 00                      11445   	db	00h
??:014F 00                      11446   	align
??:0150 00-00                   11447   	dw	00h
??:0152 FF-3F                   11448   	dw	03fffh
??:0154 FF-3F                   11449   	dw	03fffh
??:0156 FF-3F                   11450   	dw	03fffh
??:0158 FF-3F                   11451   	dw	03fffh
??:015A 00                      11452   	db	00h
??:015B 00                      11453   	align
??:015C 00-00                   11454   	dw	00h
??:015E 8C-42                   11455   	dw	0428ch
??:0160 00-00                   11456   	dw	00h
??:0162 00-00                   11457   	dw	00h
??:0164 00-00                   11458   	dw	00h
??:0166 00-00                   11459   	dw	00h
??:0168 00-00                   11460   	dw	00h
??:016A 00-00                   11461   	dw	00h
??:016C 00-00                   11462   	dw	00h
??:016E 00-00                   11463   	dw	00h
??:0170 00-00                   11464   	dw	00h
??:0172 00-00                   11465   	dw	00h
??:0174 00-00                   11466   	dw	00h
??:0176 00-00                   11467   	dw	00h
??:0178 00-00                   11468   	dw	00h
??:017A 00-00                   11469   	dw	00h
??:017C 00-00                   11470   	dw	00h
??:017E 00-00                   11471   	dw	00h
??:0180 00-00                   11472   	dw	00h
??:0182 00-00                   11473   	dw	00h
??:0184 00-00                   11474   	dw	00h
??:0186 00-00                   11475   	dw	00h
??:0188 00-00                   11476   	dw	00h
??:018A 00                      11477   	db	00h
??:018B 00                      11478   	db	00h
??:018C 98-3A                   11479   	dw	03a98h
??:018E 40-1F                   11480   	dw	01f40h
??:0190 02-21                   11481   	dw	02102h
??:0192 68-42                   11482   	dw	04268h
??:0194 00                      11483   	db	00h
??:0195 00                      11484   	db	00h
??:0196 00-00                   11485   	dw	00h
??:0198 C8-32                   11486   	dw	032c8h
??:019A 10-27                   11487   	dw	02710h
??:019C 34-21                   11488   	dw	02134h
??:019E 00-00                   11489   	dw	00h
??:01A0 00                      11490   	db	00h
??:01A1 00                      11491   	align
??:01A2 00-00                   11492   	dw	00h
??:01A4 00-00                   11493   	dw	00h
??:01A6 00-00                   11494   	dw	00h
??:01A8 00-00                   11495   	dw	00h
??:01AA 00-00                   11496   	dw	00h
??:01AC 00-00                   11497   	dw	00h
??:01AE 00-00                   11498   	dw	00h
??:01B0 00-00                   11499   	dw	00h
??:01B2 00-00                   11500   	dw	00h
??:01B4 00-00                   11501   	dw	00h
??:01B6 00-00                   11502   	dw	00h
??:01B8 00-00                   11503   	dw	00h
??:01BA 00-00                   11504   	dw	00h
??:01BC 00-00                   11505   	dw	00h
??:01BE 00-00                   11506   	dw	00h
??:01C0 00-00                   11507   	dw	00h
??:01C2 00-00                   11508   	dw	00h
??:01C4 00-00                   11509   	dw	00h
??:01C6 00-00                   11510   	dw	00h
??:01C8 00-00                   11511   	dw	00h
??:01CA 00-00                   11512   	dw	00h
??:01CC 00-00                   11513   	dw	00h
??:01CE 00-00                   11514   	dw	00h
??:01D0 00-00                   11515   	dw	00h
??:01D2 00-00                   11516   	dw	00h
??:01D4 00-00                   11517   	dw	00h
??:01D6 00-00                   11518   	dw	00h
??:01D8 00-00                   11519   	dw	00h
??:01DA 00-00                   11520   	dw	00h
??:01DC 00-00                   11521   	dw	00h
??:01DE 00-00                   11522   	dw	00h
??:01E0 00-00                   11523   	dw	00h
                                11524   
  --------------------------    11525   	rseg $$TAB_uartSetParam$main
00:0000                         11526   __uartSetParam :
00:0000 00-E1                   11527   	dw	0e100h
00:0002 00-00                   11528   	dw	00h
00:0004 00                      11529   	db	00h
00:0005 02                      11530   	db	02h
00:0006 00                      11531   	db	00h
00:0007 00                      11532   	db	00h
00:0008 00                      11533   	db	00h
00:0009 00                      11534   	align
                                11535   
  --------------------------    11536   	rseg $$TAB$$S185$main
00:0000                         11537   $$S185 :
00:0000 25 66 2C 25 66 2C 25 66 11538   	DB	"%f,%f,%f,%f,%f,%f,%f,%u"
00:0008 2C 25 66 2C 25 66 2C 25   >>>   
00:0010 66 2C 25 66 2C 25 75 00   >>>   , 00H
                                11539   
  --------------------------    11540   	rseg $$TAB$$S198$main
00:0000                         11541   $$S198 :
00:0000 25 66 2C 25 66 2C 25 66 11542   	DB	"%f,%f,%f",
00:0008 00                        >>>    00H
                                11543   
  --------------------------    11544   	rseg $$TAB$$S211$main
00:0000                         11545   $$S211 :
00:0000 25 66 00                11546   	DB	"%f", 00H
                                11547   
  --------------------------    11548   	rseg $$TAB$$S225$main
00:0000                         11549   $$S225 :
00:0000 47 79 72 6F 20 43 61 6C 11550   	DB	"Gyro Calibration: Please Keep the Quad Flat and Return Any 2 chars to Start"
00:0008 69 62 72 61 74 69 6F 6E   >>>   
00:0010 3A 20 50 6C 65 61 73 65   >>>   
00:0018 20 4B 65 65 70 20 74 68   >>>   
00:0020 65 20 51 75 61 64 20 46   >>>   
00:0028 6C 61 74 20 61 6E 64 20   >>>   
00:0030 52 65 74 75 72 6E 20 41   >>>   
00:0038 6E 79 20 32 20 63 68 61   >>>   
00:0040 72 73 20 74 6F 20 53 74   >>>   
00:0048 61 72 74 00               >>>   , 00H
                                11551   
  --------------------------    11552   	rseg $$TAB$$S250$main
00:0000                         11553   $$S250 :
00:0000 47 79 72 6F 20 43 61 6C 11554   	DB	"Gyro Calibration Complete!"
00:0008 69 62 72 61 74 69 6F 6E   >>>   
00:0010 20 43 6F 6D 70 6C 65 74   >>>   
00:0018 65 21 00                  >>>   , 00H
                                11555   
  --------------------------    11556   	rseg $$TAB$$S266$main
00:0000                         11557   $$S266 :
00:0000 41 63 63 65 6C 20 43 61 11558   	DB	"Accel Calibration: Keep Quad Flat! Return any 2 chars to Start"
00:0008 6C 69 62 72 61 74 69 6F   >>>   
00:0010 6E 3A 20 4B 65 65 70 20   >>>   
00:0018 51 75 61 64 20 46 6C 61   >>>   
00:0020 74 21 20 52 65 74 75 72   >>>   
00:0028 6E 20 61 6E 79 20 32 20   >>>   
00:0030 63 68 61 72 73 20 74 6F   >>>   
00:0038 20 53 74 61 72 74 00      >>>   , 00H
                                11559   
  --------------------------    11560   	rseg $$TAB$$S297$main
00:0000                         11561   $$S297 :
00:0000 41 63 63 65 6C 20 43 61 11562   	DB	"Accel Calibration: Tilt the Quad 90deg in the ROLL Direction! Return any 2 chars to Start"
00:0008 6C 69 62 72 61 74 69 6F   >>>   
00:0010 6E 3A 20 54 69 6C 74 20   >>>   
00:0018 74 68 65 20 51 75 61 64   >>>   
00:0020 20 39 30 64 65 67 20 69   >>>   
00:0028 6E 20 74 68 65 20 52 4F   >>>   
00:0030 4C 4C 20 44 69 72 65 63   >>>   
00:0038 74 69 6F 6E 21 20 52 65   >>>   
00:0040 74 75 72 6E 20 61 6E 79   >>>   
00:0048 20 32 20 63 68 61 72 73   >>>   
00:0050 20 74 6F 20 53 74 61 72   >>>   
00:0058 74 00                     >>>   , 00H
                                11563   
  --------------------------    11564   	rseg $$TAB$$S322$main
00:0000                         11565   $$S322 :
00:0000 41 63 63 65 6C 20 43 61 11566   	DB	"Accel Calibration: Tilt the Quad 90deg in the PITCH direction! Return any 2 chars to Start"
00:0008 6C 69 62 72 61 74 69 6F   >>>   
00:0010 6E 3A 20 54 69 6C 74 20   >>>   
00:0018 74 68 65 20 51 75 61 64   >>>   
00:0020 20 39 30 64 65 67 20 69   >>>   
00:0028 6E 20 74 68 65 20 50 49   >>>   
00:0030 54 43 48 20 64 69 72 65   >>>   
00:0038 63 74 69 6F 6E 21 20 52   >>>   
00:0040 65 74 75 72 6E 20 61 6E   >>>   
00:0048 79 20 32 20 63 68 61 72   >>>   
00:0050 73 20 74 6F 20 53 74 61   >>>   
00:0058 72 74 00                  >>>   , 00H
                                11567   
  --------------------------    11568   	rseg $$TAB$$S347$main
00:0000                         11569   $$S347 :
00:0000 41 63 63 65 6C 20 43 61 11570   	DB	"Accel Calibration Complete!"
00:0008 6C 69 62 72 61 74 69 6F   >>>   
00:0010 6E 20 43 6F 6D 70 6C 65   >>>   
00:0018 74 65 21 00               >>>   , 00H
                                11571   
  --------------------------    11572   	rseg $$TAB$$S369$main
00:0000                         11573   $$S369 :
00:0000 43 75 72 72 65 6E 74 20 11574   	DB	"Current Settings: kp=%f,ki=%f,kd=%f,a1=%f,a2=%f"
00:0008 53 65 74 74 69 6E 67 73   >>>   
00:0010 3A 20 6B 70 3D 25 66 2C   >>>   
00:0018 6B 69 3D 25 66 2C 6B 64   >>>   
00:0020 3D 25 66 2C 61 31 3D 25   >>>   
00:0028 66 2C 61 32 3D 25 66 00   >>>   , 00H
                                11575   
  --------------------------    11576   	rseg $$TAB$$S419$main
00:0000                         11577   $$S419 :
00:0000 4E 65 77 20 53 65 74 74 11578   	DB	"New Settings: kp=%f,ki=%f,kd=%f,a1=%f,a2=%f"
00:0008 69 6E 67 73 3A 20 6B 70   >>>   
00:0010 3D 25 66 2C 6B 69 3D 25   >>>   
00:0018 66 2C 6B 64 3D 25 66 2C   >>>   
00:0020 61 31 3D 25 66 2C 61 32   >>>   
00:0028 3D 25 66 00               >>>   , 00H
                                11579   
  --------------------------    11580   	rseg $$TAB$$S486$main
00:0000                         11581   $$S486 :
00:0000 25 66 2C 25 66 2C 25 66 11582   	DB	"%f,%f,%f,%f"
00:0008 2C 25 66 00               >>>   , 00H
                                11583   
  --------------------------    11584   	rseg $$NINITVAR
00:0000                         11585   _MPU6050Address :
00:0000                         11586   	ds	01h
00:0001                         11587   _AccGyro_PWRMGMT1REG :
00:0001                         11588   	ds	01h
00:0002                         11589   _AccGyro_PWRMGMT1REG_Contents :
00:0002                         11590   	ds	01h
00:0003                         11591   _AccGyro_AccelConfig :
00:0003                         11592   	ds	01h
00:0004                         11593   _AccGyro_AccelConfig_Contents :
00:0004                         11594   	ds	01h
00:0005                         11595   	align
00:0006                         11596   _AccGyro_AccelScaling :
00:0006                         11597   	ds	04h
00:000A                         11598   _AccGyro_GyroConfig :
00:000A                         11599   	ds	01h
00:000B                         11600   _AccGyro_GyroConfig_Contents :
00:000B                         11601   	ds	01h
00:000C                         11602   _AccGyro_GyroScaling :
00:000C                         11603   	ds	04h
00:0010                         11604   _AccGyro_GyroAccelLPF :
00:0010                         11605   	ds	01h
00:0011                         11606   _AccGyro_GyroAccelLPF_Contents :
00:0011                         11607   	ds	01h
00:0012                         11608   _AccGyro_GyroAccel_SMPRTDIV :
00:0012                         11609   	ds	01h
00:0013                         11610   _AccGyro_GyroAccelLPF_SMPRTDIVCo :
00:0013                         11611   	ds	01h
00:0014                         11612   _AccGyro_INTENABLEReg :
00:0014                         11613   	ds	01h
00:0015                         11614   _AccGyro_INTENABLEReg_contents :
00:0015                         11615   	ds	01h
00:0016                         11616   _AccGYRO_Test :
00:0016                         11617   	ds	01h
00:0017                         11618   _AccGyro_ReadFlag :
00:0017                         11619   	ds	01h
00:0018                         11620   _AccGyro_ReadData :
00:0018                         11621   	ds	01h
00:0019                         11622   	align
00:001A                         11623   _Temp_out :
00:001A                         11624   	ds	04h
00:001E                         11625   _Accel_SavIndex :
00:001E                         11626   	ds	01h
00:001F                         11627   _Accel_RetIndex :
00:001F                         11628   	ds	01h
00:0020                         11629   _AccGyro_CF_FlagCounter :
00:0020                         11630   	ds	01h
00:0021                         11631   	align
00:0022                         11632   _CF_Accel_XRoll :
00:0022                         11633   	ds	04h
00:0026                         11634   _CF_Accel_YPitch :
00:0026                         11635   	ds	04h
00:002A                         11636   _CF_Gyro_XRoll :
00:002A                         11637   	ds	04h
00:002E                         11638   _CF_Gyro_YPitch :
00:002E                         11639   	ds	04h
00:0032                         11640   _CF_Accel_ForceMagApprox :
00:0032                         11641   	ds	04h
00:0036                         11642   _CF_Gyro_CurrentCount :
00:0036                         11643   	ds	04h
00:003A                         11644   _Gyro_Xcal :
00:003A                         11645   	ds	04h
00:003E                         11646   _Gyro_Ycal :
00:003E                         11647   	ds	04h
00:0042                         11648   _Gyro_Zcal :
00:0042                         11649   	ds	04h
00:0046                         11650   _HMC5883Address :
00:0046                         11651   	ds	01h
00:0047                         11652   _Mag_ConfigA :
00:0047                         11653   	ds	01h
00:0048                         11654   _Mag_ConfigA_Contents :
00:0048                         11655   	ds	01h
00:0049                         11656   _Mag_ConfigB :
00:0049                         11657   	ds	01h
00:004A                         11658   _Mag_ConfigB_Contents :
00:004A                         11659   	ds	01h
00:004B                         11660   _Mag_ModeReg :
00:004B                         11661   	ds	01h
00:004C                         11662   _Mag_ModeReg_Contents :
00:004C                         11663   	ds	01h
00:004D                         11664   _Mag_ReadData :
00:004D                         11665   	ds	01h
00:004E                         11666   _Mag_Status :
00:004E                         11667   	ds	01h
00:004F                         11668   	align
00:0050                         11669   _Mag_Xout :
00:0050                         11670   	ds	04h
00:0054                         11671   _Mag_Yout :
00:0054                         11672   	ds	04h
00:0058                         11673   _Mag_Zout :
00:0058                         11674   	ds	04h
00:005C                         11675   _Mag_Angle :
00:005C                         11676   	ds	04h
00:0060                         11677   _Mag_GainFactor :
00:0060                         11678   	ds	04h
00:0064                         11679   _Mag_DeclinationAngle :
00:0064                         11680   	ds	04h
00:0068                         11681   _timer_us :
00:0068                         11682   	ds	02h
00:006A                         11683   _Ping_timer :
00:006A                         11684   	ds	02h
00:006C                         11685   _Ping_out :
00:006C                         11686   	ds	04h
00:0070                         11687   _Range_Address :
00:0070                         11688   	ds	01h
00:0071                         11689   _Range_TakeRangeReading :
00:0071                         11690   	ds	01h
00:0072                         11691   _Range_out :
00:0072                         11692   	ds	02h
00:0074                         11693   _MotorStep :
00:0074                         11694   	ds	02h
00:0076                         11695   _Mag_MotorStep :
00:0076                         11696   	ds	02h
00:0078                         11697   _Range_ZHiThres :
00:0078                         11698   	ds	04h
00:007C                         11699   _Range_ZLoThres :
00:007C                         11700   	ds	04h
00:0080                         11701   _Range_Ceiling :
00:0080                         11702   	ds	04h
00:0084                         11703   _Accel_XLoThres :
00:0084                         11704   	ds	04h
00:0088                         11705   _Accel_XHiThres :
00:0088                         11706   	ds	04h
00:008C                         11707   _Accel_YLoThres :
00:008C                         11708   	ds	04h
00:0090                         11709   _Accel_YHiThres :
00:0090                         11710   	ds	04h
00:0094                         11711   _Mag_CWThres :
00:0094                         11712   	ds	04h
00:0098                         11713   _Mag_CCWThres :
00:0098                         11714   	ds	04h
00:009C                         11715   _Mag_OpposingPole :
00:009C                         11716   	ds	04h
00:00A0                         11717   _Mag_PIDSetpoint :
00:00A0                         11718   	ds	04h
00:00A4                         11719   _Mag_PIDCorrectionFactor :
00:00A4                         11720   	ds	04h
00:00A8                         11721   _Mag_PIDAngleScaled :
00:00A8                         11722   	ds	04h
00:00AC                         11723   _Mag_PIDError :
00:00AC                         11724   	ds	04h
00:00B0                         11725   _Mag_PIDCounter :
00:00B0                         11726   	ds	02h
00:00B2                         11727   _Mag_PIDCurrentCount :
00:00B2                         11728   	ds	04h
00:00B6                         11729   _Mag_PIDErrSum :
00:00B6                         11730   	ds	04h
00:00BA                         11731   _Mag_PIDdErr :
00:00BA                         11732   	ds	04h
00:00BE                         11733   _Mag_PIDErrPrev :
00:00BE                         11734   	ds	04h
00:00C2                         11735   _Mag_PID_kp :
00:00C2                         11736   	ds	04h
00:00C6                         11737   _Mag_PID_ki :
00:00C6                         11738   	ds	04h
00:00CA                         11739   _Mag_PID_kd :
00:00CA                         11740   	ds	04h
00:00CE                         11741   _Mag_PIDOutput :
00:00CE                         11742   	ds	04h
00:00D2                         11743   _CF_Gyro_Counter :
00:00D2                         11744   	ds	04h
00:00D6                         11745   _CF_YPitch :
00:00D6                         11746   	ds	04h
00:00DA                         11747   _CF_XRoll :
00:00DA                         11748   	ds	04h
00:00DE                         11749   _CF_HPF :
00:00DE                         11750   	ds	04h
00:00E2                         11751   _CF_LPF :
00:00E2                         11752   	ds	04h
00:00E6                         11753   _CF_UseFlag :
00:00E6                         11754   	ds	01h
00:00E7                         11755   _CF_Counter :
00:00E7                         11756   	ds	01h
00:00E8                         11757   _CF_YPitch_avg :
00:00E8                         11758   	ds	04h
00:00EC                         11759   _CF_XRoll_avg :
00:00EC                         11760   	ds	04h
00:00F0                         11761   _CF_highlow_flag :
00:00F0                         11762   	ds	01h
00:00F1                         11763   	align
00:00F2                         11764   _CF_YPitch_high :
00:00F2                         11765   	ds	04h
00:00F6                         11766   _CF_XRoll_high :
00:00F6                         11767   	ds	04h
00:00FA                         11768   _CF_YPitch_low :
00:00FA                         11769   	ds	04h
00:00FE                         11770   _CF_XRoll_low :
00:00FE                         11771   	ds	04h
00:0102                         11772   _CF_avgCnt :
00:0102                         11773   	ds	04h
00:0106                         11774   _CF_StdDev_M_X :
00:0106                         11775   	ds	04h
00:010A                         11776   _CF_StdDev_M_Y :
00:010A                         11777   	ds	04h
00:010E                         11778   _CF_StdDev_Mtmp_X :
00:010E                         11779   	ds	04h
00:0112                         11780   _CF_StdDev_Mtmp_Y :
00:0112                         11781   	ds	04h
00:0116                         11782   _CF_StdDev_S_X :
00:0116                         11783   	ds	04h
00:011A                         11784   _CF_StdDev_S_Y :
00:011A                         11785   	ds	04h
00:011E                         11786   _CF_StdDev_K :
00:011E                         11787   	ds	04h
00:0122                         11788   _Accel_PID_XRollCounter :
00:0122                         11789   	ds	02h
00:0124                         11790   _Accel_PID_XRollErrSum :
00:0124                         11791   	ds	04h
00:0128                         11792   _Accel_PID_XRollErrPrev :
00:0128                         11793   	ds	04h
00:012C                         11794   _Accel_PID_YPitchCounter :
00:012C                         11795   	ds	02h
00:012E                         11796   _Accel_PID_YPitchErrSum :
00:012E                         11797   	ds	04h
00:0132                         11798   _Accel_PID_YPitchErrPrev :
00:0132                         11799   	ds	04h
00:0136                         11800   _Accel_PID_XRoll_kp :
00:0136                         11801   	ds	04h
00:013A                         11802   _Accel_PID_XRoll_ki :
00:013A                         11803   	ds	04h
00:013E                         11804   _Accel_PID_XRoll_kd :
00:013E                         11805   	ds	04h
00:0142                         11806   _Accel_PID_YPitch_kp :
00:0142                         11807   	ds	04h
00:0146                         11808   _Accel_PID_YPitch_ki :
00:0146                         11809   	ds	04h
00:014A                         11810   _Accel_PID_YPitch_kd :
00:014A                         11811   	ds	04h
00:014E                         11812   _Accel_PID_XYChangeFlag :
00:014E                         11813   	ds	01h
00:014F                         11814   	align
00:0150                         11815   _Accel_PID_Counter :
00:0150                         11816   	ds	02h
00:0152                         11817   _Accel_PID_Motor1 :
00:0152                         11818   	ds	02h
00:0154                         11819   _Accel_PID_Motor2 :
00:0154                         11820   	ds	02h
00:0156                         11821   _Accel_PID_Motor3 :
00:0156                         11822   	ds	02h
00:0158                         11823   _Accel_PID_Motor4 :
00:0158                         11824   	ds	02h
00:015A                         11825   _Accel_PID_GoCounter :
00:015A                         11826   	ds	01h
00:015B                         11827   	align
00:015C                         11828   _Range_PIDSetpoint :
00:015C                         11829   	ds	04h
00:0160                         11830   _Range_PIDError :
00:0160                         11831   	ds	04h
00:0164                         11832   _Range_PIDCounter :
00:0164                         11833   	ds	02h
00:0166                         11834   _Range_PIDCurrentCount :
00:0166                         11835   	ds	04h
00:016A                         11836   _Range_PIDErrSum :
00:016A                         11837   	ds	04h
00:016E                         11838   _Range_PIDdErr :
00:016E                         11839   	ds	04h
00:0172                         11840   _Range_PIDErrPrev :
00:0172                         11841   	ds	04h
00:0176                         11842   _Range_PIDOutput :
00:0176                         11843   	ds	04h
00:017A                         11844   _Range_PID_kp :
00:017A                         11845   	ds	04h
00:017E                         11846   _Range_PID_ki :
00:017E                         11847   	ds	04h
00:0182                         11848   _Range_PID_kd :
00:0182                         11849   	ds	04h
00:0186                         11850   _TestingEndTimer :
00:0186                         11851   	ds	02h
00:0188                         11852   _Timer8Counter :
00:0188                         11853   	ds	02h
00:018A                         11854   _PrePIDCount :
00:018A                         11855   	ds	01h
00:018B                         11856   _PWMflag :
00:018B                         11857   	ds	01h
00:018C                         11858   _PWMUpperDutyLimitCalib :
00:018C                         11859   	ds	02h
00:018E                         11860   _PWMLowerDutyLimitCalib :
00:018E                         11861   	ds	02h
00:0190                         11862   _PWMSafeDuty :
00:0190                         11863   	ds	02h
00:0192                         11864   _PWMPeriod :
00:0192                         11865   	ds	02h
00:0194                         11866   _PWMCounter :
00:0194                         11867   	ds	01h
00:0195                         11868   _PWMSensorResPerInc :
00:0195                         11869   	ds	01h
00:0196                         11870   _PWMUpperLowerDiff :
00:0196                         11871   	ds	02h
00:0198                         11872   _PWMUpperDutyLimitRun :
00:0198                         11873   	ds	02h
00:019A                         11874   _PWMIdleDutyRun :
00:019A                         11875   	ds	02h
00:019C                         11876   _PWMLowerDutyLimitRun :
00:019C                         11877   	ds	02h
00:019E                         11878   _$ST0 :
00:019E                         11879   	ds	02h
00:01A0                         11880   _$ST1 :
00:01A0                         11881   	ds	01h
00:01A1                         11882   	align
00:01A2                         11883   _$ST2 :
00:01A2                         11884   	ds	04h
00:01A6                         11885   _$ST3 :
00:01A6                         11886   	ds	04h
00:01AA                         11887   _$ST4 :
00:01AA                         11888   	ds	04h
00:01AE                         11889   _$ST5 :
00:01AE                         11890   	ds	04h
00:01B2                         11891   _$ST6 :
00:01B2                         11892   	ds	04h
00:01B6                         11893   _$ST7 :
00:01B6                         11894   	ds	04h
00:01BA                         11895   _$ST8 :
00:01BA                         11896   	ds	04h
00:01BE                         11897   _$ST9 :
00:01BE                         11898   	ds	04h
00:01C2                         11899   _$ST10 :
00:01C2                         11900   	ds	04h
00:01C6                         11901   _$ST11 :
00:01C6                         11902   	ds	04h
00:01CA                         11903   _$ST12 :
00:01CA                         11904   	ds	04h
00:01CE                         11905   _$ST13 :
00:01CE                         11906   	ds	04h
00:01D2                         11907   _$ST14 :
00:01D2                         11908   	ds	04h
00:01D6                         11909   _$ST15 :
00:01D6                         11910   	ds	04h
00:01DA                         11911   _$ST16 :
00:01DA                         11912   	ds	04h
00:01DE                         11913   _$ST17 :
00:01DE                         11914   	ds	04h
                                11915   
  --------------------------    11916   	rseg $$NVARmain
00:0000                         11917   _RecWorld :
00:0000                         11918   	ds	08h
00:0008                         11919   _SensorReturn :
00:0008                         11920   	ds	0c8h
00:00D0                         11921   _Gyro_Zout :
00:00D0                         11922   	ds	028h
00:00F8                         11923   _Gyro_Yout :
00:00F8                         11924   	ds	028h
00:0120                         11925   _NewVar_Str :
00:0120                         11926   	ds	06h
00:0126                         11927   _NewVar :
00:0126                         11928   	ds	04h
00:012A                         11929   _AccGyro_Data :
00:012A                         11930   	ds	0eh
00:0138                         11931   _Range_Output :
00:0138                         11932   	ds	02h
00:013A                         11933   _Accel_Zcal :
00:013A                         11934   	ds	0ch
00:0146                         11935   _Accel_Xcal :
00:0146                         11936   	ds	0ch
00:0152                         11937   _Mag_Data :
00:0152                         11938   	ds	06h
00:0158                         11939   _Accel_Xout :
00:0158                         11940   	ds	028h
00:0180                         11941   _Accel_Ycal :
00:0180                         11942   	ds	0ch
00:018C                         11943   _SensorReturnSM :
00:018C                         11944   	ds	032h
00:01BE                         11945   _Accel_Yout :
00:01BE                         11946   	ds	028h
00:01E6                         11947   _Accel_Zout :
00:01E6                         11948   	ds	028h
00:020E                         11949   _Gyro_Xout :
00:020E                         11950   	ds	028h
                                11951   	extrn code : __faddu8sw
                                11952   	extrn code : __fsubu8sw
                                11953   	extrn code : __fnegu8sw
                                11954   	extrn code : __fcmpu8sw
                                11955   	extrn code : __fmulu8sw
                                11956   	extrn code : __fdivu8sw
                                11957   	extrn code : __fildu8sw
                                11958   	extrn code : __ftolu8sw
                                11959   	extrn code : __ftodu8sw
                                11960   	extrn code : __daddu8sw
                                11961   	extrn code : __dsubu8sw
                                11962   	extrn code : __dmulu8sw
                                11963   	extrn code : __dildu8sw
                                11964   	extrn code : __dtofu8sw
                                11965   	extrn code : __fuldu8sw
                                11966   
                                11967   	end



  Target       : ML610112 (nX-U8/100)
  Memory Model : SMALL
  Data   Model : NEAR
  ROM WINDOW   : (not specified)
  Internal RAM : E000H to EFFFH

  Errors   : 0
  Warnings : 0  (/Wrpeast)
  Lines    : 11967
