RASU8(ML610112)Relocatable Assembler, Ver.1.61.2    assemble list. page:   1 
 Source File: _output\_obj\main.asm
 Object File: _output\_obj\main.obj
 Date  : 2014/06/11 Wed.[19:35]
 Title : 
## Loc. Object                   Line   Source Statements

                                    1   ;; Compile Options : /TML610112 /MS /near /Icommon /Imain /Iirq /Itimer /Iclock /Itbc /Iuart /Ii2c /SS 256 /SD /Oa /Ot /W 3 /Wc /Fa_output\_obj\ 
                                    2   ;; Version Number  : Ver.3.41.8
                                    3   ;; File Name       : main.c
                                    4   
                                    5   	type (ML610112) 
                                    6   	model small, near
                                    7   	$$NVARmain segment data 2h #0h
                                    8   	$$NINITVAR segment data 2h #0h
                                    9   	$$NINITTAB segment table 2h any
                                   10   	$$AccelGyroDataReady_ISR$main segment code 2h #0h
                                   11   	$$AccelSensorControlPID_D$main segment code 2h #0h
                                   12   	$$AccelSensorControlPID_I$main segment code 2h #0h
                                   13   	$$AccelSensorControlPID_P$main segment code 2h #0h
                                   14   	$$CalibrateAccel$main segment code 2h #0h
                                   15   	$$CalibrateGyro$main segment code 2h #0h
                                   16   	$$CalibrateMotors$main segment code 2h #0h
                                   17   	$$CheckSafetyLimit$main segment code 2h #0h
                                   18   	$$CheckSafetyLimitUnscaled$main segment code 2h #0h
                                   19   	$$ClearVariables$main segment code 2h #0h
                                   20   	$$DistanceSensorControl$main segment code 2h #0h
                                   21   	$$ESC1_PWM$main segment code 2h #0h
                                   22   	$$ESC2_PWM$main segment code 2h #0h
                                   23   	$$ESC3_PWM$main segment code 2h #0h
                                   24   	$$ESC4_PWM$main segment code 2h #0h
                                   25   	$$Get_AccGyroData$main segment code 2h #0h
                                   26   	$$Get_MagData$main segment code 2h #0h
                                   27   	$$Get_PingData$main segment code 2h #0h
                                   28   	$$Get_RangeData$main segment code 2h #0h
                                   29   	$$Initialization$main segment code 2h #0h
                                   30   	$$MagSensorControl$main segment code 2h #0h
                                   31   	$$MagSensorControlPID$main segment code 2h #0h
                                   32   	$$NOP$main segment code 2h #0h
                                   33   	$$NOP1000$main segment code 2h #0h
                                   34   	$$NOPms$main segment code 2h #0h
                                   35   	$$NOPus$main segment code 2h #0h
                                   36   	$$PortA_Digital_Inputs$main segment code 2h #0h
                                   37   	$$PortA_Low$main segment code 2h #0h
                                   38   	$$PortB_Low$main segment code 2h #0h
                                   39   	$$PortC_Low$main segment code 2h #0h
                                   40   	$$PortD_Low$main segment code 2h #0h
                                   41   	$$RampUpMotorTest$main segment code 2h #0h
                                   42   	$$RangeSensorControlPID$main segment code 2h #0h
                                   43   	$$ReturnAccelData$main segment code 2h #0h
                                   44   	$$ReturnMagData$main segment code 2h #0h
                                   45   	$$ReturnSensorData$main segment code 2h #0h
                                   46   	$$Run_AccGyroCF$main segment code 2h #0h
                                   47   	$$SerialOutCoefficients$main segment code 2h #0h
                                   48   	$$SetOSC$main segment code 2h #0h
                                   49   	$$Shutdown$main segment code 2h #0h
                                   50   	$$SoftStart$main segment code 2h #0h
                                   51   	$$TAB$$S189$main segment table 2h #0h
                                   52   	$$TAB$$S202$main segment table 2h #0h
                                   53   	$$TAB$$S215$main segment table 2h #0h
                                   54   	$$TAB$$S229$main segment table 2h #0h
                                   55   	$$TAB$$S254$main segment table 2h #0h
                                   56   	$$TAB$$S270$main segment table 2h #0h
                                   57   	$$TAB$$S301$main segment table 2h #0h
                                   58   	$$TAB$$S326$main segment table 2h #0h
                                   59   	$$TAB$$S351$main segment table 2h #0h
                                   60   	$$TAB$$S373$main segment table 2h #0h
                                   61   	$$TAB$$S423$main segment table 2h #0h
                                   62   	$$TAB$$S490$main segment table 2h #0h
                                   63   	$$TAB_uartSetParam$main segment table 2h #0h
                                   64   	$$TBC_ISR$main segment code 2h #0h
                                   65   	$$TMR89_ISR$main segment code 2h #0h
                                   66   	$$UARTTunePID$main segment code 2h #0h
                                   67   	$$_funcI2CFin$main segment code 2h #0h
                                   68   	$$_funcUartFin$main segment code 2h #0h
                                   69   	$$_intI2c$main segment code 2h #0h
                                   70   	$$_intUart$main segment code 2h #0h
                                   71   	$$analog_comparator$main segment code 2h #0h
                                   72   	$$approx_arctan2$main segment code 2h #0h
                                   73   	$$checkI2C$main segment code 2h #0h
                                   74   	$$main$main segment code 2h #0h
                                   75   	$$main_clrWDT$main segment code 2h #0h
                                   76   	$$main_reqNotHalt$main segment code 2h #0h
                                   77   	STACKSEG 0100h
                                   78   CVERSION 3.41.8
                                   79   CGLOBAL 01H 03H 0000H "AccelSensorControlPID_D" 08H 02H 0F0H 00H 81H 16H 00H 00H 07H
                                   80   CGLOBAL 01H 03H 0000H "AccelSensorControlPID_I" 08H 02H 0EFH 00H 81H 16H 00H 00H 07H
                                   81   CGLOBAL 01H 03H 0000H "AccelSensorControlPID_P" 08H 02H 0EEH 00H 81H 0eH 00H 00H 07H
                                   82   CGLOBAL 01H 03H 0000H "Shutdown" 08H 02H 0F4H 00H 81H 02H 00H 00H 07H
                                   83   CSGLOBAL 03H 0000H "TBC_ISR" 08H 02H 00H 01H 80H 00H 00H 00H 07H
                                   84   CGLOBAL 01H 03H 0000H "NOPms" 08H 02H 0FCH 00H 81H 0aH 00H 00H 07H
                                   85   CGLOBAL 01H 03H 0000H "NOPus" 08H 02H 0FDH 00H 80H 00H 00H 00H 07H
                                   86   CGLOBAL 01H 03H 0000H "approx_arctan2" 08H 02H 0FFH 00H 83H 40H 00H 00H 03H
                                   87   CGLOBAL 01H 03H 0000H "checkI2C" 08H 02H 0F7H 00H 81H 02H 00H 00H 07H
                                   88   CGLOBAL 01H 03H 0000H "main_clrWDT" 08H 02H 0CEH 00H 80H 00H 00H 00H 07H
                                   89   CSGLOBAL 03H 0000H "_funcUartFin" 08H 02H 0F5H 00H 81H 02H 00H 00H 07H
                                   90   CGLOBAL 01H 03H 0000H "main_reqNotHalt" 08H 02H 0F8H 00H 80H 00H 00H 00H 07H
                                   91   CGLOBAL 01H 03H 0000H "ReturnMagData" 08H 02H 0E3H 00H 81H 0eH 00H 00H 07H
                                   92   CGLOBAL 01H 03H 0000H "DistanceSensorControl" 08H 02H 0EBH 00H 81H 0aH 00H 00H 07H
                                   93   CSGLOBAL 03H 0000H "Initialization" 08H 02H 0CFH 00H 81H 0aH 00H 00H 07H
                                   94   CGLOBAL 01H 03H 0000H "RangeSensorControlPID" 08H 02H 0F1H 00H 81H 20H 00H 00H 07H
                                   95   CGLOBAL 01H 03H 0000H "PortA_Digital_Inputs" 08H 02H 0D6H 00H 80H 00H 00H 00H 07H
                                   96   CGLOBAL 01H 03H 0000H "MagSensorControl" 08H 02H 0ECH 00H 81H 0aH 00H 00H 07H
                                   97   CGLOBAL 01H 03H 0000H "ESC2_PWM" 08H 02H 0D8H 00H 80H 00H 00H 00H 07H
                                   98   CGLOBAL 01H 03H 0000H "Get_AccGyroData" 08H 02H 0DDH 00H 81H 0cH 00H 00H 07H
                                   99   CGLOBAL 01H 03H 0000H "main" 08H 02H 03H 01H 80H 00H 00H 00H 01H
                                  100   CGLOBAL 01H 03H 0000H "MagSensorControlPID" 08H 02H 0EDH 00H 81H 2aH 00H 00H 07H
                                  101   CSGLOBAL 03H 0000H "_intUart" 08H 02H 0F9H 00H 80H 00H 00H 00H 07H
                                  102   CGLOBAL 01H 03H 0000H "ClearVariables" 08H 02H 0E0H 00H 80H 00H 00H 00H 07H
                                  103   CGLOBAL 01H 03H 0000H "PortD_Low" 08H 02H 0D5H 00H 80H 00H 00H 00H 07H
                                  104   CGLOBAL 01H 03H 0000H "NOP1000" 08H 02H 0FEH 00H 80H 00H 00H 00H 07H
                                  105   CGLOBAL 01H 03H 0000H "ESC1_PWM" 08H 02H 0D7H 00H 80H 00H 00H 00H 07H
                                  106   CSGLOBAL 03H 0000H "_intI2c" 08H 02H 0FAH 00H 80H 00H 00H 00H 07H
                                  107   CGLOBAL 01H 03H 0000H "CheckSafetyLimitUnscaled" 08H 02H 0F3H 00H 80H 00H 00H 00H 07H
                                  108   CSGLOBAL 03H 0000H "SetOSC" 08H 02H 0D0H 00H 80H 00H 00H 00H 07H
                                  109   CGLOBAL 01H 03H 0000H "CalibrateAccel" 08H 02H 0E6H 00H 81H 0cH 00H 00H 07H
                                  110   CSGLOBAL 03H 0000H "AccelGyroDataReady_ISR" 08H 02H 02H 01H 80H 00H 00H 00H 07H
                                  111   CGLOBAL 01H 03H 0000H "Get_RangeData" 08H 02H 0DBH 00H 81H 0aH 00H 00H 07H
                                  112   CGLOBAL 01H 03H 0000H "PortC_Low" 08H 02H 0D4H 00H 80H 00H 00H 00H 07H
                                  113   CSGLOBAL 03H 0000H "TMR89_ISR" 08H 02H 01H 01H 81H 0aH 00H 00H 07H
                                  114   CGLOBAL 01H 03H 0000H "CheckSafetyLimit" 08H 02H 0F2H 00H 80H 00H 00H 00H 07H
                                  115   CGLOBAL 01H 03H 0000H "ESC4_PWM" 08H 02H 0DAH 00H 80H 00H 00H 00H 07H
                                  116   CGLOBAL 01H 03H 0000H "Get_MagData" 08H 02H 0DFH 00H 83H 28H 00H 00H 07H
                                  117   CGLOBAL 01H 03H 0000H "UARTTunePID" 08H 02H 0E8H 00H 81H 2eH 00H 00H 07H
                                  118   CGLOBAL 01H 03H 0000H "Get_PingData" 08H 02H 0DCH 00H 81H 16H 00H 00H 07H
                                  119   CGLOBAL 01H 03H 0000H "SerialOutCoefficients" 08H 02H 0E7H 00H 81H 2eH 00H 00H 07H
                                  120   CGLOBAL 01H 03H 0000H "PortB_Low" 08H 02H 0D3H 00H 80H 00H 00H 00H 07H
                                  121   CGLOBAL 01H 03H 0000H "CalibrateMotors" 08H 02H 0E4H 00H 80H 00H 00H 00H 07H
                                  122   CGLOBAL 01H 03H 0000H "ReturnAccelData" 08H 02H 0E2H 00H 81H 0cH 00H 00H 07H
                                  123   CGLOBAL 01H 03H 0000H "ESC3_PWM" 08H 02H 0D9H 00H 80H 00H 00H 00H 07H
                                  124   CGLOBAL 01H 03H 0000H "CalibrateGyro" 08H 02H 0E5H 00H 81H 0cH 00H 00H 07H
                                  125   CGLOBAL 01H 03H 0000H "RampUpMotorTest" 08H 02H 0EAH 00H 80H 00H 00H 00H 07H
                                  126   CGLOBAL 01H 03H 0000H "NOP" 08H 02H 0FBH 00H 81H 08H 00H 00H 07H
                                  127   CGLOBAL 01H 03H 0000H "PortA_Low" 08H 02H 0D2H 00H 80H 00H 00H 00H 07H
                                  128   CGLOBAL 01H 03H 0000H "analog_comparator" 08H 02H 0D1H 00H 80H 00H 00H 00H 07H
                                  129   CGLOBAL 01H 03H 0000H "Run_AccGyroCF" 08H 02H 0DEH 00H 83H 24H 00H 00H 07H
                                  130   CSGLOBAL 03H 0000H "_funcI2CFin" 08H 02H 0F6H 00H 81H 02H 00H 00H 07H
                                  131   CGLOBAL 01H 03H 0000H "SoftStart" 08H 02H 0E9H 00H 81H 02H 00H 00H 07H
                                  132   CGLOBAL 01H 03H 0000H "ReturnSensorData" 08H 02H 0E1H 00H 81H 1cH 00H 00H 07H
                                  133   CSTRUCTTAG 0000H 0000H 0005H 000CH 00000016H "_Notag"
                                  134   CSTRUCTMEM 42H 00000002H 00000000H "_Mode" 02H 00H 08H
                                  135   CSTRUCTMEM 43H 00000002H 00000002H "_Handle" 02H 00H 08H
                                  136   CSTRUCTMEM 42H 00000002H 00000004H "_Buf" 04H 03H 00H 00H 00H
                                  137   CSTRUCTMEM 42H 00000002H 00000006H "_Bend" 04H 03H 00H 00H 00H
                                  138   CSTRUCTMEM 42H 00000002H 00000008H "_Next" 04H 03H 00H 00H 00H
                                  139   CSTRUCTMEM 42H 00000002H 0000000AH "_Rend" 04H 03H 00H 00H 00H
                                  140   CSTRUCTMEM 42H 00000002H 0000000CH "_Rsave" 04H 03H 00H 00H 00H
                                  141   CSTRUCTMEM 42H 00000002H 0000000EH "_Wend" 04H 03H 00H 00H 00H
                                  142   CSTRUCTMEM 42H 00000002H 00000010H "_Back" 05H 01H 02H 00H 00H 00H
                                  143   CSTRUCTMEM 42H 00000001H 00000012H "_Cbuf" 02H 00H 00H
                                  144   CSTRUCTMEM 42H 00000001H 00000013H "_Nback" 02H 00H 00H
                                  145   CSTRUCTMEM 43H 00000002H 00000014H "_Tmpnam" 04H 03H 00H 00H 00H
                                  146   CSTRUCTTAG 0000H 0000H 0004H 0001H 00000004H "_Notag"
                                  147   CSTRUCTMEM 42H 00000004H 00000000H "_Off" 02H 00H 02H
                                  148   CSTRUCTTAG 0000H 0000H 0003H 0006H 0000000AH "_Notag"
                                  149   CSTRUCTMEM 42H 00000004H 00000000H "br" 02H 00H 02H
                                  150   CSTRUCTMEM 42H 00000001H 00000004H "lg" 02H 00H 00H
                                  151   CSTRUCTMEM 42H 00000001H 00000005H "pt" 02H 00H 00H
                                  152   CSTRUCTMEM 42H 00000001H 00000006H "stp" 02H 00H 00H
                                  153   CSTRUCTMEM 42H 00000001H 00000007H "neg" 02H 00H 00H
                                  154   CSTRUCTMEM 42H 00000001H 00000008H "dir" 02H 00H 00H
                                  155   CSTRUCTTAG 0000H 0000H 0002H 0002H 00000008H "_Notag"
                                  156   CSTRUCTMEM 43H 00000004H 00000000H "quot" 02H 00H 02H
                                  157   CSTRUCTMEM 43H 00000004H 00000004H "rem" 02H 00H 02H
                                  158   CSTRUCTTAG 0000H 0000H 0001H 0002H 00000004H "_Notag"
                                  159   CSTRUCTMEM 43H 00000002H 00000000H "quot" 02H 00H 01H
                                  160   CSTRUCTMEM 43H 00000002H 00000002H "rem" 02H 00H 01H
                                  161   CSTRUCTTAG 0000H 0000H 0000H 0008H 00000001H "_Notag"
                                  162   CSTRUCTMEM 52H 00000001H 00000000H "b0" 02H 00H 00H
                                  163   CSTRUCTMEM 52H 00000001H 00000001H "b1" 02H 00H 00H
                                  164   CSTRUCTMEM 52H 00000001H 00000002H "b2" 02H 00H 00H
                                  165   CSTRUCTMEM 52H 00000001H 00000003H "b3" 02H 00H 00H
                                  166   CSTRUCTMEM 52H 00000001H 00000004H "b4" 02H 00H 00H
                                  167   CSTRUCTMEM 52H 00000001H 00000005H "b5" 02H 00H 00H
                                  168   CSTRUCTMEM 52H 00000001H 00000006H "b6" 02H 00H 00H
                                  169   CSTRUCTMEM 52H 00000001H 00000007H "b7" 02H 00H 00H
                                  170   CUNIONTAG 0000H 0000H 0006H 0002H 00000008H "_Notag"
                                  171   CUNIONMEM 42H 00000008H "_W" 05H 01H 04H 00H 00H 08H
                                  172   CUNIONMEM 43H 00000008H "_D" 02H 00H 04H
                                  173   CTYPEDEF 0000H 0000H 01H "_Dconst" 04H 00H 06H 06H 00H
                                  174   CTYPEDEF 0000H 0000H 43H "_Ptrdifft" 02H 00H 01H
                                  175   CTYPEDEF 0000H 0000H 42H "_Sizet" 02H 00H 01H
                                  176   CTYPEDEF 0000H 0000H 43H "tUartSetParam" 04H 00H 05H 03H 00H
                                  177   CTYPEDEF 0000H 0000H 42H "size_t" 02H 00H 01H
                                  178   CTYPEDEF 0000H 0000H 43H "cbfUart" 0AH 03H 00H 02H 2EH 00H 00H 00H 00H 00H 07H
                                  179   CTYPEDEF 0000H 0000H 43H "fpos_t" 04H 00H 05H 04H 00H
                                  180   CTYPEDEF 0000H 0000H 43H "cbfI2c" 0AH 03H 00H 02H 43H 00H 00H 00H 00H 00H 07H
                                  181   CTYPEDEF 0000H 0000H 03H "_Cmpfun_nf" 08H 02H 01H 00H 00H 00H 00H 00H 01H
                                  182   CTYPEDEF 0000H 0000H 03H "_Cmpfun_nn" 08H 02H 00H 00H 00H 00H 00H 00H 01H
                                  183   CTYPEDEF 0000H 0000H 03H "_Cmpfun_ff" 08H 02H 03H 00H 00H 00H 00H 00H 01H
                                  184   CTYPEDEF 0000H 0000H 03H "_Cmpfun_fn" 08H 02H 02H 00H 00H 00H 00H 00H 01H
                                  185   CTYPEDEF 0000H 0000H 43H "FILE" 04H 00H 05H 05H 00H
                                  186   CTYPEDEF 0000H 0000H 43H "div_t" 04H 00H 05H 01H 00H
                                  187   CTYPEDEF 0000H 0000H 43H "ldiv_t" 04H 00H 05H 02H 00H
                                  188   CTYPEDEF 0000H 0000H 43H "_BYTE_FIELD" 04H 00H 05H 00H 00H
                                  189   CSGLOBAL 43H 0004H "CF_LPF" 02H 00H 03H
                                  190   CSGLOBAL 43H 0004H "Mag_OpposingPole" 02H 00H 03H
                                  191   CSGLOBAL 42H 0001H "AccGyro_GyroAccel_SMPRTDIV" 02H 00H 00H
                                  192   CSGLOBAL 43H 0004H "Mag_PIDOutput" 02H 00H 03H
                                  193   CSGLOBAL 42H 0008H "RecWorld" 05H 01H 08H 00H 00H 00H
                                  194   CGLOBAL 00H 42H 0001H "_flgUartFin" 02H 00H 00H
                                  195   CSGLOBAL 42H 0002H "Accel_PID_Motor4" 02H 00H 01H
                                  196   CSGLOBAL 42H 0002H "Accel_PID_Motor1" 02H 00H 01H
                                  197   CSGLOBAL 42H 0002H "Accel_PID_Motor2" 02H 00H 01H
                                  198   CSGLOBAL 42H 0002H "Accel_PID_Motor3" 02H 00H 01H
                                  199   CSGLOBAL 42H 0002H "PWMIdleDutyRun" 02H 00H 01H
                                  200   CSGLOBAL 42H 0002H "Mag_PIDCounter" 02H 00H 01H
                                  201   CSGLOBAL 43H 0004H "CF_YPitch_high" 02H 00H 03H
                                  202   CSGLOBAL 43H 0004H "Mag_CWThres" 02H 00H 03H
                                  203   CSGLOBAL 43H 0004H "Ping_out" 02H 00H 03H
                                  204   CSGLOBAL 42H 00C8H "SensorReturn" 05H 01H 0C8H 00H 00H 00H
                                  205   CSGLOBAL 42H 0001H "PWMCounter" 02H 00H 00H
                                  206   CSGLOBAL 42H 0001H "AccGyro_PWRMGMT1REG_Contents" 02H 00H 00H
                                  207   CSGLOBAL 42H 0001H "Accel_RetIndex" 02H 00H 00H
                                  208   CSGLOBAL 42H 0001H "Accel_SavIndex" 02H 00H 00H
                                  209   CSGLOBAL 42H 0001H "AccGyro_ReadData" 02H 00H 00H
                                  210   CSGLOBAL 43H 0004H "Mag_PIDError" 02H 00H 03H
                                  211   CSGLOBAL 43H 0004H "CF_Gyro_YPitch" 02H 00H 03H
                                  212   CSGLOBAL 43H 0004H "Mag_PID_kd" 02H 00H 03H
                                  213   CSGLOBAL 43H 0004H "Mag_PID_ki" 02H 00H 03H
                                  214   CSGLOBAL 43H 0004H "Mag_PID_kp" 02H 00H 03H
                                  215   CSGLOBAL 43H 0004H "Mag_Xout" 02H 00H 03H
                                  216   CSGLOBAL 42H 0002H "PWMPeriod" 02H 00H 01H
                                  217   CSGLOBAL 43H 0004H "CF_YPitch_low" 02H 00H 03H
                                  218   CSGLOBAL 43H 0028H "Gyro_Zout" 05H 01H 0AH 00H 00H 03H
                                  219   CSGLOBAL 43H 0004H "Accel_PID_XRollErrPrev" 02H 00H 03H
                                  220   CSGLOBAL 42H 0002H "Range_out" 02H 00H 01H
                                  221   CSGLOBAL 43H 0004H "Range_PIDError" 02H 00H 03H
                                  222   CSGLOBAL 43H 0028H "Gyro_Yout" 05H 01H 0AH 00H 00H 03H
                                  223   CSGLOBAL 43H 0004H "Range_PIDOutput" 02H 00H 03H
                                  224   CSGLOBAL 42H 0006H "NewVar_Str" 05H 01H 06H 00H 00H 00H
                                  225   CSGLOBAL 42H 0001H "AccGyro_AccelConfig" 02H 00H 00H
                                  226   CSGLOBAL 43H 0004H "Accel_PID_XRolldErr" 02H 00H 03H
                                  227   CSGLOBAL 42H 0002H "PWMLowerDutyLimitCalib" 02H 00H 01H
                                  228   CSGLOBAL 43H 0004H "Accel_PID_XRoll_ki" 02H 00H 03H
                                  229   CGLOBAL 01H 42H 0001H "Accel_PID_XYChangeFlag" 02H 00H 00H
                                  230   CSGLOBAL 43H 0004H "Accel_PID_XRoll_kd" 02H 00H 03H
                                  231   CSGLOBAL 43H 0004H "Accel_PID_YPitchError" 02H 00H 03H
                                  232   CSGLOBAL 43H 0004H "Accel_PID_XRoll_kp" 02H 00H 03H
                                  233   CSGLOBAL 42H 0001H "AccGyro_CF_FlagCounter" 02H 00H 00H
                                  234   CSGLOBAL 42H 0001H "AccGyro_ReadFlag" 02H 00H 00H
                                  235   CSGLOBAL 43H 0004H "Mag_PIDErrSum" 02H 00H 03H
                                  236   CSGLOBAL 43H 0004H "Range_PIDSetpoint" 02H 00H 03H
                                  237   CSGLOBAL 42H 0001H "Mag_ModeReg_Contents" 02H 00H 00H
                                  238   CSGLOBAL 43H 0004H "NewVar" 02H 00H 03H
                                  239   CSGLOBAL 43H 0004H "Mag_Yout" 02H 00H 03H
                                  240   CSGLOBAL 43H 0004H "CF_Gyro_Counter" 02H 00H 03H
                                  241   CSGLOBAL 43H 0004H "CF_XRoll" 02H 00H 03H
                                  242   CSGLOBAL 42H 0002H "Mag_MotorStep" 02H 00H 01H
                                  243   CSGLOBAL 42H 0001H "Accel_PID_DFlag" 02H 00H 00H
                                  244   CSGLOBAL 42H 0001H "AccGyro_GyroAccelLPF_SMPRTDIVCo" 02H 00H 00H
                                  245   CSGLOBAL 43H 0004H "CF_Accel_ForceMagApprox" 02H 00H 03H
                                  246   CSGLOBAL 42H 0002H "PWMtoRPMOffset_Mot2" 02H 00H 01H
                                  247   CSGLOBAL 42H 0002H "PWMtoRPMOffset_Mot3" 02H 00H 01H
                                  248   CSGLOBAL 42H 0002H "PWMtoRPMOffset_Mot4" 02H 00H 01H
                                  249   CSGLOBAL 43H 0004H "Mag_Zout" 02H 00H 03H
                                  250   CSGLOBAL 43H 0004H "Accel_PID_XRollErrSum" 02H 00H 03H
                                  251   CSGLOBAL 42H 0001H "Accel_PID_GoCounter" 02H 00H 00H
                                  252   CSGLOBAL 43H 0004H "CF_StdDev_Mtmp_X" 02H 00H 03H
                                  253   CSGLOBAL 43H 0004H "CF_StdDev_Mtmp_Y" 02H 00H 03H
                                  254   CSGLOBAL 43H 0004H "CF_StdDev_K" 02H 00H 03H
                                  255   CSGLOBAL 43H 0004H "Mag_PIDCurrentCount" 02H 00H 03H
                                  256   CSGLOBAL 42H 000EH "AccGyro_Data" 05H 01H 0EH 00H 00H 00H
                                  257   CSGLOBAL 43H 0004H "CF_XRoll_avg" 02H 00H 03H
                                  258   CSGLOBAL 43H 0004H "Accel_PID_YPitch_kp" 02H 00H 03H
                                  259   CSGLOBAL 43H 0004H "Accel_PID_YPitch_ki" 02H 00H 03H
                                  260   CSGLOBAL 43H 0004H "Accel_PID_YPitch_kd" 02H 00H 03H
                                  261   CSGLOBAL 43H 0004H "Mag_PIDdErr" 02H 00H 03H
                                  262   CSGLOBAL 42H 0001H "PWMflag" 02H 00H 00H
                                  263   CSGLOBAL 42H 0001H "AccGyro_INTENABLEReg_contents" 02H 00H 00H
                                  264   CSGLOBAL 42H 0001H "AccGyro_GyroConfig_Contents" 02H 00H 00H
                                  265   CSGLOBAL 42H 0001H "HMC5883Address" 02H 00H 00H
                                  266   CSGLOBAL 43H 0004H "Accel_PID_XRollError" 02H 00H 03H
                                  267   CSGLOBAL 42H 0001H "PWMSensorResPerInc" 02H 00H 00H
                                  268   CSGLOBAL 43H 0004H "CF_Gyro_XRoll" 02H 00H 03H
                                  269   CSGLOBAL 43H 0004H "Accel_PID_YPitchdErr" 02H 00H 03H
                                  270   CSGLOBAL 42H 0001H "MPU6050Address" 02H 00H 00H
                                  271   CSGLOBAL 42H 0002H "PWMUpperLowerDiff" 02H 00H 01H
                                  272   CSGLOBAL 01H 000AH "_uartSetParam" 04H 00H 05H 03H 00H
                                  273   CSGLOBAL 43H 0004H "Range_PIDdErr" 02H 00H 03H
                                  274   CSGLOBAL 42H 0002H "PWMSafeDuty" 02H 00H 01H
                                  275   CSGLOBAL 43H 0004H "CF_StdDev_M_X" 02H 00H 03H
                                  276   CSGLOBAL 43H 0004H "CF_StdDev_M_Y" 02H 00H 03H
                                  277   CSGLOBAL 43H 0004H "Accel_PID_YPitchErrPrev" 02H 00H 03H
                                  278   CSGLOBAL 43H 0004H "CF_XRoll_low" 02H 00H 03H
                                  279   CSGLOBAL 43H 0004H "CF_StdDev_S_X" 02H 00H 03H
                                  280   CSGLOBAL 43H 0004H "CF_StdDev_S_Y" 02H 00H 03H
                                  281   CSGLOBAL 42H 0001H "Mag_ModeReg" 02H 00H 00H
                                  282   CSGLOBAL 42H 0001H "Mag_ConfigB_Contents" 02H 00H 00H
                                  283   CSGLOBAL 43H 0004H "Temp_out" 02H 00H 03H
                                  284   CSGLOBAL 42H 0001H "AccGyro_PWRMGMT1REG" 02H 00H 00H
                                  285   CSGLOBAL 42H 0001H "Mag_ConfigA_Contents" 02H 00H 00H
                                  286   CSGLOBAL 42H 0001H "AccGyro_GyroConfig" 02H 00H 00H
                                  287   CSGLOBAL 43H 0004H "Range_PIDErrSum" 02H 00H 03H
                                  288   CSGLOBAL 43H 0004H "CF_YPitch" 02H 00H 03H
                                  289   CSGLOBAL 42H 0002H "Range_Output" 05H 01H 02H 00H 00H 00H
                                  290   CSGLOBAL 42H 0002H "PWMLowerDutyLimitRun" 02H 00H 01H
                                  291   CSGLOBAL 43H 0004H "CF_avgCnt" 02H 00H 03H
                                  292   CSGLOBAL 42H 0001H "PrePIDCount" 02H 00H 00H
                                  293   CSGLOBAL 42H 0001H "AccGyro_GyroAccelLPF" 02H 00H 00H
                                  294   CSGLOBAL 42H 0001H "Range_Address" 02H 00H 00H
                                  295   CSGLOBAL 43H 0004H "Mag_DeclinationAngle" 02H 00H 03H
                                  296   CSGLOBAL 42H 0001H "CF_Counter" 02H 00H 00H
                                  297   CSGLOBAL 43H 0004H "Range_PIDCurrentCount" 02H 00H 03H
                                  298   CSGLOBAL 43H 0004H "Range_ZHiThres" 02H 00H 03H
                                  299   CSGLOBAL 43H 0004H "Range_ZLoThres" 02H 00H 03H
                                  300   CSGLOBAL 43H 0004H "Mag_PIDAngleScaled" 02H 00H 03H
                                  301   CSGLOBAL 42H 0002H "Range_PIDCounter" 02H 00H 01H
                                  302   CSGLOBAL 42H 0002H "PWMUpperDutyLimitRun" 02H 00H 01H
                                  303   CSGLOBAL 43H 0004H "Range_Ceiling" 02H 00H 03H
                                  304   CSGLOBAL 43H 0004H "Accel_PID_YPitchErrSum" 02H 00H 03H
                                  305   CSGLOBAL 43H 0004H "CF_XRoll_high" 02H 00H 03H
                                  306   CSGLOBAL 43H 0004H "Mag_CCWThres" 02H 00H 03H
                                  307   CSGLOBAL 43H 000CH "Accel_Zcal" 05H 01H 03H 00H 00H 03H
                                  308   CSGLOBAL 42H 0002H "Accel_PID_XRollCounter_D" 02H 00H 01H
                                  309   CSGLOBAL 42H 0002H "Accel_PID_XRollCounter_I" 02H 00H 01H
                                  310   CSGLOBAL 42H 0001H "Mag_Status" 02H 00H 00H
                                  311   CSGLOBAL 42H 0001H "AccGyro_AccelConfig_Contents" 02H 00H 00H
                                  312   CSGLOBAL 43H 0004H "Mag_PIDCorrectionFactor" 02H 00H 03H
                                  313   CGLOBAL 00H 42H 0001H "_flgI2CFin" 02H 00H 00H
                                  314   CSGLOBAL 43H 000CH "Accel_Xcal" 05H 01H 03H 00H 00H 03H
                                  315   CSGLOBAL 43H 0004H "AccGyro_GyroScaling" 02H 00H 03H
                                  316   CSGLOBAL 43H 0004H "CF_Accel_XRoll" 02H 00H 03H
                                  317   CSGLOBAL 42H 0006H "Mag_Data" 05H 01H 06H 00H 00H 00H
                                  318   CSGLOBAL 43H 0028H "Accel_Xout" 05H 01H 0AH 00H 00H 03H
                                  319   CSGLOBAL 42H 0002H "Accel_PID_YPitchCounter_D" 02H 00H 01H
                                  320   CSGLOBAL 42H 0002H "Accel_PID_YPitchCounter_I" 02H 00H 01H
                                  321   CSGLOBAL 42H 0001H "CF_highlow_flag" 02H 00H 00H
                                  322   CSGLOBAL 43H 000CH "Accel_Ycal" 05H 01H 03H 00H 00H 03H
                                  323   CSGLOBAL 42H 0001H "AccGYRO_Test" 02H 00H 00H
                                  324   CSGLOBAL 42H 0032H "SensorReturnSM" 05H 01H 32H 00H 00H 00H
                                  325   CSGLOBAL 43H 0004H "CF_Gyro_CurrentCount" 02H 00H 03H
                                  326   CSGLOBAL 43H 0004H "Mag_PIDErrPrev" 02H 00H 03H
                                  327   CGLOBAL 00H 42H 0001H "_reqNotHalt" 02H 00H 00H
                                  328   CSGLOBAL 42H 0001H "CF_UseFlag" 02H 00H 00H
                                  329   CSGLOBAL 42H 0002H "TestingEndTimer" 02H 00H 01H
                                  330   CSGLOBAL 43H 0004H "CF_Accel_YPitch" 02H 00H 03H
                                  331   CSGLOBAL 43H 0004H "Mag_Angle" 02H 00H 03H
                                  332   CSGLOBAL 43H 0004H "Mag_GainFactor" 02H 00H 03H
                                  333   CSGLOBAL 42H 0001H "AccGyro_INTENABLEReg" 02H 00H 00H
                                  334   CSGLOBAL 42H 0002H "PWMUpperDutyLimitCalib" 02H 00H 01H
                                  335   CSGLOBAL 43H 0004H "Mag_PIDSetpoint" 02H 00H 03H
                                  336   CSGLOBAL 43H 0004H "AccGyro_AccelScaling" 02H 00H 03H
                                  337   CSGLOBAL 43H 0004H "Accel_XLoThres" 02H 00H 03H
                                  338   CSGLOBAL 43H 0004H "Accel_YHiThres" 02H 00H 03H
                                  339   CSGLOBAL 43H 0004H "Range_PID_kp" 02H 00H 03H
                                  340   CSGLOBAL 43H 0004H "Accel_XHiThres" 02H 00H 03H
                                  341   CSGLOBAL 42H 0001H "Range_TakeRangeReading" 02H 00H 00H
                                  342   CSGLOBAL 43H 0004H "Range_PID_kd" 02H 00H 03H
                                  343   CSGLOBAL 43H 0028H "Accel_Yout" 05H 01H 0AH 00H 00H 03H
                                  344   CSGLOBAL 43H 0004H "Range_PID_ki" 02H 00H 03H
                                  345   CSGLOBAL 42H 0002H "MotorStep" 02H 00H 01H
                                  346   CSGLOBAL 43H 0028H "Accel_Zout" 05H 01H 0AH 00H 00H 03H
                                  347   CSGLOBAL 42H 0002H "Timer8Counter" 02H 00H 01H
                                  348   CSGLOBAL 42H 0001H "AccGyro_GyroAccelLPF_Contents" 02H 00H 00H
                                  349   CSGLOBAL 43H 0004H "Gyro_Zcal" 02H 00H 03H
                                  350   CSGLOBAL 42H 0001H "Accel_PID_IFlag" 02H 00H 00H
                                  351   CSGLOBAL 42H 0001H "Mag_ConfigA" 02H 00H 00H
                                  352   CSGLOBAL 42H 0001H "Mag_ConfigB" 02H 00H 00H
                                  353   CSGLOBAL 42H 0001H "Mag_ReadData" 02H 00H 00H
                                  354   CSGLOBAL 43H 0004H "Accel_YLoThres" 02H 00H 03H
                                  355   CSGLOBAL 43H 0004H "Gyro_Ycal" 02H 00H 03H
                                  356   CSGLOBAL 42H 0002H "timer_us" 02H 00H 01H
                                  357   CSGLOBAL 43H 0028H "Gyro_Xout" 05H 01H 0AH 00H 00H 03H
                                  358   CSGLOBAL 43H 0004H "Gyro_Xcal" 02H 00H 03H
                                  359   CSGLOBAL 43H 0004H "CF_YPitch_avg" 02H 00H 03H
                                  360   CSGLOBAL 43H 0004H "CF_HPF" 02H 00H 03H
                                  361   CSGLOBAL 43H 0004H "Range_PIDErrPrev" 02H 00H 03H
                                  362   CSGLOBAL 42H 0002H "Ping_timer" 02H 00H 01H
                                  363   CFILE 0001H 0000085AH "main\\ML610112.H"
                                  364   CFILE 0002H 000000D8H "main\\stdlib.h"
                                  365   CFILE 0003H 0000007AH "main\\yvals.h"
                                  366   CFILE 0004H 0000006BH "uart\\uart.h"
                                  367   CFILE 0005H 00000027H "common\\common.h"
                                  368   CFILE 0006H 00000057H "irq\\irq.h"
                                  369   CFILE 0007H 00000023H "main\\mcu.h"
                                  370   CFILE 0008H 00000045H "i2c\\i2c.h"
                                  371   CFILE 0009H 000000EEH "main\\stdio.h"
                                  372   CFILE 000AH 00000046H "tbc\\tbc.h"
                                  373   CFILE 000BH 000001B8H "timer\\timer.h"
                                  374   CFILE 000CH 0000004FH "main\\math.h"
                                  375   CFILE 0000H 00000F07H "main\\main.c"
                                  376   
  --------------------------      377   	rseg $$main$main
                                  378   CFUNCTION 259
                                  379   
00:0000                           380   _main	:
                                  381   CBLOCK 259 1 537
                                  382   
                                  383   ;;{
                                  384   CLINEA 0000H 0001H 0219H 0001H 0001H
                                  385   CBLOCK 259 2 537
                                  386   CLOCAL 47H 0002H 0026H 0002H "i" 02H 00H 01H
                                  387   CLOCAL 4AH 0001H 0000H 0002H "flag" 02H 00H 00H
                                  388   
                                  389   ;;		Initialization(); 			//Ports, UART, Timers, Oscillator, Comparators, etc.
                                  390   CLINEA 0000H 0001H 021EH 0003H 004BH
00:0000 01-F0'00-00'              391   	bl	_Initialization
                                  392   
                                  393   ;;		main_clrWDT();				//kick the dog...1.34uS duration
                                  394   CLINEA 0000H 0001H 021FH 0003H 0034H
00:0004 01-F0'00-00'              395   	bl	_main_clrWDT
                                  396   
                                  397   ;;		CalibrateMotors();			//Time-consuming ~6s
                                  398   CLINEA 0000H 0001H 0220H 0003H 002BH
00:0008 01-F0'00-00'              399   	bl	_CalibrateMotors
                                  400   
                                  401   ;;		CalibrateGyro();			//Enter Calibration Sequence for Gyro
                                  402   CLINEA 0000H 0001H 0221H 0003H 003AH
00:000C 01-F0'00-00'              403   	bl	_CalibrateGyro
                                  404   
                                  405   ;;			Accel_Zcal[0] = -162;
                                  406   CLINEA 0000H 0001H 0228H 0004H 0018H
00:0010 00 E0                     407   	mov	er0,	#0 
00:0012 22 02                     408   	mov	r2,	#022h
00:0014 C3 03                     409   	mov	r3,	#0c3h
00:0016 13-90 00-00'              410   	st	er0,	NEAR _Accel_Zcal
00:001A 13-92 00-00'              411   	st	er2,	NEAR _Accel_Zcal+02h
                                  412   
                                  413   ;;Main_Loop:
                                  414   CLINEA 0000H 0001H 0231H 0001H 000AH
                                  415   CLABEL 001FH "Main_Loop"
00:001E                           416   _$L31 :
                                  417   
                                  418   ;;		SerialOutCoefficients();	//~23ms when PID is Triggered as well..13.8ms otherwise
                                  419   CLINEA 0000H 0001H 0232H 0003H 0052H
00:001E 01-F0'00-00'              420   	bl	_SerialOutCoefficients
                                  421   
                                  422   ;;		PrePIDCount = 0;
                                  423   CLINEA 0000H 0001H 0233H 0003H 0012H
00:0022 00 00                     424   	mov	r0,	#00h
00:0024 11-90 00-00'              425   	st	r0,	NEAR _PrePIDCount
                                  426   
                                  427   ;;		UARTTunePID();				//Allow PID & CF Constant changes over UART
                                  428   CLINEA 0000H 0001H 0234H 0003H 003FH
00:0028 01-F0'00-00'              429   	bl	_UARTTunePID
                                  430   
                                  431   ;;		main_clrWDT();				//kick the dog...1.34uS duration.
                                  432   CLINEA 0000H 0001H 0235H 0003H 0035H
00:002C 01-F0'00-00'              433   	bl	_main_clrWDT
                                  434   
                                  435   ;;		Accel_SavIndex = 0;			//Reset Circular Buffer for Accel/Gyro Measurements
                                  436   CLINEA 0000H 0001H 0237H 0003H 004BH
00:0030 00 00                     437   	mov	r0,	#00h
00:0032 11-90 00-00'              438   	st	r0,	NEAR _Accel_SavIndex
                                  439   
                                  440   ;;		Accel_RetIndex = 0;
                                  441   CLINEA 0000H 0001H 0238H 0003H 0015H
00:0036 11-90 00-00'              442   	st	r0,	NEAR _Accel_RetIndex
                                  443   
                                  444   ;;		for(i=0; i<10; i++){
                                  445   CLINEA 0000H 0001H 0239H 0003H 0016H
00:003A 00 E4                     446   	mov	er4,	#0 
00:003C                           447   _$L34 :
                                  448   CBLOCK 259 3 569
                                  449   
                                  450   ;;			Accel_Xout[i] = 0;
                                  451   CLINEA 0000H 0001H 023AH 0004H 0015H
00:003C 45-F0                     452   	mov	er0,	er4
00:003E 2B-91                     453   	sllc	r1,	#02h
00:0040 2A-90                     454   	sll	r0,	#02h
00:0042 00 E2                     455   	mov	er2,	#0 
00:0044 09-A2 00-00'              456   	st	er2,	NEAR _Accel_Xout[er0]
00:0048 09-A2 00-00'              457   	st	er2,	NEAR _Accel_Xout+02h[er0]
                                  458   
                                  459   ;;			Accel_Yout[i] = 0;
                                  460   CLINEA 0000H 0001H 023BH 0004H 0015H
00:004C 45-F0                     461   	mov	er0,	er4
00:004E 2B-91                     462   	sllc	r1,	#02h
00:0050 2A-90                     463   	sll	r0,	#02h
00:0052 09-A2 00-00'              464   	st	er2,	NEAR _Accel_Yout[er0]
00:0056 09-A2 00-00'              465   	st	er2,	NEAR _Accel_Yout+02h[er0]
                                  466   
                                  467   ;;			Accel_Zout[i] = 0;
                                  468   CLINEA 0000H 0001H 023CH 0004H 0015H
00:005A 45-F0                     469   	mov	er0,	er4
00:005C 2B-91                     470   	sllc	r1,	#02h
00:005E 2A-90                     471   	sll	r0,	#02h
00:0060 09-A2 00-00'              472   	st	er2,	NEAR _Accel_Zout[er0]
00:0064 09-A2 00-00'              473   	st	er2,	NEAR _Accel_Zout+02h[er0]
                                  474   
                                  475   ;;			Gyro_Xout[i] = 0;
                                  476   CLINEA 0000H 0001H 023DH 0004H 0014H
00:0068 45-F0                     477   	mov	er0,	er4
00:006A 2B-91                     478   	sllc	r1,	#02h
00:006C 2A-90                     479   	sll	r0,	#02h
00:006E 09-A2 00-00'              480   	st	er2,	NEAR _Gyro_Xout[er0]
00:0072 09-A2 00-00'              481   	st	er2,	NEAR _Gyro_Xout+02h[er0]
                                  482   
                                  483   ;;			Gyro_Yout[i] = 0;
                                  484   CLINEA 0000H 0001H 023EH 0004H 0014H
00:0076 45-F0                     485   	mov	er0,	er4
00:0078 2B-91                     486   	sllc	r1,	#02h
00:007A 2A-90                     487   	sll	r0,	#02h
00:007C 09-A2 00-00'              488   	st	er2,	NEAR _Gyro_Yout[er0]
00:0080 09-A2 00-00'              489   	st	er2,	NEAR _Gyro_Yout+02h[er0]
                                  490   
                                  491   ;;			Gyro_Zout[i] = 0;
                                  492   CLINEA 0000H 0001H 023FH 0004H 0014H
00:0084 45-F0                     493   	mov	er0,	er4
00:0086 2B-91                     494   	sllc	r1,	#02h
00:0088 2A-90                     495   	sll	r0,	#02h
00:008A 09-A2 00-00'              496   	st	er2,	NEAR _Gyro_Zout[er0]
00:008E 09-A2 00-00'              497   	st	er2,	NEAR _Gyro_Zout+02h[er0]
                                  498   CBLOCKEND 259 3 576
                                  499   
                                  500   ;;		for(i=0; i<10; i++){
                                  501   CLINEA 0000H 0000H 0239H 0003H 0016H
00:0092 81 E4                     502   	add	er4,	#1 
00:0094 0A 74                     503   	cmp	r4,	#0ah
00:0096 00 55                     504   	cmpc	r5,	#00h
00:0098 D1 C5                     505   	blts	_$L34
                                  506   
                                  507   ;;		EPB3 = 1;					//Enable Accel/Gyro Interrupt Pin
                                  508   CLINEA 0000H 0001H 0241H 0003H 0031H
00:009A F0-A0 11-F0               509   	sb	0f011h.7
                                  510   
                                  511   ;;		SoftStart();				//Smoothly bring up the Motor RPM
                                  512   CLINEA 0000H 0001H 0243H 0003H 0033H
00:009E 01-F0'00-00'              513   	bl	_SoftStart
                                  514   
                                  515   ;;		while(PrePIDCount < 10){
                                  516   CLINEA 0000H 0000H 0244H 0001H 000BH
00:00A2 24 CE                     517   	bal	_$L62
                                  518   
                                  519   ;;		while(PrePIDCount < 10){
                                  520   CLINEA 0000H 0000H 0244H 0003H 001AH
00:00A4                           521   _$L40 :
                                  522   CBLOCK 259 4 580
                                  523   
                                  524   ;;			if(AccGyro_ReadFlag >= 1){		//Triggered by External Interrupt (flag set in AccelGyroDataReady_ISR)
                                  525   CLINEA 0000H 0001H 0245H 0004H 0065H
00:00A4 10-90 00-00'              526   	l	r0,	NEAR _AccGyro_ReadFlag
00:00A8 01 70                     527   	cmp	r0,	#01h
00:00AA 05 C1                     528   	blt	_$L42
                                  529   CBLOCK 259 5 581
                                  530   
                                  531   ;;				Get_AccGyroData();
                                  532   CLINEA 0000H 0001H 0247H 0005H 0016H
00:00AC 01-F0'00-00'              533   	bl	_Get_AccGyroData
                                  534   
                                  535   ;;				AccGyro_ReadFlag = 0;
                                  536   CLINEA 0000H 0001H 0249H 0005H 0019H
00:00B0 00 00                     537   	mov	r0,	#00h
00:00B2 11-90 00-00'              538   	st	r0,	NEAR _AccGyro_ReadFlag
                                  539   CBLOCKEND 259 5 586
                                  540   
                                  541   ;;			}
                                  542   CLINEA 0000H 0000H 024AH 0004H 0004H
00:00B6                           543   _$L42 :
                                  544   
                                  545   ;;			if(AccGyro_CF_FlagCounter > 0){	//This Value is incremented after Get_AccGyroData(); is called
                                  546   CLINEA 0000H 0001H 024BH 0004H 0061H
00:00B6 10-90 00-00'              547   	l	r0,	NEAR _AccGyro_CF_FlagCounter
00:00BA 00 70                     548   	cmp	r0,	#00h
00:00BC 05 C3                     549   	ble	_$L44
                                  550   CBLOCK 259 6 587
                                  551   
                                  552   ;;				Run_AccGyroCF();
                                  553   CLINEA 0000H 0001H 024DH 0005H 0014H
00:00BE 01-F0'00-00'              554   	bl	_Run_AccGyroCF
                                  555   
                                  556   ;;				AccGyro_CF_FlagCounter--;	//Decremented because this value is not a static 1/0... number shows number of items in buffer that have not gone though the CF yet
                                  557   CLINEA 0000H 0000H 024FH 0005H 00A1H
00:00C2 0C-F0 00-00'              558   	lea	OFFSET _AccGyro_CF_FlagCounter
00:00C6 3F-FE                     559   	dec	[ea]
                                  560   CBLOCKEND 259 6 592
                                  561   
                                  562   ;;			}
                                  563   CLINEA 0000H 0000H 0250H 0004H 0004H
00:00C8                           564   _$L44 :
                                  565   
                                  566   ;;			if(Accel_PID_GoCounter>= 1){		//This increments in the Run_AccGyroCF()... I don't know if this is the best trigger.. but for now, it works.  Calls GetAccGyroData and AccGyroCF once within the routine.
                                  567   CLINEA 0000H 0001H 0251H 0004H 00CBH
00:00C8 10-90 00-00'              568   	l	r0,	NEAR _Accel_PID_GoCounter
00:00CC 01 70                     569   	cmp	r0,	#01h
00:00CE 0C C1                     570   	blt	_$L46
                                  571   CBLOCK 259 7 593
                                  572   
                                  573   ;;				AccelSensorControlPID_P(); 		
                                  574   CLINEA 0000H 0001H 0253H 0005H 0021H
00:00D0 01-F0'00-00'              575   	bl	_AccelSensorControlPID_P
                                  576   
                                  577   ;;				AccelSensorControlPID_I(); 		
                                  578   CLINEA 0000H 0001H 0254H 0005H 0021H
00:00D4 01-F0'00-00'              579   	bl	_AccelSensorControlPID_I
                                  580   
                                  581   ;;				AccelSensorControlPID_D(); 		
                                  582   CLINEA 0000H 0001H 0255H 0005H 0021H
00:00D8 01-F0'00-00'              583   	bl	_AccelSensorControlPID_D
                                  584   
                                  585   ;;				Accel_PID_GoCounter = 0;
                                  586   CLINEA 0000H 0001H 0257H 0005H 001CH
00:00DC 00 00                     587   	mov	r0,	#00h
00:00DE 11-90 00-00'              588   	st	r0,	NEAR _Accel_PID_GoCounter
                                  589   
                                  590   ;;				PrePIDCount++;			//Comment this out to always loop (i.e.: no shut-down...)
                                  591   CLINEA 0000H 0000H 0258H 0005H 004EH
00:00E2 0C-F0 00-00'              592   	lea	OFFSET _PrePIDCount
00:00E6 2F-FE                     593   	inc	[ea]
                                  594   CBLOCKEND 259 7 601
                                  595   
                                  596   ;;			}
                                  597   CLINEA 0000H 0000H 0259H 0004H 0004H
00:00E8                           598   _$L46 :
                                  599   
                                  600   ;;			main_clrWDT();
                                  601   CLINEA 0000H 0001H 025AH 0004H 0011H
00:00E8 01-F0'00-00'              602   	bl	_main_clrWDT
                                  603   CBLOCKEND 259 4 603
                                  604   
                                  605   ;;		while(PrePIDCount < 10){
                                  606   CLINEA 0000H 0000H 0244H 0001H 000BH
00:00EC                           607   _$L62 :
00:00EC 10-90 00-00'              608   	l	r0,	NEAR _PrePIDCount
00:00F0 0A 70                     609   	cmp	r0,	#0ah
00:00F2 D8 C1                     610   	blt	_$L40
                                  611   
                                  612   ;;		Accel_PID_XRollErrSum = 0;
                                  613   CLINEA 0000H 0001H 025CH 0003H 001CH
00:00F4 00 E0                     614   	mov	er0,	#0 
00:00F6 13-90 00-00'              615   	st	er0,	NEAR _Accel_PID_XRollErrSum
00:00FA 13-90 00-00'              616   	st	er0,	NEAR _Accel_PID_XRollErrSum+02h
                                  617   
                                  618   ;;		Accel_PID_YPitchErrSum = 0;
                                  619   CLINEA 0000H 0001H 025DH 0003H 001DH
00:00FE 13-90 00-00'              620   	st	er0,	NEAR _Accel_PID_YPitchErrSum
00:0102 13-90 00-00'              621   	st	er0,	NEAR _Accel_PID_YPitchErrSum+02h
                                  622   
                                  623   ;;Fast_Loop:							//This loop takes 22.4ms for this loop as of 3/30/2014		
                                  624   CLINEA 0000H 0001H 025FH 0001H 0049H
                                  625   CLABEL 0030H "Fast_Loop"
00:0106                           626   _$L48 :
                                  627   
                                  628   ;;		main_clrWDT();				//kick the dog...1.34uS duration
                                  629   CLINEA 0000H 0001H 0261H 0003H 0034H
00:0106 01-F0'00-00'              630   	bl	_main_clrWDT
                                  631   
                                  632   ;;		ClearVariables();			//Fresh start each loop...
                                  633   CLINEA 0000H 0001H 0262H 0003H 0030H
00:010A 01-F0'00-00'              634   	bl	_ClearVariables
                                  635   
                                  636   ;;		if(AccGyro_ReadFlag >= 1){		//Triggered by External Interrupt (flag set in AccelGyroDataReady_ISR)
                                  637   CLINEA 0000H 0001H 0278H 0003H 0064H
00:010E 10-90 00-00'              638   	l	r0,	NEAR _AccGyro_ReadFlag
00:0112 01 70                     639   	cmp	r0,	#01h
00:0114 09 C1                     640   	blt	_$L49
                                  641   CBLOCK 259 8 632
                                  642   
                                  643   ;;			LED_4 = 1;				//LED4 = C2, Pin 14	//Loop Time = 1.5ms @20Hz Rate
                                  644   CLINEA 0000H 0001H 0279H 0004H 0043H
00:0116 A0-A0 60-F2               645   	sb	0f260h.2
                                  646   
                                  647   ;;			Get_AccGyroData();
                                  648   CLINEA 0000H 0001H 027AH 0004H 0015H
00:011A 01-F0'00-00'              649   	bl	_Get_AccGyroData
                                  650   
                                  651   ;;			LED_4 = 0;
                                  652   CLINEA 0000H 0001H 027BH 0004H 000DH
00:011E A2-A0 60-F2               653   	rb	0f260h.2
                                  654   
                                  655   ;;			AccGyro_ReadFlag = 0;
                                  656   CLINEA 0000H 0001H 027CH 0004H 0018H
00:0122 00 00                     657   	mov	r0,	#00h
00:0124 11-90 00-00'              658   	st	r0,	NEAR _AccGyro_ReadFlag
                                  659   CBLOCKEND 259 8 637
                                  660   
                                  661   ;;		}
                                  662   CLINEA 0000H 0000H 027DH 0003H 0003H
00:0128                           663   _$L49 :
                                  664   
                                  665   ;;		if(AccGyro_CF_FlagCounter > 0){	//This Value is incremented after Get_AccGyroData(); is called
                                  666   CLINEA 0000H 0001H 027EH 0003H 0060H
00:0128 10-90 00-00'              667   	l	r0,	NEAR _AccGyro_CF_FlagCounter
00:012C 00 70                     668   	cmp	r0,	#00h
00:012E 09 C3                     669   	ble	_$L51
                                  670   CBLOCK 259 9 638
                                  671   
                                  672   ;;			LED_2 = 1;			//B7, Pin 11	//Inside RUN_CF	//Loop Time = 13.5ms
                                  673   CLINEA 0000H 0001H 027FH 0004H 0041H
00:0130 F0-A0 58-F2               674   	sb	0f258h.7
                                  675   
                                  676   ;;			Run_AccGyroCF();
                                  677   CLINEA 0000H 0001H 0280H 0004H 0013H
00:0134 01-F0'00-00'              678   	bl	_Run_AccGyroCF
                                  679   
                                  680   ;;			LED_2 = 0;
                                  681   CLINEA 0000H 0001H 0281H 0004H 000DH
00:0138 F2-A0 58-F2               682   	rb	0f258h.7
                                  683   
                                  684   ;;			AccGyro_CF_FlagCounter--;	//Decremented because this value is not a static 1/0... number shows number of items in buffer that have not gone though the CF yet
                                  685   CLINEA 0000H 0000H 0282H 0004H 00A0H
00:013C 0C-F0 00-00'              686   	lea	OFFSET _AccGyro_CF_FlagCounter
00:0140 3F-FE                     687   	dec	[ea]
                                  688   CBLOCKEND 259 9 643
                                  689   
                                  690   ;;		}
                                  691   CLINEA 0000H 0000H 0283H 0003H 0003H
00:0142                           692   _$L51 :
                                  693   
                                  694   ;;		if(Accel_PID_GoCounter>= 1){		//This increments in the Run_AccGyroCF()... I don't know if this is the best trigger.. but for now, it works.  Calls GetAccGyroData and AccGyroCF once within the routine.
                                  695   CLINEA 0000H 0001H 0284H 0003H 00CAH
00:0142 10-90 00-00'              696   	l	r0,	NEAR _Accel_PID_GoCounter
00:0146 01 70                     697   	cmp	r0,	#01h
00:0148 14 C1                     698   	blt	_$L53
                                  699   CBLOCK 259 10 644
                                  700   
                                  701   ;;			LED_3 = 1;			//C1, Pin 13		//Loop Time = 25.47 with UART Debugging ON... 
                                  702   CLINEA 0000H 0001H 0285H 0004H 004CH
00:014A 90-A0 60-F2               703   	sb	0f260h.1
                                  704   
                                  705   ;;			AccelSensorControlPID_P(); 		
                                  706   CLINEA 0000H 0001H 0286H 0004H 0020H
00:014E 01-F0'00-00'              707   	bl	_AccelSensorControlPID_P
                                  708   
                                  709   ;;			LED_3 = 0;
                                  710   CLINEA 0000H 0001H 0287H 0004H 000DH
00:0152 92-A0 60-F2               711   	rb	0f260h.1
                                  712   
                                  713   ;;			Accel_PID_IFlag++;
                                  714   CLINEA 0000H 0000H 0288H 0004H 0015H
00:0156 0C-F0 00-00'              715   	lea	OFFSET _Accel_PID_IFlag
00:015A 2F-FE                     716   	inc	[ea]
                                  717   
                                  718   ;;			Accel_PID_DFlag++;
                                  719   CLINEA 0000H 0000H 0289H 0004H 0015H
00:015C 0C-F0 00-00'              720   	lea	OFFSET _Accel_PID_DFlag
00:0160 2F-FE                     721   	inc	[ea]
                                  722   
                                  723   ;;			Accel_PID_GoCounter = 0;
                                  724   CLINEA 0000H 0001H 028AH 0004H 001BH
00:0162 00 00                     725   	mov	r0,	#00h
00:0164 11-90 00-00'              726   	st	r0,	NEAR _Accel_PID_GoCounter
                                  727   
                                  728   ;;			TestingEndTimer++;			//Comment this out to always loop (i.e.: no shut-down...)
                                  729   CLINEA 0000H 0000H 028CH 0004H 0051H
00:0168 12-90 00-00'              730   	l	er0,	NEAR _TestingEndTimer
00:016C 81 E0                     731   	add	er0,	#1 
00:016E 13-90 00-00'              732   	st	er0,	NEAR _TestingEndTimer
                                  733   CBLOCKEND 259 10 653
                                  734   
                                  735   ;;		}
                                  736   CLINEA 0000H 0000H 028DH 0003H 0003H
00:0172                           737   _$L53 :
                                  738   
                                  739   ;;		if(Accel_PID_IFlag >= IenterThres){		//This increments in the Run_AccGyroCF()... I don't know if this is the best trigger.. but for now, it works.  Calls GetAccGyroData and AccGyroCF once within the routine.
                                  740   CLINEA 0000H 0001H 028FH 0003H 00D1H
00:0172 10-90 00-00'              741   	l	r0,	NEAR _Accel_PID_IFlag
00:0176 03 70                     742   	cmp	r0,	#03h
00:0178 05 C1                     743   	blt	_$L55
                                  744   CBLOCK 259 11 655
                                  745   
                                  746   ;;			AccelSensorControlPID_I(); 		
                                  747   CLINEA 0000H 0001H 0291H 0004H 0020H
00:017A 01-F0'00-00'              748   	bl	_AccelSensorControlPID_I
                                  749   
                                  750   ;;			Accel_PID_IFlag = 0;
                                  751   CLINEA 0000H 0001H 0293H 0004H 0017H
00:017E 00 00                     752   	mov	r0,	#00h
00:0180 11-90 00-00'              753   	st	r0,	NEAR _Accel_PID_IFlag
                                  754   CBLOCKEND 259 11 660
                                  755   
                                  756   ;;		}
                                  757   CLINEA 0000H 0000H 0294H 0003H 0003H
00:0184                           758   _$L55 :
                                  759   
                                  760   ;;		if(Accel_PID_DFlag >= DenterThres){		//This increments in the Run_AccGyroCF()... I don't know if this is the best trigger.. but for now, it works.  Calls GetAccGyroData and AccGyroCF once within the routine.
                                  761   CLINEA 0000H 0001H 0295H 0003H 00D1H
00:0184 10-90 00-00'              762   	l	r0,	NEAR _Accel_PID_DFlag
00:0188 01 70                     763   	cmp	r0,	#01h
00:018A 05 C1                     764   	blt	_$L57
                                  765   CBLOCK 259 12 661
                                  766   
                                  767   ;;			AccelSensorControlPID_D();
                                  768   CLINEA 0000H 0001H 0297H 0004H 001DH
00:018C 01-F0'00-00'              769   	bl	_AccelSensorControlPID_D
                                  770   
                                  771   ;;			Accel_PID_DFlag = 0;
                                  772   CLINEA 0000H 0001H 0299H 0004H 0017H
00:0190 00 00                     773   	mov	r0,	#00h
00:0192 11-90 00-00'              774   	st	r0,	NEAR _Accel_PID_DFlag
                                  775   CBLOCKEND 259 12 666
                                  776   
                                  777   ;;		}
                                  778   CLINEA 0000H 0000H 029AH 0003H 0003H
00:0196                           779   _$L57 :
                                  780   
                                  781   ;;		if(TestingEndTimer < 1000){		//50 == 3secs = 250 = 15 seconds
                                  782   CLINEA 0000H 0001H 02ACH 0003H 003FH
00:0196 12-90 00-00'              783   	l	er0,	NEAR _TestingEndTimer
00:019A E8 70                     784   	cmp	r0,	#0e8h
00:019C 03 51                     785   	cmpc	r1,	#03h
00:019E 02 C0                     786   	bge	_$M1
00:01A0 00-F0'00-00'              787   	b	_$L48
00:01A4                           788   _$M1 :
                                  789   CBLOCK 259 13 684
                                  790   
                                  791   ;;			goto Fast_Loop;
                                  792   CLINEA 0000H 0001H 02AEH 0004H 0012H
                                  793   CBLOCKEND 259 13 687
                                  794   
                                  795   ;;		else{
                                  796   CLINEA 0000H 0000H 02B0H 0003H 0007H
                                  797   CBLOCK 259 14 688
                                  798   
                                  799   ;;			EPB3 = 0;
                                  800   CLINEA 0000H 0001H 02B1H 0004H 000CH
00:01A4 F2-A0 11-F0               801   	rb	0f011h.7
                                  802   
                                  803   ;;			Shutdown();
                                  804   CLINEA 0000H 0001H 02B4H 0004H 000EH
00:01A8 01-F0'00-00'              805   	bl	_Shutdown
                                  806   
                                  807   ;;			TestingEndTimer = 0;
                                  808   CLINEA 0000H 0001H 02B5H 0004H 0017H
00:01AC 00 E0                     809   	mov	er0,	#0 
00:01AE 13-90 00-00'              810   	st	er0,	NEAR _TestingEndTimer
                                  811   
                                  812   ;;			goto Main_Loop;
                                  813   CLINEA 0000H 0001H 02B7H 0004H 0012H
00:01B2 00-F0'00-00'              814   	b	_$L31
                                  815   CBLOCKEND 259 14 696
                                  816   CBLOCKEND 259 2 698
                                  817   
                                  818   ;;}//end main
                                  819   CLINEA 0000H 0001H 02BAH 0001H 000BH
                                  820   CBLOCKEND 259 1 698
                                  821   CFUNCTIONEND 259
                                  822   
                                  823   
  --------------------------      824   	rseg $$main_clrWDT$main
                                  825   CFUNCTION 206
                                  826   
00:0000                           827   _main_clrWDT	:
                                  828   CBLOCK 206 1 879
                                  829   
                                  830   ;;{
                                  831   CLINEA 0000H 0001H 036FH 0001H 0001H
                                  832   CBLOCK 206 2 879
                                  833   
                                  834   ;;	do {
                                  835   CLINEA 0000H 0001H 0373H 0002H 0005H
00:0000                           836   _$L66 :
                                  837   CBLOCK 206 3 883
                                  838   
                                  839   ;;		WDTCON = 0x5Au;
                                  840   CLINEA 0000H 0001H 0374H 0003H 0011H
00:0000 5A 00                     841   	mov	r0,	#05ah
00:0002 11-90 0E-F0               842   	st	r0,	0f00eh
                                  843   CBLOCKEND 206 3 885
                                  844   
                                  845   ;;	} while (WDP != 1);
                                  846   CLINEA 0000H 0000H 0375H 0002H 0014H
00:0006 81-A0 0E-F0               847   	tb	0f00eh.0
00:000A FA C9                     848   	beq	_$L66
                                  849   
                                  850   ;;	WDTCON = 0xA5u;
                                  851   CLINEA 0000H 0001H 0376H 0002H 0010H
00:000C A5 00                     852   	mov	r0,	#0a5h
00:000E 11-90 0E-F0               853   	st	r0,	0f00eh
                                  854   CBLOCKEND 206 2 888
                                  855   
                                  856   ;;}
                                  857   CLINEA 0000H 0001H 0378H 0001H 0001H
00:0012 1F-FE                     858   	rt
                                  859   CBLOCKEND 206 1 888
                                  860   CFUNCTIONEND 206
                                  861   
                                  862   
  --------------------------      863   	rseg $$Initialization$main
                                  864   CFUNCTION 207
                                  865   
00:0000                           866   _Initialization	:
                                  867   CBLOCK 207 1 895
                                  868   
                                  869   ;;static void Initialization(void){
                                  870   CLINEA 0000H 0001H 037FH 0001H 0021H
00:0000 CE-F8                     871   	push	lr
                                  872   CBLOCK 207 2 895
                                  873   CRET 0000H
                                  874   
                                  875   ;;	DSIO0 = 1; // 0=> Enables Synchronous Serial Port 0 (initial value).
                                  876   CLINEA 0000H 0001H 0383H 0002H 0045H
00:0002 80-A0 2A-F0               877   	sb	0f02ah.0
                                  878   
                                  879   ;;	DUA0  = 0; // 0=> Enables the operation of UART0 (initial value).
                                  880   CLINEA 0000H 0001H 0384H 0002H 0042H
00:0006 A2-A0 2A-F0               881   	rb	0f02ah.2
                                  882   
                                  883   ;;	DUA1  = 1; // 0=> Enables Uart1 (initial value). 
                                  884   CLINEA 0000H 0001H 0385H 0002H 0032H
00:000A B0-A0 2A-F0               885   	sb	0f02ah.3
                                  886   
                                  887   ;;	DI2C1 = 1; // 0=> Enables I2C bus Interface (Slave) (initial value).
                                  888   CLINEA 0000H 0001H 0386H 0002H 0045H
00:000E E0-A0 2A-F0               889   	sb	0f02ah.6
                                  890   
                                  891   ;;	DI2C0 = 0; // 0=> Enables I2C bus Interface (Master) (initial value).	
                                  892   CLINEA 0000H 0001H 0387H 0002H 0047H
00:0012 F2-A0 2A-F0               893   	rb	0f02ah.7
                                  894   
                                  895   ;;	BLKCON4 = 0x00; // 0=> Enables SA-ADC
                                  896   CLINEA 0000H 0001H 0389H 0002H 0026H
00:0016 00 00                     897   	mov	r0,	#00h
00:0018 11-90 2C-F0               898   	st	r0,	0f02ch
                                  899   
                                  900   ;;	BLKCON6 = 0x00; // (1=disables; 0=enables) the operation of Timers 8, 9, A, E, F.
                                  901   CLINEA 0000H 0001H 038AH 0002H 0052H
00:001C 11-90 2E-F0               902   	st	r0,	0f02eh
                                  903   
                                  904   ;;	BLKCON7 = 0x00; // (1=disables; 0=enables) the operation of PWM (PWMC, PWMD, PWME, PWMF
                                  905   CLINEA 0000H 0001H 038BH 0002H 0058H
00:0020 11-90 2F-F0               906   	st	r0,	0f02fh
                                  907   
                                  908   ;;	PortA_Low();	//Initialize all 3 Ports of Port A to GPIO-Low
                                  909   CLINEA 0000H 0001H 038EH 0002H 003CH
00:0024 01-F0'00-00'              910   	bl	_PortA_Low
                                  911   
                                  912   ;;	PortB_Low();	//Initialize all 8 Ports of Port B to GPIO-Low
                                  913   CLINEA 0000H 0001H 038FH 0002H 003CH
00:0028 01-F0'00-00'              914   	bl	_PortB_Low
                                  915   
                                  916   ;;	PortC_Low();	//Initialize all 8 Ports of Port C to GPIO-Low
                                  917   CLINEA 0000H 0001H 0390H 0002H 003CH
00:002C 01-F0'00-00'              918   	bl	_PortC_Low
                                  919   
                                  920   ;;	PortD_Low();	//Initialize all 6 Ports of Port D to GPIO-Low
                                  921   CLINEA 0000H 0001H 0391H 0002H 003CH
00:0030 01-F0'00-00'              922   	bl	_PortD_Low
                                  923   
                                  924   ;;    SetOSC();
                                  925   CLINEA 0000H 0001H 0394H 0005H 000DH
00:0034 01-F0'00-00'              926   	bl	_SetOSC
                                  927   
                                  928   ;;	irq_di();	// Disable Interrupts
                                  929   CLINEA 0000H 0001H 0398H 0002H 0020H
00:0038 01-F0'00-00'              930   	bl	_irq_di
                                  931   
                                  932   ;;	irq_init();	// Initialize Interrupts (All Off and NO Requests)
                                  933   CLINEA 0000H 0001H 0399H 0002H 003FH
00:003C 01-F0'00-00'              934   	bl	_irq_init
                                  935   
                                  936   ;;	(void)irq_setHdr( (unsigned char)IRQ_NO_I2CMINT, _intI2c );
                                  937   CLINEA 0000H 0001H 03B6H 0002H 003CH
00:0040 00'02                     938   	mov	r2,	#BYTE1 OFFSET __intI2c
00:0042 00'03                     939   	mov	r3,	#BYTE2 OFFSET __intI2c
00:0044 0C 00                     940   	mov	r0,	#0ch
00:0046 01-F0'00-00'              941   	bl	_irq_setHdr
                                  942   
                                  943   ;;		EI2CM = 1;
                                  944   CLINEA 0000H 0001H 03B7H 0003H 000CH
00:004A F0-A0 12-F0               945   	sb	0f012h.7
                                  946   
                                  947   ;;	(void)irq_setHdr( (unsigned char)IRQ_NO_UA0INT, _intUart );		
                                  948   CLINEA 0000H 0001H 03BBH 0002H 003EH
00:004E 00'02                     949   	mov	r2,	#BYTE1 OFFSET __intUart
00:0050 00'03                     950   	mov	r3,	#BYTE2 OFFSET __intUart
00:0052 0F 00                     951   	mov	r0,	#0fh
00:0054 01-F0'00-00'              952   	bl	_irq_setHdr
                                  953   
                                  954   ;;		EUA0 = 1; // EUA0 is the enable flag for the UART0 interrupt (1=ENABLED)
                                  955   CLINEA 0000H 0001H 03BCH 0003H 004AH
00:0058 80-A0 14-F0               956   	sb	0f014h.0
                                  957   
                                  958   ;;	(void)irq_setHdr( (unsigned char)IRQ_NO_TM9INT, TMR89_ISR );  //Clear interrupt request flag
                                  959   CLINEA 0000H 0001H 03C9H 0002H 005DH
00:005C 00'02                     960   	mov	r2,	#BYTE1 OFFSET _TMR89_ISR
00:005E 00'03                     961   	mov	r3,	#BYTE2 OFFSET _TMR89_ISR
00:0060 0E 00                     962   	mov	r0,	#0eh
00:0062 01-F0'00-00'              963   	bl	_irq_setHdr
                                  964   
                                  965   ;;		ETM8 = 1;	  	// Enable timer 8 Interrupt (1=ENABLED
                                  966   CLINEA 0000H 0001H 03CAH 0003H 0035H
00:0066 A0-A0 13-F0               967   	sb	0f013h.2
                                  968   
                                  969   ;;		ETM9 = 1;	  	// Enable timer 9 Interrupt (1=ENABLED)
                                  970   CLINEA 0000H 0001H 03CBH 0003H 0036H
00:006A B0-A0 13-F0               971   	sb	0f013h.3
                                  972   
                                  973   ;;		QTM8 = 1;		// timer 8 IRQ request flag
                                  974   CLINEA 0000H 0001H 03CCH 0003H 0028H
00:006E A0-A0 1B-F0               975   	sb	0f01bh.2
                                  976   
                                  977   ;;		QTM9 = 1;		// timer 9 IRQ request flag
                                  978   CLINEA 0000H 0001H 03CDH 0003H 0028H
00:0072 B0-A0 1B-F0               979   	sb	0f01bh.3
                                  980   
                                  981   ;;		T8CS0 = 1;
                                  982   CLINEA 0000H 0001H 03CEH 0003H 000CH
00:0076 80-A0 E2-F8               983   	sb	0f8e2h.0
                                  984   
                                  985   ;;		T8CS1 = 1;
                                  986   CLINEA 0000H 0001H 03CFH 0003H 000CH
00:007A 90-A0 E2-F8               987   	sb	0f8e2h.1
                                  988   
                                  989   ;;		T8CS2 = 0;
                                  990   CLINEA 0000H 0001H 03D0H 0003H 000CH
00:007E A2-A0 E2-F8               991   	rb	0f8e2h.2
                                  992   
                                  993   ;;		T9CS0 = 1;
                                  994   CLINEA 0000H 0001H 03D1H 0003H 000CH
00:0082 80-A0 E6-F8               995   	sb	0f8e6h.0
                                  996   
                                  997   ;;		T9CS1 = 1;
                                  998   CLINEA 0000H 0001H 03D2H 0003H 000CH
00:0086 90-A0 E6-F8               999   	sb	0f8e6h.1
                                 1000   
                                 1001   ;;		T9CS2 = 0;
                                 1002   CLINEA 0000H 0001H 03D3H 0003H 000CH
00:008A A2-A0 E6-F8              1003   	rb	0f8e6h.2
                                 1004   
                                 1005   ;;		tm_init(TM_CH_NO_89);
                                 1006   CLINEA 0000H 0001H 03D4H 0003H 0017H
00:008E 00 00                    1007   	mov	r0,	#00h
00:0090 01-F0'00-00'             1008   	bl	_tm_init
                                 1009   
                                 1010   ;;		tm_set89Data(8192);				//A value of 1023 should yield 125us interrupts at 8.192 MHz
                                 1011   CLINEA 0000H 0000H 0150H 0002H 0025H
00:0094 00 00                    1012   	mov	r0,	#00h
00:0096 11-90 E0-F8              1013   	st	r0,	0f8e0h
                                 1014   
                                 1015   ;;		tm_set89Data(8192);				//A value of 1023 should yield 125us interrupts at 8.192 MHz
                                 1016   CLINEA 0000H 0000H 0151H 0002H 0023H
00:009A 20 00                    1017   	mov	r0,	#020h
00:009C 11-90 E4-F8              1018   	st	r0,	0f8e4h
                                 1019   
                                 1020   ;;		tm_set89Source(TM_CS_HTBCLK);
                                 1021   CLINEA 0000H 0000H 0186H 0002H 0015H
00:00A0 80-A0 E2-F8              1022   	sb	0f8e2h.0
                                 1023   
                                 1024   ;;		tm_set89Source(TM_CS_HTBCLK);
                                 1025   CLINEA 0000H 0000H 0187H 0002H 001AH
00:00A4 92-A0 E2-F8              1026   	rb	0f8e2h.1
                                 1027   
                                 1028   ;;		tm_start89();
                                 1029   CLINEA 0000H 0001H 00CAH 0002H 000AH
00:00A8 00 00                    1030   	mov	r0,	#00h
00:00AA 11-90 E1-F8              1031   	st	r0,	0f8e1h
                                 1032   
                                 1033   ;;		tm_start89();
                                 1034   CLINEA 0000H 0000H 00CBH 0002H 000BH
00:00AE 80-A0 E3-F8              1035   	sb	0f8e3h.0
                                 1036   
                                 1037   ;;		T89M16 = 1;
                                 1038   CLINEA 0000H 0001H 03D8H 0003H 000DH
00:00B2 D0-A0 E2-F8              1039   	sb	0f8e2h.5
                                 1040   
                                 1041   ;;		HTD3 = 1;
                                 1042   CLINEA 0000H 0001H 03DAH 0003H 000BH
00:00B6 B0-A0 0B-F0              1043   	sb	0f00bh.3
                                 1044   
                                 1045   ;;		HTD2 = 1;
                                 1046   CLINEA 0000H 0001H 03DBH 0003H 000BH
00:00BA A0-A0 0B-F0              1047   	sb	0f00bh.2
                                 1048   
                                 1049   ;;		HTD1 = 1;
                                 1050   CLINEA 0000H 0001H 03DCH 0003H 000BH
00:00BE 90-A0 0B-F0              1051   	sb	0f00bh.1
                                 1052   
                                 1053   ;;		HTD0 = 1; 
                                 1054   CLINEA 0000H 0001H 03DDH 0003H 000CH
00:00C2 80-A0 0B-F0              1055   	sb	0f00bh.0
                                 1056   
                                 1057   ;;	PB3DIR = 1;
                                 1058   CLINEA 0000H 0001H 03E0H 0002H 000CH
00:00C6 B0-A0 59-F2              1059   	sb	0f259h.3
                                 1060   
                                 1061   ;;	PB3C1 = 0;
                                 1062   CLINEA 0000H 0001H 03E1H 0002H 000BH
00:00CA B2-A0 5B-F2              1063   	rb	0f25bh.3
                                 1064   
                                 1065   ;;	PB3C0 = 0;
                                 1066   CLINEA 0000H 0001H 03E2H 0002H 000BH
00:00CE B2-A0 5A-F2              1067   	rb	0f25ah.3
                                 1068   
                                 1069   ;;	PB3MD1 = 0;
                                 1070   CLINEA 0000H 0001H 03E3H 0002H 000CH
00:00D2 B2-A0 5D-F2              1071   	rb	0f25dh.3
                                 1072   
                                 1073   ;;	PB3MD0 = 0;
                                 1074   CLINEA 0000H 0001H 03E4H 0002H 000CH
00:00D6 B2-A0 5C-F2              1075   	rb	0f25ch.3
                                 1076   
                                 1077   ;;	PB3E1 = 1;
                                 1078   CLINEA 0000H 0001H 03E5H 0002H 000BH
00:00DA F0-A0 25-F0              1079   	sb	0f025h.7
                                 1080   
                                 1081   ;;	PB3E0 = 0;		//PBnE0-1 are used to choose the Rising-Edge Mode for this interrupt
                                 1082   CLINEA 0000H 0001H 03E7H 0002H 0051H
00:00DE F2-A0 24-F0              1083   	rb	0f024h.7
                                 1084   
                                 1085   ;;	PB3SM = 0;
                                 1086   CLINEA 0000H 0001H 03E8H 0002H 000BH
00:00E2 F2-A0 26-F0              1087   	rb	0f026h.7
                                 1088   
                                 1089   ;;	(void)irq_setHdr( (unsigned char)IRQ_NO_PB3INT, AccelGyroDataReady_ISR );  //Clear interrupt request flag
                                 1090   CLINEA 0000H 0001H 03EAH 0002H 006AH
00:00E6 00'02                    1091   	mov	r2,	#BYTE1 OFFSET _AccelGyroDataReady_ISR
00:00E8 00'03                    1092   	mov	r3,	#BYTE2 OFFSET _AccelGyroDataReady_ISR
00:00EA 08 00                    1093   	mov	r0,	#08h
00:00EC 01-F0'00-00'             1094   	bl	_irq_setHdr
                                 1095   
                                 1096   ;;	EPB3 = 0;	//Enables Interrupt
                                 1097   CLINEA 0000H 0001H 03ECH 0002H 001EH
00:00F0 F2-A0 11-F0              1098   	rb	0f011h.7
                                 1099   
                                 1100   ;;	QPB3 = 0;	//Enables Request Flag (need to set to start using... this is set after the UART control Stuff!)
                                 1101   CLINEA 0000H 0001H 03EDH 0002H 006BH
00:00F4 F2-A0 19-F0              1102   	rb	0f019h.7
                                 1103   
                                 1104   ;;	WDTMOD = 0x03; 	// 0x03=overflow 8sec...
                                 1105   CLINEA 0000H 0001H 03F1H 0002H 0029H
00:00F8 03 00                    1106   	mov	r0,	#03h
00:00FA 11-90 0F-F0              1107   	st	r0,	0f00fh
                                 1108   
                                 1109   ;;	main_clrWDT(); 	// Clear WDT
                                 1110   CLINEA 0000H 0001H 03F2H 0002H 001DH
00:00FE 01-F0'00-00'             1111   	bl	_main_clrWDT
                                 1112   
                                 1113   ;;	(void)i2c_init(I2C_MOD_FST, (unsigned short)HSCLK_KHZ, I2C_SYN_ON);
                                 1114   CLINEA 0000H 0001H 03F6H 0002H 0044H
00:0102 01 00                    1115   	mov	r0,	#01h
00:0104 4E-F0                    1116   	push	r0
00:0106 40 02                    1117   	mov	r2,	#040h
00:0108 1F 03                    1118   	mov	r3,	#01fh
00:010A 01-F0'00-00'             1119   	bl	_i2c_init
00:010E 02 E1                    1120   	add	sp,	#2 
                                 1121   
                                 1122   ;;			     &_uartSetParam );				/* Param... 	 */
                                 1123   CLINEA 0000H 0001H 03FCH 0009H 002DH
00:0110 00'00                    1124   	mov	r0,	#BYTE1 OFFSET __uartSetParam
00:0112 00'01                    1125   	mov	r1,	#BYTE2 OFFSET __uartSetParam
00:0114 5E-F0                    1126   	push	er0
00:0116 40 02                    1127   	mov	r2,	#040h
00:0118 1F 03                    1128   	mov	r3,	#01fh
00:011A 02 00                    1129   	mov	r0,	#02h
00:011C 01-F0'00-00'             1130   	bl	_uart_init
00:0120 02 E1                    1131   	add	sp,	#2 
                                 1132   
                                 1133   ;;		uart_PortSet();
                                 1134   CLINEA 0000H 0001H 03FDH 0003H 0011H
00:0122 01-F0'00-00'             1135   	bl	_uart_PortSet
                                 1136   
                                 1137   ;;		_flgUartFin = 0;
                                 1138   CLINEA 0000H 0001H 03FEH 0003H 0012H
00:0126 00 00                    1139   	mov	r0,	#00h
00:0128 11-90 00-00'             1140   	st	r0,	NEAR __flgUartFin
                                 1141   
                                 1142   ;;		uart_stop();
                                 1143   CLINEA 0000H 0001H 03FFH 0003H 000EH
00:012C 01-F0'00-00'             1144   	bl	_uart_stop
                                 1145   
                                 1146   ;;	irq_ei(); // Enable Interrupts
                                 1147   CLINEA 0000H 0001H 0401H 0002H 001FH
00:0130 01-F0'00-00'             1148   	bl	_irq_ei
                                 1149   
                                 1150   ;;		ESC1_PWM();
                                 1151   CLINEA 0000H 0001H 0405H 0003H 000DH
00:0134 01-F0'00-00'             1152   	bl	_ESC1_PWM
                                 1153   
                                 1154   ;;		ESC2_PWM();
                                 1155   CLINEA 0000H 0001H 0406H 0003H 000DH
00:0138 01-F0'00-00'             1156   	bl	_ESC2_PWM
                                 1157   
                                 1158   ;;		ESC3_PWM();
                                 1159   CLINEA 0000H 0001H 0407H 0003H 000DH
00:013C 01-F0'00-00'             1160   	bl	_ESC3_PWM
                                 1161   
                                 1162   ;;		ESC4_PWM();
                                 1163   CLINEA 0000H 0001H 0408H 0003H 000DH
00:0140 01-F0'00-00'             1164   	bl	_ESC4_PWM
                                 1165   
                                 1166   ;;		PD0DIR = 1;
                                 1167   CLINEA 0000H 0001H 040AH 0003H 000DH
00:0144 80-A0 69-F2              1168   	sb	0f269h.0
                                 1169   
                                 1170   ;;		PD1DIR = 1;
                                 1171   CLINEA 0000H 0001H 040BH 0003H 000DH
00:0148 90-A0 69-F2              1172   	sb	0f269h.1
                                 1173   
                                 1174   ;;		PD2DIR = 0;
                                 1175   CLINEA 0000H 0001H 040CH 0003H 000DH
00:014C A2-A0 69-F2              1176   	rb	0f269h.2
                                 1177   
                                 1178   ;;		PWMUpperLowerDiff = PWMUpperDutyLimitRun-PWMLowerDutyLimitRun;
                                 1179   CLINEA 0000H 0001H 040EH 0003H 0040H
00:0150 12-90 00-00'             1180   	l	er0,	NEAR _PWMUpperDutyLimitRun
00:0154 12-92 00-00'             1181   	l	er2,	NEAR _PWMLowerDutyLimitRun
00:0158 28-80                    1182   	sub	r0,	r2
00:015A 39-81                    1183   	subc	r1,	r3
00:015C 13-90 00-00'             1184   	st	er0,	NEAR _PWMUpperLowerDiff
                                 1185   
                                 1186   ;;	_flgI2CFin = 0;														//reset I2C completed flag
                                 1187   CLINEA 0000H 0001H 0411H 0002H 0038H
00:0160 00 00                    1188   	mov	r0,	#00h
00:0162 11-90 00-00'             1189   	st	r0,	NEAR __flgI2CFin
                                 1190   
                                 1191   ;;	i2c_stop();															//Make sure I2C is not currently running
                                 1192   CLINEA 0000H 0001H 0412H 0002H 0043H
00:0166 01-F0'00-00'             1193   	bl	_i2c_stop
                                 1194   
                                 1195   ;;	i2c_startSend( MPU6050Address, &AccGyro_PWRMGMT1REG, 1, &AccGyro_PWRMGMT1REG_Contents, 1, (cbfI2c)_funcI2CFin);		//Begin I2C Receive Command
                                 1196   CLINEA 0000H 0001H 0413H 0002H 008DH
00:016A 00'00                    1197   	mov	r0,	#BYTE1 OFFSET __funcI2CFin
00:016C 00'01                    1198   	mov	r1,	#BYTE2 OFFSET __funcI2CFin
00:016E 5E-F0                    1199   	push	er0
00:0170 01 E0                    1200   	mov	er0,	#1 
00:0172 5E-F0                    1201   	push	er0
00:0174 00'00                    1202   	mov	r0,	#BYTE1 OFFSET _AccGyro_PWRMGMT1REG_Contents
00:0176 00'01                    1203   	mov	r1,	#BYTE2 OFFSET _AccGyro_PWRMGMT1REG_Contents
00:0178 5E-F0                    1204   	push	er0
00:017A 01 E0                    1205   	mov	er0,	#1 
00:017C 5E-F0                    1206   	push	er0
00:017E 00'02                    1207   	mov	r2,	#BYTE1 OFFSET _AccGyro_PWRMGMT1REG
00:0180 00'03                    1208   	mov	r3,	#BYTE2 OFFSET _AccGyro_PWRMGMT1REG
00:0182 10-90 00-00'             1209   	l	r0,	NEAR _MPU6050Address
00:0186 01-F0'00-00'             1210   	bl	_i2c_startSend
00:018A 08 E1                    1211   	add	sp,	#8 
                                 1212   
                                 1213   ;;	while(_flgI2CFin != 1){												//Wait for I2C commands to finish transfer
                                 1214   CLINEA 0000H 0000H 0414H 0001H 0015H
00:018C 02 CE                    1215   	bal	_$L109
                                 1216   
                                 1217   ;;	while(_flgI2CFin != 1){												//Wait for I2C commands to finish transfer
                                 1218   CLINEA 0000H 0000H 0414H 0002H 004EH
00:018E                          1219   _$L71 :
                                 1220   CBLOCK 207 3 1044
                                 1221   
                                 1222   ;;		main_clrWDT();
                                 1223   CLINEA 0000H 0001H 0415H 0003H 0010H
00:018E 01-F0'00-00'             1224   	bl	_main_clrWDT
                                 1225   CBLOCKEND 207 3 1046
                                 1226   
                                 1227   ;;	while(_flgI2CFin != 1){												//Wait for I2C commands to finish transfer
                                 1228   CLINEA 0000H 0000H 0414H 0001H 0015H
00:0192                          1229   _$L109 :
00:0192 10-90 00-00'             1230   	l	r0,	NEAR __flgI2CFin
00:0196 01 70                    1231   	cmp	r0,	#01h
00:0198 FA C8                    1232   	bne	_$L71
                                 1233   
                                 1234   ;;	_flgI2CFin = 0;														//reset I2C completed flag
                                 1235   CLINEA 0000H 0001H 0418H 0002H 0038H
00:019A 00 00                    1236   	mov	r0,	#00h
00:019C 11-90 00-00'             1237   	st	r0,	NEAR __flgI2CFin
                                 1238   
                                 1239   ;;	i2c_stop();															//Make sure I2C is not currently running
                                 1240   CLINEA 0000H 0001H 0419H 0002H 0043H
00:01A0 01-F0'00-00'             1241   	bl	_i2c_stop
                                 1242   
                                 1243   ;;	i2c_startSend( MPU6050Address, &AccGyro_AccelConfig, 1, &AccGyro_AccelConfig_Contents, 1, (cbfI2c)_funcI2CFin);		//Begin I2C Receive Command
                                 1244   CLINEA 0000H 0001H 041AH 0002H 008DH
00:01A4 00'00                    1245   	mov	r0,	#BYTE1 OFFSET __funcI2CFin
00:01A6 00'01                    1246   	mov	r1,	#BYTE2 OFFSET __funcI2CFin
00:01A8 5E-F0                    1247   	push	er0
00:01AA 01 E0                    1248   	mov	er0,	#1 
00:01AC 5E-F0                    1249   	push	er0
00:01AE 00'00                    1250   	mov	r0,	#BYTE1 OFFSET _AccGyro_AccelConfig_Contents
00:01B0 00'01                    1251   	mov	r1,	#BYTE2 OFFSET _AccGyro_AccelConfig_Contents
00:01B2 5E-F0                    1252   	push	er0
00:01B4 01 E0                    1253   	mov	er0,	#1 
00:01B6 5E-F0                    1254   	push	er0
00:01B8 00'02                    1255   	mov	r2,	#BYTE1 OFFSET _AccGyro_AccelConfig
00:01BA 00'03                    1256   	mov	r3,	#BYTE2 OFFSET _AccGyro_AccelConfig
00:01BC 10-90 00-00'             1257   	l	r0,	NEAR _MPU6050Address
00:01C0 01-F0'00-00'             1258   	bl	_i2c_startSend
00:01C4 08 E1                    1259   	add	sp,	#8 
                                 1260   
                                 1261   ;;	while(_flgI2CFin != 1){												//Wait for I2C commands to finish transfer
                                 1262   CLINEA 0000H 0000H 041BH 0001H 0015H
00:01C6 02 CE                    1263   	bal	_$L110
                                 1264   
                                 1265   ;;	while(_flgI2CFin != 1){												//Wait for I2C commands to finish transfer
                                 1266   CLINEA 0000H 0000H 041BH 0002H 004EH
00:01C8                          1267   _$L75 :
                                 1268   CBLOCK 207 4 1051
                                 1269   
                                 1270   ;;		main_clrWDT();
                                 1271   CLINEA 0000H 0001H 041CH 0003H 0010H
00:01C8 01-F0'00-00'             1272   	bl	_main_clrWDT
                                 1273   CBLOCKEND 207 4 1053
                                 1274   
                                 1275   ;;	while(_flgI2CFin != 1){												//Wait for I2C commands to finish transfer
                                 1276   CLINEA 0000H 0000H 041BH 0001H 0015H
00:01CC                          1277   _$L110 :
00:01CC 10-90 00-00'             1278   	l	r0,	NEAR __flgI2CFin
00:01D0 01 70                    1279   	cmp	r0,	#01h
00:01D2 FA C8                    1280   	bne	_$L75
                                 1281   
                                 1282   ;;	_flgI2CFin = 0;														//reset I2C completed flag
                                 1283   CLINEA 0000H 0001H 041FH 0002H 0038H
00:01D4 00 00                    1284   	mov	r0,	#00h
00:01D6 11-90 00-00'             1285   	st	r0,	NEAR __flgI2CFin
                                 1286   
                                 1287   ;;	i2c_stop();															//Make sure I2C is not currently running
                                 1288   CLINEA 0000H 0001H 0420H 0002H 0043H
00:01DA 01-F0'00-00'             1289   	bl	_i2c_stop
                                 1290   
                                 1291   ;;	i2c_startSend( MPU6050Address, &AccGyro_GyroConfig, 1, &AccGyro_GyroConfig_Contents, 1, (cbfI2c)_funcI2CFin);		//Begin I2C Receive Command
                                 1292   CLINEA 0000H 0001H 0421H 0002H 008BH
00:01DE 00'00                    1293   	mov	r0,	#BYTE1 OFFSET __funcI2CFin
00:01E0 00'01                    1294   	mov	r1,	#BYTE2 OFFSET __funcI2CFin
00:01E2 5E-F0                    1295   	push	er0
00:01E4 01 E0                    1296   	mov	er0,	#1 
00:01E6 5E-F0                    1297   	push	er0
00:01E8 00'00                    1298   	mov	r0,	#BYTE1 OFFSET _AccGyro_GyroConfig_Contents
00:01EA 00'01                    1299   	mov	r1,	#BYTE2 OFFSET _AccGyro_GyroConfig_Contents
00:01EC 5E-F0                    1300   	push	er0
00:01EE 01 E0                    1301   	mov	er0,	#1 
00:01F0 5E-F0                    1302   	push	er0
00:01F2 00'02                    1303   	mov	r2,	#BYTE1 OFFSET _AccGyro_GyroConfig
00:01F4 00'03                    1304   	mov	r3,	#BYTE2 OFFSET _AccGyro_GyroConfig
00:01F6 10-90 00-00'             1305   	l	r0,	NEAR _MPU6050Address
00:01FA 01-F0'00-00'             1306   	bl	_i2c_startSend
00:01FE 08 E1                    1307   	add	sp,	#8 
                                 1308   
                                 1309   ;;	while(_flgI2CFin != 1){												//Wait for I2C commands to finish transfer
                                 1310   CLINEA 0000H 0000H 0422H 0001H 0015H
00:0200 02 CE                    1311   	bal	_$L111
                                 1312   
                                 1313   ;;	while(_flgI2CFin != 1){												//Wait for I2C commands to finish transfer
                                 1314   CLINEA 0000H 0000H 0422H 0002H 004EH
00:0202                          1315   _$L79 :
                                 1316   CBLOCK 207 5 1058
                                 1317   
                                 1318   ;;		main_clrWDT();
                                 1319   CLINEA 0000H 0001H 0423H 0003H 0010H
00:0202 01-F0'00-00'             1320   	bl	_main_clrWDT
                                 1321   CBLOCKEND 207 5 1060
                                 1322   
                                 1323   ;;	while(_flgI2CFin != 1){												//Wait for I2C commands to finish transfer
                                 1324   CLINEA 0000H 0000H 0422H 0001H 0015H
00:0206                          1325   _$L111 :
00:0206 10-90 00-00'             1326   	l	r0,	NEAR __flgI2CFin
00:020A 01 70                    1327   	cmp	r0,	#01h
00:020C FA C8                    1328   	bne	_$L79
                                 1329   
                                 1330   ;;	_flgI2CFin = 0;														//reset I2C completed flag
                                 1331   CLINEA 0000H 0001H 0427H 0002H 0038H
00:020E 00 00                    1332   	mov	r0,	#00h
00:0210 11-90 00-00'             1333   	st	r0,	NEAR __flgI2CFin
                                 1334   
                                 1335   ;;	i2c_stop();															//Make sure I2C is not currently running
                                 1336   CLINEA 0000H 0001H 0428H 0002H 0043H
00:0214 01-F0'00-00'             1337   	bl	_i2c_stop
                                 1338   
                                 1339   ;;	i2c_startSend( MPU6050Address, &AccGyro_GyroAccel_SMPRTDIV, 1, &AccGyro_GyroAccelLPF_SMPRTDIVContents, 1, (cbfI2c)_funcI2CFin);		//Begin I2C Receive Command
                                 1340   CLINEA 0000H 0001H 0429H 0002H 009DH
00:0218 00'00                    1341   	mov	r0,	#BYTE1 OFFSET __funcI2CFin
00:021A 00'01                    1342   	mov	r1,	#BYTE2 OFFSET __funcI2CFin
00:021C 5E-F0                    1343   	push	er0
00:021E 01 E0                    1344   	mov	er0,	#1 
00:0220 5E-F0                    1345   	push	er0
00:0222 00'00                    1346   	mov	r0,	#BYTE1 OFFSET _AccGyro_GyroAccelLPF_SMPRTDIVCo
00:0224 00'01                    1347   	mov	r1,	#BYTE2 OFFSET _AccGyro_GyroAccelLPF_SMPRTDIVCo
00:0226 5E-F0                    1348   	push	er0
00:0228 01 E0                    1349   	mov	er0,	#1 
00:022A 5E-F0                    1350   	push	er0
00:022C 00'02                    1351   	mov	r2,	#BYTE1 OFFSET _AccGyro_GyroAccel_SMPRTDIV
00:022E 00'03                    1352   	mov	r3,	#BYTE2 OFFSET _AccGyro_GyroAccel_SMPRTDIV
00:0230 10-90 00-00'             1353   	l	r0,	NEAR _MPU6050Address
00:0234 01-F0'00-00'             1354   	bl	_i2c_startSend
00:0238 08 E1                    1355   	add	sp,	#8 
                                 1356   
                                 1357   ;;	while(_flgI2CFin != 1){												//Wait for I2C commands to finish transfer
                                 1358   CLINEA 0000H 0000H 042AH 0001H 0015H
00:023A 02 CE                    1359   	bal	_$L112
                                 1360   
                                 1361   ;;	while(_flgI2CFin != 1){												//Wait for I2C commands to finish transfer
                                 1362   CLINEA 0000H 0000H 042AH 0002H 004EH
00:023C                          1363   _$L83 :
                                 1364   CBLOCK 207 6 1066
                                 1365   
                                 1366   ;;		main_clrWDT();
                                 1367   CLINEA 0000H 0001H 042BH 0003H 0010H
00:023C 01-F0'00-00'             1368   	bl	_main_clrWDT
                                 1369   CBLOCKEND 207 6 1068
                                 1370   
                                 1371   ;;	while(_flgI2CFin != 1){												//Wait for I2C commands to finish transfer
                                 1372   CLINEA 0000H 0000H 042AH 0001H 0015H
00:0240                          1373   _$L112 :
00:0240 10-90 00-00'             1374   	l	r0,	NEAR __flgI2CFin
00:0244 01 70                    1375   	cmp	r0,	#01h
00:0246 FA C8                    1376   	bne	_$L83
                                 1377   
                                 1378   ;;	_flgI2CFin = 0;														//reset I2C completed flag
                                 1379   CLINEA 0000H 0001H 042FH 0002H 0038H
00:0248 00 00                    1380   	mov	r0,	#00h
00:024A 11-90 00-00'             1381   	st	r0,	NEAR __flgI2CFin
                                 1382   
                                 1383   ;;	i2c_stop();															//Make sure I2C is not currently running
                                 1384   CLINEA 0000H 0001H 0430H 0002H 0043H
00:024E 01-F0'00-00'             1385   	bl	_i2c_stop
                                 1386   
                                 1387   ;;	i2c_startSend( MPU6050Address, &AccGyro_GyroAccelLPF, 1, &AccGyro_GyroAccelLPF_Contents, 1, (cbfI2c)_funcI2CFin);		//Begin I2C Receive Command
                                 1388   CLINEA 0000H 0001H 0431H 0002H 008FH
00:0252 00'00                    1389   	mov	r0,	#BYTE1 OFFSET __funcI2CFin
00:0254 00'01                    1390   	mov	r1,	#BYTE2 OFFSET __funcI2CFin
00:0256 5E-F0                    1391   	push	er0
00:0258 01 E0                    1392   	mov	er0,	#1 
00:025A 5E-F0                    1393   	push	er0
00:025C 00'00                    1394   	mov	r0,	#BYTE1 OFFSET _AccGyro_GyroAccelLPF_Contents
00:025E 00'01                    1395   	mov	r1,	#BYTE2 OFFSET _AccGyro_GyroAccelLPF_Contents
00:0260 5E-F0                    1396   	push	er0
00:0262 01 E0                    1397   	mov	er0,	#1 
00:0264 5E-F0                    1398   	push	er0
00:0266 00'02                    1399   	mov	r2,	#BYTE1 OFFSET _AccGyro_GyroAccelLPF
00:0268 00'03                    1400   	mov	r3,	#BYTE2 OFFSET _AccGyro_GyroAccelLPF
00:026A 10-90 00-00'             1401   	l	r0,	NEAR _MPU6050Address
00:026E 01-F0'00-00'             1402   	bl	_i2c_startSend
00:0272 08 E1                    1403   	add	sp,	#8 
                                 1404   
                                 1405   ;;	while(_flgI2CFin != 1){												//Wait for I2C commands to finish transfer
                                 1406   CLINEA 0000H 0000H 0432H 0001H 0015H
00:0274 02 CE                    1407   	bal	_$L113
                                 1408   
                                 1409   ;;	while(_flgI2CFin != 1){												//Wait for I2C commands to finish transfer
                                 1410   CLINEA 0000H 0000H 0432H 0002H 004EH
00:0276                          1411   _$L87 :
                                 1412   CBLOCK 207 7 1074
                                 1413   
                                 1414   ;;		main_clrWDT();
                                 1415   CLINEA 0000H 0001H 0433H 0003H 0010H
00:0276 01-F0'00-00'             1416   	bl	_main_clrWDT
                                 1417   CBLOCKEND 207 7 1076
                                 1418   
                                 1419   ;;	while(_flgI2CFin != 1){												//Wait for I2C commands to finish transfer
                                 1420   CLINEA 0000H 0000H 0432H 0001H 0015H
00:027A                          1421   _$L113 :
00:027A 10-90 00-00'             1422   	l	r0,	NEAR __flgI2CFin
00:027E 01 70                    1423   	cmp	r0,	#01h
00:0280 FA C8                    1424   	bne	_$L87
                                 1425   
                                 1426   ;;	_flgI2CFin = 0;														//reset I2C completed flag
                                 1427   CLINEA 0000H 0001H 0437H 0002H 0038H
00:0282 00 00                    1428   	mov	r0,	#00h
00:0284 11-90 00-00'             1429   	st	r0,	NEAR __flgI2CFin
                                 1430   
                                 1431   ;;	i2c_stop();															//Make sure I2C is not currently running
                                 1432   CLINEA 0000H 0001H 0438H 0002H 0043H
00:0288 01-F0'00-00'             1433   	bl	_i2c_stop
                                 1434   
                                 1435   ;;	i2c_startSend( MPU6050Address, &AccGyro_INTENABLEReg, 1, &AccGyro_INTENABLEReg_contents, 1, (cbfI2c)_funcI2CFin);		//Begin I2C Receive Command
                                 1436   CLINEA 0000H 0001H 0439H 0002H 008FH
00:028C 00'00                    1437   	mov	r0,	#BYTE1 OFFSET __funcI2CFin
00:028E 00'01                    1438   	mov	r1,	#BYTE2 OFFSET __funcI2CFin
00:0290 5E-F0                    1439   	push	er0
00:0292 01 E0                    1440   	mov	er0,	#1 
00:0294 5E-F0                    1441   	push	er0
00:0296 00'00                    1442   	mov	r0,	#BYTE1 OFFSET _AccGyro_INTENABLEReg_contents
00:0298 00'01                    1443   	mov	r1,	#BYTE2 OFFSET _AccGyro_INTENABLEReg_contents
00:029A 5E-F0                    1444   	push	er0
00:029C 01 E0                    1445   	mov	er0,	#1 
00:029E 5E-F0                    1446   	push	er0
00:02A0 00'02                    1447   	mov	r2,	#BYTE1 OFFSET _AccGyro_INTENABLEReg
00:02A2 00'03                    1448   	mov	r3,	#BYTE2 OFFSET _AccGyro_INTENABLEReg
00:02A4 10-90 00-00'             1449   	l	r0,	NEAR _MPU6050Address
00:02A8 01-F0'00-00'             1450   	bl	_i2c_startSend
00:02AC 08 E1                    1451   	add	sp,	#8 
                                 1452   
                                 1453   ;;	while(_flgI2CFin != 1){												//Wait for I2C commands to finish transfer
                                 1454   CLINEA 0000H 0000H 043AH 0001H 0015H
00:02AE 02 CE                    1455   	bal	_$L114
                                 1456   
                                 1457   ;;	while(_flgI2CFin != 1){												//Wait for I2C commands to finish transfer
                                 1458   CLINEA 0000H 0000H 043AH 0002H 004EH
00:02B0                          1459   _$L91 :
                                 1460   CBLOCK 207 8 1082
                                 1461   
                                 1462   ;;		main_clrWDT();
                                 1463   CLINEA 0000H 0001H 043BH 0003H 0010H
00:02B0 01-F0'00-00'             1464   	bl	_main_clrWDT
                                 1465   CBLOCKEND 207 8 1084
                                 1466   
                                 1467   ;;	while(_flgI2CFin != 1){												//Wait for I2C commands to finish transfer
                                 1468   CLINEA 0000H 0000H 043AH 0001H 0015H
00:02B4                          1469   _$L114 :
00:02B4 10-90 00-00'             1470   	l	r0,	NEAR __flgI2CFin
00:02B8 01 70                    1471   	cmp	r0,	#01h
00:02BA FA C8                    1472   	bne	_$L91
                                 1473   
                                 1474   ;;	_flgI2CFin = 0;														//reset I2C completed flag
                                 1475   CLINEA 0000H 0001H 043FH 0002H 0038H
00:02BC 00 00                    1476   	mov	r0,	#00h
00:02BE 11-90 00-00'             1477   	st	r0,	NEAR __flgI2CFin
                                 1478   
                                 1479   ;;	i2c_stop();															//Make sure I2C is not currently running
                                 1480   CLINEA 0000H 0001H 0440H 0002H 0043H
00:02C2 01-F0'00-00'             1481   	bl	_i2c_stop
                                 1482   
                                 1483   ;;	i2c_startSend( HMC5883Address, &Mag_ConfigA, 1, &Mag_ConfigA_Contents, 1, (cbfI2c)_funcI2CFin);		//Begin I2C Receive Command
                                 1484   CLINEA 0000H 0001H 0441H 0002H 007DH
00:02C6 00'00                    1485   	mov	r0,	#BYTE1 OFFSET __funcI2CFin
00:02C8 00'01                    1486   	mov	r1,	#BYTE2 OFFSET __funcI2CFin
00:02CA 5E-F0                    1487   	push	er0
00:02CC 01 E0                    1488   	mov	er0,	#1 
00:02CE 5E-F0                    1489   	push	er0
00:02D0 00'00                    1490   	mov	r0,	#BYTE1 OFFSET _Mag_ConfigA_Contents
00:02D2 00'01                    1491   	mov	r1,	#BYTE2 OFFSET _Mag_ConfigA_Contents
00:02D4 5E-F0                    1492   	push	er0
00:02D6 01 E0                    1493   	mov	er0,	#1 
00:02D8 5E-F0                    1494   	push	er0
00:02DA 00'02                    1495   	mov	r2,	#BYTE1 OFFSET _Mag_ConfigA
00:02DC 00'03                    1496   	mov	r3,	#BYTE2 OFFSET _Mag_ConfigA
00:02DE 10-90 00-00'             1497   	l	r0,	NEAR _HMC5883Address
00:02E2 01-F0'00-00'             1498   	bl	_i2c_startSend
00:02E6 08 E1                    1499   	add	sp,	#8 
                                 1500   
                                 1501   ;;	while(_flgI2CFin != 1){												//Wait for I2C commands to finish transfer
                                 1502   CLINEA 0000H 0000H 0442H 0001H 0015H
00:02E8 02 CE                    1503   	bal	_$L115
                                 1504   
                                 1505   ;;	while(_flgI2CFin != 1){												//Wait for I2C commands to finish transfer
                                 1506   CLINEA 0000H 0000H 0442H 0002H 004EH
00:02EA                          1507   _$L95 :
                                 1508   CBLOCK 207 9 1090
                                 1509   
                                 1510   ;;		main_clrWDT();
                                 1511   CLINEA 0000H 0001H 0443H 0003H 0010H
00:02EA 01-F0'00-00'             1512   	bl	_main_clrWDT
                                 1513   CBLOCKEND 207 9 1092
                                 1514   
                                 1515   ;;	while(_flgI2CFin != 1){												//Wait for I2C commands to finish transfer
                                 1516   CLINEA 0000H 0000H 0442H 0001H 0015H
00:02EE                          1517   _$L115 :
00:02EE 10-90 00-00'             1518   	l	r0,	NEAR __flgI2CFin
00:02F2 01 70                    1519   	cmp	r0,	#01h
00:02F4 FA C8                    1520   	bne	_$L95
                                 1521   
                                 1522   ;;	_flgI2CFin = 0;														//reset I2C completed flag
                                 1523   CLINEA 0000H 0001H 0446H 0002H 0038H
00:02F6 00 00                    1524   	mov	r0,	#00h
00:02F8 11-90 00-00'             1525   	st	r0,	NEAR __flgI2CFin
                                 1526   
                                 1527   ;;	i2c_stop();															//Make sure I2C is not currently running
                                 1528   CLINEA 0000H 0001H 0447H 0002H 0043H
00:02FC 01-F0'00-00'             1529   	bl	_i2c_stop
                                 1530   
                                 1531   ;;	i2c_startSend( HMC5883Address, &Mag_ConfigB, 1, &Mag_ConfigB_Contents, 1, (cbfI2c)_funcI2CFin);		//Begin I2C Receive Command
                                 1532   CLINEA 0000H 0001H 0448H 0002H 007DH
00:0300 00'00                    1533   	mov	r0,	#BYTE1 OFFSET __funcI2CFin
00:0302 00'01                    1534   	mov	r1,	#BYTE2 OFFSET __funcI2CFin
00:0304 5E-F0                    1535   	push	er0
00:0306 01 E0                    1536   	mov	er0,	#1 
00:0308 5E-F0                    1537   	push	er0
00:030A 00'00                    1538   	mov	r0,	#BYTE1 OFFSET _Mag_ConfigB_Contents
00:030C 00'01                    1539   	mov	r1,	#BYTE2 OFFSET _Mag_ConfigB_Contents
00:030E 5E-F0                    1540   	push	er0
00:0310 01 E0                    1541   	mov	er0,	#1 
00:0312 5E-F0                    1542   	push	er0
00:0314 00'02                    1543   	mov	r2,	#BYTE1 OFFSET _Mag_ConfigB
00:0316 00'03                    1544   	mov	r3,	#BYTE2 OFFSET _Mag_ConfigB
00:0318 10-90 00-00'             1545   	l	r0,	NEAR _HMC5883Address
00:031C 01-F0'00-00'             1546   	bl	_i2c_startSend
00:0320 08 E1                    1547   	add	sp,	#8 
                                 1548   
                                 1549   ;;	while(_flgI2CFin != 1){												//Wait for I2C commands to finish transfer
                                 1550   CLINEA 0000H 0000H 0449H 0001H 0015H
00:0322 02 CE                    1551   	bal	_$L116
                                 1552   
                                 1553   ;;	while(_flgI2CFin != 1){												//Wait for I2C commands to finish transfer
                                 1554   CLINEA 0000H 0000H 0449H 0002H 004EH
00:0324                          1555   _$L99 :
                                 1556   CBLOCK 207 10 1097
                                 1557   
                                 1558   ;;		main_clrWDT();
                                 1559   CLINEA 0000H 0001H 044AH 0003H 0010H
00:0324 01-F0'00-00'             1560   	bl	_main_clrWDT
                                 1561   CBLOCKEND 207 10 1099
                                 1562   
                                 1563   ;;	while(_flgI2CFin != 1){												//Wait for I2C commands to finish transfer
                                 1564   CLINEA 0000H 0000H 0449H 0001H 0015H
00:0328                          1565   _$L116 :
00:0328 10-90 00-00'             1566   	l	r0,	NEAR __flgI2CFin
00:032C 01 70                    1567   	cmp	r0,	#01h
00:032E FA C8                    1568   	bne	_$L99
                                 1569   
                                 1570   ;;	_flgI2CFin = 0;														//reset I2C completed flag
                                 1571   CLINEA 0000H 0001H 044DH 0002H 0038H
00:0330 00 00                    1572   	mov	r0,	#00h
00:0332 11-90 00-00'             1573   	st	r0,	NEAR __flgI2CFin
                                 1574   
                                 1575   ;;	i2c_stop();															//Make sure I2C is not currently running
                                 1576   CLINEA 0000H 0001H 044EH 0002H 0043H
00:0336 01-F0'00-00'             1577   	bl	_i2c_stop
                                 1578   
                                 1579   ;;	i2c_startSend( HMC5883Address, &Mag_ModeReg, 1, &Mag_ModeReg_Contents, 1, (cbfI2c)_funcI2CFin);		//Begin I2C Receive Command
                                 1580   CLINEA 0000H 0001H 044FH 0002H 007DH
00:033A 00'00                    1581   	mov	r0,	#BYTE1 OFFSET __funcI2CFin
00:033C 00'01                    1582   	mov	r1,	#BYTE2 OFFSET __funcI2CFin
00:033E 5E-F0                    1583   	push	er0
00:0340 01 E0                    1584   	mov	er0,	#1 
00:0342 5E-F0                    1585   	push	er0
00:0344 00'00                    1586   	mov	r0,	#BYTE1 OFFSET _Mag_ModeReg_Contents
00:0346 00'01                    1587   	mov	r1,	#BYTE2 OFFSET _Mag_ModeReg_Contents
00:0348 5E-F0                    1588   	push	er0
00:034A 01 E0                    1589   	mov	er0,	#1 
00:034C 5E-F0                    1590   	push	er0
00:034E 00'02                    1591   	mov	r2,	#BYTE1 OFFSET _Mag_ModeReg
00:0350 00'03                    1592   	mov	r3,	#BYTE2 OFFSET _Mag_ModeReg
00:0352 10-90 00-00'             1593   	l	r0,	NEAR _HMC5883Address
00:0356 01-F0'00-00'             1594   	bl	_i2c_startSend
00:035A 08 E1                    1595   	add	sp,	#8 
                                 1596   
                                 1597   ;;	while(_flgI2CFin != 1){												//Wait for I2C commands to finish transfer
                                 1598   CLINEA 0000H 0000H 0450H 0001H 0015H
00:035C 02 CE                    1599   	bal	_$L117
                                 1600   
                                 1601   ;;	while(_flgI2CFin != 1){												//Wait for I2C commands to finish transfer
                                 1602   CLINEA 0000H 0000H 0450H 0002H 004EH
00:035E                          1603   _$L103 :
                                 1604   CBLOCK 207 11 1104
                                 1605   
                                 1606   ;;		main_clrWDT();
                                 1607   CLINEA 0000H 0001H 0451H 0003H 0010H
00:035E 01-F0'00-00'             1608   	bl	_main_clrWDT
                                 1609   CBLOCKEND 207 11 1106
                                 1610   
                                 1611   ;;	while(_flgI2CFin != 1){												//Wait for I2C commands to finish transfer
                                 1612   CLINEA 0000H 0000H 0450H 0001H 0015H
00:0362                          1613   _$L117 :
00:0362 10-90 00-00'             1614   	l	r0,	NEAR __flgI2CFin
00:0366 01 70                    1615   	cmp	r0,	#01h
00:0368 FA C8                    1616   	bne	_$L103
                                 1617   
                                 1618   ;;	EPB3 = 0;
                                 1619   CLINEA 0000H 0001H 0455H 0002H 000AH
00:036A F2-A0 11-F0              1620   	rb	0f011h.7
                                 1621   
                                 1622   ;;	_flgI2CFin = 0;																	//reset I2C completed Flag
                                 1623   CLINEA 0000H 0001H 0458H 0002H 003BH
00:036E 00 00                    1624   	mov	r0,	#00h
00:0370 11-90 00-00'             1625   	st	r0,	NEAR __flgI2CFin
                                 1626   
                                 1627   ;;	i2c_stop();																		//Make sure I2C is not currently running
                                 1628   CLINEA 0000H 0001H 0459H 0002H 0046H
00:0374 01-F0'00-00'             1629   	bl	_i2c_stop
                                 1630   
                                 1631   ;;	I20MD = 1;		//Switch to I2C Fast Operation (400kbps)
                                 1632   CLINEA 0000H 0001H 045AH 0002H 0035H
00:0378 90-A0 A4-F2              1633   	sb	0f2a4h.1
                                 1634   
                                 1635   ;;	i2c_startReceive(MPU6050Address, &AccGyro_ReadData, 1, &AccGyro_Data, 14, (cbfI2c)_funcI2CFin);	//Begin I2C Receive Command
                                 1636   CLINEA 0000H 0001H 045BH 0002H 007CH
00:037C 00'00                    1637   	mov	r0,	#BYTE1 OFFSET __funcI2CFin
00:037E 00'01                    1638   	mov	r1,	#BYTE2 OFFSET __funcI2CFin
00:0380 5E-F0                    1639   	push	er0
00:0382 0E E0                    1640   	mov	er0,	#14
00:0384 5E-F0                    1641   	push	er0
00:0386 00'00                    1642   	mov	r0,	#BYTE1 OFFSET _AccGyro_Data
00:0388 00'01                    1643   	mov	r1,	#BYTE2 OFFSET _AccGyro_Data
00:038A 5E-F0                    1644   	push	er0
00:038C 01 E0                    1645   	mov	er0,	#1 
00:038E 5E-F0                    1646   	push	er0
00:0390 00'02                    1647   	mov	r2,	#BYTE1 OFFSET _AccGyro_ReadData
00:0392 00'03                    1648   	mov	r3,	#BYTE2 OFFSET _AccGyro_ReadData
00:0394 10-90 00-00'             1649   	l	r0,	NEAR _MPU6050Address
00:0398 01-F0'00-00'             1650   	bl	_i2c_startReceive
00:039C 08 E1                    1651   	add	sp,	#8 
                                 1652   
                                 1653   ;;	while(_flgI2CFin != 1){															//Wait for I2C commands to finish transfer
                                 1654   CLINEA 0000H 0000H 045CH 0001H 0015H
00:039E 02 CE                    1655   	bal	_$L118
                                 1656   
                                 1657   ;;	while(_flgI2CFin != 1){															//Wait for I2C commands to finish transfer
                                 1658   CLINEA 0000H 0000H 045CH 0002H 0051H
00:03A0                          1659   _$L107 :
                                 1660   CBLOCK 207 12 1116
                                 1661   
                                 1662   ;;		main_clrWDT();
                                 1663   CLINEA 0000H 0001H 045DH 0003H 0010H
00:03A0 01-F0'00-00'             1664   	bl	_main_clrWDT
                                 1665   CBLOCKEND 207 12 1122
                                 1666   
                                 1667   ;;	while(_flgI2CFin != 1){															//Wait for I2C commands to finish transfer
                                 1668   CLINEA 0000H 0000H 045CH 0001H 0015H
00:03A4                          1669   _$L118 :
00:03A4 10-90 00-00'             1670   	l	r0,	NEAR __flgI2CFin
00:03A8 01 70                    1671   	cmp	r0,	#01h
00:03AA FA C8                    1672   	bne	_$L107
                                 1673   
                                 1674   ;;	PD1C1 = 1;
                                 1675   CLINEA 0000H 0001H 0466H 0002H 000BH
00:03AC 90-A0 6B-F2              1676   	sb	0f26bh.1
                                 1677   
                                 1678   ;;	PD1C0 = 1;
                                 1679   CLINEA 0000H 0001H 0467H 0002H 000BH
00:03B0 90-A0 6A-F2              1680   	sb	0f26ah.1
                                 1681   
                                 1682   ;;	PC6DIR = 1;
                                 1683   CLINEA 0000H 0001H 046AH 0002H 000CH
00:03B4 E0-A0 61-F2              1684   	sb	0f261h.6
                                 1685   
                                 1686   ;;	PC6C0 = 1;
                                 1687   CLINEA 0000H 0001H 046BH 0002H 000BH
00:03B8 E0-A0 62-F2              1688   	sb	0f262h.6
                                 1689   
                                 1690   ;;	PC6C1 = 1;
                                 1691   CLINEA 0000H 0001H 046CH 0002H 000BH
00:03BC E0-A0 63-F2              1692   	sb	0f263h.6
                                 1693   
                                 1694   ;;	PC6MD0 = 0;
                                 1695   CLINEA 0000H 0001H 046DH 0002H 000CH
00:03C0 E2-A0 64-F2              1696   	rb	0f264h.6
                                 1697   
                                 1698   ;;	PC6MD1 = 0;
                                 1699   CLINEA 0000H 0001H 046EH 0002H 000CH
00:03C4 E2-A0 65-F2              1700   	rb	0f265h.6
                                 1701   CBLOCKEND 207 2 1138
                                 1702   
                                 1703   ;;}//End Initialization
                                 1704   CLINEA 0000H 0001H 0472H 0001H 0015H
00:03C8 8E-F2                    1705   	pop	pc
                                 1706   CBLOCKEND 207 1 1138
                                 1707   CFUNCTIONEND 207
                                 1708   
                                 1709   
  --------------------------     1710   	rseg $$Get_RangeData$main
                                 1711   CFUNCTION 219
                                 1712   
00:0000                          1713   _Get_RangeData	:
                                 1714   CBLOCK 219 1 1144
                                 1715   
                                 1716   ;;void Get_RangeData(void){
                                 1717   CLINEA 0000H 0001H 0478H 0001H 0019H
00:0000 CE-F8                    1718   	push	lr
                                 1719   CBLOCK 219 2 1144
                                 1720   CRET 0000H
                                 1721   
                                 1722   ;;	_flgI2CFin = 0;														//reset I2C completed flag
                                 1723   CLINEA 0000H 0001H 047AH 0002H 0038H
00:0002 00 00                    1724   	mov	r0,	#00h
00:0004 11-90 00-00'             1725   	st	r0,	NEAR __flgI2CFin
                                 1726   
                                 1727   ;;	i2c_stop();															//Make sure I2C is not currently running
                                 1728   CLINEA 0000H 0001H 047BH 0002H 0043H
00:0008 01-F0'00-00'             1729   	bl	_i2c_stop
                                 1730   
                                 1731   ;;	I20MD = 0;		//Switch to I2C Standard Operation (100kbps)
                                 1732   CLINEA 0000H 0001H 047CH 0002H 0039H
00:000C 92-A0 A4-F2              1733   	rb	0f2a4h.1
                                 1734   
                                 1735   ;;	i2c_startSend( Range_Address, &Range_TakeRangeReading, 1, &AccGyro_PWRMGMT1REG_Contents, 0, (cbfI2c)_funcI2CFin);		//Begin I2C Receive Command
                                 1736   CLINEA 0000H 0001H 047DH 0002H 008FH
00:0010 00'00                    1737   	mov	r0,	#BYTE1 OFFSET __funcI2CFin
00:0012 00'01                    1738   	mov	r1,	#BYTE2 OFFSET __funcI2CFin
00:0014 5E-F0                    1739   	push	er0
00:0016 00 E0                    1740   	mov	er0,	#0 
00:0018 5E-F0                    1741   	push	er0
00:001A 00'00                    1742   	mov	r0,	#BYTE1 OFFSET _AccGyro_PWRMGMT1REG_Contents
00:001C 00'01                    1743   	mov	r1,	#BYTE2 OFFSET _AccGyro_PWRMGMT1REG_Contents
00:001E 5E-F0                    1744   	push	er0
00:0020 01 E0                    1745   	mov	er0,	#1 
00:0022 5E-F0                    1746   	push	er0
00:0024 00'02                    1747   	mov	r2,	#BYTE1 OFFSET _Range_TakeRangeReading
00:0026 00'03                    1748   	mov	r3,	#BYTE2 OFFSET _Range_TakeRangeReading
00:0028 10-90 00-00'             1749   	l	r0,	NEAR _Range_Address
00:002C 01-F0'00-00'             1750   	bl	_i2c_startSend
00:0030 08 E1                    1751   	add	sp,	#8 
                                 1752   
                                 1753   ;;	while(_flgI2CFin != 1){												//Wait for I2C commands to finish transfer
                                 1754   CLINEA 0000H 0000H 047EH 0001H 0001H
00:0032 02 CE                    1755   	bal	_$L132
                                 1756   
                                 1757   ;;	while(_flgI2CFin != 1){												//Wait for I2C commands to finish transfer
                                 1758   CLINEA 0000H 0000H 047EH 0002H 004EH
00:0034                          1759   _$L122 :
                                 1760   CBLOCK 219 3 1150
                                 1761   
                                 1762   ;;		main_clrWDT();
                                 1763   CLINEA 0000H 0001H 047FH 0003H 0010H
00:0034 01-F0'00-00'             1764   	bl	_main_clrWDT
                                 1765   CBLOCKEND 219 3 1152
                                 1766   
                                 1767   ;;	while(_flgI2CFin != 1){												//Wait for I2C commands to finish transfer
                                 1768   CLINEA 0000H 0000H 047EH 0001H 0001H
00:0038                          1769   _$L132 :
00:0038 10-90 00-00'             1770   	l	r0,	NEAR __flgI2CFin
00:003C 01 70                    1771   	cmp	r0,	#01h
00:003E FA C8                    1772   	bne	_$L122
                                 1773   
                                 1774   ;;	}
                                 1775   CLINEA 0000H 0000H 0480H 0002H 0002H
00:0040                          1776   _$L121 :
                                 1777   
                                 1778   ;;	while(RANGE_STAT==1);
                                 1779   CLINEA 0000H 0000H 0481H 0000H 0000H
00:0040 E1-A0 60-F2              1780   	tb	0f260h.6
00:0044 FD C8                    1781   	bne	_$L121
                                 1782   
                                 1783   ;;	_flgI2CFin = 0;																	//reset I2C completed Flag
                                 1784   CLINEA 0000H 0001H 0484H 0002H 003BH
00:0046 00 00                    1785   	mov	r0,	#00h
00:0048 11-90 00-00'             1786   	st	r0,	NEAR __flgI2CFin
                                 1787   
                                 1788   ;;	i2c_stop();																		//Make sure I2C is not currently running
                                 1789   CLINEA 0000H 0001H 0485H 0002H 0046H
00:004C 01-F0'00-00'             1790   	bl	_i2c_stop
                                 1791   
                                 1792   ;;	i2c_startReceive(Range_Address, &Range_TakeRangeReading, 0, &Range_Output, 2, (cbfI2c)_funcI2CFin);	//Begin I2C Receive Command
                                 1793   CLINEA 0000H 0001H 0486H 0002H 0080H
00:0050 00'00                    1794   	mov	r0,	#BYTE1 OFFSET __funcI2CFin
00:0052 00'01                    1795   	mov	r1,	#BYTE2 OFFSET __funcI2CFin
00:0054 5E-F0                    1796   	push	er0
00:0056 02 E0                    1797   	mov	er0,	#2 
00:0058 5E-F0                    1798   	push	er0
00:005A 00'00                    1799   	mov	r0,	#BYTE1 OFFSET _Range_Output
00:005C 00'01                    1800   	mov	r1,	#BYTE2 OFFSET _Range_Output
00:005E 5E-F0                    1801   	push	er0
00:0060 00 E0                    1802   	mov	er0,	#0 
00:0062 5E-F0                    1803   	push	er0
00:0064 00'02                    1804   	mov	r2,	#BYTE1 OFFSET _Range_TakeRangeReading
00:0066 00'03                    1805   	mov	r3,	#BYTE2 OFFSET _Range_TakeRangeReading
00:0068 10-90 00-00'             1806   	l	r0,	NEAR _Range_Address
00:006C 01-F0'00-00'             1807   	bl	_i2c_startReceive
00:0070 08 E1                    1808   	add	sp,	#8 
                                 1809   
                                 1810   ;;	while(_flgI2CFin != 1){															//Wait for I2C commands to finish transfer
                                 1811   CLINEA 0000H 0000H 0487H 0001H 0001H
00:0072 02 CE                    1812   	bal	_$L133
                                 1813   
                                 1814   ;;	while(_flgI2CFin != 1){															//Wait for I2C commands to finish transfer
                                 1815   CLINEA 0000H 0000H 0487H 0002H 0051H
00:0074                          1816   _$L130 :
                                 1817   CBLOCK 219 4 1159
                                 1818   
                                 1819   ;;		main_clrWDT();
                                 1820   CLINEA 0000H 0001H 0488H 0003H 0010H
00:0074 01-F0'00-00'             1821   	bl	_main_clrWDT
                                 1822   CBLOCKEND 219 4 1161
                                 1823   
                                 1824   ;;	while(_flgI2CFin != 1){															//Wait for I2C commands to finish transfer
                                 1825   CLINEA 0000H 0000H 0487H 0001H 0001H
00:0078                          1826   _$L133 :
00:0078 10-90 00-00'             1827   	l	r0,	NEAR __flgI2CFin
00:007C 01 70                    1828   	cmp	r0,	#01h
00:007E FA C8                    1829   	bne	_$L130
                                 1830   
                                 1831   ;;	Range_out = (Range_Output[0]<<8)+(Range_Output[1]);
                                 1832   CLINEA 0000H 0001H 048BH 0002H 0034H
00:0080 10-90 00-00'             1833   	l	r0,	NEAR _Range_Output+01h
00:0084 00 01                    1834   	mov	r1,	#00h
00:0086 10-92 00-00'             1835   	l	r2,	NEAR _Range_Output
00:008A 20-83                    1836   	mov	r3,	r2
00:008C 00 02                    1837   	mov	r2,	#00h
00:008E 26-F0                    1838   	add	er0,	er2
00:0090 13-90 00-00'             1839   	st	er0,	NEAR _Range_out
                                 1840   
                                 1841   ;;	I20MD = 1;		//Switch Back to I2C Fast Operation (400kbps)
                                 1842   CLINEA 0000H 0001H 048CH 0002H 003AH
00:0094 90-A0 A4-F2              1843   	sb	0f2a4h.1
                                 1844   CBLOCKEND 219 2 1165
                                 1845   
                                 1846   ;;}
                                 1847   CLINEA 0000H 0001H 048DH 0001H 0001H
00:0098 8E-F2                    1848   	pop	pc
                                 1849   CBLOCKEND 219 1 1165
                                 1850   CFUNCTIONEND 219
                                 1851   
                                 1852   
  --------------------------     1853   	rseg $$Get_PingData$main
                                 1854   CFUNCTION 220
                                 1855   
00:0000                          1856   _Get_PingData	:
                                 1857   CBLOCK 220 1 1167
                                 1858   
                                 1859   ;;void Get_PingData(void){
                                 1860   CLINEA 0000H 0001H 048FH 0001H 0018H
00:0000 CE-F8                    1861   	push	lr
00:0002 6E-F4                    1862   	push	xr4
                                 1863   CBLOCK 220 2 1167
                                 1864   CRET 0004H
                                 1865   
                                 1866   ;;	PD1DIR = 0;		// PortD Bit0 set to Output Mode...
                                 1867   CLINEA 0000H 0001H 0492H 0002H 0031H
00:0004 92-A0 69-F2              1868   	rb	0f269h.1
                                 1869   
                                 1870   ;;	PingSensor = 1;
                                 1871   CLINEA 0000H 0001H 0493H 0002H 0010H
00:0008 90-A0 68-F2              1872   	sb	0f268h.1
                                 1873   
                                 1874   ;;	NOPus();
                                 1875   CLINEA 0000H 0001H 0494H 0002H 0009H
00:000C 01-F0'00-00'             1876   	bl	_NOPus
                                 1877   
                                 1878   ;;	PingSensor = 0;
                                 1879   CLINEA 0000H 0001H 0495H 0002H 0010H
00:0010 92-A0 68-F2              1880   	rb	0f268h.1
                                 1881   
                                 1882   ;;	PD1DIR = 1;		// PortD Bit0 set to Input Mode...
                                 1883   CLINEA 0000H 0001H 0498H 0002H 0030H
00:0014 90-A0 69-F2              1884   	sb	0f269h.1
                                 1885   
                                 1886   ;;	while(PingSensor == 0){
                                 1887   CLINEA 0000H 0001H 0499H 0002H 0018H
00:0018 02 CE                    1888   	bal	_$L135
00:001A                          1889   _$L137 :
                                 1890   CBLOCK 220 3 1177
                                 1891   
                                 1892   ;;		NOPus();
                                 1893   CLINEA 0000H 0001H 049AH 0003H 000AH
00:001A 01-F0'00-00'             1894   	bl	_NOPus
                                 1895   CBLOCKEND 220 3 1179
                                 1896   
                                 1897   ;;	}
                                 1898   CLINEA 0000H 0000H 049BH 0002H 0002H
00:001E                          1899   _$L135 :
                                 1900   
                                 1901   ;;	while(PingSensor == 0){
                                 1902   CLINEA 0000H 0000H 0499H 0000H 0000H
00:001E 91-A0 68-F2              1903   	tb	0f268h.1
00:0022 FB C9                    1904   	beq	_$L137
                                 1905   
                                 1906   ;;	while(PingSensor ==1){
                                 1907   CLINEA 0000H 0001H 049CH 0002H 0017H
00:0024 07 CE                    1908   	bal	_$L139
00:0026                          1909   _$L141 :
                                 1910   CBLOCK 220 4 1180
                                 1911   
                                 1912   ;;		NOPus();
                                 1913   CLINEA 0000H 0001H 049DH 0003H 000AH
00:0026 01-F0'00-00'             1914   	bl	_NOPus
                                 1915   
                                 1916   ;;		Ping_timer++;
                                 1917   CLINEA 0000H 0000H 049EH 0003H 000FH
00:002A 12-90 00-00'             1918   	l	er0,	NEAR _Ping_timer
00:002E 81 E0                    1919   	add	er0,	#1 
00:0030 13-90 00-00'             1920   	st	er0,	NEAR _Ping_timer
                                 1921   CBLOCKEND 220 4 1183
                                 1922   
                                 1923   ;;	}
                                 1924   CLINEA 0000H 0000H 049FH 0002H 0002H
00:0034                          1925   _$L139 :
                                 1926   
                                 1927   ;;	while(PingSensor ==1){
                                 1928   CLINEA 0000H 0000H 049CH 0000H 0000H
00:0034 91-A0 68-F2              1929   	tb	0f268h.1
00:0038 F6 C8                    1930   	bne	_$L141
                                 1931   
                                 1932   ;;	Ping_timer *= 11;	//Convert the ping timer response to us
                                 1933   CLINEA 0000H 0001H 04A0H 0002H 003AH
00:003A 12-90 00-00'             1934   	l	er0,	NEAR _Ping_timer
00:003E 05-F2                    1935   	mov	er2,	er0
00:0040 2B-91                    1936   	sllc	r1,	#02h
00:0042 2A-90                    1937   	sll	r0,	#02h
00:0044 26-F0                    1938   	add	er0,	er2
00:0046 06-F0                    1939   	add	er0,	er0
00:0048 26-F0                    1940   	add	er0,	er2
00:004A 13-90 00-00'             1941   	st	er0,	NEAR _Ping_timer
                                 1942   
                                 1943   ;;	Ping_out = (0.0162*Ping_timer) + 0.1359; //Convert us to distance based on Datasheet
                                 1944   CLINEA 0000H 0001H 04A1H 0002H 0055H
00:004E 00 E2                    1945   	mov	er2,	#0 
00:0050 6E-F0                    1946   	push	xr0
00:0052 FC E1                    1947   	add	sp,	#-4
00:0054 01-F0'00-00'             1948   	bl	__dildu8sw
00:0058 82 00                    1949   	mov	r0,	#082h
00:005A E2 01                    1950   	mov	r1,	#0e2h
00:005C C7 02                    1951   	mov	r2,	#0c7h
00:005E 98 03                    1952   	mov	r3,	#098h
00:0060 BB 04                    1953   	mov	r4,	#0bbh
00:0062 96 05                    1954   	mov	r5,	#096h
00:0064 90 06                    1955   	mov	r6,	#090h
00:0066 3F 07                    1956   	mov	r7,	#03fh
00:0068 7E-F0                    1957   	push	qr0
00:006A 01-F0'00-00'             1958   	bl	__dmulu8sw
00:006E 08 E1                    1959   	add	sp,	#8 
00:0070 13 00                    1960   	mov	r0,	#013h
00:0072 61 01                    1961   	mov	r1,	#061h
00:0074 C3 02                    1962   	mov	r2,	#0c3h
00:0076 D3 03                    1963   	mov	r3,	#0d3h
00:0078 2B 04                    1964   	mov	r4,	#02bh
00:007A 65 05                    1965   	mov	r5,	#065h
00:007C C1 06                    1966   	mov	r6,	#0c1h
00:007E 7E-F0                    1967   	push	qr0
00:0080 01-F0'00-00'             1968   	bl	__daddu8sw
00:0084 08 E1                    1969   	add	sp,	#8 
00:0086 01-F0'00-00'             1970   	bl	__dtofu8sw
00:008A 04 E1                    1971   	add	sp,	#4 
00:008C 2E-F0                    1972   	pop	xr0
00:008E 13-90 00-00'             1973   	st	er0,	NEAR _Ping_out
00:0092 13-92 00-00'             1974   	st	er2,	NEAR _Ping_out+02h
                                 1975   CBLOCKEND 220 2 1187
                                 1976   
                                 1977   ;;}
                                 1978   CLINEA 0000H 0001H 04A3H 0001H 0001H
00:0096 2E-F4                    1979   	pop	xr4
00:0098 8E-F2                    1980   	pop	pc
                                 1981   CBLOCKEND 220 1 1187
                                 1982   CFUNCTIONEND 220
                                 1983   
                                 1984   
  --------------------------     1985   	rseg $$Get_AccGyroData$main
                                 1986   CFUNCTION 221
                                 1987   
00:0000                          1988   _Get_AccGyroData	:
                                 1989   CBLOCK 221 1 1189
                                 1990   
                                 1991   ;;void Get_AccGyroData(void){
                                 1992   CLINEA 0000H 0001H 04A5H 0001H 001BH
00:0000 CE-F8                    1993   	push	lr
00:0002 5E-F4                    1994   	push	er4
                                 1995   CBLOCK 221 2 1189
                                 1996   CRET 0002H
                                 1997   
                                 1998   ;;	EPB3 = 0;		//Turn off Accel/Gyro Interrupt.  This can probably be removed...
                                 1999   CLINEA 0000H 0001H 04ACH 0002H 004DH
00:0004 F2-A0 11-F0              2000   	rb	0f011h.7
                                 2001   
                                 2002   ;;	_flgI2CFin = 0;																	//reset I2C completed Flag
                                 2003   CLINEA 0000H 0001H 04AEH 0002H 003BH
00:0008 00 00                    2004   	mov	r0,	#00h
00:000A 11-90 00-00'             2005   	st	r0,	NEAR __flgI2CFin
                                 2006   
                                 2007   ;;	i2c_stop();																		//Make sure I2C is not currently running
                                 2008   CLINEA 0000H 0001H 04AFH 0002H 0046H
00:000E 01-F0'00-00'             2009   	bl	_i2c_stop
                                 2010   
                                 2011   ;;	I20MD = 1;		//Switch to I2C Fast Operation (400kbps)
                                 2012   CLINEA 0000H 0001H 04B0H 0002H 0035H
00:0012 90-A0 A4-F2              2013   	sb	0f2a4h.1
                                 2014   
                                 2015   ;;	i2c_startReceive(MPU6050Address, &AccGyro_ReadData, 1, &AccGyro_Data, 14, (cbfI2c)_funcI2CFin);	//Begin I2C Receive Command
                                 2016   CLINEA 0000H 0001H 04B1H 0002H 007CH
00:0016 00'00                    2017   	mov	r0,	#BYTE1 OFFSET __funcI2CFin
00:0018 00'01                    2018   	mov	r1,	#BYTE2 OFFSET __funcI2CFin
00:001A 5E-F0                    2019   	push	er0
00:001C 0E E0                    2020   	mov	er0,	#14
00:001E 5E-F0                    2021   	push	er0
00:0020 00'00                    2022   	mov	r0,	#BYTE1 OFFSET _AccGyro_Data
00:0022 00'01                    2023   	mov	r1,	#BYTE2 OFFSET _AccGyro_Data
00:0024 5E-F0                    2024   	push	er0
00:0026 01 E0                    2025   	mov	er0,	#1 
00:0028 5E-F0                    2026   	push	er0
00:002A 00'02                    2027   	mov	r2,	#BYTE1 OFFSET _AccGyro_ReadData
00:002C 00'03                    2028   	mov	r3,	#BYTE2 OFFSET _AccGyro_ReadData
00:002E 10-90 00-00'             2029   	l	r0,	NEAR _MPU6050Address
00:0032 01-F0'00-00'             2030   	bl	_i2c_startReceive
00:0036 08 E1                    2031   	add	sp,	#8 
                                 2032   
                                 2033   ;;	while(_flgI2CFin != 1){															//Wait for I2C commands to finish transfer
                                 2034   CLINEA 0000H 0000H 04B2H 0001H 0001H
00:0038 02 CE                    2035   	bal	_$L150
                                 2036   
                                 2037   ;;	while(_flgI2CFin != 1){															//Wait for I2C commands to finish transfer
                                 2038   CLINEA 0000H 0000H 04B2H 0002H 0051H
00:003A                          2039   _$L146 :
                                 2040   CBLOCK 221 3 1202
                                 2041   
                                 2042   ;;		main_clrWDT();
                                 2043   CLINEA 0000H 0001H 04B3H 0003H 0010H
00:003A 01-F0'00-00'             2044   	bl	_main_clrWDT
                                 2045   CBLOCKEND 221 3 1204
                                 2046   
                                 2047   ;;	while(_flgI2CFin != 1){															//Wait for I2C commands to finish transfer
                                 2048   CLINEA 0000H 0000H 04B2H 0001H 0001H
00:003E                          2049   _$L150 :
00:003E 10-90 00-00'             2050   	l	r0,	NEAR __flgI2CFin
00:0042 01 70                    2051   	cmp	r0,	#01h
00:0044 FA C8                    2052   	bne	_$L146
                                 2053   
                                 2054   ;;	Accel_Xout[Accel_SavIndex] = (AccGyro_Data[0]<<8)+(AccGyro_Data[1]);
                                 2055   CLINEA 0000H 0001H 04B7H 0002H 0045H
00:0046 10-90 00-00'             2056   	l	r0,	NEAR _AccGyro_Data+01h
00:004A 00 01                    2057   	mov	r1,	#00h
00:004C 10-92 00-00'             2058   	l	r2,	NEAR _AccGyro_Data
00:0050 20-83                    2059   	mov	r3,	r2
00:0052 00 02                    2060   	mov	r2,	#00h
00:0054 26-F0                    2061   	add	er0,	er2
00:0056 10-82                    2062   	mov	r2,	r1
00:0058 2F-83                    2063   	extbw	er2
00:005A 30-82                    2064   	mov	r2,	r3
00:005C 6E-F0                    2065   	push	xr0
00:005E 01-F0'00-00'             2066   	bl	__fildu8sw
00:0062 2E-F0                    2067   	pop	xr0
00:0064 10-94 00-00'             2068   	l	r4,	NEAR _Accel_SavIndex
00:0068 00 05                    2069   	mov	r5,	#00h
00:006A 2B-95                    2070   	sllc	r5,	#02h
00:006C 2A-94                    2071   	sll	r4,	#02h
00:006E 49-A0 00-00'             2072   	st	er0,	NEAR _Accel_Xout[er4]
00:0072 49-A2 00-00'             2073   	st	er2,	NEAR _Accel_Xout+02h[er4]
                                 2074   
                                 2075   ;;	Accel_Yout[Accel_SavIndex] = (AccGyro_Data[2]<<8)+(AccGyro_Data[3]);
                                 2076   CLINEA 0000H 0001H 04B8H 0002H 0045H
00:0076 10-90 00-00'             2077   	l	r0,	NEAR _AccGyro_Data+02h
00:007A 00 01                    2078   	mov	r1,	#00h
00:007C 00-83                    2079   	mov	r3,	r0
00:007E 00 02                    2080   	mov	r2,	#00h
00:0080 10-90 00-00'             2081   	l	r0,	NEAR _AccGyro_Data+03h
00:0084 26-F0                    2082   	add	er0,	er2
00:0086 10-82                    2083   	mov	r2,	r1
00:0088 2F-83                    2084   	extbw	er2
00:008A 30-82                    2085   	mov	r2,	r3
00:008C 6E-F0                    2086   	push	xr0
00:008E 01-F0'00-00'             2087   	bl	__fildu8sw
00:0092 2E-F0                    2088   	pop	xr0
00:0094 49-A0 00-00'             2089   	st	er0,	NEAR _Accel_Yout[er4]
00:0098 49-A2 00-00'             2090   	st	er2,	NEAR _Accel_Yout+02h[er4]
                                 2091   
                                 2092   ;;	Accel_Zout[Accel_SavIndex] = (AccGyro_Data[4]<<8)+(AccGyro_Data[5]);
                                 2093   CLINEA 0000H 0001H 04B9H 0002H 0045H
00:009C 10-90 00-00'             2094   	l	r0,	NEAR _AccGyro_Data+04h
00:00A0 00 01                    2095   	mov	r1,	#00h
00:00A2 00-83                    2096   	mov	r3,	r0
00:00A4 00 02                    2097   	mov	r2,	#00h
00:00A6 10-90 00-00'             2098   	l	r0,	NEAR _AccGyro_Data+05h
00:00AA 26-F0                    2099   	add	er0,	er2
00:00AC 10-82                    2100   	mov	r2,	r1
00:00AE 2F-83                    2101   	extbw	er2
00:00B0 30-82                    2102   	mov	r2,	r3
00:00B2 6E-F0                    2103   	push	xr0
00:00B4 01-F0'00-00'             2104   	bl	__fildu8sw
00:00B8 2E-F0                    2105   	pop	xr0
00:00BA 49-A0 00-00'             2106   	st	er0,	NEAR _Accel_Zout[er4]
00:00BE 49-A2 00-00'             2107   	st	er2,	NEAR _Accel_Zout+02h[er4]
                                 2108   
                                 2109   ;;	Gyro_Xout[Accel_SavIndex] = (AccGyro_Data[8]<<8)+(AccGyro_Data[9]);
                                 2110   CLINEA 0000H 0001H 04C2H 0002H 0044H
00:00C2 10-90 00-00'             2111   	l	r0,	NEAR _AccGyro_Data+08h
00:00C6 00 01                    2112   	mov	r1,	#00h
00:00C8 00-83                    2113   	mov	r3,	r0
00:00CA 00 02                    2114   	mov	r2,	#00h
00:00CC 10-90 00-00'             2115   	l	r0,	NEAR _AccGyro_Data+09h
00:00D0 26-F0                    2116   	add	er0,	er2
00:00D2 10-82                    2117   	mov	r2,	r1
00:00D4 2F-83                    2118   	extbw	er2
00:00D6 30-82                    2119   	mov	r2,	r3
00:00D8 6E-F0                    2120   	push	xr0
00:00DA 01-F0'00-00'             2121   	bl	__fildu8sw
00:00DE 2E-F0                    2122   	pop	xr0
00:00E0 49-A0 00-00'             2123   	st	er0,	NEAR _Gyro_Xout[er4]
00:00E4 49-A2 00-00'             2124   	st	er2,	NEAR _Gyro_Xout+02h[er4]
                                 2125   
                                 2126   ;;	Gyro_Yout[Accel_SavIndex] = (AccGyro_Data[10]<<8)+(AccGyro_Data[11]);
                                 2127   CLINEA 0000H 0001H 04C3H 0002H 0046H
00:00E8 10-90 00-00'             2128   	l	r0,	NEAR _AccGyro_Data+0ah
00:00EC 00 01                    2129   	mov	r1,	#00h
00:00EE 00-83                    2130   	mov	r3,	r0
00:00F0 00 02                    2131   	mov	r2,	#00h
00:00F2 10-90 00-00'             2132   	l	r0,	NEAR _AccGyro_Data+0bh
00:00F6 26-F0                    2133   	add	er0,	er2
00:00F8 10-82                    2134   	mov	r2,	r1
00:00FA 2F-83                    2135   	extbw	er2
00:00FC 30-82                    2136   	mov	r2,	r3
00:00FE 6E-F0                    2137   	push	xr0
00:0100 01-F0'00-00'             2138   	bl	__fildu8sw
00:0104 2E-F0                    2139   	pop	xr0
00:0106 49-A0 00-00'             2140   	st	er0,	NEAR _Gyro_Yout[er4]
00:010A 49-A2 00-00'             2141   	st	er2,	NEAR _Gyro_Yout+02h[er4]
                                 2142   
                                 2143   ;;	Gyro_Zout[Accel_SavIndex] = (AccGyro_Data[12]<<8)+(AccGyro_Data[13]);
                                 2144   CLINEA 0000H 0001H 04C4H 0002H 0046H
00:010E 10-90 00-00'             2145   	l	r0,	NEAR _AccGyro_Data+0ch
00:0112 00 01                    2146   	mov	r1,	#00h
00:0114 00-83                    2147   	mov	r3,	r0
00:0116 00 02                    2148   	mov	r2,	#00h
00:0118 10-90 00-00'             2149   	l	r0,	NEAR _AccGyro_Data+0dh
00:011C 26-F0                    2150   	add	er0,	er2
00:011E 10-82                    2151   	mov	r2,	r1
00:0120 2F-83                    2152   	extbw	er2
00:0122 30-82                    2153   	mov	r2,	r3
00:0124 6E-F0                    2154   	push	xr0
00:0126 01-F0'00-00'             2155   	bl	__fildu8sw
00:012A 2E-F0                    2156   	pop	xr0
00:012C 49-A0 00-00'             2157   	st	er0,	NEAR _Gyro_Zout[er4]
00:0130 49-A2 00-00'             2158   	st	er2,	NEAR _Gyro_Zout+02h[er4]
                                 2159   
                                 2160   ;;	Accel_Xout[Accel_SavIndex] -= Accel_Xcal[0];
                                 2161   CLINEA 0000H 0001H 04C6H 0002H 002DH
00:0134 48-A0 00-00'             2162   	l	er0,	NEAR _Accel_Xout[er4]
00:0138 48-A2 00-00'             2163   	l	er2,	NEAR _Accel_Xout+02h[er4]
00:013C 6E-F0                    2164   	push	xr0
00:013E 12-90 00-00'             2165   	l	er0,	NEAR _Accel_Xcal
00:0142 12-92 00-00'             2166   	l	er2,	NEAR _Accel_Xcal+02h
00:0146 6E-F0                    2167   	push	xr0
00:0148 01-F0'00-00'             2168   	bl	__fsubu8sw
00:014C 04 E1                    2169   	add	sp,	#4 
00:014E 2E-F0                    2170   	pop	xr0
00:0150 49-A0 00-00'             2171   	st	er0,	NEAR _Accel_Xout[er4]
00:0154 49-A2 00-00'             2172   	st	er2,	NEAR _Accel_Xout+02h[er4]
                                 2173   
                                 2174   ;;	Accel_Yout[Accel_SavIndex] -= Accel_Ycal[0];
                                 2175   CLINEA 0000H 0001H 04C7H 0002H 002DH
00:0158 48-A0 00-00'             2176   	l	er0,	NEAR _Accel_Yout[er4]
00:015C 48-A2 00-00'             2177   	l	er2,	NEAR _Accel_Yout+02h[er4]
00:0160 6E-F0                    2178   	push	xr0
00:0162 12-90 00-00'             2179   	l	er0,	NEAR _Accel_Ycal
00:0166 12-92 00-00'             2180   	l	er2,	NEAR _Accel_Ycal+02h
00:016A 6E-F0                    2181   	push	xr0
00:016C 01-F0'00-00'             2182   	bl	__fsubu8sw
00:0170 04 E1                    2183   	add	sp,	#4 
00:0172 2E-F0                    2184   	pop	xr0
00:0174 49-A0 00-00'             2185   	st	er0,	NEAR _Accel_Yout[er4]
00:0178 49-A2 00-00'             2186   	st	er2,	NEAR _Accel_Yout+02h[er4]
                                 2187   
                                 2188   ;;	Accel_Zout[Accel_SavIndex] -= Accel_Zcal[0];
                                 2189   CLINEA 0000H 0001H 04C8H 0002H 002DH
00:017C 48-A0 00-00'             2190   	l	er0,	NEAR _Accel_Zout[er4]
00:0180 48-A2 00-00'             2191   	l	er2,	NEAR _Accel_Zout+02h[er4]
00:0184 6E-F0                    2192   	push	xr0
00:0186 12-90 00-00'             2193   	l	er0,	NEAR _Accel_Zcal
00:018A 12-92 00-00'             2194   	l	er2,	NEAR _Accel_Zcal+02h
00:018E 6E-F0                    2195   	push	xr0
00:0190 01-F0'00-00'             2196   	bl	__fsubu8sw
00:0194 04 E1                    2197   	add	sp,	#4 
00:0196 2E-F0                    2198   	pop	xr0
00:0198 49-A0 00-00'             2199   	st	er0,	NEAR _Accel_Zout[er4]
00:019C 49-A2 00-00'             2200   	st	er2,	NEAR _Accel_Zout+02h[er4]
                                 2201   
                                 2202   ;;	Gyro_Xout[Accel_SavIndex] -= Gyro_Xcal;
                                 2203   CLINEA 0000H 0001H 04C9H 0002H 0028H
00:01A0 48-A0 00-00'             2204   	l	er0,	NEAR _Gyro_Xout[er4]
00:01A4 48-A2 00-00'             2205   	l	er2,	NEAR _Gyro_Xout+02h[er4]
00:01A8 6E-F0                    2206   	push	xr0
00:01AA 12-90 00-00'             2207   	l	er0,	NEAR _Gyro_Xcal
00:01AE 12-92 00-00'             2208   	l	er2,	NEAR _Gyro_Xcal+02h
00:01B2 6E-F0                    2209   	push	xr0
00:01B4 01-F0'00-00'             2210   	bl	__fsubu8sw
00:01B8 04 E1                    2211   	add	sp,	#4 
00:01BA 2E-F0                    2212   	pop	xr0
00:01BC 49-A0 00-00'             2213   	st	er0,	NEAR _Gyro_Xout[er4]
00:01C0 49-A2 00-00'             2214   	st	er2,	NEAR _Gyro_Xout+02h[er4]
                                 2215   
                                 2216   ;;	Gyro_Yout[Accel_SavIndex] -= Gyro_Ycal;
                                 2217   CLINEA 0000H 0001H 04CAH 0002H 0028H
00:01C4 48-A0 00-00'             2218   	l	er0,	NEAR _Gyro_Yout[er4]
00:01C8 48-A2 00-00'             2219   	l	er2,	NEAR _Gyro_Yout+02h[er4]
00:01CC 6E-F0                    2220   	push	xr0
00:01CE 12-90 00-00'             2221   	l	er0,	NEAR _Gyro_Ycal
00:01D2 12-92 00-00'             2222   	l	er2,	NEAR _Gyro_Ycal+02h
00:01D6 6E-F0                    2223   	push	xr0
00:01D8 01-F0'00-00'             2224   	bl	__fsubu8sw
00:01DC 04 E1                    2225   	add	sp,	#4 
00:01DE 2E-F0                    2226   	pop	xr0
00:01E0 49-A0 00-00'             2227   	st	er0,	NEAR _Gyro_Yout[er4]
00:01E4 49-A2 00-00'             2228   	st	er2,	NEAR _Gyro_Yout+02h[er4]
                                 2229   
                                 2230   ;;	Gyro_Zout[Accel_SavIndex] -= Gyro_Zcal;
                                 2231   CLINEA 0000H 0001H 04CBH 0002H 0028H
00:01E8 48-A0 00-00'             2232   	l	er0,	NEAR _Gyro_Zout[er4]
00:01EC 48-A2 00-00'             2233   	l	er2,	NEAR _Gyro_Zout+02h[er4]
00:01F0 6E-F0                    2234   	push	xr0
00:01F2 12-90 00-00'             2235   	l	er0,	NEAR _Gyro_Zcal
00:01F6 12-92 00-00'             2236   	l	er2,	NEAR _Gyro_Zcal+02h
00:01FA 6E-F0                    2237   	push	xr0
00:01FC 01-F0'00-00'             2238   	bl	__fsubu8sw
00:0200 04 E1                    2239   	add	sp,	#4 
00:0202 2E-F0                    2240   	pop	xr0
00:0204 49-A0 00-00'             2241   	st	er0,	NEAR _Gyro_Zout[er4]
00:0208 49-A2 00-00'             2242   	st	er2,	NEAR _Gyro_Zout+02h[er4]
                                 2243   
                                 2244   ;;	Accel_SavIndex++;
                                 2245   CLINEA 0000H 0000H 04CDH 0002H 0012H
00:020C 0C-F0 00-00'             2246   	lea	OFFSET _Accel_SavIndex
00:0210 2F-FE                    2247   	inc	[ea]
00:0212 10-90 00-00'             2248   	l	r0,	NEAR _Accel_SavIndex
                                 2249   
                                 2250   ;;	if(Accel_SavIndex>9){
                                 2251   CLINEA 0000H 0001H 04CEH 0002H 0016H
00:0216 09 70                    2252   	cmp	r0,	#09h
00:0218 03 C3                    2253   	ble	_$L148
                                 2254   CBLOCK 221 4 1230
                                 2255   
                                 2256   ;;		Accel_SavIndex = 0;
                                 2257   CLINEA 0000H 0001H 04CFH 0003H 0015H
00:021A 00 00                    2258   	mov	r0,	#00h
00:021C 11-90 00-00'             2259   	st	r0,	NEAR _Accel_SavIndex
                                 2260   CBLOCKEND 221 4 1232
                                 2261   
                                 2262   ;;	}
                                 2263   CLINEA 0000H 0000H 04D0H 0002H 0002H
00:0220                          2264   _$L148 :
                                 2265   
                                 2266   ;;	EPB3 = 1;		//Turns Accel/Gyro Interrupt back on... again, this may not be necessary
                                 2267   CLINEA 0000H 0001H 04D3H 0002H 0054H
00:0220 F0-A0 11-F0              2268   	sb	0f011h.7
                                 2269   
                                 2270   ;;	AccGyro_CF_FlagCounter++;	//Counts up to the number of values are in the buffer so main loop can call CF filter function
                                 2271   CLINEA 0000H 0000H 04D4H 0002H 0079H
00:0224 0C-F0 00-00'             2272   	lea	OFFSET _AccGyro_CF_FlagCounter
00:0228 2F-FE                    2273   	inc	[ea]
                                 2274   CBLOCKEND 221 2 1237
                                 2275   
                                 2276   ;;}
                                 2277   CLINEA 0000H 0001H 04D5H 0001H 0001H
00:022A 1E-F4                    2278   	pop	er4
00:022C 8E-F2                    2279   	pop	pc
                                 2280   CBLOCKEND 221 1 1237
                                 2281   CFUNCTIONEND 221
                                 2282   
                                 2283   
  --------------------------     2284   	rseg $$Run_AccGyroCF$main
                                 2285   CFUNCTION 222
                                 2286   
00:0000                          2287   _Run_AccGyroCF	:
                                 2288   CBLOCK 222 1 1239
                                 2289   
                                 2290   ;;void Run_AccGyroCF(void){
                                 2291   CLINEA 0000H 0001H 04D7H 0001H 0019H
00:0000 CE-F8                    2292   	push	lr
00:0002 5E-FE                    2293   	push	fp
00:0004 1A-AE                    2294   	mov	fp,	sp
00:0006 F8 E1                    2295   	add	sp,	#-08
00:0008 6E-F8                    2296   	push	xr8
00:000A 6E-F4                    2297   	push	xr4
                                 2298   CBLOCK 222 2 1239
                                 2299   CRET 0012H
                                 2300   CSLOCAL 43H 0002H 0000H 0002H "i" 02H 00H 01H
                                 2301   CSLOCAL 43H 0001H 0001H 0002H "I2CCont" 02H 00H 00H
                                 2302   
                                 2303   ;;	CF_Gyro_CurrentCount = CF_Gyro_Counter * .001;		//Timer in Seconds (.007 used to convert 128Hz TBC to seconds)
                                 2304   CLINEA 0000H 0001H 04DDH 0002H 006FH
00:000C 12-90 00-00'             2305   	l	er0,	NEAR _CF_Gyro_Counter
00:0010 12-92 00-00'             2306   	l	er2,	NEAR _CF_Gyro_Counter+02h
00:0014 6E-F0                    2307   	push	xr0
00:0016 FC E1                    2308   	add	sp,	#-4
00:0018 01-F0'00-00'             2309   	bl	__ftodu8sw
00:001C FC 00                    2310   	mov	r0,	#0fch
00:001E A9 01                    2311   	mov	r1,	#0a9h
00:0020 F1 02                    2312   	mov	r2,	#0f1h
00:0022 D2 03                    2313   	mov	r3,	#0d2h
00:0024 4D 04                    2314   	mov	r4,	#04dh
00:0026 62 05                    2315   	mov	r5,	#062h
00:0028 50 06                    2316   	mov	r6,	#050h
00:002A 3F 07                    2317   	mov	r7,	#03fh
00:002C 7E-F0                    2318   	push	qr0
00:002E 01-F0'00-00'             2319   	bl	__dmulu8sw
00:0032 08 E1                    2320   	add	sp,	#8 
00:0034 01-F0'00-00'             2321   	bl	__dtofu8sw
00:0038 04 E1                    2322   	add	sp,	#4 
00:003A 2E-F0                    2323   	pop	xr0
00:003C 13-90 00-00'             2324   	st	er0,	NEAR _CF_Gyro_CurrentCount
00:0040 13-92 00-00'             2325   	st	er2,	NEAR _CF_Gyro_CurrentCount+02h
                                 2326   
                                 2327   ;;	CF_Gyro_Counter = 0;
                                 2328   CLINEA 0000H 0001H 04DEH 0002H 0015H
00:0044 00 E0                    2329   	mov	er0,	#0 
00:0046 13-90 00-00'             2330   	st	er0,	NEAR _CF_Gyro_Counter
00:004A 13-90 00-00'             2331   	st	er0,	NEAR _CF_Gyro_Counter+02h
                                 2332   
                                 2333   ;;	CF_Gyro_YPitch = CF_YPitch + ((Gyro_Xout[Accel_RetIndex]/AccGyro_GyroScaling) * CF_Gyro_CurrentCount);
                                 2334   CLINEA 0000H 0001H 04E0H 0002H 0067H
00:004E 10-90 00-00'             2335   	l	r0,	NEAR _Accel_RetIndex
00:0052 2B-91                    2336   	sllc	r1,	#02h
00:0054 2A-90                    2337   	sll	r0,	#02h
00:0056 05-F4                    2338   	mov	er4,	er0
00:0058 08-A8 00-00'             2339   	l	er8,	NEAR _Gyro_Xout[er0]
00:005C 08-AA 00-00'             2340   	l	er10,	NEAR _Gyro_Xout+02h[er0]
00:0060 6E-F8                    2341   	push	xr8
00:0062 12-90 00-00'             2342   	l	er0,	NEAR _AccGyro_GyroScaling
00:0066 12-92 00-00'             2343   	l	er2,	NEAR _AccGyro_GyroScaling+02h
00:006A 6E-F0                    2344   	push	xr0
00:006C 01-F0'00-00'             2345   	bl	__fdivu8sw
00:0070 04 E1                    2346   	add	sp,	#4 
00:0072 12-90 00-00'             2347   	l	er0,	NEAR _CF_Gyro_CurrentCount
00:0076 12-92 00-00'             2348   	l	er2,	NEAR _CF_Gyro_CurrentCount+02h
00:007A 6E-F0                    2349   	push	xr0
00:007C 01-F0'00-00'             2350   	bl	__fmulu8sw
00:0080 04 E1                    2351   	add	sp,	#4 
00:0082 12-90 00-00'             2352   	l	er0,	NEAR _CF_YPitch
00:0086 12-92 00-00'             2353   	l	er2,	NEAR _CF_YPitch+02h
00:008A 6E-F0                    2354   	push	xr0
00:008C 01-F0'00-00'             2355   	bl	__faddu8sw
00:0090 04 E1                    2356   	add	sp,	#4 
00:0092 2E-F0                    2357   	pop	xr0
00:0094 13-90 00-00'             2358   	st	er0,	NEAR _CF_Gyro_YPitch
00:0098 13-92 00-00'             2359   	st	er2,	NEAR _CF_Gyro_YPitch+02h
                                 2360   
                                 2361   ;;	CF_Gyro_XRoll = CF_XRoll - ((Gyro_Yout[Accel_RetIndex]/AccGyro_GyroScaling) * CF_Gyro_CurrentCount);	
                                 2362   CLINEA 0000H 0001H 04E1H 0002H 0066H
00:009C 48-A8 00-00'             2363   	l	er8,	NEAR _Gyro_Yout[er4]
00:00A0 48-AA 00-00'             2364   	l	er10,	NEAR _Gyro_Yout+02h[er4]
00:00A4 6E-F8                    2365   	push	xr8
00:00A6 12-90 00-00'             2366   	l	er0,	NEAR _AccGyro_GyroScaling
00:00AA 12-92 00-00'             2367   	l	er2,	NEAR _AccGyro_GyroScaling+02h
00:00AE 6E-F0                    2368   	push	xr0
00:00B0 01-F0'00-00'             2369   	bl	__fdivu8sw
00:00B4 04 E1                    2370   	add	sp,	#4 
00:00B6 12-90 00-00'             2371   	l	er0,	NEAR _CF_Gyro_CurrentCount
00:00BA 12-92 00-00'             2372   	l	er2,	NEAR _CF_Gyro_CurrentCount+02h
00:00BE 6E-F0                    2373   	push	xr0
00:00C0 01-F0'00-00'             2374   	bl	__fmulu8sw
00:00C4 04 E1                    2375   	add	sp,	#4 
00:00C6 2E-F0                    2376   	pop	xr0
00:00C8 12-98 00-00'             2377   	l	er8,	NEAR _CF_XRoll
00:00CC 12-9A 00-00'             2378   	l	er10,	NEAR _CF_XRoll+02h
00:00D0 6E-F8                    2379   	push	xr8
00:00D2 6E-F0                    2380   	push	xr0
00:00D4 01-F0'00-00'             2381   	bl	__fsubu8sw
00:00D8 04 E1                    2382   	add	sp,	#4 
00:00DA 2E-F0                    2383   	pop	xr0
00:00DC 13-90 00-00'             2384   	st	er0,	NEAR _CF_Gyro_XRoll
00:00E0 13-92 00-00'             2385   	st	er2,	NEAR _CF_Gyro_XRoll+02h
                                 2386   
                                 2387   ;;	CF_Accel_ForceMagApprox = abs(Accel_Xout[Accel_RetIndex]) + abs(Accel_Yout[Accel_RetIndex]) + abs(Accel_Zout[Accel_RetIndex]);
                                 2388   CLINEA 0000H 0000H 04E3H 0002H 007FH
00:00E4 48-A0 00-00'             2389   	l	er0,	NEAR _Accel_Xout[er4]
00:00E8 48-A2 00-00'             2390   	l	er2,	NEAR _Accel_Xout+02h[er4]
00:00EC 6E-F0                    2391   	push	xr0
00:00EE 01-F0'00-00'             2392   	bl	__ftolu8sw
00:00F2 1E-F0                    2393   	pop	er0
00:00F4 02 E1                    2394   	add	sp,	#2 
00:00F6 01-F0'00-00'             2395   	bl	_abs
00:00FA 05-F8                    2396   	mov	er8,	er0
00:00FC 10-90 00-00'             2397   	l	r0,	NEAR _Accel_RetIndex
00:0100 00 01                    2398   	mov	r1,	#00h
00:0102 2B-91                    2399   	sllc	r1,	#02h
00:0104 2A-90                    2400   	sll	r0,	#02h
00:0106 08-A4 00-00'             2401   	l	er4,	NEAR _Accel_Yout[er0]
00:010A 08-A6 00-00'             2402   	l	er6,	NEAR _Accel_Yout+02h[er0]
00:010E 6E-F4                    2403   	push	xr4
00:0110 01-F0'00-00'             2404   	bl	__ftolu8sw
00:0114 1E-F0                    2405   	pop	er0
00:0116 02 E1                    2406   	add	sp,	#2 
00:0118 01-F0'00-00'             2407   	bl	_abs
00:011C 06-F8                    2408   	add	er8,	er0
00:011E 10-90 00-00'             2409   	l	r0,	NEAR _Accel_RetIndex
00:0122 00 01                    2410   	mov	r1,	#00h
00:0124 2B-91                    2411   	sllc	r1,	#02h
00:0126 2A-90                    2412   	sll	r0,	#02h
00:0128 08-A4 00-00'             2413   	l	er4,	NEAR _Accel_Zout[er0]
00:012C 08-A6 00-00'             2414   	l	er6,	NEAR _Accel_Zout+02h[er0]
00:0130 6E-F4                    2415   	push	xr4
00:0132 01-F0'00-00'             2416   	bl	__ftolu8sw
00:0136 1E-F0                    2417   	pop	er0
00:0138 02 E1                    2418   	add	sp,	#2 
00:013A 01-F0'00-00'             2419   	bl	_abs
00:013E 05-F2                    2420   	mov	er2,	er0
00:0140 85-F0                    2421   	mov	er0,	er8
00:0142 26-F0                    2422   	add	er0,	er2
00:0144 10-82                    2423   	mov	r2,	r1
00:0146 2F-83                    2424   	extbw	er2
00:0148 30-82                    2425   	mov	r2,	r3
00:014A 6E-F0                    2426   	push	xr0
00:014C 01-F0'00-00'             2427   	bl	__fildu8sw
00:0150 2E-F0                    2428   	pop	xr0
00:0152 13-90 00-00'             2429   	st	er0,	NEAR _CF_Accel_ForceMagApprox
00:0156 13-92 00-00'             2430   	st	er2,	NEAR _CF_Accel_ForceMagApprox+02h
                                 2431   
                                 2432   ;;	if (CF_Accel_ForceMagApprox > 16384 && CF_Accel_ForceMagApprox < 32768)
                                 2433   CLINEA 0000H 0001H 04E4H 0002H 0048H
00:015A 6E-F0                    2434   	push	xr0
00:015C 00 E0                    2435   	mov	er0,	#0 
00:015E 80 02                    2436   	mov	r2,	#080h
00:0160 46 03                    2437   	mov	r3,	#046h
00:0162 6E-F0                    2438   	push	xr0
00:0164 01-F0'00-00'             2439   	bl	__fcmpu8sw
00:0168 08 E1                    2440   	add	sp,	#8 
00:016A 0B-A0                    2441   	mov	psw,	r0
00:016C 02 C2                    2442   	bgt	_$M8
00:016E 00-F0'00-00'             2443   	b	_$L152
00:0172                          2444   _$M8 :
00:0172 12-90 00-00'             2445   	l	er0,	NEAR _CF_Accel_ForceMagApprox
00:0176 12-92 00-00'             2446   	l	er2,	NEAR _CF_Accel_ForceMagApprox+02h
00:017A 6E-F0                    2447   	push	xr0
00:017C 00 E0                    2448   	mov	er0,	#0 
00:017E 00 02                    2449   	mov	r2,	#00h
00:0180 47 03                    2450   	mov	r3,	#047h
00:0182 6E-F0                    2451   	push	xr0
00:0184 01-F0'00-00'             2452   	bl	__fcmpu8sw
00:0188 08 E1                    2453   	add	sp,	#8 
00:018A 0B-A0                    2454   	mov	psw,	r0
00:018C 02 C1                    2455   	blt	_$M9
00:018E 00-F0'00-00'             2456   	b	_$L152
00:0192                          2457   _$M9 :
                                 2458   CBLOCK 222 3 1253
                                 2459   
                                 2460   ;;        CF_Accel_YPitch = atan2(Accel_Yout[Accel_RetIndex], Accel_Zout[Accel_RetIndex]) * (57.29);	//57.29 = 180deg/pi
                                 2461   CLINEA 0000H 0000H 04E7H 0009H 0076H
00:0192 10-90 00-00'             2462   	l	r0,	NEAR _Accel_RetIndex
00:0196 00 01                    2463   	mov	r1,	#00h
00:0198 2B-91                    2464   	sllc	r1,	#02h
00:019A 2A-90                    2465   	sll	r0,	#02h
00:019C 08-A4 00-00'             2466   	l	er4,	NEAR _Accel_Zout[er0]
00:01A0 08-A6 00-00'             2467   	l	er6,	NEAR _Accel_Zout+02h[er0]
00:01A4 6E-F4                    2468   	push	xr4
00:01A6 FC E1                    2469   	add	sp,	#-4
00:01A8 01-F0'00-00'             2470   	bl	__ftodu8sw
00:01AC 08-A4 00-00'             2471   	l	er4,	NEAR _Accel_Yout[er0]
00:01B0 08-A6 00-00'             2472   	l	er6,	NEAR _Accel_Yout+02h[er0]
00:01B4 6E-F4                    2473   	push	xr4
00:01B6 FC E1                    2474   	add	sp,	#-4
00:01B8 01-F0'00-00'             2475   	bl	__ftodu8sw
00:01BC E5-F0                    2476   	mov	er0,	fp
00:01BE F8 E0                    2477   	add	er0,	#-8
00:01C0 01-F0'00-00'             2478   	bl	_atan2
00:01C4 10 E1                    2479   	add	sp,	#16
00:01C6 EB-F0 F8-FF              2480   	lea	-8[fp]
00:01CA 36-90                    2481   	l	qr0,	[ea]
00:01CC 7E-F0                    2482   	push	qr0
00:01CE 85 00                    2483   	mov	r0,	#085h
00:01D0 EB 01                    2484   	mov	r1,	#0ebh
00:01D2 51 02                    2485   	mov	r2,	#051h
00:01D4 B8 03                    2486   	mov	r3,	#0b8h
00:01D6 1E 04                    2487   	mov	r4,	#01eh
00:01D8 A5 05                    2488   	mov	r5,	#0a5h
00:01DA 4C 06                    2489   	mov	r6,	#04ch
00:01DC 40 07                    2490   	mov	r7,	#040h
00:01DE 7E-F0                    2491   	push	qr0
00:01E0 01-F0'00-00'             2492   	bl	__dmulu8sw
00:01E4 08 E1                    2493   	add	sp,	#8 
00:01E6 01-F0'00-00'             2494   	bl	__dtofu8sw
00:01EA 04 E1                    2495   	add	sp,	#4 
00:01EC 2E-F0                    2496   	pop	xr0
00:01EE 13-90 00-00'             2497   	st	er0,	NEAR _CF_Accel_YPitch
00:01F2 13-92 00-00'             2498   	st	er2,	NEAR _CF_Accel_YPitch+02h
                                 2499   
                                 2500   ;;        CF_YPitch = (CF_Gyro_YPitch * CF_HPF) + (CF_Accel_YPitch * CF_LPF);
                                 2501   CLINEA 0000H 0001H 04E8H 0009H 004BH
00:01F6 12-90 00-00'             2502   	l	er0,	NEAR _CF_Gyro_YPitch
00:01FA 12-92 00-00'             2503   	l	er2,	NEAR _CF_Gyro_YPitch+02h
00:01FE 6E-F0                    2504   	push	xr0
00:0200 12-90 00-00'             2505   	l	er0,	NEAR _CF_HPF
00:0204 12-92 00-00'             2506   	l	er2,	NEAR _CF_HPF+02h
00:0208 6E-F0                    2507   	push	xr0
00:020A 01-F0'00-00'             2508   	bl	__fmulu8sw
00:020E 04 E1                    2509   	add	sp,	#4 
00:0210 2E-F0                    2510   	pop	xr0
00:0212 12-94 00-00'             2511   	l	er4,	NEAR _CF_Accel_YPitch
00:0216 12-96 00-00'             2512   	l	er6,	NEAR _CF_Accel_YPitch+02h
00:021A 6E-F4                    2513   	push	xr4
00:021C 12-94 00-00'             2514   	l	er4,	NEAR _CF_LPF
00:0220 12-96 00-00'             2515   	l	er6,	NEAR _CF_LPF+02h
00:0224 6E-F4                    2516   	push	xr4
00:0226 01-F0'00-00'             2517   	bl	__fmulu8sw
00:022A 04 E1                    2518   	add	sp,	#4 
00:022C 2E-F4                    2519   	pop	xr4
00:022E 6E-F0                    2520   	push	xr0
00:0230 6E-F4                    2521   	push	xr4
00:0232 01-F0'00-00'             2522   	bl	__faddu8sw
00:0236 04 E1                    2523   	add	sp,	#4 
00:0238 2E-F0                    2524   	pop	xr0
00:023A 13-90 00-00'             2525   	st	er0,	NEAR _CF_YPitch
00:023E 13-92 00-00'             2526   	st	er2,	NEAR _CF_YPitch+02h
                                 2527   
                                 2528   ;;        CF_Accel_XRoll = atan2(Accel_Xout[Accel_RetIndex], Accel_Zout[Accel_RetIndex]) * (57.29);
                                 2529   CLINEA 0000H 0000H 04EBH 0009H 0061H
00:0242 10-90 00-00'             2530   	l	r0,	NEAR _Accel_RetIndex
00:0246 00 01                    2531   	mov	r1,	#00h
00:0248 2B-91                    2532   	sllc	r1,	#02h
00:024A 2A-90                    2533   	sll	r0,	#02h
00:024C 08-A4 00-00'             2534   	l	er4,	NEAR _Accel_Zout[er0]
00:0250 08-A6 00-00'             2535   	l	er6,	NEAR _Accel_Zout+02h[er0]
00:0254 6E-F4                    2536   	push	xr4
00:0256 FC E1                    2537   	add	sp,	#-4
00:0258 01-F0'00-00'             2538   	bl	__ftodu8sw
00:025C 08-A4 00-00'             2539   	l	er4,	NEAR _Accel_Xout[er0]
00:0260 08-A6 00-00'             2540   	l	er6,	NEAR _Accel_Xout+02h[er0]
00:0264 6E-F4                    2541   	push	xr4
00:0266 FC E1                    2542   	add	sp,	#-4
00:0268 01-F0'00-00'             2543   	bl	__ftodu8sw
00:026C E5-F0                    2544   	mov	er0,	fp
00:026E F8 E0                    2545   	add	er0,	#-8
00:0270 01-F0'00-00'             2546   	bl	_atan2
00:0274 10 E1                    2547   	add	sp,	#16
00:0276 EB-F0 F8-FF              2548   	lea	-8[fp]
00:027A 36-90                    2549   	l	qr0,	[ea]
00:027C 7E-F0                    2550   	push	qr0
00:027E 85 00                    2551   	mov	r0,	#085h
00:0280 EB 01                    2552   	mov	r1,	#0ebh
00:0282 51 02                    2553   	mov	r2,	#051h
00:0284 B8 03                    2554   	mov	r3,	#0b8h
00:0286 1E 04                    2555   	mov	r4,	#01eh
00:0288 A5 05                    2556   	mov	r5,	#0a5h
00:028A 4C 06                    2557   	mov	r6,	#04ch
00:028C 40 07                    2558   	mov	r7,	#040h
00:028E 7E-F0                    2559   	push	qr0
00:0290 01-F0'00-00'             2560   	bl	__dmulu8sw
00:0294 08 E1                    2561   	add	sp,	#8 
00:0296 01-F0'00-00'             2562   	bl	__dtofu8sw
00:029A 04 E1                    2563   	add	sp,	#4 
00:029C 2E-F0                    2564   	pop	xr0
00:029E 13-90 00-00'             2565   	st	er0,	NEAR _CF_Accel_XRoll
00:02A2 13-92 00-00'             2566   	st	er2,	NEAR _CF_Accel_XRoll+02h
                                 2567   
                                 2568   ;;        CF_XRoll = (CF_Gyro_XRoll * CF_HPF) + (CF_Accel_XRoll * CF_LPF);
                                 2569   CLINEA 0000H 0001H 04ECH 0009H 0048H
00:02A6 12-90 00-00'             2570   	l	er0,	NEAR _CF_Gyro_XRoll
00:02AA 12-92 00-00'             2571   	l	er2,	NEAR _CF_Gyro_XRoll+02h
00:02AE 6E-F0                    2572   	push	xr0
00:02B0 12-90 00-00'             2573   	l	er0,	NEAR _CF_HPF
00:02B4 12-92 00-00'             2574   	l	er2,	NEAR _CF_HPF+02h
00:02B8 6E-F0                    2575   	push	xr0
00:02BA 01-F0'00-00'             2576   	bl	__fmulu8sw
00:02BE 04 E1                    2577   	add	sp,	#4 
00:02C0 2E-F0                    2578   	pop	xr0
00:02C2 12-94 00-00'             2579   	l	er4,	NEAR _CF_Accel_XRoll
00:02C6 12-96 00-00'             2580   	l	er6,	NEAR _CF_Accel_XRoll+02h
00:02CA 6E-F4                    2581   	push	xr4
00:02CC 12-94 00-00'             2582   	l	er4,	NEAR _CF_LPF
00:02D0 12-96 00-00'             2583   	l	er6,	NEAR _CF_LPF+02h
00:02D4 6E-F4                    2584   	push	xr4
00:02D6 01-F0'00-00'             2585   	bl	__fmulu8sw
00:02DA 04 E1                    2586   	add	sp,	#4 
00:02DC 2E-F4                    2587   	pop	xr4
00:02DE 6E-F0                    2588   	push	xr0
00:02E0 6E-F4                    2589   	push	xr4
00:02E2 01-F0'00-00'             2590   	bl	__faddu8sw
00:02E6 04 E1                    2591   	add	sp,	#4 
00:02E8 2E-F0                    2592   	pop	xr0
                                 2593   CBLOCKEND 222 3 1261
                                 2594   
                                 2595   ;;	else{
                                 2596   CLINEA 0000H 0001H 04EEH 0002H 0006H
00:02EA 00-F0'00-00'             2597   	b	_$L159
00:02EE                          2598   _$L152 :
                                 2599   CBLOCK 222 4 1262
                                 2600   
                                 2601   ;;        CF_Accel_YPitch = atan2(Accel_Yout[Accel_RetIndex], Accel_Zout[Accel_RetIndex]) * (57.29);	//57.29 = 180deg/pi
                                 2602   CLINEA 0000H 0000H 04F0H 0009H 0076H
00:02EE 10-90 00-00'             2603   	l	r0,	NEAR _Accel_RetIndex
00:02F2 00 01                    2604   	mov	r1,	#00h
00:02F4 2B-91                    2605   	sllc	r1,	#02h
00:02F6 2A-90                    2606   	sll	r0,	#02h
00:02F8 08-A4 00-00'             2607   	l	er4,	NEAR _Accel_Zout[er0]
00:02FC 08-A6 00-00'             2608   	l	er6,	NEAR _Accel_Zout+02h[er0]
00:0300 6E-F4                    2609   	push	xr4
00:0302 FC E1                    2610   	add	sp,	#-4
00:0304 01-F0'00-00'             2611   	bl	__ftodu8sw
00:0308 08-A4 00-00'             2612   	l	er4,	NEAR _Accel_Yout[er0]
00:030C 08-A6 00-00'             2613   	l	er6,	NEAR _Accel_Yout+02h[er0]
00:0310 6E-F4                    2614   	push	xr4
00:0312 FC E1                    2615   	add	sp,	#-4
00:0314 01-F0'00-00'             2616   	bl	__ftodu8sw
00:0318 E5-F0                    2617   	mov	er0,	fp
00:031A F8 E0                    2618   	add	er0,	#-8
00:031C 01-F0'00-00'             2619   	bl	_atan2
00:0320 10 E1                    2620   	add	sp,	#16
00:0322 EB-F0 F8-FF              2621   	lea	-8[fp]
00:0326 36-90                    2622   	l	qr0,	[ea]
00:0328 7E-F0                    2623   	push	qr0
00:032A 85 00                    2624   	mov	r0,	#085h
00:032C EB 01                    2625   	mov	r1,	#0ebh
00:032E 51 02                    2626   	mov	r2,	#051h
00:0330 B8 03                    2627   	mov	r3,	#0b8h
00:0332 1E 04                    2628   	mov	r4,	#01eh
00:0334 A5 05                    2629   	mov	r5,	#0a5h
00:0336 4C 06                    2630   	mov	r6,	#04ch
00:0338 40 07                    2631   	mov	r7,	#040h
00:033A 7E-F0                    2632   	push	qr0
00:033C 01-F0'00-00'             2633   	bl	__dmulu8sw
00:0340 08 E1                    2634   	add	sp,	#8 
00:0342 01-F0'00-00'             2635   	bl	__dtofu8sw
00:0346 04 E1                    2636   	add	sp,	#4 
00:0348 2E-F0                    2637   	pop	xr0
00:034A 13-90 00-00'             2638   	st	er0,	NEAR _CF_Accel_YPitch
00:034E 13-92 00-00'             2639   	st	er2,	NEAR _CF_Accel_YPitch+02h
                                 2640   
                                 2641   ;;		CF_YPitch = CF_Gyro_YPitch;
                                 2642   CLINEA 0000H 0001H 04F1H 0003H 001DH
00:0352 12-90 00-00'             2643   	l	er0,	NEAR _CF_Gyro_YPitch
00:0356 12-92 00-00'             2644   	l	er2,	NEAR _CF_Gyro_YPitch+02h
00:035A 13-90 00-00'             2645   	st	er0,	NEAR _CF_YPitch
00:035E 13-92 00-00'             2646   	st	er2,	NEAR _CF_YPitch+02h
                                 2647   
                                 2648   ;;        CF_Accel_XRoll = atan2(Accel_Xout[Accel_RetIndex], Accel_Zout[Accel_RetIndex]) * (57.29);
                                 2649   CLINEA 0000H 0000H 04F4H 0009H 0061H
00:0362 10-90 00-00'             2650   	l	r0,	NEAR _Accel_RetIndex
00:0366 00 01                    2651   	mov	r1,	#00h
00:0368 2B-91                    2652   	sllc	r1,	#02h
00:036A 2A-90                    2653   	sll	r0,	#02h
00:036C 08-A4 00-00'             2654   	l	er4,	NEAR _Accel_Zout[er0]
00:0370 08-A6 00-00'             2655   	l	er6,	NEAR _Accel_Zout+02h[er0]
00:0374 6E-F4                    2656   	push	xr4
00:0376 FC E1                    2657   	add	sp,	#-4
00:0378 01-F0'00-00'             2658   	bl	__ftodu8sw
00:037C 08-A4 00-00'             2659   	l	er4,	NEAR _Accel_Xout[er0]
00:0380 08-A6 00-00'             2660   	l	er6,	NEAR _Accel_Xout+02h[er0]
00:0384 6E-F4                    2661   	push	xr4
00:0386 FC E1                    2662   	add	sp,	#-4
00:0388 01-F0'00-00'             2663   	bl	__ftodu8sw
00:038C E5-F0                    2664   	mov	er0,	fp
00:038E F8 E0                    2665   	add	er0,	#-8
00:0390 01-F0'00-00'             2666   	bl	_atan2
00:0394 10 E1                    2667   	add	sp,	#16
00:0396 EB-F0 F8-FF              2668   	lea	-8[fp]
00:039A 36-90                    2669   	l	qr0,	[ea]
00:039C 7E-F0                    2670   	push	qr0
00:039E 85 00                    2671   	mov	r0,	#085h
00:03A0 EB 01                    2672   	mov	r1,	#0ebh
00:03A2 51 02                    2673   	mov	r2,	#051h
00:03A4 B8 03                    2674   	mov	r3,	#0b8h
00:03A6 1E 04                    2675   	mov	r4,	#01eh
00:03A8 A5 05                    2676   	mov	r5,	#0a5h
00:03AA 4C 06                    2677   	mov	r6,	#04ch
00:03AC 40 07                    2678   	mov	r7,	#040h
00:03AE 7E-F0                    2679   	push	qr0
00:03B0 01-F0'00-00'             2680   	bl	__dmulu8sw
00:03B4 08 E1                    2681   	add	sp,	#8 
00:03B6 01-F0'00-00'             2682   	bl	__dtofu8sw
00:03BA 04 E1                    2683   	add	sp,	#4 
00:03BC 2E-F0                    2684   	pop	xr0
00:03BE 13-90 00-00'             2685   	st	er0,	NEAR _CF_Accel_XRoll
00:03C2 13-92 00-00'             2686   	st	er2,	NEAR _CF_Accel_XRoll+02h
                                 2687   
                                 2688   ;;		CF_XRoll = CF_Gyro_XRoll;
                                 2689   CLINEA 0000H 0001H 04F5H 0003H 001BH
00:03C6 12-90 00-00'             2690   	l	er0,	NEAR _CF_Gyro_XRoll
00:03CA 12-92 00-00'             2691   	l	er2,	NEAR _CF_Gyro_XRoll+02h
                                 2692   CBLOCKEND 222 4 1270
                                 2693   
                                 2694   ;;	}
                                 2695   CLINEA 0000H 0000H 04F6H 0002H 0002H
00:03CE                          2696   _$L159 :
00:03CE 13-90 00-00'             2697   	st	er0,	NEAR _CF_XRoll
00:03D2 13-92 00-00'             2698   	st	er2,	NEAR _CF_XRoll+02h
                                 2699   
                                 2700   ;;	Accel_RetIndex++;
                                 2701   CLINEA 0000H 0000H 04F8H 0002H 0012H
00:03D6 0C-F0 00-00'             2702   	lea	OFFSET _Accel_RetIndex
00:03DA 2F-FE                    2703   	inc	[ea]
00:03DC 10-90 00-00'             2704   	l	r0,	NEAR _Accel_RetIndex
                                 2705   
                                 2706   ;;	if(Accel_RetIndex > 9){
                                 2707   CLINEA 0000H 0001H 04F9H 0002H 0018H
00:03E0 09 70                    2708   	cmp	r0,	#09h
00:03E2 03 C3                    2709   	ble	_$L160
                                 2710   CBLOCK 222 5 1273
                                 2711   
                                 2712   ;;		Accel_RetIndex = 0;
                                 2713   CLINEA 0000H 0001H 04FAH 0003H 0015H
00:03E4 00 00                    2714   	mov	r0,	#00h
00:03E6 11-90 00-00'             2715   	st	r0,	NEAR _Accel_RetIndex
                                 2716   CBLOCKEND 222 5 1275
                                 2717   
                                 2718   ;;	}
                                 2719   CLINEA 0000H 0000H 04FBH 0002H 0002H
00:03EA                          2720   _$L160 :
                                 2721   
                                 2722   ;;	Accel_PID_GoCounter++;		//Counts up to 4 to trigger the PID loop to start.
                                 2723   CLINEA 0000H 0000H 0515H 0002H 004BH
00:03EA 0C-F0 00-00'             2724   	lea	OFFSET _Accel_PID_GoCounter
00:03EE 2F-FE                    2725   	inc	[ea]
                                 2726   CBLOCKEND 222 2 1303
                                 2727   
                                 2728   ;;}
                                 2729   CLINEA 0000H 0001H 0517H 0001H 0001H
00:03F0 2E-F4                    2730   	pop	xr4
00:03F2 2E-F8                    2731   	pop	xr8
00:03F4 EA-A1                    2732   	mov	sp,	fp
00:03F6 1E-FE                    2733   	pop	fp
00:03F8 8E-F2                    2734   	pop	pc
                                 2735   CBLOCKEND 222 1 1303
                                 2736   CFUNCTIONEND 222
                                 2737   
                                 2738   
  --------------------------     2739   	rseg $$Get_MagData$main
                                 2740   CFUNCTION 223
                                 2741   
00:0000                          2742   _Get_MagData	:
                                 2743   CBLOCK 223 1 1306
                                 2744   
                                 2745   ;;void Get_MagData(void){
                                 2746   CLINEA 0000H 0001H 051AH 0001H 0017H
00:0000 CE-F8                    2747   	push	lr
00:0002 5E-FE                    2748   	push	fp
00:0004 1A-AE                    2749   	mov	fp,	sp
00:0006 F8 E1                    2750   	add	sp,	#-08
00:0008 6E-F4                    2751   	push	xr4
                                 2752   CBLOCK 223 2 1306
                                 2753   CRET 000EH
                                 2754   
                                 2755   ;;	_flgI2CFin = 0;														//reset I2C completed flag
                                 2756   CLINEA 0000H 0001H 051CH 0002H 0038H
00:000A 00 00                    2757   	mov	r0,	#00h
00:000C 11-90 00-00'             2758   	st	r0,	NEAR __flgI2CFin
                                 2759   
                                 2760   ;;	i2c_stop();															//Make sure I2C is not currently running
                                 2761   CLINEA 0000H 0001H 051DH 0002H 0043H
00:0010 01-F0'00-00'             2762   	bl	_i2c_stop
                                 2763   
                                 2764   ;;	i2c_startSend( HMC5883Address, &Mag_ModeReg, 1, &Mag_ModeReg_Contents, 1, (cbfI2c)_funcI2CFin);		//Begin I2C Receive Command
                                 2765   CLINEA 0000H 0001H 051EH 0002H 007DH
00:0014 00'00                    2766   	mov	r0,	#BYTE1 OFFSET __funcI2CFin
00:0016 00'01                    2767   	mov	r1,	#BYTE2 OFFSET __funcI2CFin
00:0018 5E-F0                    2768   	push	er0
00:001A 01 E0                    2769   	mov	er0,	#1 
00:001C 5E-F0                    2770   	push	er0
00:001E 00'00                    2771   	mov	r0,	#BYTE1 OFFSET _Mag_ModeReg_Contents
00:0020 00'01                    2772   	mov	r1,	#BYTE2 OFFSET _Mag_ModeReg_Contents
00:0022 5E-F0                    2773   	push	er0
00:0024 01 E0                    2774   	mov	er0,	#1 
00:0026 5E-F0                    2775   	push	er0
00:0028 00'02                    2776   	mov	r2,	#BYTE1 OFFSET _Mag_ModeReg
00:002A 00'03                    2777   	mov	r3,	#BYTE2 OFFSET _Mag_ModeReg
00:002C 10-90 00-00'             2778   	l	r0,	NEAR _HMC5883Address
00:0030 01-F0'00-00'             2779   	bl	_i2c_startSend
00:0034 08 E1                    2780   	add	sp,	#8 
                                 2781   
                                 2782   ;;	while(_flgI2CFin != 1){												//Wait for I2C commands to finish transfer
                                 2783   CLINEA 0000H 0000H 051FH 0001H 0001H
00:0036 02 CE                    2784   	bal	_$L179
                                 2785   
                                 2786   ;;	while(_flgI2CFin != 1){												//Wait for I2C commands to finish transfer
                                 2787   CLINEA 0000H 0000H 051FH 0002H 004EH
00:0038                          2788   _$L165 :
                                 2789   CBLOCK 223 3 1311
                                 2790   
                                 2791   ;;		main_clrWDT();
                                 2792   CLINEA 0000H 0001H 0520H 0003H 0010H
00:0038 01-F0'00-00'             2793   	bl	_main_clrWDT
                                 2794   CBLOCKEND 223 3 1313
                                 2795   
                                 2796   ;;	while(_flgI2CFin != 1){												//Wait for I2C commands to finish transfer
                                 2797   CLINEA 0000H 0000H 051FH 0001H 0001H
00:003C                          2798   _$L179 :
00:003C 10-90 00-00'             2799   	l	r0,	NEAR __flgI2CFin
00:0040 01 70                    2800   	cmp	r0,	#01h
00:0042 FA C8                    2801   	bne	_$L165
                                 2802   
                                 2803   ;;	_flgI2CFin = 0;																	//reset I2C completed Flag
                                 2804   CLINEA 0000H 0001H 0523H 0002H 003BH
00:0044 00 00                    2805   	mov	r0,	#00h
00:0046 11-90 00-00'             2806   	st	r0,	NEAR __flgI2CFin
                                 2807   
                                 2808   ;;	i2c_stop();																		//Make sure I2C is not currently running
                                 2809   CLINEA 0000H 0001H 0524H 0002H 0046H
00:004A 01-F0'00-00'             2810   	bl	_i2c_stop
                                 2811   
                                 2812   ;;	i2c_startReceive(HMC5883Address, &Mag_ReadData, 1, &Mag_Data, 6, (cbfI2c)_funcI2CFin);	//Begin I2C Recieve Command
                                 2813   CLINEA 0000H 0001H 0525H 0002H 0073H
00:004E 00'00                    2814   	mov	r0,	#BYTE1 OFFSET __funcI2CFin
00:0050 00'01                    2815   	mov	r1,	#BYTE2 OFFSET __funcI2CFin
00:0052 5E-F0                    2816   	push	er0
00:0054 06 E0                    2817   	mov	er0,	#6 
00:0056 5E-F0                    2818   	push	er0
00:0058 00'00                    2819   	mov	r0,	#BYTE1 OFFSET _Mag_Data
00:005A 00'01                    2820   	mov	r1,	#BYTE2 OFFSET _Mag_Data
00:005C 5E-F0                    2821   	push	er0
00:005E 01 E0                    2822   	mov	er0,	#1 
00:0060 5E-F0                    2823   	push	er0
00:0062 00'02                    2824   	mov	r2,	#BYTE1 OFFSET _Mag_ReadData
00:0064 00'03                    2825   	mov	r3,	#BYTE2 OFFSET _Mag_ReadData
00:0066 10-90 00-00'             2826   	l	r0,	NEAR _HMC5883Address
00:006A 01-F0'00-00'             2827   	bl	_i2c_startReceive
00:006E 08 E1                    2828   	add	sp,	#8 
                                 2829   
                                 2830   ;;	while(_flgI2CFin != 1){															//Wait for I2C commands to finish transfer
                                 2831   CLINEA 0000H 0000H 0526H 0001H 0001H
00:0070 02 CE                    2832   	bal	_$L180
                                 2833   
                                 2834   ;;	while(_flgI2CFin != 1){															//Wait for I2C commands to finish transfer
                                 2835   CLINEA 0000H 0000H 0526H 0002H 0051H
00:0072                          2836   _$L169 :
                                 2837   CBLOCK 223 4 1318
                                 2838   
                                 2839   ;;		main_clrWDT();
                                 2840   CLINEA 0000H 0001H 0527H 0003H 0010H
00:0072 01-F0'00-00'             2841   	bl	_main_clrWDT
                                 2842   CBLOCKEND 223 4 1320
                                 2843   
                                 2844   ;;	while(_flgI2CFin != 1){															//Wait for I2C commands to finish transfer
                                 2845   CLINEA 0000H 0000H 0526H 0001H 0001H
00:0076                          2846   _$L180 :
00:0076 10-90 00-00'             2847   	l	r0,	NEAR __flgI2CFin
00:007A 01 70                    2848   	cmp	r0,	#01h
00:007C FA C8                    2849   	bne	_$L169
                                 2850   
                                 2851   ;;	Mag_Zout = (Mag_Data[2]<<8)+(Mag_Data[3]);
                                 2852   CLINEA 0000H 0001H 052CH 0002H 002BH
00:007E 10-90 00-00'             2853   	l	r0,	NEAR _Mag_Data+02h
00:0082 00 01                    2854   	mov	r1,	#00h
00:0084 00-83                    2855   	mov	r3,	r0
00:0086 00 02                    2856   	mov	r2,	#00h
00:0088 10-90 00-00'             2857   	l	r0,	NEAR _Mag_Data+03h
00:008C 26-F0                    2858   	add	er0,	er2
00:008E 10-82                    2859   	mov	r2,	r1
00:0090 2F-83                    2860   	extbw	er2
00:0092 30-82                    2861   	mov	r2,	r3
00:0094 6E-F0                    2862   	push	xr0
00:0096 01-F0'00-00'             2863   	bl	__fildu8sw
00:009A 2E-F0                    2864   	pop	xr0
00:009C 13-90 00-00'             2865   	st	er0,	NEAR _Mag_Zout
00:00A0 13-92 00-00'             2866   	st	er2,	NEAR _Mag_Zout+02h
                                 2867   
                                 2868   ;;	Mag_Xout *= Mag_GainFactor;
                                 2869   CLINEA 0000H 0001H 052EH 0002H 001CH
00:00A4 10-90 00-00'             2870   	l	r0,	NEAR _Mag_Data+01h
00:00A8 00 01                    2871   	mov	r1,	#00h
00:00AA 10-92 00-00'             2872   	l	r2,	NEAR _Mag_Data
00:00AE 20-83                    2873   	mov	r3,	r2
00:00B0 00 02                    2874   	mov	r2,	#00h
00:00B2 26-F0                    2875   	add	er0,	er2
00:00B4 10-82                    2876   	mov	r2,	r1
00:00B6 2F-83                    2877   	extbw	er2
00:00B8 30-82                    2878   	mov	r2,	r3
00:00BA 6E-F0                    2879   	push	xr0
00:00BC 01-F0'00-00'             2880   	bl	__fildu8sw
00:00C0 12-90 00-00'             2881   	l	er0,	NEAR _Mag_GainFactor
00:00C4 12-92 00-00'             2882   	l	er2,	NEAR _Mag_GainFactor+02h
00:00C8 6E-F0                    2883   	push	xr0
00:00CA 01-F0'00-00'             2884   	bl	__fmulu8sw
00:00CE 04 E1                    2885   	add	sp,	#4 
00:00D0 2E-F0                    2886   	pop	xr0
00:00D2 13-90 00-00'             2887   	st	er0,	NEAR _Mag_Xout
00:00D6 13-92 00-00'             2888   	st	er2,	NEAR _Mag_Xout+02h
                                 2889   
                                 2890   ;;	Mag_Yout *= Mag_GainFactor;
                                 2891   CLINEA 0000H 0001H 052FH 0002H 001CH
00:00DA 10-90 00-00'             2892   	l	r0,	NEAR _Mag_Data+04h
00:00DE 00 01                    2893   	mov	r1,	#00h
00:00E0 00-83                    2894   	mov	r3,	r0
00:00E2 00 02                    2895   	mov	r2,	#00h
00:00E4 10-90 00-00'             2896   	l	r0,	NEAR _Mag_Data+05h
00:00E8 26-F0                    2897   	add	er0,	er2
00:00EA 10-82                    2898   	mov	r2,	r1
00:00EC 2F-83                    2899   	extbw	er2
00:00EE 30-82                    2900   	mov	r2,	r3
00:00F0 6E-F0                    2901   	push	xr0
00:00F2 01-F0'00-00'             2902   	bl	__fildu8sw
00:00F6 12-90 00-00'             2903   	l	er0,	NEAR _Mag_GainFactor
00:00FA 12-92 00-00'             2904   	l	er2,	NEAR _Mag_GainFactor+02h
00:00FE 6E-F0                    2905   	push	xr0
00:0100 01-F0'00-00'             2906   	bl	__fmulu8sw
00:0104 04 E1                    2907   	add	sp,	#4 
00:0106 2E-F0                    2908   	pop	xr0
00:0108 13-90 00-00'             2909   	st	er0,	NEAR _Mag_Yout
00:010C 13-92 00-00'             2910   	st	er2,	NEAR _Mag_Yout+02h
                                 2911   
                                 2912   ;;	if(Mag_Yout >= 0){
                                 2913   CLINEA 0000H 0001H 0531H 0002H 0013H
00:0110 6E-F0                    2914   	push	xr0
00:0112 00 E0                    2915   	mov	er0,	#0 
00:0114 00 E2                    2916   	mov	er2,	#0 
00:0116 6E-F0                    2917   	push	xr0
00:0118 01-F0'00-00'             2918   	bl	__fcmpu8sw
00:011C 08 E1                    2919   	add	sp,	#8 
00:011E 0B-A0                    2920   	mov	psw,	r0
00:0120 35 C1                    2921   	blt	_$L171
                                 2922   CBLOCK 223 5 1329
                                 2923   
                                 2924   ;;		Mag_Angle = 90 - (atan(Mag_Xout/Mag_Yout)) * (180/3.1415927);
                                 2925   CLINEA 0000H 0000H 0532H 0003H 003FH
00:0122 12-90 00-00'             2926   	l	er0,	NEAR _Mag_Xout
00:0126 12-92 00-00'             2927   	l	er2,	NEAR _Mag_Xout+02h
00:012A 6E-F0                    2928   	push	xr0
00:012C 12-90 00-00'             2929   	l	er0,	NEAR _Mag_Yout
00:0130 12-92 00-00'             2930   	l	er2,	NEAR _Mag_Yout+02h
00:0134 6E-F0                    2931   	push	xr0
00:0136 01-F0'00-00'             2932   	bl	__fdivu8sw
00:013A 01-F0'00-00'             2933   	bl	__ftodu8sw
00:013E E5-F0                    2934   	mov	er0,	fp
00:0140 F8 E0                    2935   	add	er0,	#-8
00:0142 01-F0'00-00'             2936   	bl	_atan
00:0146 08 E1                    2937   	add	sp,	#8 
00:0148 00 E0                    2938   	mov	er0,	#0 
00:014A 00 E2                    2939   	mov	er2,	#0 
00:014C 00 04                    2940   	mov	r4,	#00h
00:014E 80 05                    2941   	mov	r5,	#080h
00:0150 56 06                    2942   	mov	r6,	#056h
00:0152 40 07                    2943   	mov	r7,	#040h
00:0154 7E-F0                    2944   	push	qr0
00:0156 EB-F0 F8-FF              2945   	lea	-8[fp]
00:015A 36-90                    2946   	l	qr0,	[ea]
00:015C 7E-F0                    2947   	push	qr0
00:015E 4A 00                    2948   	mov	r0,	#04ah
00:0160 15 01                    2949   	mov	r1,	#015h
00:0162 4A 02                    2950   	mov	r2,	#04ah
00:0164 13 03                    2951   	mov	r3,	#013h
00:0166 DC 04                    2952   	mov	r4,	#0dch
00:0168 A5 05                    2953   	mov	r5,	#0a5h
00:016A 4C 06                    2954   	mov	r6,	#04ch
00:016C 40 07                    2955   	mov	r7,	#040h
00:016E 7E-F0                    2956   	push	qr0
00:0170 01-F0'00-00'             2957   	bl	__dmulu8sw
00:0174 08 E1                    2958   	add	sp,	#8 
00:0176 01-F0'00-00'             2959   	bl	__dsubu8sw
00:017A 08 E1                    2960   	add	sp,	#8 
00:017C 01-F0'00-00'             2961   	bl	__dtofu8sw
00:0180 04 E1                    2962   	add	sp,	#4 
00:0182 2E-F0                    2963   	pop	xr0
00:0184 13-90 00-00'             2964   	st	er0,	NEAR _Mag_Angle
00:0188 13-92 00-00'             2965   	st	er2,	NEAR _Mag_Angle+02h
                                 2966   CBLOCKEND 223 5 1331
                                 2967   
                                 2968   ;;	}
                                 2969   CLINEA 0000H 0000H 0533H 0002H 0002H
00:018C                          2970   _$L171 :
                                 2971   
                                 2972   ;;	if(Mag_Yout < 0){
                                 2973   CLINEA 0000H 0001H 0534H 0002H 0012H
00:018C 12-90 00-00'             2974   	l	er0,	NEAR _Mag_Yout
00:0190 12-92 00-00'             2975   	l	er2,	NEAR _Mag_Yout+02h
00:0194 6E-F0                    2976   	push	xr0
00:0196 00 E0                    2977   	mov	er0,	#0 
00:0198 00 E2                    2978   	mov	er2,	#0 
00:019A 6E-F0                    2979   	push	xr0
00:019C 01-F0'00-00'             2980   	bl	__fcmpu8sw
00:01A0 08 E1                    2981   	add	sp,	#8 
00:01A2 0B-A0                    2982   	mov	psw,	r0
00:01A4 35 C0                    2983   	bge	_$L173
                                 2984   CBLOCK 223 6 1332
                                 2985   
                                 2986   ;;		Mag_Angle = 270 - (atan(Mag_Xout/Mag_Yout)) * (180/3.1415927);
                                 2987   CLINEA 0000H 0000H 0535H 0003H 0040H
00:01A6 12-90 00-00'             2988   	l	er0,	NEAR _Mag_Xout
00:01AA 12-92 00-00'             2989   	l	er2,	NEAR _Mag_Xout+02h
00:01AE 6E-F0                    2990   	push	xr0
00:01B0 12-90 00-00'             2991   	l	er0,	NEAR _Mag_Yout
00:01B4 12-92 00-00'             2992   	l	er2,	NEAR _Mag_Yout+02h
00:01B8 6E-F0                    2993   	push	xr0
00:01BA 01-F0'00-00'             2994   	bl	__fdivu8sw
00:01BE 01-F0'00-00'             2995   	bl	__ftodu8sw
00:01C2 E5-F0                    2996   	mov	er0,	fp
00:01C4 F8 E0                    2997   	add	er0,	#-8
00:01C6 01-F0'00-00'             2998   	bl	_atan
00:01CA 08 E1                    2999   	add	sp,	#8 
00:01CC 00 E0                    3000   	mov	er0,	#0 
00:01CE 00 E2                    3001   	mov	er2,	#0 
00:01D0 00 04                    3002   	mov	r4,	#00h
00:01D2 E0 05                    3003   	mov	r5,	#0e0h
00:01D4 70 06                    3004   	mov	r6,	#070h
00:01D6 40 07                    3005   	mov	r7,	#040h
00:01D8 7E-F0                    3006   	push	qr0
00:01DA EB-F0 F8-FF              3007   	lea	-8[fp]
00:01DE 36-90                    3008   	l	qr0,	[ea]
00:01E0 7E-F0                    3009   	push	qr0
00:01E2 4A 00                    3010   	mov	r0,	#04ah
00:01E4 15 01                    3011   	mov	r1,	#015h
00:01E6 4A 02                    3012   	mov	r2,	#04ah
00:01E8 13 03                    3013   	mov	r3,	#013h
00:01EA DC 04                    3014   	mov	r4,	#0dch
00:01EC A5 05                    3015   	mov	r5,	#0a5h
00:01EE 4C 06                    3016   	mov	r6,	#04ch
00:01F0 40 07                    3017   	mov	r7,	#040h
00:01F2 7E-F0                    3018   	push	qr0
00:01F4 01-F0'00-00'             3019   	bl	__dmulu8sw
00:01F8 08 E1                    3020   	add	sp,	#8 
00:01FA 01-F0'00-00'             3021   	bl	__dsubu8sw
00:01FE 08 E1                    3022   	add	sp,	#8 
00:0200 01-F0'00-00'             3023   	bl	__dtofu8sw
00:0204 04 E1                    3024   	add	sp,	#4 
00:0206 2E-F0                    3025   	pop	xr0
00:0208 13-90 00-00'             3026   	st	er0,	NEAR _Mag_Angle
00:020C 13-92 00-00'             3027   	st	er2,	NEAR _Mag_Angle+02h
                                 3028   CBLOCKEND 223 6 1334
                                 3029   
                                 3030   ;;	}
                                 3031   CLINEA 0000H 0000H 0536H 0002H 0002H
00:0210                          3032   _$L173 :
                                 3033   
                                 3034   ;;	Mag_Angle -= 90;  //This will adjust and get the true 
                                 3035   CLINEA 0000H 0001H 0538H 0002H 0037H
00:0210 12-90 00-00'             3036   	l	er0,	NEAR _Mag_Angle
00:0214 12-92 00-00'             3037   	l	er2,	NEAR _Mag_Angle+02h
00:0218 6E-F0                    3038   	push	xr0
00:021A 00 E0                    3039   	mov	er0,	#0 
00:021C B4 02                    3040   	mov	r2,	#0b4h
00:021E C2 03                    3041   	mov	r3,	#0c2h
00:0220 6E-F0                    3042   	push	xr0
00:0222 01-F0'00-00'             3043   	bl	__faddu8sw
00:0226 04 E1                    3044   	add	sp,	#4 
00:0228 2E-F0                    3045   	pop	xr0
00:022A 13-90 00-00'             3046   	st	er0,	NEAR _Mag_Angle
00:022E 13-92 00-00'             3047   	st	er2,	NEAR _Mag_Angle+02h
                                 3048   
                                 3049   ;;	if(Mag_Angle >=360){
                                 3050   CLINEA 0000H 0001H 0539H 0002H 0015H
00:0232 6E-F0                    3051   	push	xr0
00:0234 00 E0                    3052   	mov	er0,	#0 
00:0236 B4 02                    3053   	mov	r2,	#0b4h
00:0238 43 03                    3054   	mov	r3,	#043h
00:023A 6E-F0                    3055   	push	xr0
00:023C 01-F0'00-00'             3056   	bl	__fcmpu8sw
00:0240 08 E1                    3057   	add	sp,	#8 
00:0242 0B-A0                    3058   	mov	psw,	r0
00:0244 11 C1                    3059   	blt	_$L175
                                 3060   CBLOCK 223 7 1337
                                 3061   
                                 3062   ;;		Mag_Angle -= 360;
                                 3063   CLINEA 0000H 0001H 053AH 0003H 0013H
00:0246 12-90 00-00'             3064   	l	er0,	NEAR _Mag_Angle
00:024A 12-92 00-00'             3065   	l	er2,	NEAR _Mag_Angle+02h
00:024E 6E-F0                    3066   	push	xr0
00:0250 00 E0                    3067   	mov	er0,	#0 
00:0252 B4 02                    3068   	mov	r2,	#0b4h
00:0254 C3 03                    3069   	mov	r3,	#0c3h
00:0256 6E-F0                    3070   	push	xr0
00:0258 01-F0'00-00'             3071   	bl	__faddu8sw
00:025C 04 E1                    3072   	add	sp,	#4 
00:025E 2E-F0                    3073   	pop	xr0
00:0260 13-90 00-00'             3074   	st	er0,	NEAR _Mag_Angle
00:0264 13-92 00-00'             3075   	st	er2,	NEAR _Mag_Angle+02h
                                 3076   CBLOCKEND 223 7 1339
                                 3077   
                                 3078   ;;	}
                                 3079   CLINEA 0000H 0000H 053BH 0002H 0002H
00:0268                          3080   _$L175 :
                                 3081   
                                 3082   ;;	if(Mag_Angle < 0){
                                 3083   CLINEA 0000H 0001H 053CH 0002H 0013H
00:0268 12-90 00-00'             3084   	l	er0,	NEAR _Mag_Angle
00:026C 12-92 00-00'             3085   	l	er2,	NEAR _Mag_Angle+02h
00:0270 6E-F0                    3086   	push	xr0
00:0272 00 E0                    3087   	mov	er0,	#0 
00:0274 00 E2                    3088   	mov	er2,	#0 
00:0276 6E-F0                    3089   	push	xr0
00:0278 01-F0'00-00'             3090   	bl	__fcmpu8sw
00:027C 08 E1                    3091   	add	sp,	#8 
00:027E 0B-A0                    3092   	mov	psw,	r0
00:0280 11 C0                    3093   	bge	_$L177
                                 3094   CBLOCK 223 8 1340
                                 3095   
                                 3096   ;;		Mag_Angle += 360;
                                 3097   CLINEA 0000H 0001H 053DH 0003H 0013H
00:0282 12-90 00-00'             3098   	l	er0,	NEAR _Mag_Angle
00:0286 12-92 00-00'             3099   	l	er2,	NEAR _Mag_Angle+02h
00:028A 6E-F0                    3100   	push	xr0
00:028C 00 E0                    3101   	mov	er0,	#0 
00:028E B4 02                    3102   	mov	r2,	#0b4h
00:0290 43 03                    3103   	mov	r3,	#043h
00:0292 6E-F0                    3104   	push	xr0
00:0294 01-F0'00-00'             3105   	bl	__faddu8sw
00:0298 04 E1                    3106   	add	sp,	#4 
00:029A 2E-F0                    3107   	pop	xr0
00:029C 13-90 00-00'             3108   	st	er0,	NEAR _Mag_Angle
00:02A0 13-92 00-00'             3109   	st	er2,	NEAR _Mag_Angle+02h
                                 3110   CBLOCKEND 223 8 1342
                                 3111   
                                 3112   ;;	}
                                 3113   CLINEA 0000H 0000H 053EH 0002H 0002H
00:02A4                          3114   _$L177 :
                                 3115   CBLOCKEND 223 2 1343
                                 3116   
                                 3117   ;;}
                                 3118   CLINEA 0000H 0001H 053FH 0001H 0001H
00:02A4 2E-F4                    3119   	pop	xr4
00:02A6 EA-A1                    3120   	mov	sp,	fp
00:02A8 1E-FE                    3121   	pop	fp
00:02AA 8E-F2                    3122   	pop	pc
                                 3123   CBLOCKEND 223 1 1343
                                 3124   CFUNCTIONEND 223
                                 3125   
                                 3126   
  --------------------------     3127   	rseg $$ClearVariables$main
                                 3128   CFUNCTION 224
                                 3129   
00:0000                          3130   _ClearVariables	:
                                 3131   CBLOCK 224 1 1345
                                 3132   
                                 3133   ;;void ClearVariables(void){
                                 3134   CLINEA 0000H 0001H 0541H 0001H 001AH
                                 3135   CBLOCK 224 2 1345
                                 3136   
                                 3137   ;;	Temp_out = 0;
                                 3138   CLINEA 0000H 0001H 0542H 0002H 000EH
00:0000 00 E0                    3139   	mov	er0,	#0 
00:0002 13-90 00-00'             3140   	st	er0,	NEAR _Temp_out
00:0006 13-90 00-00'             3141   	st	er0,	NEAR _Temp_out+02h
                                 3142   
                                 3143   ;;	Mag_Xout = 0;
                                 3144   CLINEA 0000H 0001H 0543H 0002H 000EH
00:000A 13-90 00-00'             3145   	st	er0,	NEAR _Mag_Xout
00:000E 13-90 00-00'             3146   	st	er0,	NEAR _Mag_Xout+02h
                                 3147   
                                 3148   ;;	Mag_Yout = 0;
                                 3149   CLINEA 0000H 0001H 0544H 0002H 000EH
00:0012 13-90 00-00'             3150   	st	er0,	NEAR _Mag_Yout
00:0016 13-90 00-00'             3151   	st	er0,	NEAR _Mag_Yout+02h
                                 3152   
                                 3153   ;;	Mag_Zout = 0;
                                 3154   CLINEA 0000H 0001H 0545H 0002H 000EH
00:001A 13-90 00-00'             3155   	st	er0,	NEAR _Mag_Zout
00:001E 13-90 00-00'             3156   	st	er0,	NEAR _Mag_Zout+02h
                                 3157   
                                 3158   ;;	Mag_Angle = 0;
                                 3159   CLINEA 0000H 0001H 0546H 0002H 000FH
00:0022 13-90 00-00'             3160   	st	er0,	NEAR _Mag_Angle
00:0026 13-90 00-00'             3161   	st	er0,	NEAR _Mag_Angle+02h
                                 3162   
                                 3163   ;;	Ping_timer = 0;
                                 3164   CLINEA 0000H 0001H 0547H 0002H 0010H
00:002A 13-90 00-00'             3165   	st	er0,	NEAR _Ping_timer
                                 3166   
                                 3167   ;;	Ping_out = 0;
                                 3168   CLINEA 0000H 0001H 0548H 0002H 000EH
00:002E 13-90 00-00'             3169   	st	er0,	NEAR _Ping_out
00:0032 13-90 00-00'             3170   	st	er0,	NEAR _Ping_out+02h
                                 3171   
                                 3172   ;;	Range_out = 0;
                                 3173   CLINEA 0000H 0001H 0549H 0002H 000FH
00:0036 13-90 00-00'             3174   	st	er0,	NEAR _Range_out
                                 3175   CBLOCKEND 224 2 1354
                                 3176   
                                 3177   ;;}
                                 3178   CLINEA 0000H 0001H 054AH 0001H 0001H
00:003A 1F-FE                    3179   	rt
                                 3180   CBLOCKEND 224 1 1354
                                 3181   CFUNCTIONEND 224
                                 3182   
                                 3183   
  --------------------------     3184   	rseg $$ReturnSensorData$main
                                 3185   CFUNCTION 225
                                 3186   
00:0000                          3187   _ReturnSensorData	:
                                 3188   CBLOCK 225 1 1356
                                 3189   
                                 3190   ;;void ReturnSensorData(void){
                                 3191   CLINEA 0000H 0001H 054CH 0001H 001CH
00:0000 CE-F8                    3192   	push	lr
                                 3193   CBLOCK 225 2 1356
                                 3194   CRET 0000H
                                 3195   CLOCAL 47H 0002H 0024H 0002H "i" 02H 00H 01H
                                 3196   
                                 3197   ;;	for(i = 0; i<150; i++)
                                 3198   CLINEA 0000H 0001H 054EH 0002H 0017H
00:0002 00 E0                    3199   	mov	er0,	#0 
00:0004                          3200   _$L185 :
                                 3201   CBLOCK 225 3 1359
                                 3202   
                                 3203   ;;		SensorReturn[i] = 0x20;
                                 3204   CLINEA 0000H 0001H 0550H 0003H 0019H
00:0004 20 02                    3205   	mov	r2,	#020h
00:0006 09-92 00-00'             3206   	st	r2,	NEAR _SensorReturn[er0]
                                 3207   CBLOCKEND 225 3 1361
                                 3208   
                                 3209   ;;	for(i = 0; i<150; i++)
                                 3210   CLINEA 0000H 0000H 054EH 0002H 0017H
00:000A 81 E0                    3211   	add	er0,	#1 
00:000C 96 70                    3212   	cmp	r0,	#096h
00:000E 00 51                    3213   	cmpc	r1,	#00h
00:0010 F9 C5                    3214   	blts	_$L185
                                 3215   
                                 3216   ;;	sprintf(SensorReturn, "%f,%f,%f,%f,%f,%f,%f,%u", Accel_Xout, Accel_Yout, Accel_Zout, Gyro_Xout, Gyro_Yout, Gyro_Zout, Mag_Angle,Range_out);
                                 3217   CLINEA 0000H 0001H 0553H 0002H 008CH
00:0012 12-90 00-00'             3218   	l	er0,	NEAR _Range_out
00:0016 5E-F0                    3219   	push	er0
00:0018 12-90 00-00'             3220   	l	er0,	NEAR _Mag_Angle
00:001C 12-92 00-00'             3221   	l	er2,	NEAR _Mag_Angle+02h
00:0020 6E-F0                    3222   	push	xr0
00:0022 FC E1                    3223   	add	sp,	#-4
00:0024 01-F0'00-00'             3224   	bl	__ftodu8sw
00:0028 00'00                    3225   	mov	r0,	#BYTE1 OFFSET _Gyro_Zout
00:002A 00'01                    3226   	mov	r1,	#BYTE2 OFFSET _Gyro_Zout
00:002C 5E-F0                    3227   	push	er0
00:002E 00'00                    3228   	mov	r0,	#BYTE1 OFFSET _Gyro_Yout
00:0030 00'01                    3229   	mov	r1,	#BYTE2 OFFSET _Gyro_Yout
00:0032 5E-F0                    3230   	push	er0
00:0034 00'00                    3231   	mov	r0,	#BYTE1 OFFSET _Gyro_Xout
00:0036 00'01                    3232   	mov	r1,	#BYTE2 OFFSET _Gyro_Xout
00:0038 5E-F0                    3233   	push	er0
00:003A 00'00                    3234   	mov	r0,	#BYTE1 OFFSET _Accel_Zout
00:003C 00'01                    3235   	mov	r1,	#BYTE2 OFFSET _Accel_Zout
00:003E 5E-F0                    3236   	push	er0
00:0040 00'00                    3237   	mov	r0,	#BYTE1 OFFSET _Accel_Yout
00:0042 00'01                    3238   	mov	r1,	#BYTE2 OFFSET _Accel_Yout
00:0044 5E-F0                    3239   	push	er0
00:0046 00'00                    3240   	mov	r0,	#BYTE1 OFFSET _Accel_Xout
00:0048 00'01                    3241   	mov	r1,	#BYTE2 OFFSET _Accel_Xout
00:004A 5E-F0                    3242   	push	er0
00:004C 00'00                    3243   	mov	r0,	#BYTE1 OFFSET $$S189
00:004E 00'01                    3244   	mov	r1,	#BYTE2 OFFSET $$S189
00:0050 5E-F0                    3245   	push	er0
00:0052 00'00                    3246   	mov	r0,	#BYTE1 OFFSET _SensorReturn
00:0054 00'01                    3247   	mov	r1,	#BYTE2 OFFSET _SensorReturn
00:0056 5E-F0                    3248   	push	er0
00:0058 01-F0'00-00'             3249   	bl	_sprintf_nn
00:005C 1A E1                    3250   	add	sp,	#26
                                 3251   
                                 3252   ;;	SensorReturn[148] = 0x0D;
                                 3253   CLINEA 0000H 0001H 0555H 0002H 001AH
00:005E 0D 00                    3254   	mov	r0,	#0dh
00:0060 11-90 00-00'             3255   	st	r0,	NEAR _SensorReturn+094h
                                 3256   
                                 3257   ;;	SensorReturn[149] = 0x0A;
                                 3258   CLINEA 0000H 0001H 0556H 0002H 001AH
00:0064 0A 00                    3259   	mov	r0,	#0ah
00:0066 11-90 00-00'             3260   	st	r0,	NEAR _SensorReturn+095h
                                 3261   
                                 3262   ;;	_flgUartFin = 0;
                                 3263   CLINEA 0000H 0001H 0559H 0002H 0011H
00:006A 00 00                    3264   	mov	r0,	#00h
00:006C 11-90 00-00'             3265   	st	r0,	NEAR __flgUartFin
                                 3266   
                                 3267   ;;	uart_stop();
                                 3268   CLINEA 0000H 0001H 055AH 0002H 000DH
00:0070 01-F0'00-00'             3269   	bl	_uart_stop
                                 3270   
                                 3271   ;;	uart_startSend(SensorReturn, 150, _funcUartFin);
                                 3272   CLINEA 0000H 0001H 055BH 0002H 0031H
00:0074 00'00                    3273   	mov	r0,	#BYTE1 OFFSET __funcUartFin
00:0076 00'01                    3274   	mov	r1,	#BYTE2 OFFSET __funcUartFin
00:0078 5E-F0                    3275   	push	er0
00:007A 96 02                    3276   	mov	r2,	#096h
00:007C 00 03                    3277   	mov	r3,	#00h
00:007E 00'00                    3278   	mov	r0,	#BYTE1 OFFSET _SensorReturn
00:0080 00'01                    3279   	mov	r1,	#BYTE2 OFFSET _SensorReturn
00:0082 01-F0'00-00'             3280   	bl	_uart_startSend
00:0086 02 E1                    3281   	add	sp,	#2 
                                 3282   
                                 3283   ;;	while(_flgUartFin != 1){
                                 3284   CLINEA 0000H 0000H 055CH 0001H 0001H
00:0088 02 CE                    3285   	bal	_$L194
                                 3286   
                                 3287   ;;	while(_flgUartFin != 1){
                                 3288   CLINEA 0000H 0000H 055CH 0002H 0019H
00:008A                          3289   _$L192 :
                                 3290   CBLOCK 225 4 1372
                                 3291   
                                 3292   ;;		main_clrWDT();
                                 3293   CLINEA 0000H 0001H 055DH 0003H 0010H
00:008A 01-F0'00-00'             3294   	bl	_main_clrWDT
                                 3295   CBLOCKEND 225 4 1374
                                 3296   
                                 3297   ;;	while(_flgUartFin != 1){
                                 3298   CLINEA 0000H 0000H 055CH 0001H 0001H
00:008E                          3299   _$L194 :
00:008E 10-90 00-00'             3300   	l	r0,	NEAR __flgUartFin
00:0092 01 70                    3301   	cmp	r0,	#01h
00:0094 FA C8                    3302   	bne	_$L192
                                 3303   CBLOCKEND 225 2 1375
                                 3304   
                                 3305   ;;}
                                 3306   CLINEA 0000H 0001H 055FH 0001H 0001H
00:0096 8E-F2                    3307   	pop	pc
                                 3308   CBLOCKEND 225 1 1375
                                 3309   CFUNCTIONEND 225
                                 3310   
                                 3311   
  --------------------------     3312   	rseg $$ReturnAccelData$main
                                 3313   CFUNCTION 226
                                 3314   
00:0000                          3315   _ReturnAccelData	:
                                 3316   CBLOCK 226 1 1377
                                 3317   
                                 3318   ;;void ReturnAccelData(void){
                                 3319   CLINEA 0000H 0001H 0561H 0001H 001BH
00:0000 CE-F8                    3320   	push	lr
                                 3321   CBLOCK 226 2 1377
                                 3322   CRET 0000H
                                 3323   CLOCAL 47H 0002H 0024H 0002H "i" 02H 00H 01H
                                 3324   
                                 3325   ;;	for(i = 0; i<150; i++)
                                 3326   CLINEA 0000H 0001H 0563H 0002H 0017H
00:0002 00 E0                    3327   	mov	er0,	#0 
00:0004                          3328   _$L198 :
                                 3329   CBLOCK 226 3 1380
                                 3330   
                                 3331   ;;		SensorReturn[i] = 0x20;
                                 3332   CLINEA 0000H 0001H 0565H 0003H 0019H
00:0004 20 02                    3333   	mov	r2,	#020h
00:0006 09-92 00-00'             3334   	st	r2,	NEAR _SensorReturn[er0]
                                 3335   CBLOCKEND 226 3 1382
                                 3336   
                                 3337   ;;	for(i = 0; i<150; i++)
                                 3338   CLINEA 0000H 0000H 0563H 0002H 0017H
00:000A 81 E0                    3339   	add	er0,	#1 
00:000C 96 70                    3340   	cmp	r0,	#096h
00:000E 00 51                    3341   	cmpc	r1,	#00h
00:0010 F9 C5                    3342   	blts	_$L198
                                 3343   
                                 3344   ;;	sprintf(SensorReturn, "%f,%f,%f", Accel_Xout, Accel_Yout, Accel_Zout);
                                 3345   CLINEA 0000H 0001H 0569H 0002H 0047H
00:0012 00'00                    3346   	mov	r0,	#BYTE1 OFFSET _Accel_Zout
00:0014 00'01                    3347   	mov	r1,	#BYTE2 OFFSET _Accel_Zout
00:0016 5E-F0                    3348   	push	er0
00:0018 00'00                    3349   	mov	r0,	#BYTE1 OFFSET _Accel_Yout
00:001A 00'01                    3350   	mov	r1,	#BYTE2 OFFSET _Accel_Yout
00:001C 5E-F0                    3351   	push	er0
00:001E 00'00                    3352   	mov	r0,	#BYTE1 OFFSET _Accel_Xout
00:0020 00'01                    3353   	mov	r1,	#BYTE2 OFFSET _Accel_Xout
00:0022 5E-F0                    3354   	push	er0
00:0024 00'00                    3355   	mov	r0,	#BYTE1 OFFSET $$S202
00:0026 00'01                    3356   	mov	r1,	#BYTE2 OFFSET $$S202
00:0028 5E-F0                    3357   	push	er0
00:002A 00'00                    3358   	mov	r0,	#BYTE1 OFFSET _SensorReturn
00:002C 00'01                    3359   	mov	r1,	#BYTE2 OFFSET _SensorReturn
00:002E 5E-F0                    3360   	push	er0
00:0030 01-F0'00-00'             3361   	bl	_sprintf_nn
00:0034 0A E1                    3362   	add	sp,	#10
                                 3363   
                                 3364   ;;	SensorReturn[148] = 0x0D;	//CR
                                 3365   CLINEA 0000H 0001H 056BH 0002H 001FH
00:0036 0D 00                    3366   	mov	r0,	#0dh
00:0038 11-90 00-00'             3367   	st	r0,	NEAR _SensorReturn+094h
                                 3368   
                                 3369   ;;	SensorReturn[149] = 0x0A;	//LF
                                 3370   CLINEA 0000H 0001H 056CH 0002H 001FH
00:003C 0A 00                    3371   	mov	r0,	#0ah
00:003E 11-90 00-00'             3372   	st	r0,	NEAR _SensorReturn+095h
                                 3373   
                                 3374   ;;	_flgUartFin = 0;
                                 3375   CLINEA 0000H 0001H 056FH 0002H 0011H
00:0042 00 00                    3376   	mov	r0,	#00h
00:0044 11-90 00-00'             3377   	st	r0,	NEAR __flgUartFin
                                 3378   
                                 3379   ;;	uart_stop();
                                 3380   CLINEA 0000H 0001H 0570H 0002H 000DH
00:0048 01-F0'00-00'             3381   	bl	_uart_stop
                                 3382   
                                 3383   ;;	uart_startSend(SensorReturn, 150, _funcUartFin);
                                 3384   CLINEA 0000H 0001H 0571H 0002H 0031H
00:004C 00'00                    3385   	mov	r0,	#BYTE1 OFFSET __funcUartFin
00:004E 00'01                    3386   	mov	r1,	#BYTE2 OFFSET __funcUartFin
00:0050 5E-F0                    3387   	push	er0
00:0052 96 02                    3388   	mov	r2,	#096h
00:0054 00 03                    3389   	mov	r3,	#00h
00:0056 00'00                    3390   	mov	r0,	#BYTE1 OFFSET _SensorReturn
00:0058 00'01                    3391   	mov	r1,	#BYTE2 OFFSET _SensorReturn
00:005A 01-F0'00-00'             3392   	bl	_uart_startSend
00:005E 02 E1                    3393   	add	sp,	#2 
                                 3394   
                                 3395   ;;	while(_flgUartFin != 1){
                                 3396   CLINEA 0000H 0000H 0572H 0001H 0001H
00:0060 02 CE                    3397   	bal	_$L207
                                 3398   
                                 3399   ;;	while(_flgUartFin != 1){
                                 3400   CLINEA 0000H 0000H 0572H 0002H 0019H
00:0062                          3401   _$L205 :
                                 3402   CBLOCK 226 4 1394
                                 3403   
                                 3404   ;;		main_clrWDT();
                                 3405   CLINEA 0000H 0001H 0573H 0003H 0010H
00:0062 01-F0'00-00'             3406   	bl	_main_clrWDT
                                 3407   CBLOCKEND 226 4 1396
                                 3408   
                                 3409   ;;	while(_flgUartFin != 1){
                                 3410   CLINEA 0000H 0000H 0572H 0001H 0001H
00:0066                          3411   _$L207 :
00:0066 10-90 00-00'             3412   	l	r0,	NEAR __flgUartFin
00:006A 01 70                    3413   	cmp	r0,	#01h
00:006C FA C8                    3414   	bne	_$L205
                                 3415   CBLOCKEND 226 2 1397
                                 3416   
                                 3417   ;;}
                                 3418   CLINEA 0000H 0001H 0575H 0001H 0001H
00:006E 8E-F2                    3419   	pop	pc
                                 3420   CBLOCKEND 226 1 1397
                                 3421   CFUNCTIONEND 226
                                 3422   
                                 3423   
  --------------------------     3424   	rseg $$ReturnMagData$main
                                 3425   CFUNCTION 227
                                 3426   
00:0000                          3427   _ReturnMagData	:
                                 3428   CBLOCK 227 1 1399
                                 3429   
                                 3430   ;;void ReturnMagData(void){
                                 3431   CLINEA 0000H 0001H 0577H 0001H 0019H
00:0000 CE-F8                    3432   	push	lr
                                 3433   CBLOCK 227 2 1399
                                 3434   CRET 0000H
                                 3435   CLOCAL 47H 0002H 0024H 0002H "i" 02H 00H 01H
                                 3436   
                                 3437   ;;	for(i = 0; i<150; i++)
                                 3438   CLINEA 0000H 0001H 0579H 0002H 0017H
00:0002 00 E0                    3439   	mov	er0,	#0 
00:0004                          3440   _$L211 :
                                 3441   CBLOCK 227 3 1402
                                 3442   
                                 3443   ;;		SensorReturn[i] = 0x20;
                                 3444   CLINEA 0000H 0001H 057BH 0003H 0019H
00:0004 20 02                    3445   	mov	r2,	#020h
00:0006 09-92 00-00'             3446   	st	r2,	NEAR _SensorReturn[er0]
                                 3447   CBLOCKEND 227 3 1404
                                 3448   
                                 3449   ;;	for(i = 0; i<150; i++)
                                 3450   CLINEA 0000H 0000H 0579H 0002H 0017H
00:000A 81 E0                    3451   	add	er0,	#1 
00:000C 96 70                    3452   	cmp	r0,	#096h
00:000E 00 51                    3453   	cmpc	r1,	#00h
00:0010 F9 C5                    3454   	blts	_$L211
                                 3455   
                                 3456   ;;	sprintf(SensorReturn, "%f", Mag_Angle);
                                 3457   CLINEA 0000H 0001H 057DH 0002H 0028H
00:0012 12-90 00-00'             3458   	l	er0,	NEAR _Mag_Angle
00:0016 12-92 00-00'             3459   	l	er2,	NEAR _Mag_Angle+02h
00:001A 6E-F0                    3460   	push	xr0
00:001C FC E1                    3461   	add	sp,	#-4
00:001E 01-F0'00-00'             3462   	bl	__ftodu8sw
00:0022 00'00                    3463   	mov	r0,	#BYTE1 OFFSET $$S215
00:0024 00'01                    3464   	mov	r1,	#BYTE2 OFFSET $$S215
00:0026 5E-F0                    3465   	push	er0
00:0028 00'00                    3466   	mov	r0,	#BYTE1 OFFSET _SensorReturn
00:002A 00'01                    3467   	mov	r1,	#BYTE2 OFFSET _SensorReturn
00:002C 5E-F0                    3468   	push	er0
00:002E 01-F0'00-00'             3469   	bl	_sprintf_nn
00:0032 0C E1                    3470   	add	sp,	#12
                                 3471   
                                 3472   ;;	SensorReturn[148] = 0x0D;
                                 3473   CLINEA 0000H 0001H 057FH 0002H 001AH
00:0034 0D 00                    3474   	mov	r0,	#0dh
00:0036 11-90 00-00'             3475   	st	r0,	NEAR _SensorReturn+094h
                                 3476   
                                 3477   ;;	SensorReturn[149] = 0x0A;
                                 3478   CLINEA 0000H 0001H 0580H 0002H 001AH
00:003A 0A 00                    3479   	mov	r0,	#0ah
00:003C 11-90 00-00'             3480   	st	r0,	NEAR _SensorReturn+095h
                                 3481   
                                 3482   ;;	_flgUartFin = 0;
                                 3483   CLINEA 0000H 0001H 0583H 0002H 0011H
00:0040 00 00                    3484   	mov	r0,	#00h
00:0042 11-90 00-00'             3485   	st	r0,	NEAR __flgUartFin
                                 3486   
                                 3487   ;;	uart_stop();
                                 3488   CLINEA 0000H 0001H 0584H 0002H 000DH
00:0046 01-F0'00-00'             3489   	bl	_uart_stop
                                 3490   
                                 3491   ;;	uart_startSend(SensorReturn, 150, _funcUartFin);
                                 3492   CLINEA 0000H 0001H 0585H 0002H 0031H
00:004A 00'00                    3493   	mov	r0,	#BYTE1 OFFSET __funcUartFin
00:004C 00'01                    3494   	mov	r1,	#BYTE2 OFFSET __funcUartFin
00:004E 5E-F0                    3495   	push	er0
00:0050 96 02                    3496   	mov	r2,	#096h
00:0052 00 03                    3497   	mov	r3,	#00h
00:0054 00'00                    3498   	mov	r0,	#BYTE1 OFFSET _SensorReturn
00:0056 00'01                    3499   	mov	r1,	#BYTE2 OFFSET _SensorReturn
00:0058 01-F0'00-00'             3500   	bl	_uart_startSend
00:005C 02 E1                    3501   	add	sp,	#2 
                                 3502   
                                 3503   ;;	while(_flgUartFin != 1){
                                 3504   CLINEA 0000H 0000H 0586H 0001H 0001H
00:005E 02 CE                    3505   	bal	_$L220
                                 3506   
                                 3507   ;;	while(_flgUartFin != 1){
                                 3508   CLINEA 0000H 0000H 0586H 0002H 0019H
00:0060                          3509   _$L218 :
                                 3510   CBLOCK 227 4 1414
                                 3511   
                                 3512   ;;		main_clrWDT();
                                 3513   CLINEA 0000H 0001H 0587H 0003H 0010H
00:0060 01-F0'00-00'             3514   	bl	_main_clrWDT
                                 3515   CBLOCKEND 227 4 1416
                                 3516   
                                 3517   ;;	while(_flgUartFin != 1){
                                 3518   CLINEA 0000H 0000H 0586H 0001H 0001H
00:0064                          3519   _$L220 :
00:0064 10-90 00-00'             3520   	l	r0,	NEAR __flgUartFin
00:0068 01 70                    3521   	cmp	r0,	#01h
00:006A FA C8                    3522   	bne	_$L218
                                 3523   CBLOCKEND 227 2 1417
                                 3524   
                                 3525   ;;}
                                 3526   CLINEA 0000H 0001H 0589H 0001H 0001H
00:006C 8E-F2                    3527   	pop	pc
                                 3528   CBLOCKEND 227 1 1417
                                 3529   CFUNCTIONEND 227
                                 3530   
                                 3531   
  --------------------------     3532   	rseg $$CalibrateMotors$main
                                 3533   CFUNCTION 228
                                 3534   
00:0000                          3535   _CalibrateMotors	:
                                 3536   CBLOCK 228 1 1425
                                 3537   
                                 3538   ;;void CalibrateMotors(void){
                                 3539   CLINEA 0000H 0001H 0591H 0001H 001BH
                                 3540   CBLOCK 228 2 1425
                                 3541   CLOCAL 4BH 0002H 0000H 0002H "i" 02H 00H 01H
                                 3542   
                                 3543   ;;	PFRUN = 0;
                                 3544   CLINEA 0000H 0001H 05CDH 0002H 000BH
00:0000 82-A0 73-F9              3545   	rb	0f973h.0
                                 3546   
                                 3547   ;;	PERUN = 0;
                                 3548   CLINEA 0000H 0001H 05CEH 0002H 000BH
00:0004 82-A0 37-F9              3549   	rb	0f937h.0
                                 3550   
                                 3551   ;;	PDRUN = 0;
                                 3552   CLINEA 0000H 0001H 05CFH 0002H 000BH
00:0008 82-A0 27-F9              3553   	rb	0f927h.0
                                 3554   
                                 3555   ;;	PCRUN = 0;
                                 3556   CLINEA 0000H 0001H 05D0H 0002H 000BH
00:000C 82-A0 17-F9              3557   	rb	0f917h.0
                                 3558   
                                 3559   ;;	PWF0D = PWMSafeDuty; //Can't be running to change
                                 3560   CLINEA 0000H 0001H 05D2H 0002H 0032H
00:0010 12-90 00-00'             3561   	l	er0,	NEAR _PWMSafeDuty
00:0014 13-90 62-F9              3562   	st	er0,	0f962h
                                 3563   
                                 3564   ;;	PWED = PWMSafeDuty;
                                 3565   CLINEA 0000H 0001H 05D3H 0002H 0014H
00:0018 13-90 32-F9              3566   	st	er0,	0f932h
                                 3567   
                                 3568   ;;	PWDD = PWMSafeDuty;
                                 3569   CLINEA 0000H 0001H 05D4H 0002H 0014H
00:001C 13-90 22-F9              3570   	st	er0,	0f922h
                                 3571   
                                 3572   ;;	PWCD = PWMSafeDuty;
                                 3573   CLINEA 0000H 0001H 05D5H 0002H 0014H
00:0020 13-90 12-F9              3574   	st	er0,	0f912h
                                 3575   
                                 3576   ;;	PFRUN = 1;
                                 3577   CLINEA 0000H 0001H 05D7H 0002H 000BH
00:0024 80-A0 73-F9              3578   	sb	0f973h.0
                                 3579   
                                 3580   ;;	PERUN = 1;
                                 3581   CLINEA 0000H 0001H 05D8H 0002H 000BH
00:0028 80-A0 37-F9              3582   	sb	0f937h.0
                                 3583   
                                 3584   ;;	PDRUN = 1;
                                 3585   CLINEA 0000H 0001H 05D9H 0002H 000BH
00:002C 80-A0 27-F9              3586   	sb	0f927h.0
                                 3587   
                                 3588   ;;	PCRUN = 1;
                                 3589   CLINEA 0000H 0001H 05DAH 0002H 000BH
00:0030 80-A0 17-F9              3590   	sb	0f917h.0
                                 3591   
                                 3592   ;;	Mag_PIDCounter = 0;
                                 3593   CLINEA 0000H 0001H 05DCH 0002H 0014H
00:0034 00 E0                    3594   	mov	er0,	#0 
00:0036 13-90 00-00'             3595   	st	er0,	NEAR _Mag_PIDCounter
                                 3596   
                                 3597   ;;	CF_Gyro_Counter = 0;
                                 3598   CLINEA 0000H 0001H 05DDH 0002H 0015H
00:003A 13-90 00-00'             3599   	st	er0,	NEAR _CF_Gyro_Counter
00:003E 13-90 00-00'             3600   	st	er0,	NEAR _CF_Gyro_Counter+02h
                                 3601   
                                 3602   ;;	Accel_PID_XRollCounter_I = 0;
                                 3603   CLINEA 0000H 0001H 05DEH 0002H 001EH
00:0042 13-90 00-00'             3604   	st	er0,	NEAR _Accel_PID_XRollCounter_I
                                 3605   
                                 3606   ;;	Accel_PID_XRollCounter_D = 0;
                                 3607   CLINEA 0000H 0001H 05DFH 0002H 001EH
00:0046 13-90 00-00'             3608   	st	er0,	NEAR _Accel_PID_XRollCounter_D
                                 3609   
                                 3610   ;;	Accel_PID_YPitchCounter_I = 0;
                                 3611   CLINEA 0000H 0001H 05E0H 0002H 001FH
00:004A 13-90 00-00'             3612   	st	er0,	NEAR _Accel_PID_YPitchCounter_I
                                 3613   
                                 3614   ;;	Accel_PID_YPitchCounter_D = 0;
                                 3615   CLINEA 0000H 0001H 05E1H 0002H 001FH
00:004E 13-90 00-00'             3616   	st	er0,	NEAR _Accel_PID_YPitchCounter_D
                                 3617   
                                 3618   ;;	Range_PIDCounter = 0;
                                 3619   CLINEA 0000H 0001H 05E2H 0002H 0016H
00:0052 13-90 00-00'             3620   	st	er0,	NEAR _Range_PIDCounter
                                 3621   CBLOCKEND 228 2 1526
                                 3622   
                                 3623   ;;}
                                 3624   CLINEA 0000H 0001H 05F6H 0001H 0001H
00:0056 1F-FE                    3625   	rt
                                 3626   CBLOCKEND 228 1 1526
                                 3627   CFUNCTIONEND 228
                                 3628   
                                 3629   
  --------------------------     3630   	rseg $$CalibrateGyro$main
                                 3631   CFUNCTION 229
                                 3632   
00:0000                          3633   _CalibrateGyro	:
                                 3634   CBLOCK 229 1 1529
                                 3635   
                                 3636   ;;void CalibrateGyro(void){
                                 3637   CLINEA 0000H 0001H 05F9H 0001H 0019H
00:0000 CE-F8                    3638   	push	lr
00:0002 5E-F4                    3639   	push	er4
                                 3640   CBLOCK 229 2 1529
                                 3641   CRET 0002H
                                 3642   CLOCAL 47H 0002H 0026H 0002H "i" 02H 00H 01H
                                 3643   
                                 3644   ;;	for(i = 0; i<150; i++)
                                 3645   CLINEA 0000H 0001H 05FDH 0002H 0017H
00:0004 00 E0                    3646   	mov	er0,	#0 
00:0006                          3647   _$L225 :
                                 3648   CBLOCK 229 3 1534
                                 3649   
                                 3650   ;;		SensorReturn[i] = 0x20;
                                 3651   CLINEA 0000H 0001H 05FFH 0003H 0019H
00:0006 20 02                    3652   	mov	r2,	#020h
00:0008 09-92 00-00'             3653   	st	r2,	NEAR _SensorReturn[er0]
                                 3654   CBLOCKEND 229 3 1536
                                 3655   
                                 3656   ;;	for(i = 0; i<150; i++)
                                 3657   CLINEA 0000H 0000H 05FDH 0002H 0017H
00:000C 81 E0                    3658   	add	er0,	#1 
00:000E 96 70                    3659   	cmp	r0,	#096h
00:0010 00 51                    3660   	cmpc	r1,	#00h
00:0012 F9 C5                    3661   	blts	_$L225
                                 3662   
                                 3663   ;;	sprintf(SensorReturn, "Gyro Calibration: Please Keep the Quad Flat and Return Any 2 chars to Start");
                                 3664   CLINEA 0000H 0001H 0601H 0002H 0066H
00:0014 00'00                    3665   	mov	r0,	#BYTE1 OFFSET $$S229
00:0016 00'01                    3666   	mov	r1,	#BYTE2 OFFSET $$S229
00:0018 5E-F0                    3667   	push	er0
00:001A 00'00                    3668   	mov	r0,	#BYTE1 OFFSET _SensorReturn
00:001C 00'01                    3669   	mov	r1,	#BYTE2 OFFSET _SensorReturn
00:001E 5E-F0                    3670   	push	er0
00:0020 01-F0'00-00'             3671   	bl	_sprintf_nn
00:0024 04 E1                    3672   	add	sp,	#4 
                                 3673   
                                 3674   ;;	SensorReturn[148] = 0x0D;
                                 3675   CLINEA 0000H 0001H 0603H 0002H 001AH
00:0026 0D 00                    3676   	mov	r0,	#0dh
00:0028 11-90 00-00'             3677   	st	r0,	NEAR _SensorReturn+094h
                                 3678   
                                 3679   ;;	SensorReturn[149] = 0x0A;
                                 3680   CLINEA 0000H 0001H 0604H 0002H 001AH
00:002C 0A 00                    3681   	mov	r0,	#0ah
00:002E 11-90 00-00'             3682   	st	r0,	NEAR _SensorReturn+095h
                                 3683   
                                 3684   ;;	_flgUartFin = 0;
                                 3685   CLINEA 0000H 0001H 0606H 0002H 0011H
00:0032 00 00                    3686   	mov	r0,	#00h
00:0034 11-90 00-00'             3687   	st	r0,	NEAR __flgUartFin
                                 3688   
                                 3689   ;;	uart_stop();
                                 3690   CLINEA 0000H 0001H 0607H 0002H 000DH
00:0038 01-F0'00-00'             3691   	bl	_uart_stop
                                 3692   
                                 3693   ;;	uart_startSend(SensorReturn, 150, _funcUartFin);
                                 3694   CLINEA 0000H 0001H 0608H 0002H 0031H
00:003C 00'00                    3695   	mov	r0,	#BYTE1 OFFSET __funcUartFin
00:003E 00'01                    3696   	mov	r1,	#BYTE2 OFFSET __funcUartFin
00:0040 5E-F0                    3697   	push	er0
00:0042 96 02                    3698   	mov	r2,	#096h
00:0044 00 03                    3699   	mov	r3,	#00h
00:0046 00'00                    3700   	mov	r0,	#BYTE1 OFFSET _SensorReturn
00:0048 00'01                    3701   	mov	r1,	#BYTE2 OFFSET _SensorReturn
00:004A 01-F0'00-00'             3702   	bl	_uart_startSend
00:004E 02 E1                    3703   	add	sp,	#2 
                                 3704   
                                 3705   ;;	while(_flgUartFin != 1){
                                 3706   CLINEA 0000H 0000H 0609H 0001H 0001H
00:0050 04 CE                    3707   	bal	_$L259
                                 3708   
                                 3709   ;;	while(_flgUartFin != 1){
                                 3710   CLINEA 0000H 0000H 0609H 0002H 0019H
00:0052                          3711   _$L232 :
                                 3712   CBLOCK 229 4 1545
                                 3713   
                                 3714   ;;		NOP1000();
                                 3715   CLINEA 0000H 0001H 060AH 0003H 000CH
00:0052 01-F0'00-00'             3716   	bl	_NOP1000
                                 3717   
                                 3718   ;;		main_clrWDT();
                                 3719   CLINEA 0000H 0001H 060BH 0003H 0010H
00:0056 01-F0'00-00'             3720   	bl	_main_clrWDT
                                 3721   CBLOCKEND 229 4 1548
                                 3722   
                                 3723   ;;	while(_flgUartFin != 1){
                                 3724   CLINEA 0000H 0000H 0609H 0001H 0001H
00:005A                          3725   _$L259 :
00:005A 10-90 00-00'             3726   	l	r0,	NEAR __flgUartFin
00:005E 01 70                    3727   	cmp	r0,	#01h
00:0060 F8 C8                    3728   	bne	_$L232
                                 3729   
                                 3730   ;;	_flgUartFin = 0;
                                 3731   CLINEA 0000H 0001H 060FH 0002H 0011H
00:0062 00 00                    3732   	mov	r0,	#00h
00:0064 11-90 00-00'             3733   	st	r0,	NEAR __flgUartFin
                                 3734   
                                 3735   ;;	uart_stop();
                                 3736   CLINEA 0000H 0001H 0610H 0002H 000DH
00:0068 01-F0'00-00'             3737   	bl	_uart_stop
                                 3738   
                                 3739   ;;	uart_startReceive(RecWorld, 2, _funcUartFin);
                                 3740   CLINEA 0000H 0001H 0611H 0002H 002EH
00:006C 00'00                    3741   	mov	r0,	#BYTE1 OFFSET __funcUartFin
00:006E 00'01                    3742   	mov	r1,	#BYTE2 OFFSET __funcUartFin
00:0070 5E-F0                    3743   	push	er0
00:0072 02 E2                    3744   	mov	er2,	#2 
00:0074 00'00                    3745   	mov	r0,	#BYTE1 OFFSET _RecWorld
00:0076 00'01                    3746   	mov	r1,	#BYTE2 OFFSET _RecWorld
00:0078 01-F0'00-00'             3747   	bl	_uart_startReceive
00:007C 02 E1                    3748   	add	sp,	#2 
                                 3749   
                                 3750   ;;	while(_flgUartFin != 1){
                                 3751   CLINEA 0000H 0000H 0612H 0001H 0001H
00:007E 02 CE                    3752   	bal	_$L260
                                 3753   
                                 3754   ;;	while(_flgUartFin != 1){
                                 3755   CLINEA 0000H 0000H 0612H 0002H 0019H
00:0080                          3756   _$L236 :
                                 3757   CBLOCK 229 5 1554
                                 3758   
                                 3759   ;;		main_clrWDT();
                                 3760   CLINEA 0000H 0001H 0613H 0003H 0010H
00:0080 01-F0'00-00'             3761   	bl	_main_clrWDT
                                 3762   CBLOCKEND 229 5 1556
                                 3763   
                                 3764   ;;	while(_flgUartFin != 1){
                                 3765   CLINEA 0000H 0000H 0612H 0001H 0001H
00:0084                          3766   _$L260 :
00:0084 10-90 00-00'             3767   	l	r0,	NEAR __flgUartFin
00:0088 01 70                    3768   	cmp	r0,	#01h
00:008A FA C8                    3769   	bne	_$L236
                                 3770   
                                 3771   ;;	i = 0;
                                 3772   CLINEA 0000H 0001H 0616H 0002H 0007H
00:008C 00 E4                    3773   	mov	er4,	#0 
                                 3774   
                                 3775   ;;	EPB3 = 1;					//Enable Accel/Gyro Interrupt Pin
                                 3776   CLINEA 0000H 0001H 0618H 0002H 0030H
00:008E F0-A0 11-F0              3777   	sb	0f011h.7
                                 3778   
                                 3779   ;;	while(i < 10){
                                 3780   CLINEA 0000H 0000H 0619H 0002H 000FH
00:0092                          3781   _$L240 :
                                 3782   CBLOCK 229 6 1561
                                 3783   
                                 3784   ;;		if(AccGyro_ReadFlag >= 1){		//Triggered by External Interrupt (flag set in AccelGyroDataReady_ISR)
                                 3785   CLINEA 0000H 0001H 061AH 0003H 0064H
00:0092 10-90 00-00'             3786   	l	r0,	NEAR _AccGyro_ReadFlag
00:0096 01 70                    3787   	cmp	r0,	#01h
00:0098 02 C0                    3788   	bge	_$M17
00:009A 00-F0'00-00'             3789   	b	_$L242
00:009E                          3790   _$M17 :
                                 3791   CBLOCK 229 7 1562
                                 3792   
                                 3793   ;;			_flgI2CFin = 0;																	//reset I2C completed Flag
                                 3794   CLINEA 0000H 0001H 061EH 0004H 003DH
00:009E 00 00                    3795   	mov	r0,	#00h
00:00A0 11-90 00-00'             3796   	st	r0,	NEAR __flgI2CFin
                                 3797   
                                 3798   ;;			i2c_stop();																		//Make sure I2C is not currently running
                                 3799   CLINEA 0000H 0001H 061FH 0004H 0048H
00:00A4 01-F0'00-00'             3800   	bl	_i2c_stop
                                 3801   
                                 3802   ;;			I20MD = 1;		//Switch to I2C Fast Operation (400kbps)
                                 3803   CLINEA 0000H 0001H 0620H 0004H 0037H
00:00A8 90-A0 A4-F2              3804   	sb	0f2a4h.1
                                 3805   
                                 3806   ;;			i2c_startReceive(MPU6050Address, &AccGyro_ReadData, 1, &AccGyro_Data, 14, (cbfI2c)_funcI2CFin);	//Begin I2C Receive Command
                                 3807   CLINEA 0000H 0001H 0621H 0004H 007EH
00:00AC 00'00                    3808   	mov	r0,	#BYTE1 OFFSET __funcI2CFin
00:00AE 00'01                    3809   	mov	r1,	#BYTE2 OFFSET __funcI2CFin
00:00B0 5E-F0                    3810   	push	er0
00:00B2 0E E0                    3811   	mov	er0,	#14
00:00B4 5E-F0                    3812   	push	er0
00:00B6 00'00                    3813   	mov	r0,	#BYTE1 OFFSET _AccGyro_Data
00:00B8 00'01                    3814   	mov	r1,	#BYTE2 OFFSET _AccGyro_Data
00:00BA 5E-F0                    3815   	push	er0
00:00BC 01 E0                    3816   	mov	er0,	#1 
00:00BE 5E-F0                    3817   	push	er0
00:00C0 00'02                    3818   	mov	r2,	#BYTE1 OFFSET _AccGyro_ReadData
00:00C2 00'03                    3819   	mov	r3,	#BYTE2 OFFSET _AccGyro_ReadData
00:00C4 10-90 00-00'             3820   	l	r0,	NEAR _MPU6050Address
00:00C8 01-F0'00-00'             3821   	bl	_i2c_startReceive
00:00CC 08 E1                    3822   	add	sp,	#8 
                                 3823   
                                 3824   ;;			while(_flgI2CFin != 1){															//Wait for I2C commands to finish transfer
                                 3825   CLINEA 0000H 0000H 0622H 0001H 0001H
00:00CE 02 CE                    3826   	bal	_$L261
                                 3827   
                                 3828   ;;			while(_flgI2CFin != 1){															//Wait for I2C commands to finish transfer
                                 3829   CLINEA 0000H 0000H 0622H 0004H 0053H
00:00D0                          3830   _$L246 :
                                 3831   CBLOCK 229 8 1570
                                 3832   
                                 3833   ;;				main_clrWDT();	
                                 3834   CLINEA 0000H 0001H 0623H 0005H 0013H
00:00D0 01-F0'00-00'             3835   	bl	_main_clrWDT
                                 3836   CBLOCKEND 229 8 1572
                                 3837   
                                 3838   ;;			while(_flgI2CFin != 1){															//Wait for I2C commands to finish transfer
                                 3839   CLINEA 0000H 0000H 0622H 0001H 0001H
00:00D4                          3840   _$L261 :
00:00D4 10-90 00-00'             3841   	l	r0,	NEAR __flgI2CFin
00:00D8 01 70                    3842   	cmp	r0,	#01h
00:00DA FA C8                    3843   	bne	_$L246
                                 3844   
                                 3845   ;;			Gyro_Xcal += (AccGyro_Data[8]<<8)+(AccGyro_Data[9]);
                                 3846   CLINEA 0000H 0001H 0628H 0004H 0037H
00:00DC 10-90 00-00'             3847   	l	r0,	NEAR _AccGyro_Data+08h
00:00E0 00 01                    3848   	mov	r1,	#00h
00:00E2 00-83                    3849   	mov	r3,	r0
00:00E4 00 02                    3850   	mov	r2,	#00h
00:00E6 10-90 00-00'             3851   	l	r0,	NEAR _AccGyro_Data+09h
00:00EA 26-F0                    3852   	add	er0,	er2
00:00EC 10-82                    3853   	mov	r2,	r1
00:00EE 2F-83                    3854   	extbw	er2
00:00F0 30-82                    3855   	mov	r2,	r3
00:00F2 6E-F0                    3856   	push	xr0
00:00F4 01-F0'00-00'             3857   	bl	__fildu8sw
00:00F8 12-90 00-00'             3858   	l	er0,	NEAR _Gyro_Xcal
00:00FC 12-92 00-00'             3859   	l	er2,	NEAR _Gyro_Xcal+02h
00:0100 6E-F0                    3860   	push	xr0
00:0102 01-F0'00-00'             3861   	bl	__faddu8sw
00:0106 04 E1                    3862   	add	sp,	#4 
00:0108 2E-F0                    3863   	pop	xr0
00:010A 13-90 00-00'             3864   	st	er0,	NEAR _Gyro_Xcal
00:010E 13-92 00-00'             3865   	st	er2,	NEAR _Gyro_Xcal+02h
                                 3866   
                                 3867   ;;			Gyro_Ycal += (AccGyro_Data[10]<<8)+(AccGyro_Data[11]);
                                 3868   CLINEA 0000H 0001H 0629H 0004H 0039H
00:0112 10-90 00-00'             3869   	l	r0,	NEAR _AccGyro_Data+0ah
00:0116 00 01                    3870   	mov	r1,	#00h
00:0118 00-83                    3871   	mov	r3,	r0
00:011A 00 02                    3872   	mov	r2,	#00h
00:011C 10-90 00-00'             3873   	l	r0,	NEAR _AccGyro_Data+0bh
00:0120 26-F0                    3874   	add	er0,	er2
00:0122 10-82                    3875   	mov	r2,	r1
00:0124 2F-83                    3876   	extbw	er2
00:0126 30-82                    3877   	mov	r2,	r3
00:0128 6E-F0                    3878   	push	xr0
00:012A 01-F0'00-00'             3879   	bl	__fildu8sw
00:012E 12-90 00-00'             3880   	l	er0,	NEAR _Gyro_Ycal
00:0132 12-92 00-00'             3881   	l	er2,	NEAR _Gyro_Ycal+02h
00:0136 6E-F0                    3882   	push	xr0
00:0138 01-F0'00-00'             3883   	bl	__faddu8sw
00:013C 04 E1                    3884   	add	sp,	#4 
00:013E 2E-F0                    3885   	pop	xr0
00:0140 13-90 00-00'             3886   	st	er0,	NEAR _Gyro_Ycal
00:0144 13-92 00-00'             3887   	st	er2,	NEAR _Gyro_Ycal+02h
                                 3888   
                                 3889   ;;			Gyro_Zcal += (AccGyro_Data[12]<<8)+(AccGyro_Data[13]);
                                 3890   CLINEA 0000H 0001H 062AH 0004H 0039H
00:0148 10-90 00-00'             3891   	l	r0,	NEAR _AccGyro_Data+0ch
00:014C 00 01                    3892   	mov	r1,	#00h
00:014E 00-83                    3893   	mov	r3,	r0
00:0150 00 02                    3894   	mov	r2,	#00h
00:0152 10-90 00-00'             3895   	l	r0,	NEAR _AccGyro_Data+0dh
00:0156 26-F0                    3896   	add	er0,	er2
00:0158 10-82                    3897   	mov	r2,	r1
00:015A 2F-83                    3898   	extbw	er2
00:015C 30-82                    3899   	mov	r2,	r3
00:015E 6E-F0                    3900   	push	xr0
00:0160 01-F0'00-00'             3901   	bl	__fildu8sw
00:0164 12-90 00-00'             3902   	l	er0,	NEAR _Gyro_Zcal
00:0168 12-92 00-00'             3903   	l	er2,	NEAR _Gyro_Zcal+02h
00:016C 6E-F0                    3904   	push	xr0
00:016E 01-F0'00-00'             3905   	bl	__faddu8sw
00:0172 04 E1                    3906   	add	sp,	#4 
00:0174 2E-F0                    3907   	pop	xr0
00:0176 13-90 00-00'             3908   	st	er0,	NEAR _Gyro_Zcal
00:017A 13-92 00-00'             3909   	st	er2,	NEAR _Gyro_Zcal+02h
                                 3910   
                                 3911   ;;			Accel_Xcal[0] += (AccGyro_Data[0]<<8)+(AccGyro_Data[1]);
                                 3912   CLINEA 0000H 0001H 062BH 0004H 003BH
00:017E 10-90 00-00'             3913   	l	r0,	NEAR _AccGyro_Data+01h
00:0182 00 01                    3914   	mov	r1,	#00h
00:0184 10-92 00-00'             3915   	l	r2,	NEAR _AccGyro_Data
00:0188 20-83                    3916   	mov	r3,	r2
00:018A 00 02                    3917   	mov	r2,	#00h
00:018C 26-F0                    3918   	add	er0,	er2
00:018E 10-82                    3919   	mov	r2,	r1
00:0190 2F-83                    3920   	extbw	er2
00:0192 30-82                    3921   	mov	r2,	r3
00:0194 6E-F0                    3922   	push	xr0
00:0196 01-F0'00-00'             3923   	bl	__fildu8sw
00:019A 12-90 00-00'             3924   	l	er0,	NEAR _Accel_Xcal
00:019E 12-92 00-00'             3925   	l	er2,	NEAR _Accel_Xcal+02h
00:01A2 6E-F0                    3926   	push	xr0
00:01A4 01-F0'00-00'             3927   	bl	__faddu8sw
00:01A8 04 E1                    3928   	add	sp,	#4 
00:01AA 2E-F0                    3929   	pop	xr0
00:01AC 13-90 00-00'             3930   	st	er0,	NEAR _Accel_Xcal
00:01B0 13-92 00-00'             3931   	st	er2,	NEAR _Accel_Xcal+02h
                                 3932   
                                 3933   ;;			Accel_Ycal[0] += (AccGyro_Data[2]<<8)+(AccGyro_Data[3]);
                                 3934   CLINEA 0000H 0001H 062CH 0004H 003BH
00:01B4 10-90 00-00'             3935   	l	r0,	NEAR _AccGyro_Data+02h
00:01B8 00 01                    3936   	mov	r1,	#00h
00:01BA 00-83                    3937   	mov	r3,	r0
00:01BC 00 02                    3938   	mov	r2,	#00h
00:01BE 10-90 00-00'             3939   	l	r0,	NEAR _AccGyro_Data+03h
00:01C2 26-F0                    3940   	add	er0,	er2
00:01C4 10-82                    3941   	mov	r2,	r1
00:01C6 2F-83                    3942   	extbw	er2
00:01C8 30-82                    3943   	mov	r2,	r3
00:01CA 6E-F0                    3944   	push	xr0
00:01CC 01-F0'00-00'             3945   	bl	__fildu8sw
00:01D0 12-90 00-00'             3946   	l	er0,	NEAR _Accel_Ycal
00:01D4 12-92 00-00'             3947   	l	er2,	NEAR _Accel_Ycal+02h
00:01D8 6E-F0                    3948   	push	xr0
00:01DA 01-F0'00-00'             3949   	bl	__faddu8sw
00:01DE 04 E1                    3950   	add	sp,	#4 
00:01E0 2E-F0                    3951   	pop	xr0
00:01E2 13-90 00-00'             3952   	st	er0,	NEAR _Accel_Ycal
00:01E6 13-92 00-00'             3953   	st	er2,	NEAR _Accel_Ycal+02h
                                 3954   
                                 3955   ;;			i++;
                                 3956   CLINEA 0000H 0000H 062DH 0004H 0007H
00:01EA 81 E4                    3957   	add	er4,	#1 
                                 3958   CBLOCKEND 229 7 1582
                                 3959   
                                 3960   ;;		}
                                 3961   CLINEA 0000H 0000H 062EH 0003H 0003H
00:01EC                          3962   _$L242 :
                                 3963   CBLOCKEND 229 6 1583
                                 3964   
                                 3965   ;;	while(i < 10){
                                 3966   CLINEA 0000H 0000H 0619H 0000H 0000H
00:01EC 0A 74                    3967   	cmp	r4,	#0ah
00:01EE 00 55                    3968   	cmpc	r5,	#00h
00:01F0 02 C4                    3969   	bges	_$M18
00:01F2 00-F0'00-00'             3970   	b	_$L240
00:01F6                          3971   _$M18 :
                                 3972   
                                 3973   ;;	Gyro_Xcal /= 10;
                                 3974   CLINEA 0000H 0001H 0630H 0002H 0011H
00:01F6 12-90 00-00'             3975   	l	er0,	NEAR _Gyro_Xcal
00:01FA 12-92 00-00'             3976   	l	er2,	NEAR _Gyro_Xcal+02h
00:01FE 6E-F0                    3977   	push	xr0
00:0200 00 E0                    3978   	mov	er0,	#0 
00:0202 20 02                    3979   	mov	r2,	#020h
00:0204 41 03                    3980   	mov	r3,	#041h
00:0206 6E-F0                    3981   	push	xr0
00:0208 01-F0'00-00'             3982   	bl	__fdivu8sw
00:020C 04 E1                    3983   	add	sp,	#4 
00:020E 2E-F0                    3984   	pop	xr0
00:0210 13-90 00-00'             3985   	st	er0,	NEAR _Gyro_Xcal
00:0214 13-92 00-00'             3986   	st	er2,	NEAR _Gyro_Xcal+02h
                                 3987   
                                 3988   ;;	Gyro_Ycal /= 10;
                                 3989   CLINEA 0000H 0001H 0631H 0002H 0011H
00:0218 12-90 00-00'             3990   	l	er0,	NEAR _Gyro_Ycal
00:021C 12-92 00-00'             3991   	l	er2,	NEAR _Gyro_Ycal+02h
00:0220 6E-F0                    3992   	push	xr0
00:0222 00 E0                    3993   	mov	er0,	#0 
00:0224 20 02                    3994   	mov	r2,	#020h
00:0226 41 03                    3995   	mov	r3,	#041h
00:0228 6E-F0                    3996   	push	xr0
00:022A 01-F0'00-00'             3997   	bl	__fdivu8sw
00:022E 04 E1                    3998   	add	sp,	#4 
00:0230 2E-F0                    3999   	pop	xr0
00:0232 13-90 00-00'             4000   	st	er0,	NEAR _Gyro_Ycal
00:0236 13-92 00-00'             4001   	st	er2,	NEAR _Gyro_Ycal+02h
                                 4002   
                                 4003   ;;	Gyro_Zcal /= 10;
                                 4004   CLINEA 0000H 0001H 0632H 0002H 0011H
00:023A 12-90 00-00'             4005   	l	er0,	NEAR _Gyro_Zcal
00:023E 12-92 00-00'             4006   	l	er2,	NEAR _Gyro_Zcal+02h
00:0242 6E-F0                    4007   	push	xr0
00:0244 00 E0                    4008   	mov	er0,	#0 
00:0246 20 02                    4009   	mov	r2,	#020h
00:0248 41 03                    4010   	mov	r3,	#041h
00:024A 6E-F0                    4011   	push	xr0
00:024C 01-F0'00-00'             4012   	bl	__fdivu8sw
00:0250 04 E1                    4013   	add	sp,	#4 
00:0252 2E-F0                    4014   	pop	xr0
00:0254 13-90 00-00'             4015   	st	er0,	NEAR _Gyro_Zcal
00:0258 13-92 00-00'             4016   	st	er2,	NEAR _Gyro_Zcal+02h
                                 4017   
                                 4018   ;;	Accel_Xcal[0] /= 10;
                                 4019   CLINEA 0000H 0001H 0633H 0002H 0015H
00:025C 12-90 00-00'             4020   	l	er0,	NEAR _Accel_Xcal
00:0260 12-92 00-00'             4021   	l	er2,	NEAR _Accel_Xcal+02h
00:0264 6E-F0                    4022   	push	xr0
00:0266 00 E0                    4023   	mov	er0,	#0 
00:0268 20 02                    4024   	mov	r2,	#020h
00:026A 41 03                    4025   	mov	r3,	#041h
00:026C 6E-F0                    4026   	push	xr0
00:026E 01-F0'00-00'             4027   	bl	__fdivu8sw
00:0272 04 E1                    4028   	add	sp,	#4 
00:0274 2E-F0                    4029   	pop	xr0
00:0276 13-90 00-00'             4030   	st	er0,	NEAR _Accel_Xcal
00:027A 13-92 00-00'             4031   	st	er2,	NEAR _Accel_Xcal+02h
                                 4032   
                                 4033   ;;	Accel_Ycal[0] /= 10;
                                 4034   CLINEA 0000H 0001H 0634H 0002H 0015H
00:027E 12-90 00-00'             4035   	l	er0,	NEAR _Accel_Ycal
00:0282 12-92 00-00'             4036   	l	er2,	NEAR _Accel_Ycal+02h
00:0286 6E-F0                    4037   	push	xr0
00:0288 00 E0                    4038   	mov	er0,	#0 
00:028A 20 02                    4039   	mov	r2,	#020h
00:028C 41 03                    4040   	mov	r3,	#041h
00:028E 6E-F0                    4041   	push	xr0
00:0290 01-F0'00-00'             4042   	bl	__fdivu8sw
00:0294 04 E1                    4043   	add	sp,	#4 
00:0296 2E-F0                    4044   	pop	xr0
00:0298 13-90 00-00'             4045   	st	er0,	NEAR _Accel_Ycal
00:029C 13-92 00-00'             4046   	st	er2,	NEAR _Accel_Ycal+02h
                                 4047   
                                 4048   ;;	EPB3 = 0;					//Enable Accel/Gyro Interrupt Pin
                                 4049   CLINEA 0000H 0001H 0635H 0002H 0030H
00:02A0 F2-A0 11-F0              4050   	rb	0f011h.7
                                 4051   
                                 4052   ;;	for(i = 0; i<150; i++)
                                 4053   CLINEA 0000H 0001H 064FH 0002H 0017H
00:02A4 00 E0                    4054   	mov	er0,	#0 
00:02A6                          4055   _$L250 :
                                 4056   CBLOCK 229 9 1616
                                 4057   
                                 4058   ;;		SensorReturn[i] = 0x20;
                                 4059   CLINEA 0000H 0001H 0651H 0003H 0019H
00:02A6 20 02                    4060   	mov	r2,	#020h
00:02A8 09-92 00-00'             4061   	st	r2,	NEAR _SensorReturn[er0]
                                 4062   CBLOCKEND 229 9 1618
                                 4063   
                                 4064   ;;	for(i = 0; i<150; i++)
                                 4065   CLINEA 0000H 0000H 064FH 0002H 0017H
00:02AC 81 E0                    4066   	add	er0,	#1 
00:02AE 96 70                    4067   	cmp	r0,	#096h
00:02B0 00 51                    4068   	cmpc	r1,	#00h
00:02B2 F9 C5                    4069   	blts	_$L250
                                 4070   
                                 4071   ;;	sprintf(SensorReturn, "Gyro Calibration Complete!");
                                 4072   CLINEA 0000H 0001H 0653H 0002H 0035H
00:02B4 00'00                    4073   	mov	r0,	#BYTE1 OFFSET $$S254
00:02B6 00'01                    4074   	mov	r1,	#BYTE2 OFFSET $$S254
00:02B8 5E-F0                    4075   	push	er0
00:02BA 00'00                    4076   	mov	r0,	#BYTE1 OFFSET _SensorReturn
00:02BC 00'01                    4077   	mov	r1,	#BYTE2 OFFSET _SensorReturn
00:02BE 5E-F0                    4078   	push	er0
00:02C0 01-F0'00-00'             4079   	bl	_sprintf_nn
00:02C4 04 E1                    4080   	add	sp,	#4 
                                 4081   
                                 4082   ;;	SensorReturn[148] = 0x0D;
                                 4083   CLINEA 0000H 0001H 0654H 0002H 001AH
00:02C6 0D 00                    4084   	mov	r0,	#0dh
00:02C8 11-90 00-00'             4085   	st	r0,	NEAR _SensorReturn+094h
                                 4086   
                                 4087   ;;	SensorReturn[149] = 0x0A;
                                 4088   CLINEA 0000H 0001H 0655H 0002H 001AH
00:02CC 0A 00                    4089   	mov	r0,	#0ah
00:02CE 11-90 00-00'             4090   	st	r0,	NEAR _SensorReturn+095h
                                 4091   
                                 4092   ;;	_flgUartFin = 0;
                                 4093   CLINEA 0000H 0001H 0657H 0002H 0011H
00:02D2 00 00                    4094   	mov	r0,	#00h
00:02D4 11-90 00-00'             4095   	st	r0,	NEAR __flgUartFin
                                 4096   
                                 4097   ;;	uart_stop();
                                 4098   CLINEA 0000H 0001H 0658H 0002H 000DH
00:02D8 01-F0'00-00'             4099   	bl	_uart_stop
                                 4100   
                                 4101   ;;	uart_startSend(SensorReturn, 150, _funcUartFin);
                                 4102   CLINEA 0000H 0001H 0659H 0002H 0031H
00:02DC 00'00                    4103   	mov	r0,	#BYTE1 OFFSET __funcUartFin
00:02DE 00'01                    4104   	mov	r1,	#BYTE2 OFFSET __funcUartFin
00:02E0 5E-F0                    4105   	push	er0
00:02E2 96 02                    4106   	mov	r2,	#096h
00:02E4 00 03                    4107   	mov	r3,	#00h
00:02E6 00'00                    4108   	mov	r0,	#BYTE1 OFFSET _SensorReturn
00:02E8 00'01                    4109   	mov	r1,	#BYTE2 OFFSET _SensorReturn
00:02EA 01-F0'00-00'             4110   	bl	_uart_startSend
00:02EE 02 E1                    4111   	add	sp,	#2 
                                 4112   
                                 4113   ;;	while(_flgUartFin != 1){
                                 4114   CLINEA 0000H 0000H 065AH 0001H 0001H
00:02F0 04 CE                    4115   	bal	_$L262
                                 4116   
                                 4117   ;;	while(_flgUartFin != 1){
                                 4118   CLINEA 0000H 0000H 065AH 0002H 0019H
00:02F2                          4119   _$L257 :
                                 4120   CBLOCK 229 10 1626
                                 4121   
                                 4122   ;;		NOP1000();
                                 4123   CLINEA 0000H 0001H 065BH 0003H 000CH
00:02F2 01-F0'00-00'             4124   	bl	_NOP1000
                                 4125   
                                 4126   ;;		main_clrWDT();
                                 4127   CLINEA 0000H 0001H 065CH 0003H 0010H
00:02F6 01-F0'00-00'             4128   	bl	_main_clrWDT
                                 4129   CBLOCKEND 229 10 1629
                                 4130   
                                 4131   ;;	while(_flgUartFin != 1){
                                 4132   CLINEA 0000H 0000H 065AH 0001H 0001H
00:02FA                          4133   _$L262 :
00:02FA 10-90 00-00'             4134   	l	r0,	NEAR __flgUartFin
00:02FE 01 70                    4135   	cmp	r0,	#01h
00:0300 F8 C8                    4136   	bne	_$L257
                                 4137   CBLOCKEND 229 2 1630
                                 4138   
                                 4139   ;;}
                                 4140   CLINEA 0000H 0001H 065EH 0001H 0001H
00:0302 1E-F4                    4141   	pop	er4
00:0304 8E-F2                    4142   	pop	pc
                                 4143   CBLOCKEND 229 1 1630
                                 4144   CFUNCTIONEND 229
                                 4145   
                                 4146   
  --------------------------     4147   	rseg $$CalibrateAccel$main
                                 4148   CFUNCTION 230
                                 4149   
00:0000                          4150   _CalibrateAccel	:
                                 4151   CBLOCK 230 1 1632
                                 4152   
                                 4153   ;;void CalibrateAccel(void){
                                 4154   CLINEA 0000H 0001H 0660H 0001H 001AH
00:0000 CE-F8                    4155   	push	lr
00:0002 5E-F8                    4156   	push	er8
                                 4157   CBLOCK 230 2 1632
                                 4158   CRET 0002H
                                 4159   CLOCAL 47H 0002H 0028H 0002H "i" 02H 00H 01H
                                 4160   
                                 4161   ;;	for(i = 0; i<150; i++)
                                 4162   CLINEA 0000H 0001H 0664H 0002H 0017H
00:0004 00 E0                    4163   	mov	er0,	#0 
00:0006                          4164   _$L266 :
                                 4165   CBLOCK 230 3 1637
                                 4166   
                                 4167   ;;		SensorReturn[i] = 0x20;
                                 4168   CLINEA 0000H 0001H 0666H 0003H 0019H
00:0006 20 02                    4169   	mov	r2,	#020h
00:0008 09-92 00-00'             4170   	st	r2,	NEAR _SensorReturn[er0]
                                 4171   CBLOCKEND 230 3 1639
                                 4172   
                                 4173   ;;	for(i = 0; i<150; i++)
                                 4174   CLINEA 0000H 0000H 0664H 0002H 0017H
00:000C 81 E0                    4175   	add	er0,	#1 
00:000E 96 70                    4176   	cmp	r0,	#096h
00:0010 00 51                    4177   	cmpc	r1,	#00h
00:0012 F9 C5                    4178   	blts	_$L266
                                 4179   
                                 4180   ;;	sprintf(SensorReturn, "Accel Calibration: Keep Quad Flat! Return any 2 chars to Start");
                                 4181   CLINEA 0000H 0001H 0668H 0002H 0059H
00:0014 00'00                    4182   	mov	r0,	#BYTE1 OFFSET $$S270
00:0016 00'01                    4183   	mov	r1,	#BYTE2 OFFSET $$S270
00:0018 5E-F0                    4184   	push	er0
00:001A 00'00                    4185   	mov	r0,	#BYTE1 OFFSET _SensorReturn
00:001C 00'01                    4186   	mov	r1,	#BYTE2 OFFSET _SensorReturn
00:001E 5E-F0                    4187   	push	er0
00:0020 01-F0'00-00'             4188   	bl	_sprintf_nn
00:0024 04 E1                    4189   	add	sp,	#4 
                                 4190   
                                 4191   ;;	SensorReturn[148] = 0x0D;
                                 4192   CLINEA 0000H 0001H 0669H 0002H 001AH
00:0026 0D 00                    4193   	mov	r0,	#0dh
00:0028 11-90 00-00'             4194   	st	r0,	NEAR _SensorReturn+094h
                                 4195   
                                 4196   ;;	SensorReturn[149] = 0x0A;
                                 4197   CLINEA 0000H 0001H 066AH 0002H 001AH
00:002C 0A 00                    4198   	mov	r0,	#0ah
00:002E 11-90 00-00'             4199   	st	r0,	NEAR _SensorReturn+095h
                                 4200   
                                 4201   ;;	_flgUartFin = 0;
                                 4202   CLINEA 0000H 0001H 066CH 0002H 0011H
00:0032 00 00                    4203   	mov	r0,	#00h
00:0034 11-90 00-00'             4204   	st	r0,	NEAR __flgUartFin
                                 4205   
                                 4206   ;;	uart_stop();
                                 4207   CLINEA 0000H 0001H 066DH 0002H 000DH
00:0038 01-F0'00-00'             4208   	bl	_uart_stop
                                 4209   
                                 4210   ;;	uart_startSend(SensorReturn, 150, _funcUartFin);
                                 4211   CLINEA 0000H 0001H 066EH 0002H 0031H
00:003C 00'00                    4212   	mov	r0,	#BYTE1 OFFSET __funcUartFin
00:003E 00'01                    4213   	mov	r1,	#BYTE2 OFFSET __funcUartFin
00:0040 5E-F0                    4214   	push	er0
00:0042 96 02                    4215   	mov	r2,	#096h
00:0044 00 03                    4216   	mov	r3,	#00h
00:0046 00'00                    4217   	mov	r0,	#BYTE1 OFFSET _SensorReturn
00:0048 00'01                    4218   	mov	r1,	#BYTE2 OFFSET _SensorReturn
00:004A 01-F0'00-00'             4219   	bl	_uart_startSend
00:004E 02 E1                    4220   	add	sp,	#2 
                                 4221   
                                 4222   ;;	while(_flgUartFin != 1){
                                 4223   CLINEA 0000H 0000H 066FH 0001H 0001H
00:0050 04 CE                    4224   	bal	_$L356
                                 4225   
                                 4226   ;;	while(_flgUartFin != 1){
                                 4227   CLINEA 0000H 0000H 066FH 0002H 0019H
00:0052                          4228   _$L273 :
                                 4229   CBLOCK 230 4 1647
                                 4230   
                                 4231   ;;		NOP1000();
                                 4232   CLINEA 0000H 0001H 0670H 0003H 000CH
00:0052 01-F0'00-00'             4233   	bl	_NOP1000
                                 4234   
                                 4235   ;;		main_clrWDT();
                                 4236   CLINEA 0000H 0001H 0671H 0003H 0010H
00:0056 01-F0'00-00'             4237   	bl	_main_clrWDT
                                 4238   CBLOCKEND 230 4 1650
                                 4239   
                                 4240   ;;	while(_flgUartFin != 1){
                                 4241   CLINEA 0000H 0000H 066FH 0001H 0001H
00:005A                          4242   _$L356 :
00:005A 10-90 00-00'             4243   	l	r0,	NEAR __flgUartFin
00:005E 01 70                    4244   	cmp	r0,	#01h
00:0060 F8 C8                    4245   	bne	_$L273
                                 4246   
                                 4247   ;;	_flgUartFin = 0;
                                 4248   CLINEA 0000H 0001H 0674H 0002H 0011H
00:0062 00 00                    4249   	mov	r0,	#00h
00:0064 11-90 00-00'             4250   	st	r0,	NEAR __flgUartFin
                                 4251   
                                 4252   ;;	uart_stop();
                                 4253   CLINEA 0000H 0001H 0675H 0002H 000DH
00:0068 01-F0'00-00'             4254   	bl	_uart_stop
                                 4255   
                                 4256   ;;	uart_startReceive(RecWorld, 2, _funcUartFin);
                                 4257   CLINEA 0000H 0001H 0676H 0002H 002EH
00:006C 00'00                    4258   	mov	r0,	#BYTE1 OFFSET __funcUartFin
00:006E 00'01                    4259   	mov	r1,	#BYTE2 OFFSET __funcUartFin
00:0070 5E-F0                    4260   	push	er0
00:0072 02 E2                    4261   	mov	er2,	#2 
00:0074 00'00                    4262   	mov	r0,	#BYTE1 OFFSET _RecWorld
00:0076 00'01                    4263   	mov	r1,	#BYTE2 OFFSET _RecWorld
00:0078 01-F0'00-00'             4264   	bl	_uart_startReceive
00:007C 02 E1                    4265   	add	sp,	#2 
                                 4266   
                                 4267   ;;	while(_flgUartFin != 1){
                                 4268   CLINEA 0000H 0000H 0677H 0001H 0001H
00:007E 02 CE                    4269   	bal	_$L357
                                 4270   
                                 4271   ;;	while(_flgUartFin != 1){
                                 4272   CLINEA 0000H 0000H 0677H 0002H 0019H
00:0080                          4273   _$L277 :
                                 4274   CBLOCK 230 5 1655
                                 4275   
                                 4276   ;;		main_clrWDT();
                                 4277   CLINEA 0000H 0001H 0678H 0003H 0010H
00:0080 01-F0'00-00'             4278   	bl	_main_clrWDT
                                 4279   CBLOCKEND 230 5 1657
                                 4280   
                                 4281   ;;	while(_flgUartFin != 1){
                                 4282   CLINEA 0000H 0000H 0677H 0001H 0001H
00:0084                          4283   _$L357 :
                                 4284   
                                 4285   ;;	while(_flgUartFin != 1){
                                 4286   CLINEA 0000H 0000H 0677H 000DH 0011H
00:0084 10-90 00-00'             4287   	l	r0,	NEAR __flgUartFin
00:0088 01 70                    4288   	cmp	r0,	#01h
00:008A FA C8                    4289   	bne	_$L277
                                 4290   
                                 4291   ;;	for(i = 0; i<10; i++){
                                 4292   CLINEA 0000H 0001H 067BH 0006H 000BH
00:008C 00 E8                    4293   	mov	er8,	#0 
                                 4294   
                                 4295   ;;	for(i = 0; i<10; i++){
                                 4296   CLINEA 0000H 0000H 067BH 0013H 0015H
00:008E                          4297   _$L281 :
                                 4298   CBLOCK 230 6 1659
                                 4299   
                                 4300   ;;		_flgI2CFin = 0;																	//reset I2C completed Flag
                                 4301   CLINEA 0000H 0001H 067FH 0003H 003CH
00:008E 00 00                    4302   	mov	r0,	#00h
00:0090 11-90 00-00'             4303   	st	r0,	NEAR __flgI2CFin
                                 4304   
                                 4305   ;;		i2c_stop();																		//Make sure I2C is not currently running
                                 4306   CLINEA 0000H 0001H 0680H 0003H 0047H
00:0094 01-F0'00-00'             4307   	bl	_i2c_stop
                                 4308   
                                 4309   ;;		I20MD = 1;		//Switch to I2C Fast Operation (400kbps)
                                 4310   CLINEA 0000H 0001H 0681H 0003H 0036H
00:0098 90-A0 A4-F2              4311   	sb	0f2a4h.1
                                 4312   
                                 4313   ;;		i2c_startReceive(MPU6050Address, &AccGyro_ReadData, 1, &AccGyro_Data, 14, (cbfI2c)_funcI2CFin);	//Begin I2C Receive Command
                                 4314   CLINEA 0000H 0001H 0682H 0003H 007DH
00:009C 00'00                    4315   	mov	r0,	#BYTE1 OFFSET __funcI2CFin
00:009E 00'01                    4316   	mov	r1,	#BYTE2 OFFSET __funcI2CFin
00:00A0 5E-F0                    4317   	push	er0
00:00A2 0E E0                    4318   	mov	er0,	#14
00:00A4 5E-F0                    4319   	push	er0
00:00A6 00'00                    4320   	mov	r0,	#BYTE1 OFFSET _AccGyro_Data
00:00A8 00'01                    4321   	mov	r1,	#BYTE2 OFFSET _AccGyro_Data
00:00AA 5E-F0                    4322   	push	er0
00:00AC 01 E0                    4323   	mov	er0,	#1 
00:00AE 5E-F0                    4324   	push	er0
00:00B0 00'02                    4325   	mov	r2,	#BYTE1 OFFSET _AccGyro_ReadData
00:00B2 00'03                    4326   	mov	r3,	#BYTE2 OFFSET _AccGyro_ReadData
00:00B4 10-90 00-00'             4327   	l	r0,	NEAR _MPU6050Address
00:00B8 01-F0'00-00'             4328   	bl	_i2c_startReceive
00:00BC 08 E1                    4329   	add	sp,	#8 
                                 4330   
                                 4331   ;;		while(_flgI2CFin != 1){															//Wait for I2C commands to finish transfer
                                 4332   CLINEA 0000H 0000H 0683H 0001H 0001H
00:00BE 02 CE                    4333   	bal	_$L358
                                 4334   
                                 4335   ;;		while(_flgI2CFin != 1){															//Wait for I2C commands to finish transfer
                                 4336   CLINEA 0000H 0000H 0683H 0003H 0052H
00:00C0                          4337   _$L287 :
                                 4338   CBLOCK 230 7 1667
                                 4339   
                                 4340   ;;			main_clrWDT();	
                                 4341   CLINEA 0000H 0001H 0684H 0004H 0012H
00:00C0 01-F0'00-00'             4342   	bl	_main_clrWDT
                                 4343   CBLOCKEND 230 7 1669
                                 4344   
                                 4345   ;;		while(_flgI2CFin != 1){															//Wait for I2C commands to finish transfer
                                 4346   CLINEA 0000H 0000H 0683H 0001H 0001H
00:00C4                          4347   _$L358 :
                                 4348   
                                 4349   ;;		while(_flgI2CFin != 1){															//Wait for I2C commands to finish transfer
                                 4350   CLINEA 0000H 0000H 0683H 000DH 0011H
00:00C4 10-90 00-00'             4351   	l	r0,	NEAR __flgI2CFin
00:00C8 01 70                    4352   	cmp	r0,	#01h
00:00CA FA C8                    4353   	bne	_$L287
                                 4354   
                                 4355   ;;		Accel_Xcal[1] += (AccGyro_Data[0]<<8)+(AccGyro_Data[1]);
                                 4356   CLINEA 0000H 0001H 068AH 0003H 003AH
00:00CC 10-90 00-00'             4357   	l	r0,	NEAR _AccGyro_Data+01h
00:00D0 00 01                    4358   	mov	r1,	#00h
00:00D2 10-92 00-00'             4359   	l	r2,	NEAR _AccGyro_Data
00:00D6 20-83                    4360   	mov	r3,	r2
00:00D8 00 02                    4361   	mov	r2,	#00h
00:00DA 26-F0                    4362   	add	er0,	er2
00:00DC 10-82                    4363   	mov	r2,	r1
00:00DE 2F-83                    4364   	extbw	er2
00:00E0 30-82                    4365   	mov	r2,	r3
00:00E2 6E-F0                    4366   	push	xr0
00:00E4 01-F0'00-00'             4367   	bl	__fildu8sw
00:00E8 2E-F0                    4368   	pop	xr0
00:00EA 6E-F0                    4369   	push	xr0
00:00EC 12-90 00-00'             4370   	l	er0,	NEAR _Accel_Xcal+04h
00:00F0 12-92 00-00'             4371   	l	er2,	NEAR _Accel_Xcal+06h
00:00F4 6E-F0                    4372   	push	xr0
00:00F6 01-F0'00-00'             4373   	bl	__faddu8sw
00:00FA 04 E1                    4374   	add	sp,	#4 
00:00FC 2E-F0                    4375   	pop	xr0
00:00FE 13-90 00-00'             4376   	st	er0,	NEAR _Accel_Xcal+04h
00:0102 13-92 00-00'             4377   	st	er2,	NEAR _Accel_Xcal+06h
                                 4378   
                                 4379   ;;		Accel_Ycal[1] += (AccGyro_Data[2]<<8)+(AccGyro_Data[3]);
                                 4380   CLINEA 0000H 0001H 068BH 0003H 003AH
00:0106 10-90 00-00'             4381   	l	r0,	NEAR _AccGyro_Data+02h
00:010A 00 01                    4382   	mov	r1,	#00h
00:010C 00-83                    4383   	mov	r3,	r0
00:010E 00 02                    4384   	mov	r2,	#00h
00:0110 10-90 00-00'             4385   	l	r0,	NEAR _AccGyro_Data+03h
00:0114 26-F0                    4386   	add	er0,	er2
00:0116 10-82                    4387   	mov	r2,	r1
00:0118 2F-83                    4388   	extbw	er2
00:011A 30-82                    4389   	mov	r2,	r3
00:011C 6E-F0                    4390   	push	xr0
00:011E 01-F0'00-00'             4391   	bl	__fildu8sw
00:0122 2E-F0                    4392   	pop	xr0
00:0124 6E-F0                    4393   	push	xr0
00:0126 12-90 00-00'             4394   	l	er0,	NEAR _Accel_Ycal+04h
00:012A 12-92 00-00'             4395   	l	er2,	NEAR _Accel_Ycal+06h
00:012E 6E-F0                    4396   	push	xr0
00:0130 01-F0'00-00'             4397   	bl	__faddu8sw
00:0134 04 E1                    4398   	add	sp,	#4 
00:0136 2E-F0                    4399   	pop	xr0
00:0138 13-90 00-00'             4400   	st	er0,	NEAR _Accel_Ycal+04h
00:013C 13-92 00-00'             4401   	st	er2,	NEAR _Accel_Ycal+06h
                                 4402   CBLOCKEND 230 6 1676
                                 4403   
                                 4404   ;;	for(i = 0; i<10; i++){
                                 4405   CLINEA 0000H 0000H 067BH 0013H 0015H
00:0140 81 E8                    4406   	add	er8,	#1 
                                 4407   
                                 4408   ;;	for(i = 0; i<10; i++){
                                 4409   CLINEA 0000H 0000H 067BH 000DH 0011H
00:0142 0A 78                    4410   	cmp	r8,	#0ah
00:0144 00 59                    4411   	cmpc	r9,	#00h
00:0146 02 C4                    4412   	bges	_$M20
00:0148 00-F0'00-00'             4413   	b	_$L281
00:014C                          4414   _$M20 :
                                 4415   
                                 4416   ;;	Accel_Xcal[1] /= 10;
                                 4417   CLINEA 0000H 0001H 068DH 0002H 0015H
00:014C 12-90 00-00'             4418   	l	er0,	NEAR _Accel_Xcal+04h
00:0150 12-92 00-00'             4419   	l	er2,	NEAR _Accel_Xcal+06h
00:0154 6E-F0                    4420   	push	xr0
00:0156 00 E0                    4421   	mov	er0,	#0 
00:0158 20 02                    4422   	mov	r2,	#020h
00:015A 41 03                    4423   	mov	r3,	#041h
00:015C 6E-F0                    4424   	push	xr0
00:015E 01-F0'00-00'             4425   	bl	__fdivu8sw
00:0162 04 E1                    4426   	add	sp,	#4 
00:0164 2E-F0                    4427   	pop	xr0
00:0166 13-90 00-00'             4428   	st	er0,	NEAR _Accel_Xcal+04h
00:016A 13-92 00-00'             4429   	st	er2,	NEAR _Accel_Xcal+06h
                                 4430   
                                 4431   ;;	Accel_Ycal[1] /= 10;
                                 4432   CLINEA 0000H 0001H 068EH 0002H 0015H
00:016E 12-90 00-00'             4433   	l	er0,	NEAR _Accel_Ycal+04h
00:0172 12-92 00-00'             4434   	l	er2,	NEAR _Accel_Ycal+06h
00:0176 6E-F0                    4435   	push	xr0
00:0178 00 E0                    4436   	mov	er0,	#0 
00:017A 20 02                    4437   	mov	r2,	#020h
00:017C 41 03                    4438   	mov	r3,	#041h
00:017E 6E-F0                    4439   	push	xr0
00:0180 01-F0'00-00'             4440   	bl	__fdivu8sw
00:0184 04 E1                    4441   	add	sp,	#4 
00:0186 2E-F0                    4442   	pop	xr0
00:0188 13-90 00-00'             4443   	st	er0,	NEAR _Accel_Ycal+04h
00:018C 13-92 00-00'             4444   	st	er2,	NEAR _Accel_Ycal+06h
                                 4445   
                                 4446   ;;	for(i = 0; i<150; i++)
                                 4447   CLINEA 0000H 0001H 0690H 0002H 0017H
00:0190 00 E0                    4448   	mov	er0,	#0 
00:0192                          4449   _$L291 :
                                 4450   CBLOCK 230 8 1681
                                 4451   
                                 4452   ;;		SensorReturn[i] = 0x20;
                                 4453   CLINEA 0000H 0001H 0692H 0003H 0019H
00:0192 20 02                    4454   	mov	r2,	#020h
00:0194 09-92 00-00'             4455   	st	r2,	NEAR _SensorReturn[er0]
                                 4456   CBLOCKEND 230 8 1683
                                 4457   
                                 4458   ;;	for(i = 0; i<150; i++)
                                 4459   CLINEA 0000H 0000H 0690H 0002H 0017H
00:0198 81 E0                    4460   	add	er0,	#1 
                                 4461   
                                 4462   ;;	for(i = 0; i<150; i++)
                                 4463   CLINEA 0000H 0000H 0690H 000DH 0012H
00:019A 96 70                    4464   	cmp	r0,	#096h
00:019C 00 51                    4465   	cmpc	r1,	#00h
00:019E F9 C5                    4466   	blts	_$L291
                                 4467   
                                 4468   ;;	for(i = 0; i<150; i++)
                                 4469   CLINEA 0000H 0001H 0696H 0006H 000BH
00:01A0 00 E0                    4470   	mov	er0,	#0 
                                 4471   
                                 4472   ;;	for(i = 0; i<150; i++)
                                 4473   CLINEA 0000H 0000H 0696H 0014H 0016H
00:01A2                          4474   _$L297 :
                                 4475   CBLOCK 230 9 1687
                                 4476   
                                 4477   ;;		SensorReturn[i] = 0x20;
                                 4478   CLINEA 0000H 0001H 0698H 0003H 0019H
00:01A2 20 02                    4479   	mov	r2,	#020h
00:01A4 09-92 00-00'             4480   	st	r2,	NEAR _SensorReturn[er0]
                                 4481   CBLOCKEND 230 9 1689
                                 4482   
                                 4483   ;;	for(i = 0; i<150; i++)
                                 4484   CLINEA 0000H 0000H 0696H 0014H 0016H
00:01A8 81 E0                    4485   	add	er0,	#1 
                                 4486   
                                 4487   ;;	for(i = 0; i<150; i++)
                                 4488   CLINEA 0000H 0000H 0696H 000DH 0012H
00:01AA 96 70                    4489   	cmp	r0,	#096h
00:01AC 00 51                    4490   	cmpc	r1,	#00h
00:01AE F9 C5                    4491   	blts	_$L297
                                 4492   
                                 4493   ;;	sprintf(SensorReturn, "Accel Calibration: Tilt the Quad 90deg in the ROLL Direction! Return any 2 chars to Start");
                                 4494   CLINEA 0000H 0001H 069AH 0002H 0074H
00:01B0 00'00                    4495   	mov	r0,	#BYTE1 OFFSET $$S301
00:01B2 00'01                    4496   	mov	r1,	#BYTE2 OFFSET $$S301
00:01B4 5E-F0                    4497   	push	er0
00:01B6 00'00                    4498   	mov	r0,	#BYTE1 OFFSET _SensorReturn
00:01B8 00'01                    4499   	mov	r1,	#BYTE2 OFFSET _SensorReturn
00:01BA 5E-F0                    4500   	push	er0
00:01BC 01-F0'00-00'             4501   	bl	_sprintf_nn
00:01C0 04 E1                    4502   	add	sp,	#4 
                                 4503   
                                 4504   ;;	SensorReturn[148] = 0x0D;
                                 4505   CLINEA 0000H 0001H 069BH 0002H 001AH
00:01C2 0D 00                    4506   	mov	r0,	#0dh
00:01C4 11-90 00-00'             4507   	st	r0,	NEAR _SensorReturn+094h
                                 4508   
                                 4509   ;;	SensorReturn[149] = 0x0A;
                                 4510   CLINEA 0000H 0001H 069CH 0002H 001AH
00:01C8 0A 00                    4511   	mov	r0,	#0ah
00:01CA 11-90 00-00'             4512   	st	r0,	NEAR _SensorReturn+095h
                                 4513   
                                 4514   ;;	_flgUartFin = 0;
                                 4515   CLINEA 0000H 0001H 069EH 0002H 0011H
00:01CE 00 00                    4516   	mov	r0,	#00h
00:01D0 11-90 00-00'             4517   	st	r0,	NEAR __flgUartFin
                                 4518   
                                 4519   ;;	uart_stop();
                                 4520   CLINEA 0000H 0001H 069FH 0002H 000DH
00:01D4 01-F0'00-00'             4521   	bl	_uart_stop
                                 4522   
                                 4523   ;;	uart_startSend(SensorReturn, 150, _funcUartFin);
                                 4524   CLINEA 0000H 0001H 06A0H 0002H 0031H
00:01D8 00'00                    4525   	mov	r0,	#BYTE1 OFFSET __funcUartFin
00:01DA 00'01                    4526   	mov	r1,	#BYTE2 OFFSET __funcUartFin
00:01DC 5E-F0                    4527   	push	er0
00:01DE 96 02                    4528   	mov	r2,	#096h
00:01E0 00 03                    4529   	mov	r3,	#00h
00:01E2 00'00                    4530   	mov	r0,	#BYTE1 OFFSET _SensorReturn
00:01E4 00'01                    4531   	mov	r1,	#BYTE2 OFFSET _SensorReturn
00:01E6 01-F0'00-00'             4532   	bl	_uart_startSend
00:01EA 02 E1                    4533   	add	sp,	#2 
                                 4534   
                                 4535   ;;	while(_flgUartFin != 1){
                                 4536   CLINEA 0000H 0000H 06A1H 0001H 0001H
00:01EC 04 CE                    4537   	bal	_$L359
                                 4538   
                                 4539   ;;	while(_flgUartFin != 1){
                                 4540   CLINEA 0000H 0000H 06A1H 0002H 0019H
00:01EE                          4541   _$L304 :
                                 4542   CBLOCK 230 10 1697
                                 4543   
                                 4544   ;;		NOP1000();
                                 4545   CLINEA 0000H 0001H 06A2H 0003H 000CH
00:01EE 01-F0'00-00'             4546   	bl	_NOP1000
                                 4547   
                                 4548   ;;		main_clrWDT();
                                 4549   CLINEA 0000H 0001H 06A3H 0003H 0010H
00:01F2 01-F0'00-00'             4550   	bl	_main_clrWDT
                                 4551   CBLOCKEND 230 10 1700
                                 4552   
                                 4553   ;;	while(_flgUartFin != 1){
                                 4554   CLINEA 0000H 0000H 06A1H 0001H 0001H
00:01F6                          4555   _$L359 :
                                 4556   
                                 4557   ;;	while(_flgUartFin != 1){
                                 4558   CLINEA 0000H 0000H 06A1H 000DH 0012H
00:01F6 10-90 00-00'             4559   	l	r0,	NEAR __flgUartFin
00:01FA 01 70                    4560   	cmp	r0,	#01h
00:01FC F8 C8                    4561   	bne	_$L304
                                 4562   
                                 4563   ;;	_flgUartFin = 0;
                                 4564   CLINEA 0000H 0001H 06A6H 0002H 0011H
00:01FE 00 00                    4565   	mov	r0,	#00h
00:0200 11-90 00-00'             4566   	st	r0,	NEAR __flgUartFin
                                 4567   
                                 4568   ;;	uart_stop();
                                 4569   CLINEA 0000H 0001H 06A7H 0002H 000DH
00:0204 01-F0'00-00'             4570   	bl	_uart_stop
                                 4571   
                                 4572   ;;	uart_startReceive(RecWorld, 2, _funcUartFin);
                                 4573   CLINEA 0000H 0001H 06A8H 0002H 002EH
00:0208 00'00                    4574   	mov	r0,	#BYTE1 OFFSET __funcUartFin
00:020A 00'01                    4575   	mov	r1,	#BYTE2 OFFSET __funcUartFin
00:020C 5E-F0                    4576   	push	er0
00:020E 02 E2                    4577   	mov	er2,	#2 
00:0210 00'00                    4578   	mov	r0,	#BYTE1 OFFSET _RecWorld
00:0212 00'01                    4579   	mov	r1,	#BYTE2 OFFSET _RecWorld
00:0214 01-F0'00-00'             4580   	bl	_uart_startReceive
00:0218 02 E1                    4581   	add	sp,	#2 
                                 4582   
                                 4583   ;;	while(_flgUartFin != 1){
                                 4584   CLINEA 0000H 0000H 06A9H 0001H 0001H
00:021A 02 CE                    4585   	bal	_$L360
                                 4586   
                                 4587   ;;	while(_flgUartFin != 1){
                                 4588   CLINEA 0000H 0000H 06A9H 0002H 0019H
00:021C                          4589   _$L308 :
                                 4590   CBLOCK 230 11 1705
                                 4591   
                                 4592   ;;		main_clrWDT();
                                 4593   CLINEA 0000H 0001H 06AAH 0003H 0010H
00:021C 01-F0'00-00'             4594   	bl	_main_clrWDT
                                 4595   CBLOCKEND 230 11 1707
                                 4596   
                                 4597   ;;	while(_flgUartFin != 1){
                                 4598   CLINEA 0000H 0000H 06A9H 0001H 0001H
00:0220                          4599   _$L360 :
                                 4600   
                                 4601   ;;	while(_flgUartFin != 1){
                                 4602   CLINEA 0000H 0000H 06A9H 000DH 0011H
00:0220 10-90 00-00'             4603   	l	r0,	NEAR __flgUartFin
00:0224 01 70                    4604   	cmp	r0,	#01h
00:0226 FA C8                    4605   	bne	_$L308
                                 4606   
                                 4607   ;;	for(i = 0; i<10; i++){
                                 4608   CLINEA 0000H 0001H 06ADH 0006H 000BH
00:0228 00 E8                    4609   	mov	er8,	#0 
                                 4610   
                                 4611   ;;	for(i = 0; i<10; i++){
                                 4612   CLINEA 0000H 0000H 06ADH 0013H 0015H
00:022A                          4613   _$L312 :
                                 4614   CBLOCK 230 12 1709
                                 4615   
                                 4616   ;;		_flgI2CFin = 0;																	//reset I2C completed Flag
                                 4617   CLINEA 0000H 0001H 06B1H 0003H 003CH
00:022A 00 00                    4618   	mov	r0,	#00h
00:022C 11-90 00-00'             4619   	st	r0,	NEAR __flgI2CFin
                                 4620   
                                 4621   ;;		i2c_stop();																		//Make sure I2C is not currently running
                                 4622   CLINEA 0000H 0001H 06B2H 0003H 0047H
00:0230 01-F0'00-00'             4623   	bl	_i2c_stop
                                 4624   
                                 4625   ;;		I20MD = 1;		//Switch to I2C Fast Operation (400kbps)
                                 4626   CLINEA 0000H 0001H 06B3H 0003H 0036H
00:0234 90-A0 A4-F2              4627   	sb	0f2a4h.1
                                 4628   
                                 4629   ;;		i2c_startReceive(MPU6050Address, &AccGyro_ReadData, 1, &AccGyro_Data, 14, (cbfI2c)_funcI2CFin);	//Begin I2C Receive Command
                                 4630   CLINEA 0000H 0001H 06B4H 0003H 007DH
00:0238 00'00                    4631   	mov	r0,	#BYTE1 OFFSET __funcI2CFin
00:023A 00'01                    4632   	mov	r1,	#BYTE2 OFFSET __funcI2CFin
00:023C 5E-F0                    4633   	push	er0
00:023E 0E E0                    4634   	mov	er0,	#14
00:0240 5E-F0                    4635   	push	er0
00:0242 00'00                    4636   	mov	r0,	#BYTE1 OFFSET _AccGyro_Data
00:0244 00'01                    4637   	mov	r1,	#BYTE2 OFFSET _AccGyro_Data
00:0246 5E-F0                    4638   	push	er0
00:0248 01 E0                    4639   	mov	er0,	#1 
00:024A 5E-F0                    4640   	push	er0
00:024C 00'02                    4641   	mov	r2,	#BYTE1 OFFSET _AccGyro_ReadData
00:024E 00'03                    4642   	mov	r3,	#BYTE2 OFFSET _AccGyro_ReadData
00:0250 10-90 00-00'             4643   	l	r0,	NEAR _MPU6050Address
00:0254 01-F0'00-00'             4644   	bl	_i2c_startReceive
00:0258 08 E1                    4645   	add	sp,	#8 
                                 4646   
                                 4647   ;;		while(_flgI2CFin != 1){															//Wait for I2C commands to finish transfer
                                 4648   CLINEA 0000H 0000H 06B5H 0001H 0001H
00:025A 02 CE                    4649   	bal	_$L361
                                 4650   
                                 4651   ;;		while(_flgI2CFin != 1){															//Wait for I2C commands to finish transfer
                                 4652   CLINEA 0000H 0000H 06B5H 0003H 0052H
00:025C                          4653   _$L318 :
                                 4654   CBLOCK 230 13 1717
                                 4655   
                                 4656   ;;			main_clrWDT();	
                                 4657   CLINEA 0000H 0001H 06B6H 0004H 0012H
00:025C 01-F0'00-00'             4658   	bl	_main_clrWDT
                                 4659   CBLOCKEND 230 13 1719
                                 4660   
                                 4661   ;;		while(_flgI2CFin != 1){															//Wait for I2C commands to finish transfer
                                 4662   CLINEA 0000H 0000H 06B5H 0001H 0001H
00:0260                          4663   _$L361 :
                                 4664   
                                 4665   ;;		while(_flgI2CFin != 1){															//Wait for I2C commands to finish transfer
                                 4666   CLINEA 0000H 0000H 06B5H 000DH 0011H
00:0260 10-90 00-00'             4667   	l	r0,	NEAR __flgI2CFin
00:0264 01 70                    4668   	cmp	r0,	#01h
00:0266 FA C8                    4669   	bne	_$L318
                                 4670   
                                 4671   ;;		Accel_Zcal[1] += (AccGyro_Data[4]<<8)+(AccGyro_Data[5]);
                                 4672   CLINEA 0000H 0001H 06BCH 0003H 003AH
00:0268 10-90 00-00'             4673   	l	r0,	NEAR _AccGyro_Data+04h
00:026C 00 01                    4674   	mov	r1,	#00h
00:026E 00-83                    4675   	mov	r3,	r0
00:0270 00 02                    4676   	mov	r2,	#00h
00:0272 10-90 00-00'             4677   	l	r0,	NEAR _AccGyro_Data+05h
00:0276 26-F0                    4678   	add	er0,	er2
00:0278 10-82                    4679   	mov	r2,	r1
00:027A 2F-83                    4680   	extbw	er2
00:027C 30-82                    4681   	mov	r2,	r3
00:027E 6E-F0                    4682   	push	xr0
00:0280 01-F0'00-00'             4683   	bl	__fildu8sw
00:0284 2E-F0                    4684   	pop	xr0
00:0286 6E-F0                    4685   	push	xr0
00:0288 12-90 00-00'             4686   	l	er0,	NEAR _Accel_Zcal+04h
00:028C 12-92 00-00'             4687   	l	er2,	NEAR _Accel_Zcal+06h
00:0290 6E-F0                    4688   	push	xr0
00:0292 01-F0'00-00'             4689   	bl	__faddu8sw
00:0296 04 E1                    4690   	add	sp,	#4 
00:0298 2E-F0                    4691   	pop	xr0
00:029A 13-90 00-00'             4692   	st	er0,	NEAR _Accel_Zcal+04h
00:029E 13-92 00-00'             4693   	st	er2,	NEAR _Accel_Zcal+06h
                                 4694   
                                 4695   ;;		Accel_Ycal[2] += (AccGyro_Data[2]<<8)+(AccGyro_Data[3]);
                                 4696   CLINEA 0000H 0001H 06BDH 0003H 003AH
00:02A2 10-90 00-00'             4697   	l	r0,	NEAR _AccGyro_Data+02h
00:02A6 00 01                    4698   	mov	r1,	#00h
00:02A8 00-83                    4699   	mov	r3,	r0
00:02AA 00 02                    4700   	mov	r2,	#00h
00:02AC 10-90 00-00'             4701   	l	r0,	NEAR _AccGyro_Data+03h
00:02B0 26-F0                    4702   	add	er0,	er2
00:02B2 10-82                    4703   	mov	r2,	r1
00:02B4 2F-83                    4704   	extbw	er2
00:02B6 30-82                    4705   	mov	r2,	r3
00:02B8 6E-F0                    4706   	push	xr0
00:02BA 01-F0'00-00'             4707   	bl	__fildu8sw
00:02BE 2E-F0                    4708   	pop	xr0
00:02C0 6E-F0                    4709   	push	xr0
00:02C2 12-90 00-00'             4710   	l	er0,	NEAR _Accel_Ycal+08h
00:02C6 12-92 00-00'             4711   	l	er2,	NEAR _Accel_Ycal+0ah
00:02CA 6E-F0                    4712   	push	xr0
00:02CC 01-F0'00-00'             4713   	bl	__faddu8sw
00:02D0 04 E1                    4714   	add	sp,	#4 
00:02D2 2E-F0                    4715   	pop	xr0
00:02D4 13-90 00-00'             4716   	st	er0,	NEAR _Accel_Ycal+08h
00:02D8 13-92 00-00'             4717   	st	er2,	NEAR _Accel_Ycal+0ah
                                 4718   CBLOCKEND 230 12 1726
                                 4719   
                                 4720   ;;	for(i = 0; i<10; i++){
                                 4721   CLINEA 0000H 0000H 06ADH 0013H 0015H
00:02DC 81 E8                    4722   	add	er8,	#1 
                                 4723   
                                 4724   ;;	for(i = 0; i<10; i++){
                                 4725   CLINEA 0000H 0000H 06ADH 000DH 0011H
00:02DE 0A 78                    4726   	cmp	r8,	#0ah
00:02E0 00 59                    4727   	cmpc	r9,	#00h
00:02E2 02 C4                    4728   	bges	_$M21
00:02E4 00-F0'00-00'             4729   	b	_$L312
00:02E8                          4730   _$M21 :
                                 4731   
                                 4732   ;;	Accel_Zcal[1] /= 10;
                                 4733   CLINEA 0000H 0001H 06BFH 0002H 0015H
00:02E8 12-90 00-00'             4734   	l	er0,	NEAR _Accel_Zcal+04h
00:02EC 12-92 00-00'             4735   	l	er2,	NEAR _Accel_Zcal+06h
00:02F0 6E-F0                    4736   	push	xr0
00:02F2 00 E0                    4737   	mov	er0,	#0 
00:02F4 20 02                    4738   	mov	r2,	#020h
00:02F6 41 03                    4739   	mov	r3,	#041h
00:02F8 6E-F0                    4740   	push	xr0
00:02FA 01-F0'00-00'             4741   	bl	__fdivu8sw
00:02FE 04 E1                    4742   	add	sp,	#4 
00:0300 2E-F0                    4743   	pop	xr0
00:0302 13-90 00-00'             4744   	st	er0,	NEAR _Accel_Zcal+04h
00:0306 13-92 00-00'             4745   	st	er2,	NEAR _Accel_Zcal+06h
                                 4746   
                                 4747   ;;	Accel_Ycal[2] /= 10;
                                 4748   CLINEA 0000H 0001H 06C0H 0002H 0015H
00:030A 12-90 00-00'             4749   	l	er0,	NEAR _Accel_Ycal+08h
00:030E 12-92 00-00'             4750   	l	er2,	NEAR _Accel_Ycal+0ah
00:0312 6E-F0                    4751   	push	xr0
00:0314 00 E0                    4752   	mov	er0,	#0 
00:0316 20 02                    4753   	mov	r2,	#020h
00:0318 41 03                    4754   	mov	r3,	#041h
00:031A 6E-F0                    4755   	push	xr0
00:031C 01-F0'00-00'             4756   	bl	__fdivu8sw
00:0320 04 E1                    4757   	add	sp,	#4 
00:0322 2E-F0                    4758   	pop	xr0
00:0324 13-90 00-00'             4759   	st	er0,	NEAR _Accel_Ycal+08h
00:0328 13-92 00-00'             4760   	st	er2,	NEAR _Accel_Ycal+0ah
                                 4761   
                                 4762   ;;	for(i = 0; i<150; i++)
                                 4763   CLINEA 0000H 0001H 06C3H 0002H 0017H
00:032C 00 E0                    4764   	mov	er0,	#0 
00:032E                          4765   _$L322 :
                                 4766   CBLOCK 230 14 1732
                                 4767   
                                 4768   ;;		SensorReturn[i] = 0x20;
                                 4769   CLINEA 0000H 0001H 06C5H 0003H 0019H
00:032E 20 02                    4770   	mov	r2,	#020h
00:0330 09-92 00-00'             4771   	st	r2,	NEAR _SensorReturn[er0]
                                 4772   CBLOCKEND 230 14 1734
                                 4773   
                                 4774   ;;	for(i = 0; i<150; i++)
                                 4775   CLINEA 0000H 0000H 06C3H 0002H 0017H
00:0334 81 E0                    4776   	add	er0,	#1 
                                 4777   
                                 4778   ;;	for(i = 0; i<150; i++)
                                 4779   CLINEA 0000H 0000H 06C3H 000DH 0011H
00:0336 96 70                    4780   	cmp	r0,	#096h
00:0338 00 51                    4781   	cmpc	r1,	#00h
00:033A F9 C5                    4782   	blts	_$L322
                                 4783   
                                 4784   ;;	sprintf(SensorReturn, "Accel Calibration: Tilt the Quad 90deg in the PITCH direction! Return any 2 chars to Start");
                                 4785   CLINEA 0000H 0001H 06C7H 0002H 0075H
00:033C 00'00                    4786   	mov	r0,	#BYTE1 OFFSET $$S326
00:033E 00'01                    4787   	mov	r1,	#BYTE2 OFFSET $$S326
00:0340 5E-F0                    4788   	push	er0
00:0342 00'00                    4789   	mov	r0,	#BYTE1 OFFSET _SensorReturn
00:0344 00'01                    4790   	mov	r1,	#BYTE2 OFFSET _SensorReturn
00:0346 5E-F0                    4791   	push	er0
00:0348 01-F0'00-00'             4792   	bl	_sprintf_nn
00:034C 04 E1                    4793   	add	sp,	#4 
                                 4794   
                                 4795   ;;	SensorReturn[148] = 0x0D;
                                 4796   CLINEA 0000H 0001H 06C8H 0002H 001AH
00:034E 0D 00                    4797   	mov	r0,	#0dh
00:0350 11-90 00-00'             4798   	st	r0,	NEAR _SensorReturn+094h
                                 4799   
                                 4800   ;;	SensorReturn[149] = 0x0A;
                                 4801   CLINEA 0000H 0001H 06C9H 0002H 001AH
00:0354 0A 00                    4802   	mov	r0,	#0ah
00:0356 11-90 00-00'             4803   	st	r0,	NEAR _SensorReturn+095h
                                 4804   
                                 4805   ;;	_flgUartFin = 0;
                                 4806   CLINEA 0000H 0001H 06CBH 0002H 0011H
00:035A 00 00                    4807   	mov	r0,	#00h
00:035C 11-90 00-00'             4808   	st	r0,	NEAR __flgUartFin
                                 4809   
                                 4810   ;;	uart_stop();
                                 4811   CLINEA 0000H 0001H 06CCH 0002H 000DH
00:0360 01-F0'00-00'             4812   	bl	_uart_stop
                                 4813   
                                 4814   ;;	uart_startSend(SensorReturn, 150, _funcUartFin);
                                 4815   CLINEA 0000H 0001H 06CDH 0002H 0031H
00:0364 00'00                    4816   	mov	r0,	#BYTE1 OFFSET __funcUartFin
00:0366 00'01                    4817   	mov	r1,	#BYTE2 OFFSET __funcUartFin
00:0368 5E-F0                    4818   	push	er0
00:036A 96 02                    4819   	mov	r2,	#096h
00:036C 00 03                    4820   	mov	r3,	#00h
00:036E 00'00                    4821   	mov	r0,	#BYTE1 OFFSET _SensorReturn
00:0370 00'01                    4822   	mov	r1,	#BYTE2 OFFSET _SensorReturn
00:0372 01-F0'00-00'             4823   	bl	_uart_startSend
00:0376 02 E1                    4824   	add	sp,	#2 
                                 4825   
                                 4826   ;;	while(_flgUartFin != 1){
                                 4827   CLINEA 0000H 0000H 06CEH 0001H 0001H
00:0378 04 CE                    4828   	bal	_$L362
                                 4829   
                                 4830   ;;	while(_flgUartFin != 1){
                                 4831   CLINEA 0000H 0000H 06CEH 0002H 0019H
00:037A                          4832   _$L329 :
                                 4833   CBLOCK 230 15 1742
                                 4834   
                                 4835   ;;		NOP1000();
                                 4836   CLINEA 0000H 0001H 06CFH 0003H 000CH
00:037A 01-F0'00-00'             4837   	bl	_NOP1000
                                 4838   
                                 4839   ;;		main_clrWDT();
                                 4840   CLINEA 0000H 0001H 06D0H 0003H 0010H
00:037E 01-F0'00-00'             4841   	bl	_main_clrWDT
                                 4842   CBLOCKEND 230 15 1745
                                 4843   
                                 4844   ;;	while(_flgUartFin != 1){
                                 4845   CLINEA 0000H 0000H 06CEH 0001H 0001H
00:0382                          4846   _$L362 :
                                 4847   
                                 4848   ;;	while(_flgUartFin != 1){
                                 4849   CLINEA 0000H 0000H 06CEH 000DH 0011H
00:0382 10-90 00-00'             4850   	l	r0,	NEAR __flgUartFin
00:0386 01 70                    4851   	cmp	r0,	#01h
00:0388 F8 C8                    4852   	bne	_$L329
                                 4853   
                                 4854   ;;	_flgUartFin = 0;
                                 4855   CLINEA 0000H 0001H 06D3H 0002H 0011H
00:038A 00 00                    4856   	mov	r0,	#00h
00:038C 11-90 00-00'             4857   	st	r0,	NEAR __flgUartFin
                                 4858   
                                 4859   ;;	uart_stop();
                                 4860   CLINEA 0000H 0001H 06D4H 0002H 000DH
00:0390 01-F0'00-00'             4861   	bl	_uart_stop
                                 4862   
                                 4863   ;;	uart_startReceive(RecWorld, 2, _funcUartFin);
                                 4864   CLINEA 0000H 0001H 06D5H 0002H 002EH
00:0394 00'00                    4865   	mov	r0,	#BYTE1 OFFSET __funcUartFin
00:0396 00'01                    4866   	mov	r1,	#BYTE2 OFFSET __funcUartFin
00:0398 5E-F0                    4867   	push	er0
00:039A 02 E2                    4868   	mov	er2,	#2 
00:039C 00'00                    4869   	mov	r0,	#BYTE1 OFFSET _RecWorld
00:039E 00'01                    4870   	mov	r1,	#BYTE2 OFFSET _RecWorld
00:03A0 01-F0'00-00'             4871   	bl	_uart_startReceive
00:03A4 02 E1                    4872   	add	sp,	#2 
                                 4873   
                                 4874   ;;	while(_flgUartFin != 1){
                                 4875   CLINEA 0000H 0000H 06D6H 0001H 0001H
00:03A6 02 CE                    4876   	bal	_$L363
                                 4877   
                                 4878   ;;	while(_flgUartFin != 1){
                                 4879   CLINEA 0000H 0000H 06D6H 0002H 0019H
00:03A8                          4880   _$L333 :
                                 4881   CBLOCK 230 16 1750
                                 4882   
                                 4883   ;;		main_clrWDT();
                                 4884   CLINEA 0000H 0001H 06D7H 0003H 0010H
00:03A8 01-F0'00-00'             4885   	bl	_main_clrWDT
                                 4886   CBLOCKEND 230 16 1752
                                 4887   
                                 4888   ;;	while(_flgUartFin != 1){
                                 4889   CLINEA 0000H 0000H 06D6H 0001H 0001H
00:03AC                          4890   _$L363 :
                                 4891   
                                 4892   ;;	while(_flgUartFin != 1){
                                 4893   CLINEA 0000H 0000H 06D6H 000DH 0011H
00:03AC 10-90 00-00'             4894   	l	r0,	NEAR __flgUartFin
00:03B0 01 70                    4895   	cmp	r0,	#01h
00:03B2 FA C8                    4896   	bne	_$L333
                                 4897   
                                 4898   ;;	for(i = 0; i<10; i++){
                                 4899   CLINEA 0000H 0001H 06DAH 0006H 000BH
00:03B4 00 E8                    4900   	mov	er8,	#0 
                                 4901   
                                 4902   ;;	for(i = 0; i<10; i++){
                                 4903   CLINEA 0000H 0000H 06DAH 0013H 0015H
00:03B6                          4904   _$L337 :
                                 4905   CBLOCK 230 17 1754
                                 4906   
                                 4907   ;;		_flgI2CFin = 0;																	//reset I2C completed Flag
                                 4908   CLINEA 0000H 0001H 06DEH 0003H 003CH
00:03B6 00 00                    4909   	mov	r0,	#00h
00:03B8 11-90 00-00'             4910   	st	r0,	NEAR __flgI2CFin
                                 4911   
                                 4912   ;;		i2c_stop();																		//Make sure I2C is not currently running
                                 4913   CLINEA 0000H 0001H 06DFH 0003H 0047H
00:03BC 01-F0'00-00'             4914   	bl	_i2c_stop
                                 4915   
                                 4916   ;;		I20MD = 1;		//Switch to I2C Fast Operation (400kbps)
                                 4917   CLINEA 0000H 0001H 06E0H 0003H 0036H
00:03C0 90-A0 A4-F2              4918   	sb	0f2a4h.1
                                 4919   
                                 4920   ;;		i2c_startReceive(MPU6050Address, &AccGyro_ReadData, 1, &AccGyro_Data, 14, (cbfI2c)_funcI2CFin);	//Begin I2C Receive Command
                                 4921   CLINEA 0000H 0001H 06E1H 0003H 007DH
00:03C4 00'00                    4922   	mov	r0,	#BYTE1 OFFSET __funcI2CFin
00:03C6 00'01                    4923   	mov	r1,	#BYTE2 OFFSET __funcI2CFin
00:03C8 5E-F0                    4924   	push	er0
00:03CA 0E E0                    4925   	mov	er0,	#14
00:03CC 5E-F0                    4926   	push	er0
00:03CE 00'00                    4927   	mov	r0,	#BYTE1 OFFSET _AccGyro_Data
00:03D0 00'01                    4928   	mov	r1,	#BYTE2 OFFSET _AccGyro_Data
00:03D2 5E-F0                    4929   	push	er0
00:03D4 01 E0                    4930   	mov	er0,	#1 
00:03D6 5E-F0                    4931   	push	er0
00:03D8 00'02                    4932   	mov	r2,	#BYTE1 OFFSET _AccGyro_ReadData
00:03DA 00'03                    4933   	mov	r3,	#BYTE2 OFFSET _AccGyro_ReadData
00:03DC 10-90 00-00'             4934   	l	r0,	NEAR _MPU6050Address
00:03E0 01-F0'00-00'             4935   	bl	_i2c_startReceive
00:03E4 08 E1                    4936   	add	sp,	#8 
                                 4937   
                                 4938   ;;		while(_flgI2CFin != 1){															//Wait for I2C commands to finish transfer
                                 4939   CLINEA 0000H 0000H 06E2H 0001H 0001H
00:03E6 02 CE                    4940   	bal	_$L364
                                 4941   
                                 4942   ;;		while(_flgI2CFin != 1){															//Wait for I2C commands to finish transfer
                                 4943   CLINEA 0000H 0000H 06E2H 0003H 0052H
00:03E8                          4944   _$L343 :
                                 4945   CBLOCK 230 18 1762
                                 4946   
                                 4947   ;;			main_clrWDT();	
                                 4948   CLINEA 0000H 0001H 06E3H 0004H 0012H
00:03E8 01-F0'00-00'             4949   	bl	_main_clrWDT
                                 4950   CBLOCKEND 230 18 1764
                                 4951   
                                 4952   ;;		while(_flgI2CFin != 1){															//Wait for I2C commands to finish transfer
                                 4953   CLINEA 0000H 0000H 06E2H 0001H 0001H
00:03EC                          4954   _$L364 :
                                 4955   
                                 4956   ;;		while(_flgI2CFin != 1){															//Wait for I2C commands to finish transfer
                                 4957   CLINEA 0000H 0000H 06E2H 000DH 0011H
00:03EC 10-90 00-00'             4958   	l	r0,	NEAR __flgI2CFin
00:03F0 01 70                    4959   	cmp	r0,	#01h
00:03F2 FA C8                    4960   	bne	_$L343
                                 4961   
                                 4962   ;;		Accel_Zcal[2] += (AccGyro_Data[4]<<8)+(AccGyro_Data[5]);
                                 4963   CLINEA 0000H 0001H 06E9H 0003H 003AH
00:03F4 10-90 00-00'             4964   	l	r0,	NEAR _AccGyro_Data+04h
00:03F8 00 01                    4965   	mov	r1,	#00h
00:03FA 00-83                    4966   	mov	r3,	r0
00:03FC 00 02                    4967   	mov	r2,	#00h
00:03FE 10-90 00-00'             4968   	l	r0,	NEAR _AccGyro_Data+05h
00:0402 26-F0                    4969   	add	er0,	er2
00:0404 10-82                    4970   	mov	r2,	r1
00:0406 2F-83                    4971   	extbw	er2
00:0408 30-82                    4972   	mov	r2,	r3
00:040A 6E-F0                    4973   	push	xr0
00:040C 01-F0'00-00'             4974   	bl	__fildu8sw
00:0410 2E-F0                    4975   	pop	xr0
00:0412 6E-F0                    4976   	push	xr0
00:0414 12-90 00-00'             4977   	l	er0,	NEAR _Accel_Zcal+08h
00:0418 12-92 00-00'             4978   	l	er2,	NEAR _Accel_Zcal+0ah
00:041C 6E-F0                    4979   	push	xr0
00:041E 01-F0'00-00'             4980   	bl	__faddu8sw
00:0422 04 E1                    4981   	add	sp,	#4 
00:0424 2E-F0                    4982   	pop	xr0
00:0426 13-90 00-00'             4983   	st	er0,	NEAR _Accel_Zcal+08h
00:042A 13-92 00-00'             4984   	st	er2,	NEAR _Accel_Zcal+0ah
                                 4985   
                                 4986   ;;		Accel_Xcal[2] += (AccGyro_Data[0]<<8)+(AccGyro_Data[1]);
                                 4987   CLINEA 0000H 0001H 06EAH 0003H 003AH
00:042E 10-90 00-00'             4988   	l	r0,	NEAR _AccGyro_Data+01h
00:0432 00 01                    4989   	mov	r1,	#00h
00:0434 10-92 00-00'             4990   	l	r2,	NEAR _AccGyro_Data
00:0438 20-83                    4991   	mov	r3,	r2
00:043A 00 02                    4992   	mov	r2,	#00h
00:043C 26-F0                    4993   	add	er0,	er2
00:043E 10-82                    4994   	mov	r2,	r1
00:0440 2F-83                    4995   	extbw	er2
00:0442 30-82                    4996   	mov	r2,	r3
00:0444 6E-F0                    4997   	push	xr0
00:0446 01-F0'00-00'             4998   	bl	__fildu8sw
00:044A 2E-F0                    4999   	pop	xr0
00:044C 6E-F0                    5000   	push	xr0
00:044E 12-90 00-00'             5001   	l	er0,	NEAR _Accel_Xcal+08h
00:0452 12-92 00-00'             5002   	l	er2,	NEAR _Accel_Xcal+0ah
00:0456 6E-F0                    5003   	push	xr0
00:0458 01-F0'00-00'             5004   	bl	__faddu8sw
00:045C 04 E1                    5005   	add	sp,	#4 
00:045E 2E-F0                    5006   	pop	xr0
00:0460 13-90 00-00'             5007   	st	er0,	NEAR _Accel_Xcal+08h
00:0464 13-92 00-00'             5008   	st	er2,	NEAR _Accel_Xcal+0ah
                                 5009   CBLOCKEND 230 17 1771
                                 5010   
                                 5011   ;;	for(i = 0; i<10; i++){
                                 5012   CLINEA 0000H 0000H 06DAH 0013H 0015H
00:0468 81 E8                    5013   	add	er8,	#1 
                                 5014   
                                 5015   ;;	for(i = 0; i<10; i++){
                                 5016   CLINEA 0000H 0000H 06DAH 000DH 0011H
00:046A 0A 78                    5017   	cmp	r8,	#0ah
00:046C 00 59                    5018   	cmpc	r9,	#00h
00:046E 02 C4                    5019   	bges	_$M22
00:0470 00-F0'00-00'             5020   	b	_$L337
00:0474                          5021   _$M22 :
                                 5022   
                                 5023   ;;	Accel_Zcal[2] /= 10;
                                 5024   CLINEA 0000H 0001H 06ECH 0002H 0015H
00:0474 12-90 00-00'             5025   	l	er0,	NEAR _Accel_Zcal+08h
00:0478 12-92 00-00'             5026   	l	er2,	NEAR _Accel_Zcal+0ah
00:047C 6E-F0                    5027   	push	xr0
00:047E 00 E0                    5028   	mov	er0,	#0 
00:0480 20 02                    5029   	mov	r2,	#020h
00:0482 41 03                    5030   	mov	r3,	#041h
00:0484 6E-F0                    5031   	push	xr0
00:0486 01-F0'00-00'             5032   	bl	__fdivu8sw
00:048A 04 E1                    5033   	add	sp,	#4 
00:048C 2E-F0                    5034   	pop	xr0
00:048E 13-90 00-00'             5035   	st	er0,	NEAR _Accel_Zcal+08h
00:0492 13-92 00-00'             5036   	st	er2,	NEAR _Accel_Zcal+0ah
                                 5037   
                                 5038   ;;	Accel_Xcal[2] /= 10;
                                 5039   CLINEA 0000H 0001H 06EDH 0002H 0015H
00:0496 12-90 00-00'             5040   	l	er0,	NEAR _Accel_Xcal+08h
00:049A 12-92 00-00'             5041   	l	er2,	NEAR _Accel_Xcal+0ah
00:049E 6E-F0                    5042   	push	xr0
00:04A0 00 E0                    5043   	mov	er0,	#0 
00:04A2 20 02                    5044   	mov	r2,	#020h
00:04A4 41 03                    5045   	mov	r3,	#041h
00:04A6 6E-F0                    5046   	push	xr0
00:04A8 01-F0'00-00'             5047   	bl	__fdivu8sw
00:04AC 04 E1                    5048   	add	sp,	#4 
00:04AE 2E-F0                    5049   	pop	xr0
00:04B0 13-90 00-00'             5050   	st	er0,	NEAR _Accel_Xcal+08h
00:04B4 13-92 00-00'             5051   	st	er2,	NEAR _Accel_Xcal+0ah
                                 5052   
                                 5053   ;;	Accel_Xcal[0] = (Accel_Xcal[1]+Accel_Xcal[2])/2;
                                 5054   CLINEA 0000H 0001H 06F0H 0002H 0031H
00:04B8 12-90 00-00'             5055   	l	er0,	NEAR _Accel_Xcal+04h
00:04BC 12-92 00-00'             5056   	l	er2,	NEAR _Accel_Xcal+06h
00:04C0 6E-F0                    5057   	push	xr0
00:04C2 12-90 00-00'             5058   	l	er0,	NEAR _Accel_Xcal+08h
00:04C6 12-92 00-00'             5059   	l	er2,	NEAR _Accel_Xcal+0ah
00:04CA 6E-F0                    5060   	push	xr0
00:04CC 01-F0'00-00'             5061   	bl	__faddu8sw
00:04D0 04 E1                    5062   	add	sp,	#4 
00:04D2 00 E0                    5063   	mov	er0,	#0 
00:04D4 00 02                    5064   	mov	r2,	#00h
00:04D6 40 03                    5065   	mov	r3,	#040h
00:04D8 6E-F0                    5066   	push	xr0
00:04DA 01-F0'00-00'             5067   	bl	__fdivu8sw
00:04DE 04 E1                    5068   	add	sp,	#4 
00:04E0 2E-F0                    5069   	pop	xr0
00:04E2 13-90 00-00'             5070   	st	er0,	NEAR _Accel_Xcal
00:04E6 13-92 00-00'             5071   	st	er2,	NEAR _Accel_Xcal+02h
                                 5072   
                                 5073   ;;	Accel_Ycal[0] = (Accel_Ycal[1]+Accel_Ycal[2])/2;
                                 5074   CLINEA 0000H 0001H 06F1H 0002H 0031H
00:04EA 12-90 00-00'             5075   	l	er0,	NEAR _Accel_Ycal+04h
00:04EE 12-92 00-00'             5076   	l	er2,	NEAR _Accel_Ycal+06h
00:04F2 6E-F0                    5077   	push	xr0
00:04F4 12-90 00-00'             5078   	l	er0,	NEAR _Accel_Ycal+08h
00:04F8 12-92 00-00'             5079   	l	er2,	NEAR _Accel_Ycal+0ah
00:04FC 6E-F0                    5080   	push	xr0
00:04FE 01-F0'00-00'             5081   	bl	__faddu8sw
00:0502 04 E1                    5082   	add	sp,	#4 
00:0504 00 E0                    5083   	mov	er0,	#0 
00:0506 00 02                    5084   	mov	r2,	#00h
00:0508 40 03                    5085   	mov	r3,	#040h
00:050A 6E-F0                    5086   	push	xr0
00:050C 01-F0'00-00'             5087   	bl	__fdivu8sw
00:0510 04 E1                    5088   	add	sp,	#4 
00:0512 2E-F0                    5089   	pop	xr0
00:0514 13-90 00-00'             5090   	st	er0,	NEAR _Accel_Ycal
00:0518 13-92 00-00'             5091   	st	er2,	NEAR _Accel_Ycal+02h
                                 5092   
                                 5093   ;;	Accel_Zcal[0] = (Accel_Zcal[1]+Accel_Zcal[2])/2;
                                 5094   CLINEA 0000H 0001H 06F2H 0002H 0031H
00:051C 12-90 00-00'             5095   	l	er0,	NEAR _Accel_Zcal+04h
00:0520 12-92 00-00'             5096   	l	er2,	NEAR _Accel_Zcal+06h
00:0524 6E-F0                    5097   	push	xr0
00:0526 12-90 00-00'             5098   	l	er0,	NEAR _Accel_Zcal+08h
00:052A 12-92 00-00'             5099   	l	er2,	NEAR _Accel_Zcal+0ah
00:052E 6E-F0                    5100   	push	xr0
00:0530 01-F0'00-00'             5101   	bl	__faddu8sw
00:0534 04 E1                    5102   	add	sp,	#4 
00:0536 00 E0                    5103   	mov	er0,	#0 
00:0538 00 02                    5104   	mov	r2,	#00h
00:053A 40 03                    5105   	mov	r3,	#040h
00:053C 6E-F0                    5106   	push	xr0
00:053E 01-F0'00-00'             5107   	bl	__fdivu8sw
00:0542 04 E1                    5108   	add	sp,	#4 
00:0544 2E-F0                    5109   	pop	xr0
00:0546 13-90 00-00'             5110   	st	er0,	NEAR _Accel_Zcal
00:054A 13-92 00-00'             5111   	st	er2,	NEAR _Accel_Zcal+02h
                                 5112   
                                 5113   ;;	for(i = 0; i<150; i++)
                                 5114   CLINEA 0000H 0001H 06F5H 0002H 0017H
00:054E 00 E0                    5115   	mov	er0,	#0 
00:0550                          5116   _$L347 :
                                 5117   CBLOCK 230 19 1782
                                 5118   
                                 5119   ;;		SensorReturn[i] = 0x20;
                                 5120   CLINEA 0000H 0001H 06F7H 0003H 0019H
00:0550 20 02                    5121   	mov	r2,	#020h
00:0552 09-92 00-00'             5122   	st	r2,	NEAR _SensorReturn[er0]
                                 5123   CBLOCKEND 230 19 1784
                                 5124   
                                 5125   ;;	for(i = 0; i<150; i++)
                                 5126   CLINEA 0000H 0000H 06F5H 0002H 0017H
00:0556 81 E0                    5127   	add	er0,	#1 
                                 5128   
                                 5129   ;;	for(i = 0; i<150; i++)
                                 5130   CLINEA 0000H 0000H 06F5H 000DH 0011H
00:0558 96 70                    5131   	cmp	r0,	#096h
00:055A 00 51                    5132   	cmpc	r1,	#00h
00:055C F9 C5                    5133   	blts	_$L347
                                 5134   
                                 5135   ;;	sprintf(SensorReturn, "Accel Calibration Complete!");
                                 5136   CLINEA 0000H 0001H 06F9H 0002H 0036H
00:055E 00'00                    5137   	mov	r0,	#BYTE1 OFFSET $$S351
00:0560 00'01                    5138   	mov	r1,	#BYTE2 OFFSET $$S351
00:0562 5E-F0                    5139   	push	er0
00:0564 00'00                    5140   	mov	r0,	#BYTE1 OFFSET _SensorReturn
00:0566 00'01                    5141   	mov	r1,	#BYTE2 OFFSET _SensorReturn
00:0568 5E-F0                    5142   	push	er0
00:056A 01-F0'00-00'             5143   	bl	_sprintf_nn
00:056E 04 E1                    5144   	add	sp,	#4 
                                 5145   
                                 5146   ;;	SensorReturn[148] = 0x0D;
                                 5147   CLINEA 0000H 0001H 06FAH 0002H 001AH
00:0570 0D 00                    5148   	mov	r0,	#0dh
00:0572 11-90 00-00'             5149   	st	r0,	NEAR _SensorReturn+094h
                                 5150   
                                 5151   ;;	SensorReturn[149] = 0x0A;
                                 5152   CLINEA 0000H 0001H 06FBH 0002H 001AH
00:0576 0A 00                    5153   	mov	r0,	#0ah
00:0578 11-90 00-00'             5154   	st	r0,	NEAR _SensorReturn+095h
                                 5155   
                                 5156   ;;	_flgUartFin = 0;
                                 5157   CLINEA 0000H 0001H 06FDH 0002H 0011H
00:057C 00 00                    5158   	mov	r0,	#00h
00:057E 11-90 00-00'             5159   	st	r0,	NEAR __flgUartFin
                                 5160   
                                 5161   ;;	uart_stop();
                                 5162   CLINEA 0000H 0001H 06FEH 0002H 000DH
00:0582 01-F0'00-00'             5163   	bl	_uart_stop
                                 5164   
                                 5165   ;;	uart_startSend(SensorReturn, 150, _funcUartFin);
                                 5166   CLINEA 0000H 0001H 06FFH 0002H 0031H
00:0586 00'00                    5167   	mov	r0,	#BYTE1 OFFSET __funcUartFin
00:0588 00'01                    5168   	mov	r1,	#BYTE2 OFFSET __funcUartFin
00:058A 5E-F0                    5169   	push	er0
00:058C 96 02                    5170   	mov	r2,	#096h
00:058E 00 03                    5171   	mov	r3,	#00h
00:0590 00'00                    5172   	mov	r0,	#BYTE1 OFFSET _SensorReturn
00:0592 00'01                    5173   	mov	r1,	#BYTE2 OFFSET _SensorReturn
00:0594 01-F0'00-00'             5174   	bl	_uart_startSend
00:0598 02 E1                    5175   	add	sp,	#2 
                                 5176   
                                 5177   ;;	while(_flgUartFin != 1){
                                 5178   CLINEA 0000H 0000H 0700H 0001H 0001H
00:059A 04 CE                    5179   	bal	_$L365
                                 5180   
                                 5181   ;;	while(_flgUartFin != 1){
                                 5182   CLINEA 0000H 0000H 0700H 0002H 0019H
00:059C                          5183   _$L354 :
                                 5184   CBLOCK 230 20 1792
                                 5185   
                                 5186   ;;		NOP1000();
                                 5187   CLINEA 0000H 0001H 0701H 0003H 000CH
00:059C 01-F0'00-00'             5188   	bl	_NOP1000
                                 5189   
                                 5190   ;;		main_clrWDT();
                                 5191   CLINEA 0000H 0001H 0702H 0003H 0010H
00:05A0 01-F0'00-00'             5192   	bl	_main_clrWDT
                                 5193   CBLOCKEND 230 20 1795
                                 5194   
                                 5195   ;;	while(_flgUartFin != 1){
                                 5196   CLINEA 0000H 0000H 0700H 0001H 0001H
00:05A4                          5197   _$L365 :
                                 5198   
                                 5199   ;;	while(_flgUartFin != 1){
                                 5200   CLINEA 0000H 0000H 0700H 000DH 0011H
00:05A4 10-90 00-00'             5201   	l	r0,	NEAR __flgUartFin
00:05A8 01 70                    5202   	cmp	r0,	#01h
00:05AA F8 C8                    5203   	bne	_$L354
                                 5204   CBLOCKEND 230 2 1796
                                 5205   
                                 5206   ;;}
                                 5207   CLINEA 0000H 0001H 0704H 0001H 0001H
00:05AC 1E-F8                    5208   	pop	er8
00:05AE 8E-F2                    5209   	pop	pc
                                 5210   CBLOCKEND 230 1 1796
                                 5211   CFUNCTIONEND 230
                                 5212   
                                 5213   
  --------------------------     5214   	rseg $$SerialOutCoefficients$main
                                 5215   CFUNCTION 231
                                 5216   
00:0000                          5217   _SerialOutCoefficients	:
                                 5218   CBLOCK 231 1 1800
                                 5219   
                                 5220   ;;{
                                 5221   CLINEA 0000H 0001H 0708H 0001H 0001H
00:0000 CE-F8                    5222   	push	lr
                                 5223   CBLOCK 231 2 1800
                                 5224   CRET 0000H
                                 5225   CLOCAL 47H 0002H 0024H 0002H "j" 02H 00H 01H
                                 5226   
                                 5227   ;;		for(j = 0; j<150; j++)
                                 5228   CLINEA 0000H 0001H 070BH 0003H 0018H
00:0002 00 E0                    5229   	mov	er0,	#0 
00:0004                          5230   _$L369 :
                                 5231   CBLOCK 231 3 1804
                                 5232   
                                 5233   ;;			SensorReturn[j] = 0x20;
                                 5234   CLINEA 0000H 0001H 070DH 0004H 001AH
00:0004 20 02                    5235   	mov	r2,	#020h
00:0006 09-92 00-00'             5236   	st	r2,	NEAR _SensorReturn[er0]
                                 5237   CBLOCKEND 231 3 1806
                                 5238   
                                 5239   ;;		for(j = 0; j<150; j++)
                                 5240   CLINEA 0000H 0000H 070BH 0003H 0018H
00:000A 81 E0                    5241   	add	er0,	#1 
                                 5242   
                                 5243   ;;		for(j = 0; j<150; j++)
                                 5244   CLINEA 0000H 0000H 070BH 000DH 0011H
00:000C 96 70                    5245   	cmp	r0,	#096h
00:000E 00 51                    5246   	cmpc	r1,	#00h
00:0010 F9 C5                    5247   	blts	_$L369
                                 5248   
                                 5249   ;;		sprintf(SensorReturn, "Current Settings: kp=%f,ki=%f,kd=%f,a1=%f,a2=%f", Accel_PID_XRoll_kp, Accel_PID_XRoll_ki, Accel_PID_XRoll_kd, CF_HPF, CF_LPF);
                                 5250   CLINEA 0000H 0001H 0710H 0003H 0097H
00:0012 12-90 00-00'             5251   	l	er0,	NEAR _CF_LPF
00:0016 12-92 00-00'             5252   	l	er2,	NEAR _CF_LPF+02h
00:001A 6E-F0                    5253   	push	xr0
00:001C FC E1                    5254   	add	sp,	#-4
00:001E 01-F0'00-00'             5255   	bl	__ftodu8sw
00:0022 12-90 00-00'             5256   	l	er0,	NEAR _CF_HPF
00:0026 12-92 00-00'             5257   	l	er2,	NEAR _CF_HPF+02h
00:002A 6E-F0                    5258   	push	xr0
00:002C FC E1                    5259   	add	sp,	#-4
00:002E 01-F0'00-00'             5260   	bl	__ftodu8sw
00:0032 12-90 00-00'             5261   	l	er0,	NEAR _Accel_PID_XRoll_kd
00:0036 12-92 00-00'             5262   	l	er2,	NEAR _Accel_PID_XRoll_kd+02h
00:003A 6E-F0                    5263   	push	xr0
00:003C FC E1                    5264   	add	sp,	#-4
00:003E 01-F0'00-00'             5265   	bl	__ftodu8sw
00:0042 12-90 00-00'             5266   	l	er0,	NEAR _Accel_PID_XRoll_ki
00:0046 12-92 00-00'             5267   	l	er2,	NEAR _Accel_PID_XRoll_ki+02h
00:004A 6E-F0                    5268   	push	xr0
00:004C FC E1                    5269   	add	sp,	#-4
00:004E 01-F0'00-00'             5270   	bl	__ftodu8sw
00:0052 12-90 00-00'             5271   	l	er0,	NEAR _Accel_PID_XRoll_kp
00:0056 12-92 00-00'             5272   	l	er2,	NEAR _Accel_PID_XRoll_kp+02h
00:005A 6E-F0                    5273   	push	xr0
00:005C FC E1                    5274   	add	sp,	#-4
00:005E 01-F0'00-00'             5275   	bl	__ftodu8sw
00:0062 00'00                    5276   	mov	r0,	#BYTE1 OFFSET $$S373
00:0064 00'01                    5277   	mov	r1,	#BYTE2 OFFSET $$S373
00:0066 5E-F0                    5278   	push	er0
00:0068 00'00                    5279   	mov	r0,	#BYTE1 OFFSET _SensorReturn
00:006A 00'01                    5280   	mov	r1,	#BYTE2 OFFSET _SensorReturn
00:006C 5E-F0                    5281   	push	er0
00:006E 01-F0'00-00'             5282   	bl	_sprintf_nn
00:0072 2C E1                    5283   	add	sp,	#44
                                 5284   
                                 5285   ;;		SensorReturn[148] = 0x0D;	//CR
                                 5286   CLINEA 0000H 0001H 0712H 0003H 0020H
00:0074 0D 00                    5287   	mov	r0,	#0dh
00:0076 11-90 00-00'             5288   	st	r0,	NEAR _SensorReturn+094h
                                 5289   
                                 5290   ;;		SensorReturn[149] = 0x0A;	//LF
                                 5291   CLINEA 0000H 0001H 0713H 0003H 0020H
00:007A 0A 00                    5292   	mov	r0,	#0ah
00:007C 11-90 00-00'             5293   	st	r0,	NEAR _SensorReturn+095h
                                 5294   
                                 5295   ;;		_flgUartFin = 0;
                                 5296   CLINEA 0000H 0001H 0716H 0003H 0012H
00:0080 00 00                    5297   	mov	r0,	#00h
00:0082 11-90 00-00'             5298   	st	r0,	NEAR __flgUartFin
                                 5299   
                                 5300   ;;		uart_stop();
                                 5301   CLINEA 0000H 0001H 0717H 0003H 000EH
00:0086 01-F0'00-00'             5302   	bl	_uart_stop
                                 5303   
                                 5304   ;;		uart_startSend(SensorReturn, 150, _funcUartFin);
                                 5305   CLINEA 0000H 0001H 0718H 0003H 0032H
00:008A 00'00                    5306   	mov	r0,	#BYTE1 OFFSET __funcUartFin
00:008C 00'01                    5307   	mov	r1,	#BYTE2 OFFSET __funcUartFin
00:008E 5E-F0                    5308   	push	er0
00:0090 96 02                    5309   	mov	r2,	#096h
00:0092 00 03                    5310   	mov	r3,	#00h
00:0094 00'00                    5311   	mov	r0,	#BYTE1 OFFSET _SensorReturn
00:0096 00'01                    5312   	mov	r1,	#BYTE2 OFFSET _SensorReturn
00:0098 01-F0'00-00'             5313   	bl	_uart_startSend
00:009C 02 E1                    5314   	add	sp,	#2 
                                 5315   
                                 5316   ;;		while(_flgUartFin != 1){
                                 5317   CLINEA 0000H 0000H 0719H 0001H 0001H
00:009E 02 CE                    5318   	bal	_$L378
                                 5319   
                                 5320   ;;		while(_flgUartFin != 1){
                                 5321   CLINEA 0000H 0000H 0719H 0003H 001AH
00:00A0                          5322   _$L376 :
                                 5323   CBLOCK 231 4 1817
                                 5324   
                                 5325   ;;			main_clrWDT();
                                 5326   CLINEA 0000H 0001H 071AH 0004H 0011H
00:00A0 01-F0'00-00'             5327   	bl	_main_clrWDT
                                 5328   CBLOCKEND 231 4 1819
                                 5329   
                                 5330   ;;		while(_flgUartFin != 1){
                                 5331   CLINEA 0000H 0000H 0719H 0001H 0001H
00:00A4                          5332   _$L378 :
                                 5333   
                                 5334   ;;		while(_flgUartFin != 1){
                                 5335   CLINEA 0000H 0000H 0719H 000DH 0011H
00:00A4 10-90 00-00'             5336   	l	r0,	NEAR __flgUartFin
00:00A8 01 70                    5337   	cmp	r0,	#01h
00:00AA FA C8                    5338   	bne	_$L376
                                 5339   CBLOCKEND 231 2 1820
                                 5340   
                                 5341   ;;}
                                 5342   CLINEA 0000H 0001H 071CH 0001H 0001H
00:00AC 8E-F2                    5343   	pop	pc
                                 5344   CBLOCKEND 231 1 1820
                                 5345   CFUNCTIONEND 231
                                 5346   
                                 5347   
  --------------------------     5348   	rseg $$UARTTunePID$main
                                 5349   CFUNCTION 232
                                 5350   
00:0000                          5351   _UARTTunePID	:
                                 5352   CBLOCK 232 1 1824
                                 5353   
                                 5354   ;;{
                                 5355   CLINEA 0000H 0001H 0720H 0001H 0001H
00:0000 CE-F8                    5356   	push	lr
                                 5357   CBLOCK 232 2 1824
                                 5358   CRET 0000H
                                 5359   CLOCAL 47H 0002H 0024H 0002H "k" 02H 00H 01H
                                 5360   CLOCAL 4BH 0002H 0000H 0002H "i" 02H 00H 01H
                                 5361   CLOCAL 4BH 0002H 0000H 0002H "j" 02H 00H 01H
                                 5362   
                                 5363   ;;		for (k=0;k<7;k++)
                                 5364   CLINEA 0000H 0001H 0727H 0008H 000BH
00:0002 00 E0                    5365   	mov	er0,	#0 
                                 5366   
                                 5367   ;;		for (k=0;k<7;k++)
                                 5368   CLINEA 0000H 0000H 0727H 0010H 0012H
00:0004                          5369   _$L383 :
                                 5370   CBLOCK 232 3 1832
                                 5371   
                                 5372   ;;			RecWorld[k] = 0;	//ie: to set ki to 1.5 =>send ki1.50000
                                 5373   CLINEA 0000H 0001H 0729H 0004H 003BH
00:0004 00 02                    5374   	mov	r2,	#00h
00:0006 09-92 00-00'             5375   	st	r2,	NEAR _RecWorld[er0]
                                 5376   CBLOCKEND 232 3 1834
                                 5377   
                                 5378   ;;		for (k=0;k<7;k++)
                                 5379   CLINEA 0000H 0000H 0727H 0010H 0012H
00:000A 81 E0                    5380   	add	er0,	#1 
                                 5381   
                                 5382   ;;		for (k=0;k<7;k++)
                                 5383   CLINEA 0000H 0000H 0727H 000CH 000FH
00:000C 07 70                    5384   	cmp	r0,	#07h
00:000E 00 51                    5385   	cmpc	r1,	#00h
00:0010 F9 C5                    5386   	blts	_$L383
                                 5387   
                                 5388   ;;		ETM8 = 0; //Turn OFF TIMER8/9 ISR for this function...
                                 5389   CLINEA 0000H 0001H 072CH 0003H 0038H
00:0012 A2-A0 13-F0              5390   	rb	0f013h.2
                                 5391   
                                 5392   ;;		ETM9 = 0; //Turn OFF TIMER8/9 ISR for this function...
                                 5393   CLINEA 0000H 0001H 072DH 0003H 0038H
00:0016 B2-A0 13-F0              5394   	rb	0f013h.3
                                 5395   
                                 5396   ;;		_flgUartFin = 0;
                                 5397   CLINEA 0000H 0001H 0730H 0003H 0012H
00:001A 00 00                    5398   	mov	r0,	#00h
00:001C 11-90 00-00'             5399   	st	r0,	NEAR __flgUartFin
                                 5400   
                                 5401   ;;		uart_stop();
                                 5402   CLINEA 0000H 0001H 0731H 0003H 000EH
00:0020 01-F0'00-00'             5403   	bl	_uart_stop
                                 5404   
                                 5405   ;;		uart_startReceive(RecWorld, 8, _funcUartFin);
                                 5406   CLINEA 0000H 0001H 0732H 0003H 002FH
00:0024 00'00                    5407   	mov	r0,	#BYTE1 OFFSET __funcUartFin
00:0026 00'01                    5408   	mov	r1,	#BYTE2 OFFSET __funcUartFin
00:0028 5E-F0                    5409   	push	er0
00:002A 08 E2                    5410   	mov	er2,	#8 
00:002C 00'00                    5411   	mov	r0,	#BYTE1 OFFSET _RecWorld
00:002E 00'01                    5412   	mov	r1,	#BYTE2 OFFSET _RecWorld
00:0030 01-F0'00-00'             5413   	bl	_uart_startReceive
00:0034 02 E1                    5414   	add	sp,	#2 
                                 5415   
                                 5416   ;;		while(_flgUartFin != 1){
                                 5417   CLINEA 0000H 0000H 0733H 0001H 0001H
00:0036 02 CE                    5418   	bal	_$L428
                                 5419   
                                 5420   ;;		while(_flgUartFin != 1){
                                 5421   CLINEA 0000H 0000H 0733H 0003H 001AH
00:0038                          5422   _$L389 :
                                 5423   CBLOCK 232 4 1843
                                 5424   
                                 5425   ;;			main_clrWDT();
                                 5426   CLINEA 0000H 0001H 0734H 0004H 0011H
00:0038 01-F0'00-00'             5427   	bl	_main_clrWDT
                                 5428   CBLOCKEND 232 4 1845
                                 5429   
                                 5430   ;;		while(_flgUartFin != 1){
                                 5431   CLINEA 0000H 0000H 0733H 0001H 0001H
00:003C                          5432   _$L428 :
                                 5433   
                                 5434   ;;		while(_flgUartFin != 1){
                                 5435   CLINEA 0000H 0000H 0733H 000CH 000FH
00:003C 10-90 00-00'             5436   	l	r0,	NEAR __flgUartFin
00:0040 01 70                    5437   	cmp	r0,	#01h
00:0042 FA C8                    5438   	bne	_$L389
                                 5439   
                                 5440   ;;		if(RecWorld[0] == 0x6B){			//if RECWORLD == "kpi"
                                 5441   CLINEA 0000H 0001H 0763H 0003H 0033H
00:0044 10-90 00-00'             5442   	l	r0,	NEAR _RecWorld
00:0048 6B 70                    5443   	cmp	r0,	#06bh
00:004A 02 C9                    5444   	beq	_$M25
00:004C 00-F0'00-00'             5445   	b	_$L395
00:0050                          5446   _$M25 :
                                 5447   CBLOCK 232 5 1891
                                 5448   
                                 5449   ;;			if(RecWorld[1] == 0x70){
                                 5450   CLINEA 0000H 0001H 0764H 0004H 001BH
00:0050 10-90 00-00'             5451   	l	r0,	NEAR _RecWorld+01h
00:0054 70 70                    5452   	cmp	r0,	#070h
00:0056 02 C9                    5453   	beq	_$M26
00:0058 00-F0'00-00'             5454   	b	_$L395
00:005C                          5455   _$M26 :
                                 5456   CBLOCK 232 6 1892
                                 5457   
                                 5458   ;;				if(RecWorld[1] == 0x69){
                                 5459   CLINEA 0000H 0001H 0765H 0005H 001CH
00:005C 69 70                    5460   	cmp	r0,	#069h
00:005E 02 C9                    5461   	beq	_$M27
00:0060 00-F0'00-00'             5462   	b	_$L395
00:0064                          5463   _$M27 :
                                 5464   CBLOCK 232 7 1893
                                 5465   
                                 5466   ;;					NewVar_Str[0] = RecWorld[2];
                                 5467   CLINEA 0000H 0001H 0766H 0006H 0021H
00:0064 10-90 00-00'             5468   	l	r0,	NEAR _RecWorld+02h
00:0068 11-90 00-00'             5469   	st	r0,	NEAR _NewVar_Str
                                 5470   
                                 5471   ;;					NewVar_Str[1] = RecWorld[3];
                                 5472   CLINEA 0000H 0001H 0767H 0006H 0021H
00:006C 10-90 00-00'             5473   	l	r0,	NEAR _RecWorld+03h
00:0070 11-90 00-00'             5474   	st	r0,	NEAR _NewVar_Str+01h
                                 5475   
                                 5476   ;;					NewVar_Str[2] = RecWorld[4];
                                 5477   CLINEA 0000H 0001H 0768H 0006H 0021H
00:0074 10-90 00-00'             5478   	l	r0,	NEAR _RecWorld+04h
00:0078 11-90 00-00'             5479   	st	r0,	NEAR _NewVar_Str+02h
                                 5480   
                                 5481   ;;					NewVar_Str[3] = RecWorld[5];
                                 5482   CLINEA 0000H 0001H 0769H 0006H 0021H
00:007C 10-90 00-00'             5483   	l	r0,	NEAR _RecWorld+05h
00:0080 11-90 00-00'             5484   	st	r0,	NEAR _NewVar_Str+03h
                                 5485   
                                 5486   ;;					NewVar_Str[4] = RecWorld[6];
                                 5487   CLINEA 0000H 0001H 076AH 0006H 0021H
00:0084 10-90 00-00'             5488   	l	r0,	NEAR _RecWorld+06h
00:0088 11-90 00-00'             5489   	st	r0,	NEAR _NewVar_Str+04h
                                 5490   
                                 5491   ;;					NewVar_Str[5] = RecWorld[7];
                                 5492   CLINEA 0000H 0001H 076BH 0006H 0021H
00:008C 10-90 00-00'             5493   	l	r0,	NEAR _RecWorld+07h
00:0090 11-90 00-00'             5494   	st	r0,	NEAR _NewVar_Str+05h
                                 5495   
                                 5496   ;;					sscanf(NewVar_Str, "%f", &NewVar);
                                 5497   CLINEA 0000H 0001H 076CH 0006H 0027H
00:0094 00'00                    5498   	mov	r0,	#BYTE1 OFFSET _NewVar
00:0096 00'01                    5499   	mov	r1,	#BYTE2 OFFSET _NewVar
00:0098 5E-F0                    5500   	push	er0
00:009A 00'00                    5501   	mov	r0,	#BYTE1 OFFSET $$S215
00:009C 00'01                    5502   	mov	r1,	#BYTE2 OFFSET $$S215
00:009E 5E-F0                    5503   	push	er0
00:00A0 00'00                    5504   	mov	r0,	#BYTE1 OFFSET _NewVar_Str
00:00A2 00'01                    5505   	mov	r1,	#BYTE2 OFFSET _NewVar_Str
00:00A4 5E-F0                    5506   	push	er0
00:00A6 01-F0'00-00'             5507   	bl	_sscanf_nn
00:00AA 06 E1                    5508   	add	sp,	#6 
                                 5509   
                                 5510   ;;					Accel_PID_XRoll_kp = NewVar;
                                 5511   CLINEA 0000H 0001H 076DH 0006H 0021H
00:00AC 12-90 00-00'             5512   	l	er0,	NEAR _NewVar
00:00B0 12-92 00-00'             5513   	l	er2,	NEAR _NewVar+02h
00:00B4 13-90 00-00'             5514   	st	er0,	NEAR _Accel_PID_XRoll_kp
00:00B8 13-92 00-00'             5515   	st	er2,	NEAR _Accel_PID_XRoll_kp+02h
                                 5516   
                                 5517   ;;					Accel_PID_YPitch_kp = NewVar;
                                 5518   CLINEA 0000H 0001H 076EH 0006H 0022H
00:00BC 13-90 00-00'             5519   	st	er0,	NEAR _Accel_PID_YPitch_kp
00:00C0 13-92 00-00'             5520   	st	er2,	NEAR _Accel_PID_YPitch_kp+02h
                                 5521   
                                 5522   ;;					Accel_PID_XRoll_ki = NewVar/2;
                                 5523   CLINEA 0000H 0001H 076FH 0006H 0023H
00:00C4 6E-F0                    5524   	push	xr0
00:00C6 00 E0                    5525   	mov	er0,	#0 
00:00C8 00 02                    5526   	mov	r2,	#00h
00:00CA 40 03                    5527   	mov	r3,	#040h
00:00CC 6E-F0                    5528   	push	xr0
00:00CE 01-F0'00-00'             5529   	bl	__fdivu8sw
00:00D2 04 E1                    5530   	add	sp,	#4 
00:00D4 2E-F0                    5531   	pop	xr0
00:00D6 13-90 00-00'             5532   	st	er0,	NEAR _Accel_PID_XRoll_ki
00:00DA 13-92 00-00'             5533   	st	er2,	NEAR _Accel_PID_XRoll_ki+02h
                                 5534   
                                 5535   ;;					Accel_PID_YPitch_ki = NewVar/2;
                                 5536   CLINEA 0000H 0001H 0770H 0006H 0024H
00:00DE 12-90 00-00'             5537   	l	er0,	NEAR _NewVar
00:00E2 12-92 00-00'             5538   	l	er2,	NEAR _NewVar+02h
00:00E6 6E-F0                    5539   	push	xr0
00:00E8 00 E0                    5540   	mov	er0,	#0 
00:00EA 00 02                    5541   	mov	r2,	#00h
00:00EC 40 03                    5542   	mov	r3,	#040h
00:00EE 6E-F0                    5543   	push	xr0
00:00F0 01-F0'00-00'             5544   	bl	__fdivu8sw
00:00F4 04 E1                    5545   	add	sp,	#4 
00:00F6 2E-F0                    5546   	pop	xr0
00:00F8 13-90 00-00'             5547   	st	er0,	NEAR _Accel_PID_YPitch_ki
00:00FC 13-92 00-00'             5548   	st	er2,	NEAR _Accel_PID_YPitch_ki+02h
                                 5549   CBLOCKEND 232 7 1905
                                 5550   
                                 5551   ;;				}
                                 5552   CLINEA 0000H 0000H 0771H 0005H 0005H
00:0100                          5553   _$L395 :
                                 5554   CBLOCKEND 232 6 1906
                                 5555   CBLOCKEND 232 5 1907
                                 5556   
                                 5557   ;;		if(RecWorld[0] == 0x6B){			//if RECWORLD == "kp"
                                 5558   CLINEA 0000H 0001H 0775H 0003H 0032H
00:0100 10-90 00-00'             5559   	l	r0,	NEAR _RecWorld
00:0104 6B 70                    5560   	cmp	r0,	#06bh
00:0106 34 C8                    5561   	bne	_$L399
                                 5562   CBLOCK 232 8 1909
                                 5563   
                                 5564   ;;			if(RecWorld[1] == 0x70){
                                 5565   CLINEA 0000H 0001H 0776H 0004H 001BH
00:0108 10-90 00-00'             5566   	l	r0,	NEAR _RecWorld+01h
00:010C 70 70                    5567   	cmp	r0,	#070h
00:010E 30 C8                    5568   	bne	_$L399
                                 5569   CBLOCK 232 9 1910
                                 5570   
                                 5571   ;;				NewVar_Str[0] = RecWorld[2];
                                 5572   CLINEA 0000H 0001H 0777H 0005H 0020H
00:0110 10-90 00-00'             5573   	l	r0,	NEAR _RecWorld+02h
00:0114 11-90 00-00'             5574   	st	r0,	NEAR _NewVar_Str
                                 5575   
                                 5576   ;;				NewVar_Str[1] = RecWorld[3];
                                 5577   CLINEA 0000H 0001H 0778H 0005H 0020H
00:0118 10-90 00-00'             5578   	l	r0,	NEAR _RecWorld+03h
00:011C 11-90 00-00'             5579   	st	r0,	NEAR _NewVar_Str+01h
                                 5580   
                                 5581   ;;				NewVar_Str[2] = RecWorld[4];
                                 5582   CLINEA 0000H 0001H 0779H 0005H 0020H
00:0120 10-90 00-00'             5583   	l	r0,	NEAR _RecWorld+04h
00:0124 11-90 00-00'             5584   	st	r0,	NEAR _NewVar_Str+02h
                                 5585   
                                 5586   ;;				NewVar_Str[3] = RecWorld[5];
                                 5587   CLINEA 0000H 0001H 077AH 0005H 0020H
00:0128 10-90 00-00'             5588   	l	r0,	NEAR _RecWorld+05h
00:012C 11-90 00-00'             5589   	st	r0,	NEAR _NewVar_Str+03h
                                 5590   
                                 5591   ;;				NewVar_Str[4] = RecWorld[6];
                                 5592   CLINEA 0000H 0001H 077BH 0005H 0020H
00:0130 10-90 00-00'             5593   	l	r0,	NEAR _RecWorld+06h
00:0134 11-90 00-00'             5594   	st	r0,	NEAR _NewVar_Str+04h
                                 5595   
                                 5596   ;;				NewVar_Str[5] = RecWorld[7];
                                 5597   CLINEA 0000H 0001H 077CH 0005H 0020H
00:0138 10-90 00-00'             5598   	l	r0,	NEAR _RecWorld+07h
00:013C 11-90 00-00'             5599   	st	r0,	NEAR _NewVar_Str+05h
                                 5600   
                                 5601   ;;				sscanf(NewVar_Str, "%f", &NewVar);
                                 5602   CLINEA 0000H 0001H 077DH 0005H 0026H
00:0140 00'00                    5603   	mov	r0,	#BYTE1 OFFSET _NewVar
00:0142 00'01                    5604   	mov	r1,	#BYTE2 OFFSET _NewVar
00:0144 5E-F0                    5605   	push	er0
00:0146 00'00                    5606   	mov	r0,	#BYTE1 OFFSET $$S215
00:0148 00'01                    5607   	mov	r1,	#BYTE2 OFFSET $$S215
00:014A 5E-F0                    5608   	push	er0
00:014C 00'00                    5609   	mov	r0,	#BYTE1 OFFSET _NewVar_Str
00:014E 00'01                    5610   	mov	r1,	#BYTE2 OFFSET _NewVar_Str
00:0150 5E-F0                    5611   	push	er0
00:0152 01-F0'00-00'             5612   	bl	_sscanf_nn
00:0156 06 E1                    5613   	add	sp,	#6 
                                 5614   
                                 5615   ;;				Accel_PID_XRoll_kp = NewVar;
                                 5616   CLINEA 0000H 0001H 077EH 0005H 0020H
00:0158 12-90 00-00'             5617   	l	er0,	NEAR _NewVar
00:015C 12-92 00-00'             5618   	l	er2,	NEAR _NewVar+02h
00:0160 13-90 00-00'             5619   	st	er0,	NEAR _Accel_PID_XRoll_kp
00:0164 13-92 00-00'             5620   	st	er2,	NEAR _Accel_PID_XRoll_kp+02h
                                 5621   
                                 5622   ;;				Accel_PID_YPitch_kp = NewVar;
                                 5623   CLINEA 0000H 0001H 077FH 0005H 0021H
00:0168 13-90 00-00'             5624   	st	er0,	NEAR _Accel_PID_YPitch_kp
00:016C 13-92 00-00'             5625   	st	er2,	NEAR _Accel_PID_YPitch_kp+02h
                                 5626   CBLOCKEND 232 9 1922
                                 5627   
                                 5628   ;;			}
                                 5629   CLINEA 0000H 0000H 0782H 0004H 0004H
00:0170                          5630   _$L399 :
                                 5631   CBLOCKEND 232 8 1923
                                 5632   
                                 5633   ;;		if(RecWorld[0] == 0x6B){			//if RECWORLD == "ki"
                                 5634   CLINEA 0000H 0001H 0785H 0003H 0032H
00:0170 10-90 00-00'             5635   	l	r0,	NEAR _RecWorld
00:0174 6B 70                    5636   	cmp	r0,	#06bh
00:0176 34 C8                    5637   	bne	_$L403
                                 5638   CBLOCK 232 10 1925
                                 5639   
                                 5640   ;;			if(RecWorld[1] == 0x69){
                                 5641   CLINEA 0000H 0001H 0786H 0004H 001BH
00:0178 10-90 00-00'             5642   	l	r0,	NEAR _RecWorld+01h
00:017C 69 70                    5643   	cmp	r0,	#069h
00:017E 30 C8                    5644   	bne	_$L403
                                 5645   CBLOCK 232 11 1926
                                 5646   
                                 5647   ;;				NewVar_Str[0] = RecWorld[2];
                                 5648   CLINEA 0000H 0001H 0787H 0005H 0020H
00:0180 10-90 00-00'             5649   	l	r0,	NEAR _RecWorld+02h
00:0184 11-90 00-00'             5650   	st	r0,	NEAR _NewVar_Str
                                 5651   
                                 5652   ;;				NewVar_Str[1] = RecWorld[3];
                                 5653   CLINEA 0000H 0001H 0788H 0005H 0020H
00:0188 10-90 00-00'             5654   	l	r0,	NEAR _RecWorld+03h
00:018C 11-90 00-00'             5655   	st	r0,	NEAR _NewVar_Str+01h
                                 5656   
                                 5657   ;;				NewVar_Str[2] = RecWorld[4];
                                 5658   CLINEA 0000H 0001H 0789H 0005H 0020H
00:0190 10-90 00-00'             5659   	l	r0,	NEAR _RecWorld+04h
00:0194 11-90 00-00'             5660   	st	r0,	NEAR _NewVar_Str+02h
                                 5661   
                                 5662   ;;				NewVar_Str[3] = RecWorld[5];
                                 5663   CLINEA 0000H 0001H 078AH 0005H 0020H
00:0198 10-90 00-00'             5664   	l	r0,	NEAR _RecWorld+05h
00:019C 11-90 00-00'             5665   	st	r0,	NEAR _NewVar_Str+03h
                                 5666   
                                 5667   ;;				NewVar_Str[4] = RecWorld[6];
                                 5668   CLINEA 0000H 0001H 078BH 0005H 0020H
00:01A0 10-90 00-00'             5669   	l	r0,	NEAR _RecWorld+06h
00:01A4 11-90 00-00'             5670   	st	r0,	NEAR _NewVar_Str+04h
                                 5671   
                                 5672   ;;				NewVar_Str[5] = RecWorld[7];
                                 5673   CLINEA 0000H 0001H 078CH 0005H 0020H
00:01A8 10-90 00-00'             5674   	l	r0,	NEAR _RecWorld+07h
00:01AC 11-90 00-00'             5675   	st	r0,	NEAR _NewVar_Str+05h
                                 5676   
                                 5677   ;;				sscanf(NewVar_Str, "%f", &NewVar);
                                 5678   CLINEA 0000H 0001H 078DH 0005H 0026H
00:01B0 00'00                    5679   	mov	r0,	#BYTE1 OFFSET _NewVar
00:01B2 00'01                    5680   	mov	r1,	#BYTE2 OFFSET _NewVar
00:01B4 5E-F0                    5681   	push	er0
00:01B6 00'00                    5682   	mov	r0,	#BYTE1 OFFSET $$S215
00:01B8 00'01                    5683   	mov	r1,	#BYTE2 OFFSET $$S215
00:01BA 5E-F0                    5684   	push	er0
00:01BC 00'00                    5685   	mov	r0,	#BYTE1 OFFSET _NewVar_Str
00:01BE 00'01                    5686   	mov	r1,	#BYTE2 OFFSET _NewVar_Str
00:01C0 5E-F0                    5687   	push	er0
00:01C2 01-F0'00-00'             5688   	bl	_sscanf_nn
00:01C6 06 E1                    5689   	add	sp,	#6 
                                 5690   
                                 5691   ;;				Accel_PID_XRoll_ki = NewVar;
                                 5692   CLINEA 0000H 0001H 078EH 0005H 0020H
00:01C8 12-90 00-00'             5693   	l	er0,	NEAR _NewVar
00:01CC 12-92 00-00'             5694   	l	er2,	NEAR _NewVar+02h
00:01D0 13-90 00-00'             5695   	st	er0,	NEAR _Accel_PID_XRoll_ki
00:01D4 13-92 00-00'             5696   	st	er2,	NEAR _Accel_PID_XRoll_ki+02h
                                 5697   
                                 5698   ;;				Accel_PID_YPitch_ki = NewVar;
                                 5699   CLINEA 0000H 0001H 078FH 0005H 0021H
00:01D8 13-90 00-00'             5700   	st	er0,	NEAR _Accel_PID_YPitch_ki
00:01DC 13-92 00-00'             5701   	st	er2,	NEAR _Accel_PID_YPitch_ki+02h
                                 5702   CBLOCKEND 232 11 1936
                                 5703   
                                 5704   ;;			}
                                 5705   CLINEA 0000H 0000H 0790H 0004H 0004H
00:01E0                          5706   _$L403 :
                                 5707   CBLOCKEND 232 10 1937
                                 5708   
                                 5709   ;;		if(RecWorld[0] == 0x6B){			//if RECWORLD == "kd"
                                 5710   CLINEA 0000H 0001H 0793H 0003H 0032H
00:01E0 10-90 00-00'             5711   	l	r0,	NEAR _RecWorld
00:01E4 6B 70                    5712   	cmp	r0,	#06bh
00:01E6 34 C8                    5713   	bne	_$L407
                                 5714   CBLOCK 232 12 1939
                                 5715   
                                 5716   ;;			if(RecWorld[1] == 0x64){
                                 5717   CLINEA 0000H 0001H 0794H 0004H 001BH
00:01E8 10-90 00-00'             5718   	l	r0,	NEAR _RecWorld+01h
00:01EC 64 70                    5719   	cmp	r0,	#064h
00:01EE 30 C8                    5720   	bne	_$L407
                                 5721   CBLOCK 232 13 1940
                                 5722   
                                 5723   ;;				NewVar_Str[0] = RecWorld[2];
                                 5724   CLINEA 0000H 0001H 0795H 0005H 0020H
00:01F0 10-90 00-00'             5725   	l	r0,	NEAR _RecWorld+02h
00:01F4 11-90 00-00'             5726   	st	r0,	NEAR _NewVar_Str
                                 5727   
                                 5728   ;;				NewVar_Str[1] = RecWorld[3];
                                 5729   CLINEA 0000H 0001H 0796H 0005H 0020H
00:01F8 10-90 00-00'             5730   	l	r0,	NEAR _RecWorld+03h
00:01FC 11-90 00-00'             5731   	st	r0,	NEAR _NewVar_Str+01h
                                 5732   
                                 5733   ;;				NewVar_Str[2] = RecWorld[4];
                                 5734   CLINEA 0000H 0001H 0797H 0005H 0020H
00:0200 10-90 00-00'             5735   	l	r0,	NEAR _RecWorld+04h
00:0204 11-90 00-00'             5736   	st	r0,	NEAR _NewVar_Str+02h
                                 5737   
                                 5738   ;;				NewVar_Str[3] = RecWorld[5];
                                 5739   CLINEA 0000H 0001H 0798H 0005H 0020H
00:0208 10-90 00-00'             5740   	l	r0,	NEAR _RecWorld+05h
00:020C 11-90 00-00'             5741   	st	r0,	NEAR _NewVar_Str+03h
                                 5742   
                                 5743   ;;				NewVar_Str[4] = RecWorld[6];
                                 5744   CLINEA 0000H 0001H 0799H 0005H 0020H
00:0210 10-90 00-00'             5745   	l	r0,	NEAR _RecWorld+06h
00:0214 11-90 00-00'             5746   	st	r0,	NEAR _NewVar_Str+04h
                                 5747   
                                 5748   ;;				NewVar_Str[5] = RecWorld[7];
                                 5749   CLINEA 0000H 0001H 079AH 0005H 0020H
00:0218 10-90 00-00'             5750   	l	r0,	NEAR _RecWorld+07h
00:021C 11-90 00-00'             5751   	st	r0,	NEAR _NewVar_Str+05h
                                 5752   
                                 5753   ;;				sscanf(NewVar_Str, "%f", &NewVar);
                                 5754   CLINEA 0000H 0001H 079BH 0005H 0026H
00:0220 00'00                    5755   	mov	r0,	#BYTE1 OFFSET _NewVar
00:0222 00'01                    5756   	mov	r1,	#BYTE2 OFFSET _NewVar
00:0224 5E-F0                    5757   	push	er0
00:0226 00'00                    5758   	mov	r0,	#BYTE1 OFFSET $$S215
00:0228 00'01                    5759   	mov	r1,	#BYTE2 OFFSET $$S215
00:022A 5E-F0                    5760   	push	er0
00:022C 00'00                    5761   	mov	r0,	#BYTE1 OFFSET _NewVar_Str
00:022E 00'01                    5762   	mov	r1,	#BYTE2 OFFSET _NewVar_Str
00:0230 5E-F0                    5763   	push	er0
00:0232 01-F0'00-00'             5764   	bl	_sscanf_nn
00:0236 06 E1                    5765   	add	sp,	#6 
                                 5766   
                                 5767   ;;				Accel_PID_XRoll_kd = NewVar;
                                 5768   CLINEA 0000H 0001H 079CH 0005H 0020H
00:0238 12-90 00-00'             5769   	l	er0,	NEAR _NewVar
00:023C 12-92 00-00'             5770   	l	er2,	NEAR _NewVar+02h
00:0240 13-90 00-00'             5771   	st	er0,	NEAR _Accel_PID_XRoll_kd
00:0244 13-92 00-00'             5772   	st	er2,	NEAR _Accel_PID_XRoll_kd+02h
                                 5773   
                                 5774   ;;				Accel_PID_YPitch_kd = NewVar;
                                 5775   CLINEA 0000H 0001H 079DH 0005H 0021H
00:0248 13-90 00-00'             5776   	st	er0,	NEAR _Accel_PID_YPitch_kd
00:024C 13-92 00-00'             5777   	st	er2,	NEAR _Accel_PID_YPitch_kd+02h
                                 5778   CBLOCKEND 232 13 1950
                                 5779   
                                 5780   ;;			}
                                 5781   CLINEA 0000H 0000H 079EH 0004H 0004H
00:0250                          5782   _$L407 :
                                 5783   CBLOCKEND 232 12 1951
                                 5784   
                                 5785   ;;		if(RecWorld[0] == 0x61){			//if RECWORLD == "a1"
                                 5786   CLINEA 0000H 0001H 07A1H 0003H 0032H
00:0250 10-90 00-00'             5787   	l	r0,	NEAR _RecWorld
00:0254 61 70                    5788   	cmp	r0,	#061h
00:0256 02 C9                    5789   	beq	_$M28
00:0258 00-F0'00-00'             5790   	b	_$L411
00:025C                          5791   _$M28 :
                                 5792   CBLOCK 232 14 1953
                                 5793   
                                 5794   ;;			if(RecWorld[1] == 0x31){
                                 5795   CLINEA 0000H 0001H 07A2H 0004H 001BH
00:025C 10-90 00-00'             5796   	l	r0,	NEAR _RecWorld+01h
00:0260 31 70                    5797   	cmp	r0,	#031h
00:0262 3D C8                    5798   	bne	_$L411
                                 5799   CBLOCK 232 15 1954
                                 5800   
                                 5801   ;;				NewVar_Str[0] = RecWorld[2];
                                 5802   CLINEA 0000H 0001H 07A3H 0005H 0020H
00:0264 10-90 00-00'             5803   	l	r0,	NEAR _RecWorld+02h
00:0268 11-90 00-00'             5804   	st	r0,	NEAR _NewVar_Str
                                 5805   
                                 5806   ;;				NewVar_Str[1] = RecWorld[3];
                                 5807   CLINEA 0000H 0001H 07A4H 0005H 0020H
00:026C 10-90 00-00'             5808   	l	r0,	NEAR _RecWorld+03h
00:0270 11-90 00-00'             5809   	st	r0,	NEAR _NewVar_Str+01h
                                 5810   
                                 5811   ;;				NewVar_Str[2] = RecWorld[4];
                                 5812   CLINEA 0000H 0001H 07A5H 0005H 0020H
00:0274 10-90 00-00'             5813   	l	r0,	NEAR _RecWorld+04h
00:0278 11-90 00-00'             5814   	st	r0,	NEAR _NewVar_Str+02h
                                 5815   
                                 5816   ;;				NewVar_Str[3] = RecWorld[5];
                                 5817   CLINEA 0000H 0001H 07A6H 0005H 0020H
00:027C 10-90 00-00'             5818   	l	r0,	NEAR _RecWorld+05h
00:0280 11-90 00-00'             5819   	st	r0,	NEAR _NewVar_Str+03h
                                 5820   
                                 5821   ;;				NewVar_Str[4] = RecWorld[6];
                                 5822   CLINEA 0000H 0001H 07A7H 0005H 0020H
00:0284 10-90 00-00'             5823   	l	r0,	NEAR _RecWorld+06h
00:0288 11-90 00-00'             5824   	st	r0,	NEAR _NewVar_Str+04h
                                 5825   
                                 5826   ;;				NewVar_Str[5] = RecWorld[7];
                                 5827   CLINEA 0000H 0001H 07A8H 0005H 0020H
00:028C 10-90 00-00'             5828   	l	r0,	NEAR _RecWorld+07h
00:0290 11-90 00-00'             5829   	st	r0,	NEAR _NewVar_Str+05h
                                 5830   
                                 5831   ;;				sscanf(NewVar_Str, "%f", &NewVar);
                                 5832   CLINEA 0000H 0001H 07A9H 0005H 0026H
00:0294 00'00                    5833   	mov	r0,	#BYTE1 OFFSET _NewVar
00:0296 00'01                    5834   	mov	r1,	#BYTE2 OFFSET _NewVar
00:0298 5E-F0                    5835   	push	er0
00:029A 00'00                    5836   	mov	r0,	#BYTE1 OFFSET $$S215
00:029C 00'01                    5837   	mov	r1,	#BYTE2 OFFSET $$S215
00:029E 5E-F0                    5838   	push	er0
00:02A0 00'00                    5839   	mov	r0,	#BYTE1 OFFSET _NewVar_Str
00:02A2 00'01                    5840   	mov	r1,	#BYTE2 OFFSET _NewVar_Str
00:02A4 5E-F0                    5841   	push	er0
00:02A6 01-F0'00-00'             5842   	bl	_sscanf_nn
00:02AA 06 E1                    5843   	add	sp,	#6 
                                 5844   
                                 5845   ;;				CF_HPF = NewVar;
                                 5846   CLINEA 0000H 0001H 07AAH 0005H 0014H
00:02AC 12-90 00-00'             5847   	l	er0,	NEAR _NewVar
00:02B0 12-92 00-00'             5848   	l	er2,	NEAR _NewVar+02h
00:02B4 13-90 00-00'             5849   	st	er0,	NEAR _CF_HPF
00:02B8 13-92 00-00'             5850   	st	er2,	NEAR _CF_HPF+02h
                                 5851   
                                 5852   ;;				CF_LPF = 1-NewVar;
                                 5853   CLINEA 0000H 0001H 07ABH 0005H 0016H
00:02BC 00 E0                    5854   	mov	er0,	#0 
00:02BE 80 02                    5855   	mov	r2,	#080h
00:02C0 3F 03                    5856   	mov	r3,	#03fh
00:02C2 6E-F0                    5857   	push	xr0
00:02C4 12-90 00-00'             5858   	l	er0,	NEAR _NewVar
00:02C8 12-92 00-00'             5859   	l	er2,	NEAR _NewVar+02h
00:02CC 6E-F0                    5860   	push	xr0
00:02CE 01-F0'00-00'             5861   	bl	__fsubu8sw
00:02D2 04 E1                    5862   	add	sp,	#4 
00:02D4 2E-F0                    5863   	pop	xr0
00:02D6 13-90 00-00'             5864   	st	er0,	NEAR _CF_LPF
00:02DA 13-92 00-00'             5865   	st	er2,	NEAR _CF_LPF+02h
                                 5866   CBLOCKEND 232 15 1964
                                 5867   
                                 5868   ;;			}
                                 5869   CLINEA 0000H 0000H 07ACH 0004H 0004H
00:02DE                          5870   _$L411 :
                                 5871   CBLOCKEND 232 14 1965
                                 5872   
                                 5873   ;;		if(RecWorld[0] == 0x61){			//if RECWORLD == "a2"
                                 5874   CLINEA 0000H 0001H 07AFH 0003H 0032H
00:02DE 10-90 00-00'             5875   	l	r0,	NEAR _RecWorld
00:02E2 61 70                    5876   	cmp	r0,	#061h
00:02E4 02 C9                    5877   	beq	_$M29
00:02E6 00-F0'00-00'             5878   	b	_$L415
00:02EA                          5879   _$M29 :
                                 5880   CBLOCK 232 16 1967
                                 5881   
                                 5882   ;;			if(RecWorld[1] == 0x32){
                                 5883   CLINEA 0000H 0001H 07B0H 0004H 001BH
00:02EA 10-90 00-00'             5884   	l	r0,	NEAR _RecWorld+01h
00:02EE 32 70                    5885   	cmp	r0,	#032h
00:02F0 3D C8                    5886   	bne	_$L415
                                 5887   CBLOCK 232 17 1968
                                 5888   
                                 5889   ;;				NewVar_Str[0] = RecWorld[2];
                                 5890   CLINEA 0000H 0001H 07B1H 0005H 0020H
00:02F2 10-90 00-00'             5891   	l	r0,	NEAR _RecWorld+02h
00:02F6 11-90 00-00'             5892   	st	r0,	NEAR _NewVar_Str
                                 5893   
                                 5894   ;;				NewVar_Str[1] = RecWorld[3];
                                 5895   CLINEA 0000H 0001H 07B2H 0005H 0020H
00:02FA 10-90 00-00'             5896   	l	r0,	NEAR _RecWorld+03h
00:02FE 11-90 00-00'             5897   	st	r0,	NEAR _NewVar_Str+01h
                                 5898   
                                 5899   ;;				NewVar_Str[2] = RecWorld[4];
                                 5900   CLINEA 0000H 0001H 07B3H 0005H 0020H
00:0302 10-90 00-00'             5901   	l	r0,	NEAR _RecWorld+04h
00:0306 11-90 00-00'             5902   	st	r0,	NEAR _NewVar_Str+02h
                                 5903   
                                 5904   ;;				NewVar_Str[3] = RecWorld[5];
                                 5905   CLINEA 0000H 0001H 07B4H 0005H 0020H
00:030A 10-90 00-00'             5906   	l	r0,	NEAR _RecWorld+05h
00:030E 11-90 00-00'             5907   	st	r0,	NEAR _NewVar_Str+03h
                                 5908   
                                 5909   ;;				NewVar_Str[4] = RecWorld[6];
                                 5910   CLINEA 0000H 0001H 07B5H 0005H 0020H
00:0312 10-90 00-00'             5911   	l	r0,	NEAR _RecWorld+06h
00:0316 11-90 00-00'             5912   	st	r0,	NEAR _NewVar_Str+04h
                                 5913   
                                 5914   ;;				NewVar_Str[5] = RecWorld[7];
                                 5915   CLINEA 0000H 0001H 07B6H 0005H 0020H
00:031A 10-90 00-00'             5916   	l	r0,	NEAR _RecWorld+07h
00:031E 11-90 00-00'             5917   	st	r0,	NEAR _NewVar_Str+05h
                                 5918   
                                 5919   ;;				sscanf(NewVar_Str, "%f", &NewVar);
                                 5920   CLINEA 0000H 0001H 07B7H 0005H 0026H
00:0322 00'00                    5921   	mov	r0,	#BYTE1 OFFSET _NewVar
00:0324 00'01                    5922   	mov	r1,	#BYTE2 OFFSET _NewVar
00:0326 5E-F0                    5923   	push	er0
00:0328 00'00                    5924   	mov	r0,	#BYTE1 OFFSET $$S215
00:032A 00'01                    5925   	mov	r1,	#BYTE2 OFFSET $$S215
00:032C 5E-F0                    5926   	push	er0
00:032E 00'00                    5927   	mov	r0,	#BYTE1 OFFSET _NewVar_Str
00:0330 00'01                    5928   	mov	r1,	#BYTE2 OFFSET _NewVar_Str
00:0332 5E-F0                    5929   	push	er0
00:0334 01-F0'00-00'             5930   	bl	_sscanf_nn
00:0338 06 E1                    5931   	add	sp,	#6 
                                 5932   
                                 5933   ;;				CF_HPF = 1-NewVar;
                                 5934   CLINEA 0000H 0001H 07B8H 0005H 0016H
00:033A 00 E0                    5935   	mov	er0,	#0 
00:033C 80 02                    5936   	mov	r2,	#080h
00:033E 3F 03                    5937   	mov	r3,	#03fh
00:0340 6E-F0                    5938   	push	xr0
00:0342 12-90 00-00'             5939   	l	er0,	NEAR _NewVar
00:0346 12-92 00-00'             5940   	l	er2,	NEAR _NewVar+02h
00:034A 6E-F0                    5941   	push	xr0
00:034C 01-F0'00-00'             5942   	bl	__fsubu8sw
00:0350 04 E1                    5943   	add	sp,	#4 
00:0352 2E-F0                    5944   	pop	xr0
00:0354 13-90 00-00'             5945   	st	er0,	NEAR _CF_HPF
00:0358 13-92 00-00'             5946   	st	er2,	NEAR _CF_HPF+02h
                                 5947   
                                 5948   ;;				CF_LPF = NewVar;
                                 5949   CLINEA 0000H 0001H 07B9H 0005H 0014H
00:035C 12-90 00-00'             5950   	l	er0,	NEAR _NewVar
00:0360 12-92 00-00'             5951   	l	er2,	NEAR _NewVar+02h
00:0364 13-90 00-00'             5952   	st	er0,	NEAR _CF_LPF
00:0368 13-92 00-00'             5953   	st	er2,	NEAR _CF_LPF+02h
                                 5954   CBLOCKEND 232 17 1978
                                 5955   
                                 5956   ;;			}
                                 5957   CLINEA 0000H 0000H 07BAH 0004H 0004H
00:036C                          5958   _$L415 :
                                 5959   CBLOCKEND 232 16 1979
                                 5960   
                                 5961   ;;		for(k = 0; k<150; k++)
                                 5962   CLINEA 0000H 0001H 07BDH 0007H 000CH
00:036C 00 E0                    5963   	mov	er0,	#0 
                                 5964   
                                 5965   ;;		for(k = 0; k<150; k++)
                                 5966   CLINEA 0000H 0000H 07BDH 0015H 0017H
00:036E                          5967   _$L419 :
                                 5968   CBLOCK 232 18 1982
                                 5969   
                                 5970   ;;			SensorReturn[k] = 0x20;
                                 5971   CLINEA 0000H 0001H 07BFH 0004H 001AH
00:036E 20 02                    5972   	mov	r2,	#020h
00:0370 09-92 00-00'             5973   	st	r2,	NEAR _SensorReturn[er0]
                                 5974   CBLOCKEND 232 18 1984
                                 5975   
                                 5976   ;;		for(k = 0; k<150; k++)
                                 5977   CLINEA 0000H 0000H 07BDH 0015H 0017H
00:0374 81 E0                    5978   	add	er0,	#1 
                                 5979   
                                 5980   ;;		for(k = 0; k<150; k++)
                                 5981   CLINEA 0000H 0000H 07BDH 000EH 0013H
00:0376 96 70                    5982   	cmp	r0,	#096h
00:0378 00 51                    5983   	cmpc	r1,	#00h
00:037A F9 C5                    5984   	blts	_$L419
                                 5985   
                                 5986   ;;		sprintf(SensorReturn, "New Settings: kp=%f,ki=%f,kd=%f,a1=%f,a2=%f", Accel_PID_XRoll_kp, Accel_PID_XRoll_ki, Accel_PID_XRoll_kd, CF_HPF, CF_LPF);
                                 5987   CLINEA 0000H 0001H 07C2H 0003H 0093H
00:037C 12-90 00-00'             5988   	l	er0,	NEAR _CF_LPF
00:0380 12-92 00-00'             5989   	l	er2,	NEAR _CF_LPF+02h
00:0384 6E-F0                    5990   	push	xr0
00:0386 FC E1                    5991   	add	sp,	#-4
00:0388 01-F0'00-00'             5992   	bl	__ftodu8sw
00:038C 12-90 00-00'             5993   	l	er0,	NEAR _CF_HPF
00:0390 12-92 00-00'             5994   	l	er2,	NEAR _CF_HPF+02h
00:0394 6E-F0                    5995   	push	xr0
00:0396 FC E1                    5996   	add	sp,	#-4
00:0398 01-F0'00-00'             5997   	bl	__ftodu8sw
00:039C 12-90 00-00'             5998   	l	er0,	NEAR _Accel_PID_XRoll_kd
00:03A0 12-92 00-00'             5999   	l	er2,	NEAR _Accel_PID_XRoll_kd+02h
00:03A4 6E-F0                    6000   	push	xr0
00:03A6 FC E1                    6001   	add	sp,	#-4
00:03A8 01-F0'00-00'             6002   	bl	__ftodu8sw
00:03AC 12-90 00-00'             6003   	l	er0,	NEAR _Accel_PID_XRoll_ki
00:03B0 12-92 00-00'             6004   	l	er2,	NEAR _Accel_PID_XRoll_ki+02h
00:03B4 6E-F0                    6005   	push	xr0
00:03B6 FC E1                    6006   	add	sp,	#-4
00:03B8 01-F0'00-00'             6007   	bl	__ftodu8sw
00:03BC 12-90 00-00'             6008   	l	er0,	NEAR _Accel_PID_XRoll_kp
00:03C0 12-92 00-00'             6009   	l	er2,	NEAR _Accel_PID_XRoll_kp+02h
00:03C4 6E-F0                    6010   	push	xr0
00:03C6 FC E1                    6011   	add	sp,	#-4
00:03C8 01-F0'00-00'             6012   	bl	__ftodu8sw
00:03CC 00'00                    6013   	mov	r0,	#BYTE1 OFFSET $$S423
00:03CE 00'01                    6014   	mov	r1,	#BYTE2 OFFSET $$S423
00:03D0 5E-F0                    6015   	push	er0
00:03D2 00'00                    6016   	mov	r0,	#BYTE1 OFFSET _SensorReturn
00:03D4 00'01                    6017   	mov	r1,	#BYTE2 OFFSET _SensorReturn
00:03D6 5E-F0                    6018   	push	er0
00:03D8 01-F0'00-00'             6019   	bl	_sprintf_nn
00:03DC 2C E1                    6020   	add	sp,	#44
                                 6021   
                                 6022   ;;		SensorReturn[148] = 0x0D;	//CR
                                 6023   CLINEA 0000H 0001H 07C4H 0003H 0020H
00:03DE 0D 00                    6024   	mov	r0,	#0dh
00:03E0 11-90 00-00'             6025   	st	r0,	NEAR _SensorReturn+094h
                                 6026   
                                 6027   ;;		SensorReturn[149] = 0x0A;	//LF
                                 6028   CLINEA 0000H 0001H 07C5H 0003H 0020H
00:03E4 0A 00                    6029   	mov	r0,	#0ah
00:03E6 11-90 00-00'             6030   	st	r0,	NEAR _SensorReturn+095h
                                 6031   
                                 6032   ;;		_flgUartFin = 0;
                                 6033   CLINEA 0000H 0001H 07C8H 0003H 0012H
00:03EA 00 00                    6034   	mov	r0,	#00h
00:03EC 11-90 00-00'             6035   	st	r0,	NEAR __flgUartFin
                                 6036   
                                 6037   ;;		uart_stop();
                                 6038   CLINEA 0000H 0001H 07C9H 0003H 000EH
00:03F0 01-F0'00-00'             6039   	bl	_uart_stop
                                 6040   
                                 6041   ;;		uart_startSend(SensorReturn, 150, _funcUartFin);
                                 6042   CLINEA 0000H 0001H 07CAH 0003H 0032H
00:03F4 00'00                    6043   	mov	r0,	#BYTE1 OFFSET __funcUartFin
00:03F6 00'01                    6044   	mov	r1,	#BYTE2 OFFSET __funcUartFin
00:03F8 5E-F0                    6045   	push	er0
00:03FA 96 02                    6046   	mov	r2,	#096h
00:03FC 00 03                    6047   	mov	r3,	#00h
00:03FE 00'00                    6048   	mov	r0,	#BYTE1 OFFSET _SensorReturn
00:0400 00'01                    6049   	mov	r1,	#BYTE2 OFFSET _SensorReturn
00:0402 01-F0'00-00'             6050   	bl	_uart_startSend
00:0406 02 E1                    6051   	add	sp,	#2 
                                 6052   
                                 6053   ;;		while(_flgUartFin != 1){
                                 6054   CLINEA 0000H 0000H 07CBH 0001H 0001H
00:0408 02 CE                    6055   	bal	_$L429
                                 6056   
                                 6057   ;;		while(_flgUartFin != 1){
                                 6058   CLINEA 0000H 0000H 07CBH 0003H 001AH
00:040A                          6059   _$L426 :
                                 6060   CBLOCK 232 19 1995
                                 6061   
                                 6062   ;;			main_clrWDT();
                                 6063   CLINEA 0000H 0001H 07CCH 0004H 0011H
00:040A 01-F0'00-00'             6064   	bl	_main_clrWDT
                                 6065   CBLOCKEND 232 19 1997
                                 6066   
                                 6067   ;;		while(_flgUartFin != 1){
                                 6068   CLINEA 0000H 0000H 07CBH 0001H 0001H
00:040E                          6069   _$L429 :
                                 6070   
                                 6071   ;;		while(_flgUartFin != 1){
                                 6072   CLINEA 0000H 0000H 07CBH 000EH 0013H
00:040E 10-90 00-00'             6073   	l	r0,	NEAR __flgUartFin
00:0412 01 70                    6074   	cmp	r0,	#01h
00:0414 FA C8                    6075   	bne	_$L426
                                 6076   
                                 6077   ;;		ETM8 = 1;	//Turn TIMER8/9 ISR Back ON
                                 6078   CLINEA 0000H 0001H 07CFH 0003H 0027H
00:0416 A0-A0 13-F0              6079   	sb	0f013h.2
                                 6080   
                                 6081   ;;		ETM9 = 1;	//Turn TIMER8/9 ISR Back ON		
                                 6082   CLINEA 0000H 0001H 07D0H 0003H 0029H
00:041A B0-A0 13-F0              6083   	sb	0f013h.3
                                 6084   CBLOCKEND 232 2 2001
                                 6085   
                                 6086   ;;}
                                 6087   CLINEA 0000H 0001H 07D1H 0001H 0001H
00:041E 8E-F2                    6088   	pop	pc
                                 6089   CBLOCKEND 232 1 2001
                                 6090   CFUNCTIONEND 232
                                 6091   
                                 6092   
  --------------------------     6093   	rseg $$SoftStart$main
                                 6094   CFUNCTION 233
                                 6095   
00:0000                          6096   _SoftStart	:
                                 6097   CBLOCK 233 1 2005
                                 6098   
                                 6099   ;;{
                                 6100   CLINEA 0000H 0001H 07D5H 0001H 0001H
00:0000 CE-F8                    6101   	push	lr
                                 6102   CBLOCK 233 2 2005
                                 6103   CRET 0000H
                                 6104   
                                 6105   ;;		PWED += PWMtoRPMOffset_Mot2;	
                                 6106   CLINEA 0000H 0001H 07D9H 0003H 001FH
00:0002 12-90 32-F9              6107   	l	er0,	0f932h
00:0006 12-92 00-00'             6108   	l	er2,	NEAR _PWMtoRPMOffset_Mot2
00:000A 26-F0                    6109   	add	er0,	er2
00:000C 13-90 32-F9              6110   	st	er0,	0f932h
                                 6111   
                                 6112   ;;		PWDD += PWMtoRPMOffset_Mot3;	
                                 6113   CLINEA 0000H 0001H 07DAH 0003H 001FH
00:0010 12-90 22-F9              6114   	l	er0,	0f922h
00:0014 12-92 00-00'             6115   	l	er2,	NEAR _PWMtoRPMOffset_Mot3
00:0018 26-F0                    6116   	add	er0,	er2
00:001A 13-90 22-F9              6117   	st	er0,	0f922h
                                 6118   
                                 6119   ;;		PWCD += PWMtoRPMOffset_Mot4;
                                 6120   CLINEA 0000H 0001H 07DBH 0003H 001EH
00:001E 12-90 12-F9              6121   	l	er0,	0f912h
00:0022 12-92 00-00'             6122   	l	er2,	NEAR _PWMtoRPMOffset_Mot4
00:0026 26-F0                    6123   	add	er0,	er2
00:0028 13-90 12-F9              6124   	st	er0,	0f912h
                                 6125   
                                 6126   ;;		while(PWF0D < PWMIdleDutyRun){
                                 6127   CLINEA 0000H 0001H 07DCH 0003H 0020H
00:002C 27 CE                    6128   	bal	_$L431
00:002E                          6129   _$L433 :
                                 6130   CBLOCK 233 3 2012
                                 6131   
                                 6132   ;;			NOPms(50);
                                 6133   CLINEA 0000H 0001H 07DDH 0004H 000DH
00:002E 32 E0                    6134   	mov	er0,	#50
00:0030 01-F0'00-00'             6135   	bl	_NOPms
                                 6136   
                                 6137   ;;			PFRUN = 0;	//Turn OFF PWM
                                 6138   CLINEA 0000H 0001H 07DEH 0004H 001CH
00:0034 82-A0 73-F9              6139   	rb	0f973h.0
                                 6140   
                                 6141   ;;			PERUN = 0;
                                 6142   CLINEA 0000H 0001H 07DFH 0004H 000DH
00:0038 82-A0 37-F9              6143   	rb	0f937h.0
                                 6144   
                                 6145   ;;			PDRUN = 0;
                                 6146   CLINEA 0000H 0001H 07E0H 0004H 000DH
00:003C 82-A0 27-F9              6147   	rb	0f927h.0
                                 6148   
                                 6149   ;;			PCRUN = 0;
                                 6150   CLINEA 0000H 0001H 07E1H 0004H 000DH
00:0040 82-A0 17-F9              6151   	rb	0f917h.0
                                 6152   
                                 6153   ;;			PWF0D += 1; 		//Can't be running to change (Only this variable)
                                 6154   CLINEA 0000H 0001H 07E2H 0004H 0042H
00:0044 12-90 62-F9              6155   	l	er0,	0f962h
00:0048 81 E0                    6156   	add	er0,	#1 
00:004A 13-90 62-F9              6157   	st	er0,	0f962h
                                 6158   
                                 6159   ;;			PWED += 1;	
                                 6160   CLINEA 0000H 0001H 07E3H 0004H 000EH
00:004E 12-90 32-F9              6161   	l	er0,	0f932h
00:0052 81 E0                    6162   	add	er0,	#1 
00:0054 13-90 32-F9              6163   	st	er0,	0f932h
                                 6164   
                                 6165   ;;			PWDD += 1;	
                                 6166   CLINEA 0000H 0001H 07E4H 0004H 000EH
00:0058 12-90 22-F9              6167   	l	er0,	0f922h
00:005C 81 E0                    6168   	add	er0,	#1 
00:005E 13-90 22-F9              6169   	st	er0,	0f922h
                                 6170   
                                 6171   ;;			PWCD += 1;
                                 6172   CLINEA 0000H 0001H 07E5H 0004H 000DH
00:0062 12-90 12-F9              6173   	l	er0,	0f912h
00:0066 81 E0                    6174   	add	er0,	#1 
00:0068 13-90 12-F9              6175   	st	er0,	0f912h
                                 6176   
                                 6177   ;;			PFRUN = 1;	//Turn ON PWM
                                 6178   CLINEA 0000H 0001H 07E7H 0004H 001BH
00:006C 80-A0 73-F9              6179   	sb	0f973h.0
                                 6180   
                                 6181   ;;			PERUN = 1;
                                 6182   CLINEA 0000H 0001H 07E8H 0004H 000DH
00:0070 80-A0 37-F9              6183   	sb	0f937h.0
                                 6184   
                                 6185   ;;			PDRUN = 1;
                                 6186   CLINEA 0000H 0001H 07E9H 0004H 000DH
00:0074 80-A0 27-F9              6187   	sb	0f927h.0
                                 6188   
                                 6189   ;;			PCRUN = 1;
                                 6190   CLINEA 0000H 0001H 07EAH 0004H 000DH
00:0078 80-A0 17-F9              6191   	sb	0f917h.0
                                 6192   CBLOCKEND 233 3 2027
                                 6193   
                                 6194   ;;		}
                                 6195   CLINEA 0000H 0000H 07EBH 0003H 0003H
00:007C                          6196   _$L431 :
                                 6197   
                                 6198   ;;		while(PWF0D < PWMIdleDutyRun){
                                 6199   CLINEA 0000H 0000H 07DCH 000EH 0013H
00:007C 12-90 62-F9              6200   	l	er0,	0f962h
00:0080 12-92 00-00'             6201   	l	er2,	NEAR _PWMIdleDutyRun
00:0084 27-F0                    6202   	cmp	er0,	er2
00:0086 D3 C1                    6203   	blt	_$L433
                                 6204   CBLOCKEND 233 2 2028
                                 6205   
                                 6206   ;;}
                                 6207   CLINEA 0000H 0001H 07ECH 0001H 0001H
00:0088 8E-F2                    6208   	pop	pc
                                 6209   CBLOCKEND 233 1 2028
                                 6210   CFUNCTIONEND 233
                                 6211   
                                 6212   
  --------------------------     6213   	rseg $$RampUpMotorTest$main
                                 6214   CFUNCTION 234
                                 6215   
00:0000                          6216   _RampUpMotorTest	:
                                 6217   CBLOCK 234 1 2033
                                 6218   
                                 6219   ;;void RampUpMotorTest(void){
                                 6220   CLINEA 0000H 0001H 07F1H 0001H 001BH
                                 6221   CBLOCK 234 2 2033
                                 6222   
                                 6223   ;;	if(PWMCounter < PWMSensorResPerInc){
                                 6224   CLINEA 0000H 0001H 07F2H 0002H 0025H
00:0000 10-90 00-00'             6225   	l	r0,	NEAR _PWMCounter
00:0004 10-91 00-00'             6226   	l	r1,	NEAR _PWMSensorResPerInc
00:0008 17-80                    6227   	cmp	r0,	r1
00:000A 04 C0                    6228   	bge	_$L436
                                 6229   CBLOCK 234 3 2034
                                 6230   
                                 6231   ;;		PWMCounter++;
                                 6232   CLINEA 0000H 0000H 07F3H 0003H 000FH
00:000C 01 10                    6233   	add	r0,	#01h
00:000E 11-90 00-00'             6234   	st	r0,	NEAR _PWMCounter
                                 6235   CBLOCKEND 234 3 2036
                                 6236   
                                 6237   ;;	else{
                                 6238   CLINEA 0000H 0001H 07F5H 0002H 0006H
00:0012 1F-FE                    6239   	rt
00:0014                          6240   _$L436 :
                                 6241   CBLOCK 234 4 2037
                                 6242   
                                 6243   ;;		if(PWED < PWMUpperDutyLimitCalib){
                                 6244   CLINEA 0000H 0001H 07F6H 0003H 0024H
00:0014 12-90 32-F9              6245   	l	er0,	0f932h
00:0018 12-92 00-00'             6246   	l	er2,	NEAR _PWMUpperDutyLimitCalib
00:001C 27-F0                    6247   	cmp	er0,	er2
00:001E 02 C1                    6248   	blt	_$M32
00:0020 00-F0'00-00'             6249   	b	_$L445
00:0024                          6250   _$M32 :
                                 6251   CBLOCK 234 5 2038
                                 6252   
                                 6253   ;;			if(PWMflag == 0){
                                 6254   CLINEA 0000H 0001H 07F7H 0004H 0014H
00:0024 10-90 00-00'             6255   	l	r0,	NEAR _PWMflag
00:0028 26 C8                    6256   	bne	_$L441
                                 6257   CBLOCK 234 6 2039
                                 6258   
                                 6259   ;;				PFRUN = 0;	//Turn OFF PWM
                                 6260   CLINEA 0000H 0001H 07F8H 0005H 001DH
00:002A 82-A0 73-F9              6261   	rb	0f973h.0
                                 6262   
                                 6263   ;;				PERUN = 0;
                                 6264   CLINEA 0000H 0001H 07F9H 0005H 000EH
00:002E 82-A0 37-F9              6265   	rb	0f937h.0
                                 6266   
                                 6267   ;;				PDRUN = 0;
                                 6268   CLINEA 0000H 0001H 07FAH 0005H 000EH
00:0032 82-A0 27-F9              6269   	rb	0f927h.0
                                 6270   
                                 6271   ;;				PCRUN = 0;
                                 6272   CLINEA 0000H 0001H 07FBH 0005H 000EH
00:0036 82-A0 17-F9              6273   	rb	0f917h.0
                                 6274   
                                 6275   ;;				PWF0D += MotorStep; //Can't be running to change (Only this variable)
                                 6276   CLINEA 0000H 0001H 07FCH 0005H 0049H
00:003A 12-90 62-F9              6277   	l	er0,	0f962h
00:003E 12-92 00-00'             6278   	l	er2,	NEAR _MotorStep
00:0042 26-F0                    6279   	add	er0,	er2
00:0044 13-90 62-F9              6280   	st	er0,	0f962h
                                 6281   
                                 6282   ;;				PWED += MotorStep;
                                 6283   CLINEA 0000H 0001H 07FDH 0005H 0016H
00:0048 12-90 32-F9              6284   	l	er0,	0f932h
00:004C 26-F0                    6285   	add	er0,	er2
00:004E 13-90 32-F9              6286   	st	er0,	0f932h
                                 6287   
                                 6288   ;;				PWDD += MotorStep;
                                 6289   CLINEA 0000H 0001H 07FEH 0005H 0016H
00:0052 12-90 22-F9              6290   	l	er0,	0f922h
00:0056 26-F0                    6291   	add	er0,	er2
00:0058 13-90 22-F9              6292   	st	er0,	0f922h
                                 6293   
                                 6294   ;;				PWCD += MotorStep;
                                 6295   CLINEA 0000H 0001H 07FFH 0005H 0016H
00:005C 12-90 12-F9              6296   	l	er0,	0f912h
00:0060 26-F0                    6297   	add	er0,	er2
00:0062 13-90 12-F9              6298   	st	er0,	0f912h
                                 6299   
                                 6300   ;;				PFRUN = 1;	//Turn ON PWM
                                 6301   CLINEA 0000H 0001H 0800H 0005H 001CH
00:0066 80-A0 73-F9              6302   	sb	0f973h.0
                                 6303   
                                 6304   ;;				PERUN = 1;
                                 6305   CLINEA 0000H 0001H 0801H 0005H 000EH
00:006A 80-A0 37-F9              6306   	sb	0f937h.0
                                 6307   
                                 6308   ;;				PDRUN = 1;
                                 6309   CLINEA 0000H 0001H 0802H 0005H 000EH
00:006E 80-A0 27-F9              6310   	sb	0f927h.0
                                 6311   
                                 6312   ;;				PCRUN = 1;
                                 6313   CLINEA 0000H 0001H 0803H 0005H 000EH
00:0072 80-A0 17-F9              6314   	sb	0f917h.0
                                 6315   CBLOCKEND 234 6 2052
                                 6316   
                                 6317   ;;			}
                                 6318   CLINEA 0000H 0000H 0804H 0004H 0004H
00:0076                          6319   _$L441 :
                                 6320   
                                 6321   ;;			if(PWMflag == 1){
                                 6322   CLINEA 0000H 0001H 0805H 0004H 0014H
00:0076 10-90 00-00'             6323   	l	r0,	NEAR _PWMflag
00:007A 01 70                    6324   	cmp	r0,	#01h
00:007C 33 C8                    6325   	bne	_$L445
                                 6326   CBLOCK 234 7 2053
                                 6327   
                                 6328   ;;				PFRUN = 0;	//Turn OFF PWM
                                 6329   CLINEA 0000H 0001H 0806H 0005H 001DH
00:007E 82-A0 73-F9              6330   	rb	0f973h.0
                                 6331   
                                 6332   ;;				PERUN = 0;
                                 6333   CLINEA 0000H 0001H 0807H 0005H 000EH
00:0082 82-A0 37-F9              6334   	rb	0f937h.0
                                 6335   
                                 6336   ;;				PDRUN = 0;
                                 6337   CLINEA 0000H 0001H 0808H 0005H 000EH
00:0086 82-A0 27-F9              6338   	rb	0f927h.0
                                 6339   
                                 6340   ;;				PCRUN = 0;
                                 6341   CLINEA 0000H 0001H 0809H 0005H 000EH
00:008A 82-A0 17-F9              6342   	rb	0f917h.0
                                 6343   
                                 6344   ;;				PWF0D -= MotorStep; //Can't be running to change (Only this variable)
                                 6345   CLINEA 0000H 0001H 080AH 0005H 0049H
00:008E 12-90 62-F9              6346   	l	er0,	0f962h
00:0092 12-92 00-00'             6347   	l	er2,	NEAR _MotorStep
00:0096 28-80                    6348   	sub	r0,	r2
00:0098 39-81                    6349   	subc	r1,	r3
00:009A 13-90 62-F9              6350   	st	er0,	0f962h
                                 6351   
                                 6352   ;;				PWED -= MotorStep;
                                 6353   CLINEA 0000H 0001H 080BH 0005H 0016H
00:009E 12-90 32-F9              6354   	l	er0,	0f932h
00:00A2 28-80                    6355   	sub	r0,	r2
00:00A4 39-81                    6356   	subc	r1,	r3
00:00A6 13-90 32-F9              6357   	st	er0,	0f932h
                                 6358   
                                 6359   ;;				PWDD -= MotorStep;
                                 6360   CLINEA 0000H 0001H 080CH 0005H 0016H
00:00AA 12-90 22-F9              6361   	l	er0,	0f922h
00:00AE 28-80                    6362   	sub	r0,	r2
00:00B0 39-81                    6363   	subc	r1,	r3
00:00B2 13-90 22-F9              6364   	st	er0,	0f922h
                                 6365   
                                 6366   ;;				PWCD -= MotorStep;
                                 6367   CLINEA 0000H 0001H 080DH 0005H 0016H
00:00B6 12-90 12-F9              6368   	l	er0,	0f912h
00:00BA 28-80                    6369   	sub	r0,	r2
00:00BC 39-81                    6370   	subc	r1,	r3
00:00BE 13-90 12-F9              6371   	st	er0,	0f912h
                                 6372   
                                 6373   ;;				PFRUN = 1;	//Turn ON PWM
                                 6374   CLINEA 0000H 0001H 080EH 0005H 001CH
00:00C2 80-A0 73-F9              6375   	sb	0f973h.0
                                 6376   
                                 6377   ;;				PERUN = 1;
                                 6378   CLINEA 0000H 0001H 080FH 0005H 000EH
00:00C6 80-A0 37-F9              6379   	sb	0f937h.0
                                 6380   
                                 6381   ;;				PDRUN = 1;
                                 6382   CLINEA 0000H 0001H 0810H 0005H 000EH
00:00CA 80-A0 27-F9              6383   	sb	0f927h.0
                                 6384   
                                 6385   ;;				PCRUN = 1;
                                 6386   CLINEA 0000H 0001H 0811H 0005H 000EH
00:00CE 80-A0 17-F9              6387   	sb	0f917h.0
                                 6388   
                                 6389   ;;				if(PWED <= PWMSafeDuty){
                                 6390   CLINEA 0000H 0001H 0812H 0005H 001CH
00:00D2 12-90 32-F9              6391   	l	er0,	0f932h
00:00D6 12-92 00-00'             6392   	l	er2,	NEAR _PWMSafeDuty
00:00DA 27-F0                    6393   	cmp	er0,	er2
00:00DC 03 C2                    6394   	bgt	_$L445
                                 6395   CBLOCK 234 8 2066
                                 6396   
                                 6397   ;;					PWMflag = 2;
                                 6398   CLINEA 0000H 0001H 0813H 0006H 0011H
00:00DE 02 00                    6399   	mov	r0,	#02h
00:00E0 11-90 00-00'             6400   	st	r0,	NEAR _PWMflag
                                 6401   CBLOCKEND 234 8 2068
                                 6402   
                                 6403   ;;				}
                                 6404   CLINEA 0000H 0000H 0814H 0005H 0005H
00:00E4                          6405   _$L445 :
                                 6406   CBLOCKEND 234 7 2069
                                 6407   CBLOCKEND 234 5 2070
                                 6408   
                                 6409   ;;		if(PWED >= PWMUpperDutyLimitCalib){
                                 6410   CLINEA 0000H 0001H 0817H 0003H 0025H
00:00E4 12-90 32-F9              6411   	l	er0,	0f932h
00:00E8 12-92 00-00'             6412   	l	er2,	NEAR _PWMUpperDutyLimitCalib
00:00EC 27-F0                    6413   	cmp	er0,	er2
00:00EE 2D C1                    6414   	blt	_$L447
                                 6415   CBLOCK 234 9 2071
                                 6416   
                                 6417   ;;			PFRUN = 0;	//Turn OFF PWM
                                 6418   CLINEA 0000H 0001H 0818H 0004H 001CH
00:00F0 82-A0 73-F9              6419   	rb	0f973h.0
                                 6420   
                                 6421   ;;			PERUN = 0;
                                 6422   CLINEA 0000H 0001H 0819H 0004H 000DH
00:00F4 82-A0 37-F9              6423   	rb	0f937h.0
                                 6424   
                                 6425   ;;			PDRUN = 0;
                                 6426   CLINEA 0000H 0001H 081AH 0004H 000DH
00:00F8 82-A0 27-F9              6427   	rb	0f927h.0
                                 6428   
                                 6429   ;;			PCRUN = 0;
                                 6430   CLINEA 0000H 0001H 081BH 0004H 000DH
00:00FC 82-A0 17-F9              6431   	rb	0f917h.0
                                 6432   
                                 6433   ;;			PWF0D -= MotorStep; //Can't be running to change (Only this variable)
                                 6434   CLINEA 0000H 0001H 081CH 0004H 0048H
00:0100 12-90 62-F9              6435   	l	er0,	0f962h
00:0104 12-92 00-00'             6436   	l	er2,	NEAR _MotorStep
00:0108 28-80                    6437   	sub	r0,	r2
00:010A 39-81                    6438   	subc	r1,	r3
00:010C 13-90 62-F9              6439   	st	er0,	0f962h
                                 6440   
                                 6441   ;;			PWED -= MotorStep;
                                 6442   CLINEA 0000H 0001H 081DH 0004H 0015H
00:0110 12-90 32-F9              6443   	l	er0,	0f932h
00:0114 28-80                    6444   	sub	r0,	r2
00:0116 39-81                    6445   	subc	r1,	r3
00:0118 13-90 32-F9              6446   	st	er0,	0f932h
                                 6447   
                                 6448   ;;			PWDD -= MotorStep;
                                 6449   CLINEA 0000H 0001H 081EH 0004H 0015H
00:011C 12-90 22-F9              6450   	l	er0,	0f922h
00:0120 28-80                    6451   	sub	r0,	r2
00:0122 39-81                    6452   	subc	r1,	r3
00:0124 13-90 22-F9              6453   	st	er0,	0f922h
                                 6454   
                                 6455   ;;			PWCD -= MotorStep;
                                 6456   CLINEA 0000H 0001H 081FH 0004H 0015H
00:0128 12-90 12-F9              6457   	l	er0,	0f912h
00:012C 28-80                    6458   	sub	r0,	r2
00:012E 39-81                    6459   	subc	r1,	r3
00:0130 13-90 12-F9              6460   	st	er0,	0f912h
                                 6461   
                                 6462   ;;			PWMflag = 1;
                                 6463   CLINEA 0000H 0001H 0820H 0004H 000FH
00:0134 01 00                    6464   	mov	r0,	#01h
00:0136 11-90 00-00'             6465   	st	r0,	NEAR _PWMflag
                                 6466   
                                 6467   ;;			PFRUN = 1;	//Turn ON PWM
                                 6468   CLINEA 0000H 0001H 0821H 0004H 001BH
00:013A 80-A0 73-F9              6469   	sb	0f973h.0
                                 6470   
                                 6471   ;;			PERUN = 1;
                                 6472   CLINEA 0000H 0001H 0822H 0004H 000DH
00:013E 80-A0 37-F9              6473   	sb	0f937h.0
                                 6474   
                                 6475   ;;			PDRUN = 1;
                                 6476   CLINEA 0000H 0001H 0823H 0004H 000DH
00:0142 80-A0 27-F9              6477   	sb	0f927h.0
                                 6478   
                                 6479   ;;			PCRUN = 1;
                                 6480   CLINEA 0000H 0001H 0824H 0004H 000DH
00:0146 80-A0 17-F9              6481   	sb	0f917h.0
                                 6482   CBLOCKEND 234 9 2085
                                 6483   
                                 6484   ;;		}
                                 6485   CLINEA 0000H 0000H 0825H 0003H 0003H
00:014A                          6486   _$L447 :
                                 6487   
                                 6488   ;;		PWMCounter = 0;
                                 6489   CLINEA 0000H 0001H 0826H 0003H 0011H
00:014A 00 00                    6490   	mov	r0,	#00h
00:014C 11-90 00-00'             6491   	st	r0,	NEAR _PWMCounter
                                 6492   CBLOCKEND 234 4 2087
                                 6493   
                                 6494   ;;	}
                                 6495   CLINEA 0000H 0000H 0827H 0002H 0002H
                                 6496   CBLOCKEND 234 2 2088
                                 6497   
                                 6498   ;;}
                                 6499   CLINEA 0000H 0001H 0828H 0001H 0001H
00:0150 1F-FE                    6500   	rt
                                 6501   CBLOCKEND 234 1 2088
                                 6502   CFUNCTIONEND 234
                                 6503   
                                 6504   
  --------------------------     6505   	rseg $$DistanceSensorControl$main
                                 6506   CFUNCTION 235
                                 6507   
00:0000                          6508   _DistanceSensorControl	:
                                 6509   CBLOCK 235 1 2089
                                 6510   
                                 6511   ;;void DistanceSensorControl(void){
                                 6512   CLINEA 0000H 0001H 0829H 0001H 0021H
00:0000 CE-F8                    6513   	push	lr
                                 6514   CBLOCK 235 2 2089
                                 6515   CRET 0000H
                                 6516   
                                 6517   ;;	if((Range_out < Range_ZHiThres)||(Range_out > Range_Ceiling)){	//65 = 4Ft Level, 240 accounts for sensor error when too close to ground.
                                 6518   CLINEA 0000H 0001H 082AH 0002H 0089H
00:0002 12-90 00-00'             6519   	l	er0,	NEAR _Range_out
00:0006 00 E2                    6520   	mov	er2,	#0 
00:0008 6E-F0                    6521   	push	xr0
00:000A 01-F0'00-00'             6522   	bl	__fuldu8sw
00:000E 12-90 00-00'             6523   	l	er0,	NEAR _Range_ZHiThres
00:0012 12-92 00-00'             6524   	l	er2,	NEAR _Range_ZHiThres+02h
00:0016 6E-F0                    6525   	push	xr0
00:0018 01-F0'00-00'             6526   	bl	__fcmpu8sw
00:001C 08 E1                    6527   	add	sp,	#8 
00:001E 0B-A0                    6528   	mov	psw,	r0
00:0020 10 C1                    6529   	blt	_$L451
00:0022 12-90 00-00'             6530   	l	er0,	NEAR _Range_out
00:0026 00 E2                    6531   	mov	er2,	#0 
00:0028 6E-F0                    6532   	push	xr0
00:002A 01-F0'00-00'             6533   	bl	__fuldu8sw
00:002E 12-90 00-00'             6534   	l	er0,	NEAR _Range_Ceiling
00:0032 12-92 00-00'             6535   	l	er2,	NEAR _Range_Ceiling+02h
00:0036 6E-F0                    6536   	push	xr0
00:0038 01-F0'00-00'             6537   	bl	__fcmpu8sw
00:003C 08 E1                    6538   	add	sp,	#8 
00:003E 0B-A0                    6539   	mov	psw,	r0
00:0040 26 C3                    6540   	ble	_$L450
00:0042                          6541   _$L451 :
                                 6542   CBLOCK 235 3 2090
                                 6543   
                                 6544   ;;		PFRUN = 0;	//Turn OFF PWM
                                 6545   CLINEA 0000H 0001H 082BH 0003H 001BH
00:0042 82-A0 73-F9              6546   	rb	0f973h.0
                                 6547   
                                 6548   ;;		PERUN = 0;
                                 6549   CLINEA 0000H 0001H 082CH 0003H 000CH
00:0046 82-A0 37-F9              6550   	rb	0f937h.0
                                 6551   
                                 6552   ;;		PDRUN = 0;
                                 6553   CLINEA 0000H 0001H 082DH 0003H 000CH
00:004A 82-A0 27-F9              6554   	rb	0f927h.0
                                 6555   
                                 6556   ;;		PCRUN = 0;
                                 6557   CLINEA 0000H 0001H 082EH 0003H 000CH
00:004E 82-A0 17-F9              6558   	rb	0f917h.0
                                 6559   
                                 6560   ;;		PWF0D += MotorStep; //Can't be running to change (Only this variable)
                                 6561   CLINEA 0000H 0001H 082FH 0003H 0047H
00:0052 12-90 62-F9              6562   	l	er0,	0f962h
00:0056 12-92 00-00'             6563   	l	er2,	NEAR _MotorStep
00:005A 26-F0                    6564   	add	er0,	er2
00:005C 13-90 62-F9              6565   	st	er0,	0f962h
                                 6566   
                                 6567   ;;		PWED += MotorStep;
                                 6568   CLINEA 0000H 0001H 0830H 0003H 0014H
00:0060 12-90 32-F9              6569   	l	er0,	0f932h
00:0064 26-F0                    6570   	add	er0,	er2
00:0066 13-90 32-F9              6571   	st	er0,	0f932h
                                 6572   
                                 6573   ;;		PWDD += MotorStep;
                                 6574   CLINEA 0000H 0001H 0831H 0003H 0014H
00:006A 12-90 22-F9              6575   	l	er0,	0f922h
00:006E 26-F0                    6576   	add	er0,	er2
00:0070 13-90 22-F9              6577   	st	er0,	0f922h
                                 6578   
                                 6579   ;;		PWCD += MotorStep;
                                 6580   CLINEA 0000H 0001H 0832H 0003H 0014H
00:0074 12-90 12-F9              6581   	l	er0,	0f912h
00:0078 26-F0                    6582   	add	er0,	er2
00:007A 13-90 12-F9              6583   	st	er0,	0f912h
                                 6584   
                                 6585   ;;		PFRUN = 1;	//Turn ON PWM
                                 6586   CLINEA 0000H 0001H 0833H 0003H 001AH
00:007E 80-A0 73-F9              6587   	sb	0f973h.0
                                 6588   
                                 6589   ;;		PERUN = 1;
                                 6590   CLINEA 0000H 0001H 0834H 0003H 000CH
00:0082 80-A0 37-F9              6591   	sb	0f937h.0
                                 6592   
                                 6593   ;;		PDRUN = 1;
                                 6594   CLINEA 0000H 0001H 0835H 0003H 000CH
00:0086 80-A0 27-F9              6595   	sb	0f927h.0
                                 6596   
                                 6597   ;;		PCRUN = 1;
                                 6598   CLINEA 0000H 0001H 0836H 0003H 000CH
00:008A 80-A0 17-F9              6599   	sb	0f917h.0
                                 6600   CBLOCKEND 235 3 2103
                                 6601   
                                 6602   ;;	}			
                                 6603   CLINEA 0000H 0000H 0837H 0002H 0005H
00:008E                          6604   _$L450 :
                                 6605   
                                 6606   ;;	if(Range_out > 75){	//4Ft Level
                                 6607   CLINEA 0000H 0001H 0838H 0002H 0020H
00:008E 12-90 00-00'             6608   	l	er0,	NEAR _Range_out
00:0092 4B 70                    6609   	cmp	r0,	#04bh
00:0094 00 51                    6610   	cmpc	r1,	#00h
00:0096 2A C3                    6611   	ble	_$L457
                                 6612   CBLOCK 235 4 2104
                                 6613   
                                 6614   ;;		PFRUN = 0;	//Turn OFF PWM
                                 6615   CLINEA 0000H 0001H 0839H 0003H 001BH
00:0098 82-A0 73-F9              6616   	rb	0f973h.0
                                 6617   
                                 6618   ;;		PERUN = 0;
                                 6619   CLINEA 0000H 0001H 083AH 0003H 000CH
00:009C 82-A0 37-F9              6620   	rb	0f937h.0
                                 6621   
                                 6622   ;;		PDRUN = 0;
                                 6623   CLINEA 0000H 0001H 083BH 0003H 000CH
00:00A0 82-A0 27-F9              6624   	rb	0f927h.0
                                 6625   
                                 6626   ;;		PCRUN = 0;
                                 6627   CLINEA 0000H 0001H 083CH 0003H 000CH
00:00A4 82-A0 17-F9              6628   	rb	0f917h.0
                                 6629   
                                 6630   ;;		PWF0D -= MotorStep; //Can't be running to change (Only this variable)
                                 6631   CLINEA 0000H 0001H 083DH 0003H 0047H
00:00A8 12-90 62-F9              6632   	l	er0,	0f962h
00:00AC 12-92 00-00'             6633   	l	er2,	NEAR _MotorStep
00:00B0 28-80                    6634   	sub	r0,	r2
00:00B2 39-81                    6635   	subc	r1,	r3
00:00B4 13-90 62-F9              6636   	st	er0,	0f962h
                                 6637   
                                 6638   ;;		PWED -= MotorStep;
                                 6639   CLINEA 0000H 0001H 083EH 0003H 0014H
00:00B8 12-90 32-F9              6640   	l	er0,	0f932h
00:00BC 28-80                    6641   	sub	r0,	r2
00:00BE 39-81                    6642   	subc	r1,	r3
00:00C0 13-90 32-F9              6643   	st	er0,	0f932h
                                 6644   
                                 6645   ;;		PWDD -= MotorStep;
                                 6646   CLINEA 0000H 0001H 083FH 0003H 0014H
00:00C4 12-90 22-F9              6647   	l	er0,	0f922h
00:00C8 28-80                    6648   	sub	r0,	r2
00:00CA 39-81                    6649   	subc	r1,	r3
00:00CC 13-90 22-F9              6650   	st	er0,	0f922h
                                 6651   
                                 6652   ;;		PWCD -= MotorStep;
                                 6653   CLINEA 0000H 0001H 0840H 0003H 0014H
00:00D0 12-90 12-F9              6654   	l	er0,	0f912h
00:00D4 28-80                    6655   	sub	r0,	r2
00:00D6 39-81                    6656   	subc	r1,	r3
00:00D8 13-90 12-F9              6657   	st	er0,	0f912h
                                 6658   
                                 6659   ;;		PFRUN = 1;	//Turn ON PWM
                                 6660   CLINEA 0000H 0001H 0841H 0003H 001AH
00:00DC 80-A0 73-F9              6661   	sb	0f973h.0
                                 6662   
                                 6663   ;;		PERUN = 1;
                                 6664   CLINEA 0000H 0001H 0842H 0003H 000CH
00:00E0 80-A0 37-F9              6665   	sb	0f937h.0
                                 6666   
                                 6667   ;;		PDRUN = 1;
                                 6668   CLINEA 0000H 0001H 0843H 0003H 000CH
00:00E4 80-A0 27-F9              6669   	sb	0f927h.0
                                 6670   
                                 6671   ;;		PCRUN = 1;
                                 6672   CLINEA 0000H 0001H 0844H 0003H 000CH
00:00E8 80-A0 17-F9              6673   	sb	0f917h.0
                                 6674   CBLOCKEND 235 4 2117
                                 6675   
                                 6676   ;;	}
                                 6677   CLINEA 0000H 0000H 0845H 0002H 0002H
00:00EC                          6678   _$L457 :
                                 6679   CBLOCKEND 235 2 2161
                                 6680   
                                 6681   ;;}
                                 6682   CLINEA 0000H 0001H 0871H 0001H 0001H
00:00EC 8E-F2                    6683   	pop	pc
                                 6684   CBLOCKEND 235 1 2161
                                 6685   CFUNCTIONEND 235
                                 6686   
                                 6687   
  --------------------------     6688   	rseg $$MagSensorControl$main
                                 6689   CFUNCTION 236
                                 6690   
00:0000                          6691   _MagSensorControl	:
                                 6692   CBLOCK 236 1 2224
                                 6693   
                                 6694   ;;void MagSensorControl(void){
                                 6695   CLINEA 0000H 0001H 08B0H 0001H 001CH
00:0000 CE-F8                    6696   	push	lr
                                 6697   CBLOCK 236 2 2224
                                 6698   CRET 0000H
                                 6699   
                                 6700   ;;	if((Mag_Angle > Mag_CWThres)&&(Mag_Angle < Mag_OpposingPole)){
                                 6701   CLINEA 0000H 0001H 08B1H 0002H 003FH
00:0002 12-90 00-00'             6702   	l	er0,	NEAR _Mag_Angle
00:0006 12-92 00-00'             6703   	l	er2,	NEAR _Mag_Angle+02h
00:000A 6E-F0                    6704   	push	xr0
00:000C 12-90 00-00'             6705   	l	er0,	NEAR _Mag_CWThres
00:0010 12-92 00-00'             6706   	l	er2,	NEAR _Mag_CWThres+02h
00:0014 6E-F0                    6707   	push	xr0
00:0016 01-F0'00-00'             6708   	bl	__fcmpu8sw
00:001A 08 E1                    6709   	add	sp,	#8 
00:001C 0B-A0                    6710   	mov	psw,	r0
00:001E 37 C3                    6711   	ble	_$L460
00:0020 12-90 00-00'             6712   	l	er0,	NEAR _Mag_Angle
00:0024 12-92 00-00'             6713   	l	er2,	NEAR _Mag_Angle+02h
00:0028 6E-F0                    6714   	push	xr0
00:002A 12-90 00-00'             6715   	l	er0,	NEAR _Mag_OpposingPole
00:002E 12-92 00-00'             6716   	l	er2,	NEAR _Mag_OpposingPole+02h
00:0032 6E-F0                    6717   	push	xr0
00:0034 01-F0'00-00'             6718   	bl	__fcmpu8sw
00:0038 08 E1                    6719   	add	sp,	#8 
00:003A 0B-A0                    6720   	mov	psw,	r0
00:003C 28 C0                    6721   	bge	_$L460
                                 6722   CBLOCK 236 3 2225
                                 6723   
                                 6724   ;;		PFRUN = 0;	//Turn OFF PWM
                                 6725   CLINEA 0000H 0001H 08B2H 0003H 001BH
00:003E 82-A0 73-F9              6726   	rb	0f973h.0
                                 6727   
                                 6728   ;;		PERUN = 0;
                                 6729   CLINEA 0000H 0001H 08B3H 0003H 000CH
00:0042 82-A0 37-F9              6730   	rb	0f937h.0
                                 6731   
                                 6732   ;;		PDRUN = 0;
                                 6733   CLINEA 0000H 0001H 08B4H 0003H 000CH
00:0046 82-A0 27-F9              6734   	rb	0f927h.0
                                 6735   
                                 6736   ;;		PCRUN = 0;
                                 6737   CLINEA 0000H 0001H 08B5H 0003H 000CH
00:004A 82-A0 17-F9              6738   	rb	0f917h.0
                                 6739   
                                 6740   ;;		PWF0D += Mag_MotorStep; //Can't be running to change (Only this variable)
                                 6741   CLINEA 0000H 0001H 08B6H 0003H 004BH
00:004E 12-90 62-F9              6742   	l	er0,	0f962h
00:0052 12-92 00-00'             6743   	l	er2,	NEAR _Mag_MotorStep
00:0056 26-F0                    6744   	add	er0,	er2
00:0058 13-90 62-F9              6745   	st	er0,	0f962h
                                 6746   
                                 6747   ;;		PWED -= Mag_MotorStep;
                                 6748   CLINEA 0000H 0001H 08B7H 0003H 0018H
00:005C 12-90 32-F9              6749   	l	er0,	0f932h
00:0060 28-80                    6750   	sub	r0,	r2
00:0062 39-81                    6751   	subc	r1,	r3
00:0064 13-90 32-F9              6752   	st	er0,	0f932h
                                 6753   
                                 6754   ;;		PWDD -= Mag_MotorStep;
                                 6755   CLINEA 0000H 0001H 08B8H 0003H 0018H
00:0068 12-90 22-F9              6756   	l	er0,	0f922h
00:006C 28-80                    6757   	sub	r0,	r2
00:006E 39-81                    6758   	subc	r1,	r3
00:0070 13-90 22-F9              6759   	st	er0,	0f922h
                                 6760   
                                 6761   ;;		PWCD += Mag_MotorStep;
                                 6762   CLINEA 0000H 0001H 08B9H 0003H 0018H
00:0074 12-90 12-F9              6763   	l	er0,	0f912h
00:0078 26-F0                    6764   	add	er0,	er2
00:007A 13-90 12-F9              6765   	st	er0,	0f912h
                                 6766   
                                 6767   ;;		PFRUN = 1;	//Turn ON PWM
                                 6768   CLINEA 0000H 0001H 08BAH 0003H 001AH
00:007E 80-A0 73-F9              6769   	sb	0f973h.0
                                 6770   
                                 6771   ;;		PERUN = 1;
                                 6772   CLINEA 0000H 0001H 08BBH 0003H 000CH
00:0082 80-A0 37-F9              6773   	sb	0f937h.0
                                 6774   
                                 6775   ;;		PDRUN = 1;
                                 6776   CLINEA 0000H 0001H 08BCH 0003H 000CH
00:0086 80-A0 27-F9              6777   	sb	0f927h.0
                                 6778   
                                 6779   ;;		PCRUN = 1;
                                 6780   CLINEA 0000H 0001H 08BDH 0003H 000CH
00:008A 80-A0 17-F9              6781   	sb	0f917h.0
                                 6782   CBLOCKEND 236 3 2238
                                 6783   
                                 6784   ;;	}
                                 6785   CLINEA 0000H 0000H 08BEH 0002H 0002H
00:008E                          6786   _$L460 :
                                 6787   
                                 6788   ;;	if((Mag_Angle < Mag_CCWThres)&&(Mag_Angle > Mag_OpposingPole)){
                                 6789   CLINEA 0000H 0001H 08BFH 0002H 0040H
00:008E 12-90 00-00'             6790   	l	er0,	NEAR _Mag_Angle
00:0092 12-92 00-00'             6791   	l	er2,	NEAR _Mag_Angle+02h
00:0096 6E-F0                    6792   	push	xr0
00:0098 12-90 00-00'             6793   	l	er0,	NEAR _Mag_CCWThres
00:009C 12-92 00-00'             6794   	l	er2,	NEAR _Mag_CCWThres+02h
00:00A0 6E-F0                    6795   	push	xr0
00:00A2 01-F0'00-00'             6796   	bl	__fcmpu8sw
00:00A6 08 E1                    6797   	add	sp,	#8 
00:00A8 0B-A0                    6798   	mov	psw,	r0
00:00AA 37 C0                    6799   	bge	_$L467
00:00AC 12-90 00-00'             6800   	l	er0,	NEAR _Mag_Angle
00:00B0 12-92 00-00'             6801   	l	er2,	NEAR _Mag_Angle+02h
00:00B4 6E-F0                    6802   	push	xr0
00:00B6 12-90 00-00'             6803   	l	er0,	NEAR _Mag_OpposingPole
00:00BA 12-92 00-00'             6804   	l	er2,	NEAR _Mag_OpposingPole+02h
00:00BE 6E-F0                    6805   	push	xr0
00:00C0 01-F0'00-00'             6806   	bl	__fcmpu8sw
00:00C4 08 E1                    6807   	add	sp,	#8 
00:00C6 0B-A0                    6808   	mov	psw,	r0
00:00C8 28 C3                    6809   	ble	_$L467
                                 6810   CBLOCK 236 4 2239
                                 6811   
                                 6812   ;;		PFRUN = 0;	//Turn OFF PWM
                                 6813   CLINEA 0000H 0001H 08C0H 0003H 001BH
00:00CA 82-A0 73-F9              6814   	rb	0f973h.0
                                 6815   
                                 6816   ;;		PERUN = 0;
                                 6817   CLINEA 0000H 0001H 08C1H 0003H 000CH
00:00CE 82-A0 37-F9              6818   	rb	0f937h.0
                                 6819   
                                 6820   ;;		PDRUN = 0;
                                 6821   CLINEA 0000H 0001H 08C2H 0003H 000CH
00:00D2 82-A0 27-F9              6822   	rb	0f927h.0
                                 6823   
                                 6824   ;;		PCRUN = 0;
                                 6825   CLINEA 0000H 0001H 08C3H 0003H 000CH
00:00D6 82-A0 17-F9              6826   	rb	0f917h.0
                                 6827   
                                 6828   ;;		PWF0D -= Mag_MotorStep; //Can't be running to change (Only this variable)
                                 6829   CLINEA 0000H 0001H 08C4H 0003H 004BH
00:00DA 12-90 62-F9              6830   	l	er0,	0f962h
00:00DE 12-92 00-00'             6831   	l	er2,	NEAR _Mag_MotorStep
00:00E2 28-80                    6832   	sub	r0,	r2
00:00E4 39-81                    6833   	subc	r1,	r3
00:00E6 13-90 62-F9              6834   	st	er0,	0f962h
                                 6835   
                                 6836   ;;		PWED += Mag_MotorStep;
                                 6837   CLINEA 0000H 0001H 08C5H 0003H 0018H
00:00EA 12-90 32-F9              6838   	l	er0,	0f932h
00:00EE 26-F0                    6839   	add	er0,	er2
00:00F0 13-90 32-F9              6840   	st	er0,	0f932h
                                 6841   
                                 6842   ;;		PWDD += Mag_MotorStep;
                                 6843   CLINEA 0000H 0001H 08C6H 0003H 0018H
00:00F4 12-90 22-F9              6844   	l	er0,	0f922h
00:00F8 26-F0                    6845   	add	er0,	er2
00:00FA 13-90 22-F9              6846   	st	er0,	0f922h
                                 6847   
                                 6848   ;;		PWCD -= Mag_MotorStep;
                                 6849   CLINEA 0000H 0001H 08C7H 0003H 0018H
00:00FE 12-90 12-F9              6850   	l	er0,	0f912h
00:0102 28-80                    6851   	sub	r0,	r2
00:0104 39-81                    6852   	subc	r1,	r3
00:0106 13-90 12-F9              6853   	st	er0,	0f912h
                                 6854   
                                 6855   ;;		PFRUN = 1;	//Turn ON PWM
                                 6856   CLINEA 0000H 0001H 08C8H 0003H 001AH
00:010A 80-A0 73-F9              6857   	sb	0f973h.0
                                 6858   
                                 6859   ;;		PERUN = 1;
                                 6860   CLINEA 0000H 0001H 08C9H 0003H 000CH
00:010E 80-A0 37-F9              6861   	sb	0f937h.0
                                 6862   
                                 6863   ;;		PDRUN = 1;
                                 6864   CLINEA 0000H 0001H 08CAH 0003H 000CH
00:0112 80-A0 27-F9              6865   	sb	0f927h.0
                                 6866   
                                 6867   ;;		PCRUN = 1;
                                 6868   CLINEA 0000H 0001H 08CBH 0003H 000CH
00:0116 80-A0 17-F9              6869   	sb	0f917h.0
                                 6870   CBLOCKEND 236 4 2252
                                 6871   
                                 6872   ;;	}
                                 6873   CLINEA 0000H 0000H 08CCH 0002H 0002H
00:011A                          6874   _$L467 :
                                 6875   CBLOCKEND 236 2 2253
                                 6876   
                                 6877   ;;}
                                 6878   CLINEA 0000H 0001H 08CDH 0001H 0001H
00:011A 8E-F2                    6879   	pop	pc
                                 6880   CBLOCKEND 236 1 2253
                                 6881   CFUNCTIONEND 236
                                 6882   
                                 6883   
  --------------------------     6884   	rseg $$MagSensorControlPID$main
                                 6885   CFUNCTION 237
                                 6886   
00:0000                          6887   _MagSensorControlPID	:
                                 6888   CBLOCK 237 1 2255
                                 6889   
                                 6890   ;;void MagSensorControlPID(void){
                                 6891   CLINEA 0000H 0001H 08CFH 0001H 001FH
00:0000 CE-F8                    6892   	push	lr
00:0002 6E-F4                    6893   	push	xr4
                                 6894   CBLOCK 237 2 2255
                                 6895   CRET 0004H
                                 6896   CLOCAL 47H 0002H 0024H 0002H "i" 02H 00H 01H
                                 6897   
                                 6898   ;;	if(Mag_PIDSetpoint > 180){
                                 6899   CLINEA 0000H 0001H 08D4H 0002H 001BH
00:0004 12-90 00-00'             6900   	l	er0,	NEAR _Mag_PIDSetpoint
00:0008 12-92 00-00'             6901   	l	er2,	NEAR _Mag_PIDSetpoint+02h
00:000C 6E-F0                    6902   	push	xr0
00:000E 00 E0                    6903   	mov	er0,	#0 
00:0010 34 02                    6904   	mov	r2,	#034h
00:0012 43 03                    6905   	mov	r3,	#043h
00:0014 6E-F0                    6906   	push	xr0
00:0016 01-F0'00-00'             6907   	bl	__fcmpu8sw
00:001A 08 E1                    6908   	add	sp,	#8 
00:001C 0B-A0                    6909   	mov	psw,	r0
00:001E 3C C3                    6910   	ble	_$L475
                                 6911   CBLOCK 237 3 2260
                                 6912   
                                 6913   ;;		Mag_PIDCorrectionFactor = 360-Mag_PIDSetpoint;
                                 6914   CLINEA 0000H 0001H 08D5H 0003H 0030H
00:0020 00 E0                    6915   	mov	er0,	#0 
00:0022 B4 02                    6916   	mov	r2,	#0b4h
00:0024 43 03                    6917   	mov	r3,	#043h
00:0026 6E-F0                    6918   	push	xr0
00:0028 12-90 00-00'             6919   	l	er0,	NEAR _Mag_PIDSetpoint
00:002C 12-92 00-00'             6920   	l	er2,	NEAR _Mag_PIDSetpoint+02h
00:0030 6E-F0                    6921   	push	xr0
00:0032 01-F0'00-00'             6922   	bl	__fsubu8sw
00:0036 04 E1                    6923   	add	sp,	#4 
00:0038 2E-F0                    6924   	pop	xr0
00:003A 13-90 00-00'             6925   	st	er0,	NEAR _Mag_PIDCorrectionFactor
00:003E 13-92 00-00'             6926   	st	er2,	NEAR _Mag_PIDCorrectionFactor+02h
                                 6927   
                                 6928   ;;		Mag_PIDAngleScaled = Mag_Angle + Mag_PIDCorrectionFactor;
                                 6929   CLINEA 0000H 0001H 08D6H 0003H 003BH
00:0042 6E-F0                    6930   	push	xr0
00:0044 12-90 00-00'             6931   	l	er0,	NEAR _Mag_Angle
00:0048 12-92 00-00'             6932   	l	er2,	NEAR _Mag_Angle+02h
00:004C 6E-F0                    6933   	push	xr0
00:004E 01-F0'00-00'             6934   	bl	__faddu8sw
00:0052 04 E1                    6935   	add	sp,	#4 
00:0054 2E-F0                    6936   	pop	xr0
00:0056 13-90 00-00'             6937   	st	er0,	NEAR _Mag_PIDAngleScaled
00:005A 13-92 00-00'             6938   	st	er2,	NEAR _Mag_PIDAngleScaled+02h
                                 6939   
                                 6940   ;;		if(Mag_PIDAngleScaled > 180){
                                 6941   CLINEA 0000H 0001H 08D7H 0003H 001FH
00:005E 6E-F0                    6942   	push	xr0
00:0060 00 E0                    6943   	mov	er0,	#0 
00:0062 34 02                    6944   	mov	r2,	#034h
00:0064 43 03                    6945   	mov	r3,	#043h
00:0066 6E-F0                    6946   	push	xr0
00:0068 01-F0'00-00'             6947   	bl	__fcmpu8sw
00:006C 08 E1                    6948   	add	sp,	#8 
00:006E 0B-A0                    6949   	mov	psw,	r0
00:0070 0E C3                    6950   	ble	_$L477
                                 6951   CBLOCK 237 4 2263
                                 6952   
                                 6953   ;;			Mag_PIDError = Mag_PIDAngleScaled - 360;
                                 6954   CLINEA 0000H 0001H 08D8H 0004H 002BH
00:0072 12-90 00-00'             6955   	l	er0,	NEAR _Mag_PIDAngleScaled
00:0076 12-92 00-00'             6956   	l	er2,	NEAR _Mag_PIDAngleScaled+02h
00:007A 6E-F0                    6957   	push	xr0
00:007C 00 E0                    6958   	mov	er0,	#0 
00:007E B4 02                    6959   	mov	r2,	#0b4h
00:0080 C3 03                    6960   	mov	r3,	#0c3h
00:0082 6E-F0                    6961   	push	xr0
00:0084 01-F0'00-00'             6962   	bl	__faddu8sw
00:0088 04 E1                    6963   	add	sp,	#4 
00:008A 2E-F0                    6964   	pop	xr0
                                 6965   CBLOCKEND 237 4 2266
                                 6966   
                                 6967   ;;		else{
                                 6968   CLINEA 0000H 0001H 08DBH 0003H 0007H
00:008C 04 CE                    6969   	bal	_$L479
00:008E                          6970   _$L477 :
                                 6971   CBLOCK 237 5 2267
                                 6972   
                                 6973   ;;			Mag_PIDError= Mag_PIDAngleScaled;
                                 6974   CLINEA 0000H 0001H 08DCH 0004H 0024H
00:008E 12-90 00-00'             6975   	l	er0,	NEAR _Mag_PIDAngleScaled
00:0092 12-92 00-00'             6976   	l	er2,	NEAR _Mag_PIDAngleScaled+02h
                                 6977   CBLOCKEND 237 5 2269
                                 6978   
                                 6979   ;;		}
                                 6980   CLINEA 0000H 0000H 08DDH 0003H 0003H
00:0096                          6981   _$L479 :
                                 6982   
                                 6983   ;;	else{
                                 6984   CLINEA 0000H 0001H 08DFH 0002H 0006H
00:0096 36 CE                    6985   	bal	_$L483
00:0098                          6986   _$L475 :
                                 6987   CBLOCK 237 6 2271
                                 6988   
                                 6989   ;;		Mag_PIDCorrectionFactor = Mag_PIDSetpoint;					
                                 6990   CLINEA 0000H 0001H 08E0H 0003H 0031H
00:0098 12-90 00-00'             6991   	l	er0,	NEAR _Mag_PIDSetpoint
00:009C 12-92 00-00'             6992   	l	er2,	NEAR _Mag_PIDSetpoint+02h
00:00A0 13-90 00-00'             6993   	st	er0,	NEAR _Mag_PIDCorrectionFactor
00:00A4 13-92 00-00'             6994   	st	er2,	NEAR _Mag_PIDCorrectionFactor+02h
                                 6995   
                                 6996   ;;		Mag_PIDAngleScaled = Mag_Angle - Mag_PIDCorrectionFactor;
                                 6997   CLINEA 0000H 0001H 08E2H 0003H 003BH
00:00A8 12-90 00-00'             6998   	l	er0,	NEAR _Mag_Angle
00:00AC 12-92 00-00'             6999   	l	er2,	NEAR _Mag_Angle+02h
00:00B0 6E-F0                    7000   	push	xr0
00:00B2 12-90 00-00'             7001   	l	er0,	NEAR _Mag_PIDSetpoint
00:00B6 12-92 00-00'             7002   	l	er2,	NEAR _Mag_PIDSetpoint+02h
00:00BA 6E-F0                    7003   	push	xr0
00:00BC 01-F0'00-00'             7004   	bl	__fsubu8sw
00:00C0 04 E1                    7005   	add	sp,	#4 
00:00C2 2E-F0                    7006   	pop	xr0
00:00C4 13-90 00-00'             7007   	st	er0,	NEAR _Mag_PIDAngleScaled
00:00C8 13-92 00-00'             7008   	st	er2,	NEAR _Mag_PIDAngleScaled+02h
                                 7009   
                                 7010   ;;		if(Mag_PIDAngleScaled > 180){
                                 7011   CLINEA 0000H 0001H 08E3H 0003H 001FH
00:00CC 6E-F0                    7012   	push	xr0
00:00CE 00 E0                    7013   	mov	er0,	#0 
00:00D0 34 02                    7014   	mov	r2,	#034h
00:00D2 43 03                    7015   	mov	r3,	#043h
00:00D4 6E-F0                    7016   	push	xr0
00:00D6 01-F0'00-00'             7017   	bl	__fcmpu8sw
00:00DA 08 E1                    7018   	add	sp,	#8 
00:00DC 0B-A0                    7019   	mov	psw,	r0
00:00DE 0E C3                    7020   	ble	_$L481
                                 7021   CBLOCK 237 7 2275
                                 7022   
                                 7023   ;;			Mag_PIDError = Mag_PIDAngleScaled - 360;
                                 7024   CLINEA 0000H 0001H 08E4H 0004H 002BH
00:00E0 12-90 00-00'             7025   	l	er0,	NEAR _Mag_PIDAngleScaled
00:00E4 12-92 00-00'             7026   	l	er2,	NEAR _Mag_PIDAngleScaled+02h
00:00E8 6E-F0                    7027   	push	xr0
00:00EA 00 E0                    7028   	mov	er0,	#0 
00:00EC B4 02                    7029   	mov	r2,	#0b4h
00:00EE C3 03                    7030   	mov	r3,	#0c3h
00:00F0 6E-F0                    7031   	push	xr0
00:00F2 01-F0'00-00'             7032   	bl	__faddu8sw
00:00F6 04 E1                    7033   	add	sp,	#4 
00:00F8 2E-F0                    7034   	pop	xr0
                                 7035   CBLOCKEND 237 7 2278
                                 7036   
                                 7037   ;;		else{
                                 7038   CLINEA 0000H 0001H 08E7H 0003H 0007H
00:00FA 04 CE                    7039   	bal	_$L483
00:00FC                          7040   _$L481 :
                                 7041   CBLOCK 237 8 2279
                                 7042   
                                 7043   ;;			Mag_PIDError = Mag_PIDAngleScaled;
                                 7044   CLINEA 0000H 0001H 08E8H 0004H 0025H
00:00FC 12-90 00-00'             7045   	l	er0,	NEAR _Mag_PIDAngleScaled
00:0100 12-92 00-00'             7046   	l	er2,	NEAR _Mag_PIDAngleScaled+02h
                                 7047   CBLOCKEND 237 8 2281
                                 7048   
                                 7049   ;;		}
                                 7050   CLINEA 0000H 0000H 08E9H 0003H 0003H
00:0104                          7051   _$L483 :
00:0104 13-90 00-00'             7052   	st	er0,	NEAR _Mag_PIDError
00:0108 13-92 00-00'             7053   	st	er2,	NEAR _Mag_PIDError+02h
                                 7054   CBLOCKEND 237 6 2282
                                 7055   
                                 7056   ;;	Mag_PIDError *= -1;
                                 7057   CLINEA 0000H 0001H 08EBH 0002H 0014H
00:010C 6E-F0                    7058   	push	xr0
00:010E 00 E0                    7059   	mov	er0,	#0 
00:0110 80 02                    7060   	mov	r2,	#080h
00:0112 BF 03                    7061   	mov	r3,	#0bfh
00:0114 6E-F0                    7062   	push	xr0
00:0116 01-F0'00-00'             7063   	bl	__fmulu8sw
00:011A 04 E1                    7064   	add	sp,	#4 
00:011C 2E-F0                    7065   	pop	xr0
00:011E 13-90 00-00'             7066   	st	er0,	NEAR _Mag_PIDError
00:0122 13-92 00-00'             7067   	st	er2,	NEAR _Mag_PIDError+02h
                                 7068   
                                 7069   ;;	Mag_PIDCurrentCount = Mag_PIDCounter * .001;		//Timer in Seconds (.007 used to convert 128Hz TBC to seconds)
                                 7070   CLINEA 0000H 0001H 08F1H 0002H 006DH
00:0126 12-90 00-00'             7071   	l	er0,	NEAR _Mag_PIDCounter
00:012A 00 E2                    7072   	mov	er2,	#0 
00:012C 6E-F0                    7073   	push	xr0
00:012E FC E1                    7074   	add	sp,	#-4
00:0130 01-F0'00-00'             7075   	bl	__dildu8sw
00:0134 FC 00                    7076   	mov	r0,	#0fch
00:0136 A9 01                    7077   	mov	r1,	#0a9h
00:0138 F1 02                    7078   	mov	r2,	#0f1h
00:013A D2 03                    7079   	mov	r3,	#0d2h
00:013C 4D 04                    7080   	mov	r4,	#04dh
00:013E 62 05                    7081   	mov	r5,	#062h
00:0140 50 06                    7082   	mov	r6,	#050h
00:0142 3F 07                    7083   	mov	r7,	#03fh
00:0144 7E-F0                    7084   	push	qr0
00:0146 01-F0'00-00'             7085   	bl	__dmulu8sw
00:014A 08 E1                    7086   	add	sp,	#8 
00:014C 01-F0'00-00'             7087   	bl	__dtofu8sw
00:0150 04 E1                    7088   	add	sp,	#4 
00:0152 2E-F0                    7089   	pop	xr0
00:0154 13-90 00-00'             7090   	st	er0,	NEAR _Mag_PIDCurrentCount
00:0158 13-92 00-00'             7091   	st	er2,	NEAR _Mag_PIDCurrentCount+02h
                                 7092   
                                 7093   ;;	Mag_PIDCounter = 0;
                                 7094   CLINEA 0000H 0001H 08F2H 0002H 0014H
00:015C 00 E0                    7095   	mov	er0,	#0 
00:015E 13-90 00-00'             7096   	st	er0,	NEAR _Mag_PIDCounter
                                 7097   
                                 7098   ;;	Mag_PIDErrSum += (Mag_PIDError * Mag_PIDCurrentCount);
                                 7099   CLINEA 0000H 0001H 08F5H 0002H 0037H
00:0162 12-90 00-00'             7100   	l	er0,	NEAR _Mag_PIDCurrentCount
00:0166 6E-F0                    7101   	push	xr0
00:0168 12-90 00-00'             7102   	l	er0,	NEAR _Mag_PIDError
00:016C 12-92 00-00'             7103   	l	er2,	NEAR _Mag_PIDError+02h
00:0170 6E-F0                    7104   	push	xr0
00:0172 01-F0'00-00'             7105   	bl	__fmulu8sw
00:0176 04 E1                    7106   	add	sp,	#4 
00:0178 12-90 00-00'             7107   	l	er0,	NEAR _Mag_PIDErrSum
00:017C 12-92 00-00'             7108   	l	er2,	NEAR _Mag_PIDErrSum+02h
00:0180 6E-F0                    7109   	push	xr0
00:0182 01-F0'00-00'             7110   	bl	__faddu8sw
00:0186 04 E1                    7111   	add	sp,	#4 
00:0188 2E-F0                    7112   	pop	xr0
00:018A 13-90 00-00'             7113   	st	er0,	NEAR _Mag_PIDErrSum
00:018E 13-92 00-00'             7114   	st	er2,	NEAR _Mag_PIDErrSum+02h
                                 7115   
                                 7116   ;;	Mag_PIDdErr	/= Mag_PIDCurrentCount;
                                 7117   CLINEA 0000H 0001H 08F9H 0002H 0024H
00:0192 12-90 00-00'             7118   	l	er0,	NEAR _Mag_PIDError
00:0196 12-92 00-00'             7119   	l	er2,	NEAR _Mag_PIDError+02h
00:019A 6E-F0                    7120   	push	xr0
00:019C 12-90 00-00'             7121   	l	er0,	NEAR _Mag_PIDErrPrev
00:01A0 12-92 00-00'             7122   	l	er2,	NEAR _Mag_PIDErrPrev+02h
00:01A4 6E-F0                    7123   	push	xr0
00:01A6 01-F0'00-00'             7124   	bl	__fsubu8sw
00:01AA 04 E1                    7125   	add	sp,	#4 
00:01AC 12-90 00-00'             7126   	l	er0,	NEAR _Mag_PIDCurrentCount
00:01B0 12-92 00-00'             7127   	l	er2,	NEAR _Mag_PIDCurrentCount+02h
00:01B4 6E-F0                    7128   	push	xr0
00:01B6 01-F0'00-00'             7129   	bl	__fdivu8sw
00:01BA 04 E1                    7130   	add	sp,	#4 
00:01BC 2E-F0                    7131   	pop	xr0
00:01BE 13-90 00-00'             7132   	st	er0,	NEAR _Mag_PIDdErr
00:01C2 13-92 00-00'             7133   	st	er2,	NEAR _Mag_PIDdErr+02h
                                 7134   
                                 7135   ;;	Mag_PIDErrPrev = Mag_PIDError;
                                 7136   CLINEA 0000H 0001H 08FAH 0002H 001FH
00:01C6 12-90 00-00'             7137   	l	er0,	NEAR _Mag_PIDError
00:01CA 12-92 00-00'             7138   	l	er2,	NEAR _Mag_PIDError+02h
00:01CE 13-90 00-00'             7139   	st	er0,	NEAR _Mag_PIDErrPrev
00:01D2 13-92 00-00'             7140   	st	er2,	NEAR _Mag_PIDErrPrev+02h
                                 7141   
                                 7142   ;;	Mag_PIDOutput = (Mag_PID_kp*Mag_PIDError) + (Mag_PID_ki*Mag_PIDErrSum) + (Mag_PID_kd*Mag_PIDdErr);
                                 7143   CLINEA 0000H 0001H 08FDH 0002H 0063H
00:01D6 6E-F0                    7144   	push	xr0
00:01D8 12-90 00-00'             7145   	l	er0,	NEAR _Mag_PID_kp
00:01DC 12-92 00-00'             7146   	l	er2,	NEAR _Mag_PID_kp+02h
00:01E0 6E-F0                    7147   	push	xr0
00:01E2 01-F0'00-00'             7148   	bl	__fmulu8sw
00:01E6 04 E1                    7149   	add	sp,	#4 
00:01E8 2E-F0                    7150   	pop	xr0
00:01EA 12-94 00-00'             7151   	l	er4,	NEAR _Mag_PIDErrSum
00:01EE 12-96 00-00'             7152   	l	er6,	NEAR _Mag_PIDErrSum+02h
00:01F2 6E-F4                    7153   	push	xr4
00:01F4 12-94 00-00'             7154   	l	er4,	NEAR _Mag_PID_ki
00:01F8 12-96 00-00'             7155   	l	er6,	NEAR _Mag_PID_ki+02h
00:01FC 6E-F4                    7156   	push	xr4
00:01FE 01-F0'00-00'             7157   	bl	__fmulu8sw
00:0202 04 E1                    7158   	add	sp,	#4 
00:0204 2E-F4                    7159   	pop	xr4
00:0206 6E-F0                    7160   	push	xr0
00:0208 6E-F4                    7161   	push	xr4
00:020A 01-F0'00-00'             7162   	bl	__faddu8sw
00:020E 04 E1                    7163   	add	sp,	#4 
00:0210 2E-F0                    7164   	pop	xr0
00:0212 12-94 00-00'             7165   	l	er4,	NEAR _Mag_PID_kd
00:0216 12-96 00-00'             7166   	l	er6,	NEAR _Mag_PID_kd+02h
00:021A 6E-F4                    7167   	push	xr4
00:021C 12-94 00-00'             7168   	l	er4,	NEAR _Mag_PIDdErr
00:0220 12-96 00-00'             7169   	l	er6,	NEAR _Mag_PIDdErr+02h
00:0224 6E-F4                    7170   	push	xr4
00:0226 01-F0'00-00'             7171   	bl	__fmulu8sw
00:022A 04 E1                    7172   	add	sp,	#4 
00:022C 2E-F4                    7173   	pop	xr4
00:022E 6E-F0                    7174   	push	xr0
00:0230 6E-F4                    7175   	push	xr4
00:0232 01-F0'00-00'             7176   	bl	__faddu8sw
00:0236 04 E1                    7177   	add	sp,	#4 
00:0238 2E-F0                    7178   	pop	xr0
00:023A 13-90 00-00'             7179   	st	er0,	NEAR _Mag_PIDOutput
00:023E 13-92 00-00'             7180   	st	er2,	NEAR _Mag_PIDOutput+02h
                                 7181   
                                 7182   ;;	PFRUN = 0;	//Turn OFF PWM
                                 7183   CLINEA 0000H 0001H 0901H 0002H 001AH
00:0242 82-A0 73-F9              7184   	rb	0f973h.0
                                 7185   
                                 7186   ;;	PERUN = 0;
                                 7187   CLINEA 0000H 0001H 0902H 0002H 000BH
00:0246 82-A0 37-F9              7188   	rb	0f937h.0
                                 7189   
                                 7190   ;;	PDRUN = 0;
                                 7191   CLINEA 0000H 0001H 0903H 0002H 000BH
00:024A 82-A0 27-F9              7192   	rb	0f927h.0
                                 7193   
                                 7194   ;;	PCRUN = 0;
                                 7195   CLINEA 0000H 0001H 0904H 0002H 000BH
00:024E 82-A0 17-F9              7196   	rb	0f917h.0
                                 7197   
                                 7198   ;;	PWF0D -= Mag_PIDOutput; 		//Can't be running to change (Only this variable)
                                 7199   CLINEA 0000H 0001H 0906H 0002H 004CH
00:0252 12-90 62-F9              7200   	l	er0,	0f962h
00:0256 00 E2                    7201   	mov	er2,	#0 
00:0258 6E-F0                    7202   	push	xr0
00:025A 01-F0'00-00'             7203   	bl	__fuldu8sw
00:025E 12-90 00-00'             7204   	l	er0,	NEAR _Mag_PIDOutput
00:0262 12-92 00-00'             7205   	l	er2,	NEAR _Mag_PIDOutput+02h
00:0266 6E-F0                    7206   	push	xr0
00:0268 01-F0'00-00'             7207   	bl	__fsubu8sw
00:026C 04 E1                    7208   	add	sp,	#4 
00:026E 01-F0'00-00'             7209   	bl	__ftolu8sw
00:0272 1E-F0                    7210   	pop	er0
00:0274 02 E1                    7211   	add	sp,	#2 
00:0276 13-90 62-F9              7212   	st	er0,	0f962h
                                 7213   
                                 7214   ;;	PWED += Mag_PIDOutput;	//CCW motor, spin to move CW
                                 7215   CLINEA 0000H 0001H 0907H 0002H 0034H
00:027A 12-90 32-F9              7216   	l	er0,	0f932h
00:027E 00 E2                    7217   	mov	er2,	#0 
00:0280 6E-F0                    7218   	push	xr0
00:0282 01-F0'00-00'             7219   	bl	__fuldu8sw
00:0286 12-90 00-00'             7220   	l	er0,	NEAR _Mag_PIDOutput
00:028A 12-92 00-00'             7221   	l	er2,	NEAR _Mag_PIDOutput+02h
00:028E 6E-F0                    7222   	push	xr0
00:0290 01-F0'00-00'             7223   	bl	__faddu8sw
00:0294 04 E1                    7224   	add	sp,	#4 
00:0296 01-F0'00-00'             7225   	bl	__ftolu8sw
00:029A 1E-F0                    7226   	pop	er0
00:029C 02 E1                    7227   	add	sp,	#2 
00:029E 13-90 32-F9              7228   	st	er0,	0f932h
                                 7229   
                                 7230   ;;	PWDD += Mag_PIDOutput;	//CCW motor, spin to move CW
                                 7231   CLINEA 0000H 0001H 0908H 0002H 0034H
00:02A2 12-90 22-F9              7232   	l	er0,	0f922h
00:02A6 00 E2                    7233   	mov	er2,	#0 
00:02A8 6E-F0                    7234   	push	xr0
00:02AA 01-F0'00-00'             7235   	bl	__fuldu8sw
00:02AE 12-90 00-00'             7236   	l	er0,	NEAR _Mag_PIDOutput
00:02B2 12-92 00-00'             7237   	l	er2,	NEAR _Mag_PIDOutput+02h
00:02B6 6E-F0                    7238   	push	xr0
00:02B8 01-F0'00-00'             7239   	bl	__faddu8sw
00:02BC 04 E1                    7240   	add	sp,	#4 
00:02BE 01-F0'00-00'             7241   	bl	__ftolu8sw
00:02C2 1E-F0                    7242   	pop	er0
00:02C4 02 E1                    7243   	add	sp,	#2 
00:02C6 13-90 22-F9              7244   	st	er0,	0f922h
                                 7245   
                                 7246   ;;	PWCD -= Mag_PIDOutput;
                                 7247   CLINEA 0000H 0001H 0909H 0002H 0017H
00:02CA 12-90 12-F9              7248   	l	er0,	0f912h
00:02CE 00 E2                    7249   	mov	er2,	#0 
00:02D0 6E-F0                    7250   	push	xr0
00:02D2 01-F0'00-00'             7251   	bl	__fuldu8sw
00:02D6 12-90 00-00'             7252   	l	er0,	NEAR _Mag_PIDOutput
00:02DA 12-92 00-00'             7253   	l	er2,	NEAR _Mag_PIDOutput+02h
00:02DE 6E-F0                    7254   	push	xr0
00:02E0 01-F0'00-00'             7255   	bl	__fsubu8sw
00:02E4 04 E1                    7256   	add	sp,	#4 
00:02E6 01-F0'00-00'             7257   	bl	__ftolu8sw
00:02EA 1E-F0                    7258   	pop	er0
00:02EC 02 E1                    7259   	add	sp,	#2 
00:02EE 13-90 12-F9              7260   	st	er0,	0f912h
                                 7261   
                                 7262   ;;	CheckSafetyLimit();
                                 7263   CLINEA 0000H 0001H 090AH 0002H 0014H
00:02F2 01-F0'00-00'             7264   	bl	_CheckSafetyLimit
                                 7265   CBLOCKEND 237 3 2341
                                 7266   
                                 7267   ;;	PFRUN = 1;	//Turn ON PWM
                                 7268   CLINEA 0000H 0001H 090BH 0002H 0019H
00:02F6 80-A0 73-F9              7269   	sb	0f973h.0
                                 7270   
                                 7271   ;;	PERUN = 1;
                                 7272   CLINEA 0000H 0001H 090CH 0002H 000BH
00:02FA 80-A0 37-F9              7273   	sb	0f937h.0
                                 7274   
                                 7275   ;;	PDRUN = 1;
                                 7276   CLINEA 0000H 0001H 090DH 0002H 000BH
00:02FE 80-A0 27-F9              7277   	sb	0f927h.0
                                 7278   
                                 7279   ;;	PCRUN = 1;
                                 7280   CLINEA 0000H 0001H 090EH 0002H 000BH
00:0302 80-A0 17-F9              7281   	sb	0f917h.0
                                 7282   
                                 7283   ;;	for(i = 0; i<150; i++)
                                 7284   CLINEA 0000H 0001H 0912H 0002H 0017H
00:0306 00 E0                    7285   	mov	er0,	#0 
00:0308                          7286   _$L486 :
                                 7287   CBLOCK 237 9 2323
                                 7288   
                                 7289   ;;		SensorReturn[i] = 0x20;
                                 7290   CLINEA 0000H 0001H 0914H 0003H 0019H
00:0308 20 02                    7291   	mov	r2,	#020h
00:030A 09-92 00-00'             7292   	st	r2,	NEAR _SensorReturn[er0]
                                 7293   CBLOCKEND 237 9 2325
                                 7294   
                                 7295   ;;	for(i = 0; i<150; i++)
                                 7296   CLINEA 0000H 0000H 0912H 0002H 0017H
00:030E 81 E0                    7297   	add	er0,	#1 
                                 7298   
                                 7299   ;;	for(i = 0; i<150; i++)
                                 7300   CLINEA 0000H 0000H 0912H 000EH 0013H
00:0310 96 70                    7301   	cmp	r0,	#096h
00:0312 00 51                    7302   	cmpc	r1,	#00h
00:0314 F9 C5                    7303   	blts	_$L486
                                 7304   
                                 7305   ;;	sprintf(SensorReturn, "%f,%f,%f,%f", Mag_Angle, Mag_PIDOutput, Mag_PID_kd, Mag_PID_kp);
                                 7306   CLINEA 0000H 0001H 0918H 0002H 0058H
00:0316 12-90 00-00'             7307   	l	er0,	NEAR _Mag_PID_kp
00:031A 12-92 00-00'             7308   	l	er2,	NEAR _Mag_PID_kp+02h
00:031E 6E-F0                    7309   	push	xr0
00:0320 FC E1                    7310   	add	sp,	#-4
00:0322 01-F0'00-00'             7311   	bl	__ftodu8sw
00:0326 12-90 00-00'             7312   	l	er0,	NEAR _Mag_PID_kd
00:032A 12-92 00-00'             7313   	l	er2,	NEAR _Mag_PID_kd+02h
00:032E 6E-F0                    7314   	push	xr0
00:0330 FC E1                    7315   	add	sp,	#-4
00:0332 01-F0'00-00'             7316   	bl	__ftodu8sw
00:0336 12-90 00-00'             7317   	l	er0,	NEAR _Mag_PIDOutput
00:033A 12-92 00-00'             7318   	l	er2,	NEAR _Mag_PIDOutput+02h
00:033E 6E-F0                    7319   	push	xr0
00:0340 FC E1                    7320   	add	sp,	#-4
00:0342 01-F0'00-00'             7321   	bl	__ftodu8sw
00:0346 12-90 00-00'             7322   	l	er0,	NEAR _Mag_Angle
00:034A 12-92 00-00'             7323   	l	er2,	NEAR _Mag_Angle+02h
00:034E 6E-F0                    7324   	push	xr0
00:0350 FC E1                    7325   	add	sp,	#-4
00:0352 01-F0'00-00'             7326   	bl	__ftodu8sw
00:0356 00'00                    7327   	mov	r0,	#BYTE1 OFFSET $$S490
00:0358 00'01                    7328   	mov	r1,	#BYTE2 OFFSET $$S490
00:035A 5E-F0                    7329   	push	er0
00:035C 00'00                    7330   	mov	r0,	#BYTE1 OFFSET _SensorReturn
00:035E 00'01                    7331   	mov	r1,	#BYTE2 OFFSET _SensorReturn
00:0360 5E-F0                    7332   	push	er0
00:0362 01-F0'00-00'             7333   	bl	_sprintf_nn
00:0366 24 E1                    7334   	add	sp,	#36
                                 7335   
                                 7336   ;;	SensorReturn[148] = 0x0D;
                                 7337   CLINEA 0000H 0001H 091AH 0002H 001AH
00:0368 0D 00                    7338   	mov	r0,	#0dh
00:036A 11-90 00-00'             7339   	st	r0,	NEAR _SensorReturn+094h
                                 7340   
                                 7341   ;;	SensorReturn[149] = 0x0A;
                                 7342   CLINEA 0000H 0001H 091BH 0002H 001AH
00:036E 0A 00                    7343   	mov	r0,	#0ah
00:0370 11-90 00-00'             7344   	st	r0,	NEAR _SensorReturn+095h
                                 7345   
                                 7346   ;;	_flgUartFin = 0;
                                 7347   CLINEA 0000H 0001H 091EH 0002H 0011H
00:0374 00 00                    7348   	mov	r0,	#00h
00:0376 11-90 00-00'             7349   	st	r0,	NEAR __flgUartFin
                                 7350   
                                 7351   ;;	uart_stop();
                                 7352   CLINEA 0000H 0001H 091FH 0002H 000DH
00:037A 01-F0'00-00'             7353   	bl	_uart_stop
                                 7354   
                                 7355   ;;	uart_startSend(SensorReturn, 150, _funcUartFin);
                                 7356   CLINEA 0000H 0001H 0920H 0002H 0031H
00:037E 00'00                    7357   	mov	r0,	#BYTE1 OFFSET __funcUartFin
00:0380 00'01                    7358   	mov	r1,	#BYTE2 OFFSET __funcUartFin
00:0382 5E-F0                    7359   	push	er0
00:0384 96 02                    7360   	mov	r2,	#096h
00:0386 00 03                    7361   	mov	r3,	#00h
00:0388 00'00                    7362   	mov	r0,	#BYTE1 OFFSET _SensorReturn
00:038A 00'01                    7363   	mov	r1,	#BYTE2 OFFSET _SensorReturn
00:038C 01-F0'00-00'             7364   	bl	_uart_startSend
00:0390 02 E1                    7365   	add	sp,	#2 
                                 7366   
                                 7367   ;;	while(_flgUartFin != 1){
                                 7368   CLINEA 0000H 0000H 0921H 0001H 0001H
00:0392 04 CE                    7369   	bal	_$L495
                                 7370   
                                 7371   ;;	while(_flgUartFin != 1){
                                 7372   CLINEA 0000H 0000H 0921H 0002H 0019H
00:0394                          7373   _$L493 :
                                 7374   CBLOCK 237 10 2337
                                 7375   
                                 7376   ;;		NOP1000();
                                 7377   CLINEA 0000H 0001H 0922H 0003H 000CH
00:0394 01-F0'00-00'             7378   	bl	_NOP1000
                                 7379   
                                 7380   ;;		main_clrWDT();
                                 7381   CLINEA 0000H 0001H 0923H 0003H 0010H
00:0398 01-F0'00-00'             7382   	bl	_main_clrWDT
                                 7383   CBLOCKEND 237 10 2340
                                 7384   
                                 7385   ;;	while(_flgUartFin != 1){
                                 7386   CLINEA 0000H 0000H 0921H 0001H 0001H
00:039C                          7387   _$L495 :
                                 7388   
                                 7389   ;;	while(_flgUartFin != 1){
                                 7390   CLINEA 0000H 0000H 0921H 000EH 0013H
00:039C 10-90 00-00'             7391   	l	r0,	NEAR __flgUartFin
00:03A0 01 70                    7392   	cmp	r0,	#01h
00:03A2 F8 C8                    7393   	bne	_$L493
                                 7394   CBLOCKEND 237 2 2341
                                 7395   
                                 7396   ;;}
                                 7397   CLINEA 0000H 0001H 0925H 0001H 0001H
00:03A4 2E-F4                    7398   	pop	xr4
00:03A6 8E-F2                    7399   	pop	pc
                                 7400   CBLOCKEND 237 1 2341
                                 7401   CFUNCTIONEND 237
                                 7402   
                                 7403   
  --------------------------     7404   	rseg $$AccelSensorControlPID_P$main
                                 7405   CFUNCTION 238
                                 7406   
00:0000                          7407   _AccelSensorControlPID_P	:
                                 7408   CBLOCK 238 1 2343
                                 7409   
                                 7410   ;;void AccelSensorControlPID_P(void){
                                 7411   CLINEA 0000H 0001H 0927H 0001H 0023H
00:0000 CE-F8                    7412   	push	lr
00:0002 6E-F4                    7413   	push	xr4
                                 7414   CBLOCK 238 2 2343
                                 7415   CRET 0004H
                                 7416   CLOCAL 4BH 0002H 0000H 0002H "i" 02H 00H 01H
                                 7417   CSLOCAL 43H 0004H 0002H 0002H "Accel_PID_XRollOutput" 02H 00H 03H
                                 7418   CSLOCAL 43H 0004H 0003H 0002H "Accel_PID_YPitchOutput" 02H 00H 03H
                                 7419   
                                 7420   ;;		Accel_PID_XRollError = -CF_XRoll;	//Setpoint - Error (in this case setpoint is 0)
                                 7421   CLINEA 0000H 0001H 093CH 0003H 0053H
00:0004 12-90 00-00'             7422   	l	er0,	NEAR _CF_XRoll
00:0008 12-92 00-00'             7423   	l	er2,	NEAR _CF_XRoll+02h
00:000C 6E-F0                    7424   	push	xr0
00:000E 01-F0'00-00'             7425   	bl	__fnegu8sw
00:0012 2E-F0                    7426   	pop	xr0
00:0014 13-90 00-00'             7427   	st	er0,	NEAR _Accel_PID_XRollError
00:0018 13-92 00-00'             7428   	st	er2,	NEAR _Accel_PID_XRollError+02h
                                 7429   
                                 7430   ;;		if((-Accel_PID_PBounds < Accel_PID_XRollError) && (Accel_PID_XRollError < Accel_PID_DBounds))
                                 7431   CLINEA 0000H 0001H 093EH 0003H 005FH
00:001C 00 E4                    7432   	mov	er4,	#0 
00:001E C8 06                    7433   	mov	r6,	#0c8h
00:0020 C2 07                    7434   	mov	r7,	#0c2h
00:0022 7E-F0                    7435   	push	qr0
00:0024 01-F0'00-00'             7436   	bl	__fcmpu8sw
00:0028 08 E1                    7437   	add	sp,	#8 
00:002A 0B-A0                    7438   	mov	psw,	r0
00:002C 14 C0                    7439   	bge	_$L497
00:002E 12-90 00-00'             7440   	l	er0,	NEAR _Accel_PID_XRollError
00:0032 12-92 00-00'             7441   	l	er2,	NEAR _Accel_PID_XRollError+02h
00:0036 6E-F0                    7442   	push	xr0
00:0038 00 00                    7443   	mov	r0,	#00h
00:003A 80 01                    7444   	mov	r1,	#080h
00:003C 3B 02                    7445   	mov	r2,	#03bh
00:003E 45 03                    7446   	mov	r3,	#045h
00:0040 6E-F0                    7447   	push	xr0
00:0042 01-F0'00-00'             7448   	bl	__fcmpu8sw
00:0046 08 E1                    7449   	add	sp,	#8 
00:0048 0B-A0                    7450   	mov	psw,	r0
00:004A 05 C0                    7451   	bge	_$L497
                                 7452   CBLOCK 238 3 2367
                                 7453   
                                 7454   ;;			Accel_PID_XRollError = 0;
                                 7455   CLINEA 0000H 0001H 0940H 0004H 001CH
00:004C 00 E0                    7456   	mov	er0,	#0 
00:004E 13-90 00-00'             7457   	st	er0,	NEAR _Accel_PID_XRollError
00:0052 13-90 00-00'             7458   	st	er0,	NEAR _Accel_PID_XRollError+02h
                                 7459   CBLOCKEND 238 3 2369
                                 7460   
                                 7461   ;;		}
                                 7462   CLINEA 0000H 0000H 0941H 0003H 0003H
00:0056                          7463   _$L497 :
                                 7464   
                                 7465   ;;		Accel_PID_XRollOutput += (Accel_PID_XRoll_kd*Accel_PID_XRolldErr);
                                 7466   CLINEA 0000H 0001H 0947H 0003H 0044H
00:0056 12-90 00-00'             7467   	l	er0,	NEAR _Accel_PID_XRollError
00:005A 12-92 00-00'             7468   	l	er2,	NEAR _Accel_PID_XRollError+02h
00:005E 6E-F0                    7469   	push	xr0
00:0060 12-90 00-00'             7470   	l	er0,	NEAR _Accel_PID_XRoll_kp
00:0064 12-92 00-00'             7471   	l	er2,	NEAR _Accel_PID_XRoll_kp+02h
00:0068 6E-F0                    7472   	push	xr0
00:006A 01-F0'00-00'             7473   	bl	__fmulu8sw
00:006E 04 E1                    7474   	add	sp,	#4 
00:0070 2E-F0                    7475   	pop	xr0
00:0072 12-94 00-00'             7476   	l	er4,	NEAR _Accel_PID_XRollErrSum
00:0076 12-96 00-00'             7477   	l	er6,	NEAR _Accel_PID_XRollErrSum+02h
00:007A 6E-F4                    7478   	push	xr4
00:007C 12-94 00-00'             7479   	l	er4,	NEAR _Accel_PID_XRoll_ki
00:0080 12-96 00-00'             7480   	l	er6,	NEAR _Accel_PID_XRoll_ki+02h
00:0084 6E-F4                    7481   	push	xr4
00:0086 01-F0'00-00'             7482   	bl	__fmulu8sw
00:008A 04 E1                    7483   	add	sp,	#4 
00:008C 2E-F4                    7484   	pop	xr4
00:008E 6E-F0                    7485   	push	xr0
00:0090 6E-F4                    7486   	push	xr4
00:0092 01-F0'00-00'             7487   	bl	__faddu8sw
00:0096 04 E1                    7488   	add	sp,	#4 
00:0098 2E-F0                    7489   	pop	xr0
00:009A 12-94 00-00'             7490   	l	er4,	NEAR _Accel_PID_XRoll_kd
00:009E 12-96 00-00'             7491   	l	er6,	NEAR _Accel_PID_XRoll_kd+02h
00:00A2 6E-F4                    7492   	push	xr4
00:00A4 12-94 00-00'             7493   	l	er4,	NEAR _Accel_PID_XRolldErr
00:00A8 12-96 00-00'             7494   	l	er6,	NEAR _Accel_PID_XRolldErr+02h
00:00AC 6E-F4                    7495   	push	xr4
00:00AE 01-F0'00-00'             7496   	bl	__fmulu8sw
00:00B2 04 E1                    7497   	add	sp,	#4 
00:00B4 2E-F4                    7498   	pop	xr4
00:00B6 6E-F0                    7499   	push	xr0
00:00B8 6E-F4                    7500   	push	xr4
00:00BA 01-F0'00-00'             7501   	bl	__faddu8sw
00:00BE 04 E1                    7502   	add	sp,	#4 
00:00C0 2E-F0                    7503   	pop	xr0
00:00C2 13-90 00-00'             7504   	st	er0,	NEAR _$ST2
00:00C6 13-92 00-00'             7505   	st	er2,	NEAR _$ST2+02h
                                 7506   
                                 7507   ;;		Accel_PID_YPitchError = -CF_YPitch;		//Setpoint - Error (in this case setpoint is 0)
                                 7508   CLINEA 0000H 0001H 094BH 0003H 0056H
00:00CA 12-90 00-00'             7509   	l	er0,	NEAR _CF_YPitch
00:00CE 12-92 00-00'             7510   	l	er2,	NEAR _CF_YPitch+02h
00:00D2 6E-F0                    7511   	push	xr0
00:00D4 01-F0'00-00'             7512   	bl	__fnegu8sw
00:00D8 2E-F0                    7513   	pop	xr0
00:00DA 13-90 00-00'             7514   	st	er0,	NEAR _Accel_PID_YPitchError
00:00DE 13-92 00-00'             7515   	st	er2,	NEAR _Accel_PID_YPitchError+02h
                                 7516   
                                 7517   ;;		if((-Accel_PID_PBounds < Accel_PID_XRollError) && (Accel_PID_XRollError < Accel_PID_DBounds))
                                 7518   CLINEA 0000H 0001H 094DH 0003H 005FH
00:00E2 00 E0                    7519   	mov	er0,	#0 
00:00E4 C8 02                    7520   	mov	r2,	#0c8h
00:00E6 C2 03                    7521   	mov	r3,	#0c2h
00:00E8 6E-F0                    7522   	push	xr0
00:00EA 12-90 00-00'             7523   	l	er0,	NEAR _Accel_PID_XRollError
00:00EE 12-92 00-00'             7524   	l	er2,	NEAR _Accel_PID_XRollError+02h
00:00F2 6E-F0                    7525   	push	xr0
00:00F4 01-F0'00-00'             7526   	bl	__fcmpu8sw
00:00F8 08 E1                    7527   	add	sp,	#8 
00:00FA 0B-A0                    7528   	mov	psw,	r0
00:00FC 12 C0                    7529   	bge	_$L504
00:00FE 12-90 00-00'             7530   	l	er0,	NEAR _Accel_PID_XRollError
00:0102 6E-F0                    7531   	push	xr0
00:0104 00 00                    7532   	mov	r0,	#00h
00:0106 80 01                    7533   	mov	r1,	#080h
00:0108 3B 02                    7534   	mov	r2,	#03bh
00:010A 45 03                    7535   	mov	r3,	#045h
00:010C 6E-F0                    7536   	push	xr0
00:010E 01-F0'00-00'             7537   	bl	__fcmpu8sw
00:0112 08 E1                    7538   	add	sp,	#8 
00:0114 0B-A0                    7539   	mov	psw,	r0
00:0116 05 C0                    7540   	bge	_$L504
                                 7541   CBLOCK 238 4 2382
                                 7542   
                                 7543   ;;			Accel_PID_XRollError = 0;
                                 7544   CLINEA 0000H 0001H 094FH 0004H 001CH
00:0118 00 E0                    7545   	mov	er0,	#0 
00:011A 13-90 00-00'             7546   	st	er0,	NEAR _Accel_PID_XRollError
00:011E 13-90 00-00'             7547   	st	er0,	NEAR _Accel_PID_XRollError+02h
                                 7548   CBLOCKEND 238 4 2384
                                 7549   
                                 7550   ;;		}
                                 7551   CLINEA 0000H 0000H 0950H 0003H 0003H
00:0122                          7552   _$L504 :
                                 7553   
                                 7554   ;;		Accel_PID_YPitchOutput = (Accel_PID_YPitch_kp*Accel_PID_YPitchError) + (Accel_PID_YPitch_ki*Accel_PID_YPitchErrSum) + (Accel_PID_YPitch_kd*Accel_PID_YPitchdErr);
                                 7555   CLINEA 0000H 0001H 0954H 0003H 00A3H
00:0122 12-90 00-00'             7556   	l	er0,	NEAR _Accel_PID_YPitchError
00:0126 12-92 00-00'             7557   	l	er2,	NEAR _Accel_PID_YPitchError+02h
00:012A 6E-F0                    7558   	push	xr0
00:012C 12-90 00-00'             7559   	l	er0,	NEAR _Accel_PID_YPitch_kp
00:0130 12-92 00-00'             7560   	l	er2,	NEAR _Accel_PID_YPitch_kp+02h
00:0134 6E-F0                    7561   	push	xr0
00:0136 01-F0'00-00'             7562   	bl	__fmulu8sw
00:013A 04 E1                    7563   	add	sp,	#4 
00:013C 2E-F0                    7564   	pop	xr0
00:013E 12-94 00-00'             7565   	l	er4,	NEAR _Accel_PID_YPitchErrSum
00:0142 12-96 00-00'             7566   	l	er6,	NEAR _Accel_PID_YPitchErrSum+02h
00:0146 6E-F4                    7567   	push	xr4
00:0148 12-94 00-00'             7568   	l	er4,	NEAR _Accel_PID_YPitch_ki
00:014C 12-96 00-00'             7569   	l	er6,	NEAR _Accel_PID_YPitch_ki+02h
00:0150 6E-F4                    7570   	push	xr4
00:0152 01-F0'00-00'             7571   	bl	__fmulu8sw
00:0156 04 E1                    7572   	add	sp,	#4 
00:0158 2E-F4                    7573   	pop	xr4
00:015A 6E-F0                    7574   	push	xr0
00:015C 6E-F4                    7575   	push	xr4
00:015E 01-F0'00-00'             7576   	bl	__faddu8sw
00:0162 04 E1                    7577   	add	sp,	#4 
00:0164 2E-F0                    7578   	pop	xr0
00:0166 12-94 00-00'             7579   	l	er4,	NEAR _Accel_PID_YPitch_kd
00:016A 12-96 00-00'             7580   	l	er6,	NEAR _Accel_PID_YPitch_kd+02h
00:016E 6E-F4                    7581   	push	xr4
00:0170 12-94 00-00'             7582   	l	er4,	NEAR _Accel_PID_YPitchdErr
00:0174 12-96 00-00'             7583   	l	er6,	NEAR _Accel_PID_YPitchdErr+02h
00:0178 6E-F4                    7584   	push	xr4
00:017A 01-F0'00-00'             7585   	bl	__fmulu8sw
00:017E 04 E1                    7586   	add	sp,	#4 
00:0180 2E-F4                    7587   	pop	xr4
00:0182 6E-F0                    7588   	push	xr0
00:0184 6E-F4                    7589   	push	xr4
00:0186 01-F0'00-00'             7590   	bl	__faddu8sw
00:018A 04 E1                    7591   	add	sp,	#4 
00:018C 2E-F0                    7592   	pop	xr0
00:018E 13-90 00-00'             7593   	st	er0,	NEAR _$ST3
00:0192 13-92 00-00'             7594   	st	er2,	NEAR _$ST3+02h
                                 7595   
                                 7596   ;;		if(PrePIDCount >= 10){
                                 7597   CLINEA 0000H 0001H 0956H 0003H 0018H
00:0196 10-90 00-00'             7598   	l	r0,	NEAR _PrePIDCount
00:019A 0A 70                    7599   	cmp	r0,	#0ah
00:019C 02 C0                    7600   	bge	_$M37
00:019E 00-F0'00-00'             7601   	b	_$L511
00:01A2                          7602   _$M37 :
                                 7603   CBLOCK 238 5 2390
                                 7604   
                                 7605   ;;			PFRUN = 0;	//Turn OFF PWM
                                 7606   CLINEA 0000H 0001H 0957H 0004H 001CH
00:01A2 82-A0 73-F9              7607   	rb	0f973h.0
                                 7608   
                                 7609   ;;			PERUN = 0;
                                 7610   CLINEA 0000H 0001H 0958H 0004H 000DH
00:01A6 82-A0 37-F9              7611   	rb	0f937h.0
                                 7612   
                                 7613   ;;			PDRUN = 0;
                                 7614   CLINEA 0000H 0001H 0959H 0004H 000DH
00:01AA 82-A0 27-F9              7615   	rb	0f927h.0
                                 7616   
                                 7617   ;;			PCRUN = 0;
                                 7618   CLINEA 0000H 0001H 095AH 0004H 000DH
00:01AE 82-A0 17-F9              7619   	rb	0f917h.0
                                 7620   
                                 7621   ;;			PWF0D = PWMIdleDutyRun + Accel_PID_YPitchOutput; 		//Can't be running to change (Only this variable)
                                 7622   CLINEA 0000H 0001H 095FH 0004H 0067H
00:01B2 12-90 00-00'             7623   	l	er0,	NEAR _PWMIdleDutyRun
00:01B6 00 E2                    7624   	mov	er2,	#0 
00:01B8 6E-F0                    7625   	push	xr0
00:01BA 01-F0'00-00'             7626   	bl	__fuldu8sw
00:01BE 12-90 00-00'             7627   	l	er0,	NEAR _$ST3
00:01C2 12-92 00-00'             7628   	l	er2,	NEAR _$ST3+02h
00:01C6 6E-F0                    7629   	push	xr0
00:01C8 01-F0'00-00'             7630   	bl	__faddu8sw
00:01CC 04 E1                    7631   	add	sp,	#4 
00:01CE 01-F0'00-00'             7632   	bl	__ftolu8sw
00:01D2 1E-F0                    7633   	pop	er0
00:01D4 02 E1                    7634   	add	sp,	#2 
00:01D6 13-90 62-F9              7635   	st	er0,	0f962h
                                 7636   
                                 7637   ;;			PWED = PWMIdleDutyRun + Accel_PID_XRollOutput + PWMtoRPMOffset_Mot2;	
                                 7638   CLINEA 0000H 0001H 0960H 0004H 0048H
00:01DA 12-90 00-00'             7639   	l	er0,	NEAR _PWMIdleDutyRun
00:01DE 00 E2                    7640   	mov	er2,	#0 
00:01E0 6E-F0                    7641   	push	xr0
00:01E2 01-F0'00-00'             7642   	bl	__fuldu8sw
00:01E6 12-90 00-00'             7643   	l	er0,	NEAR _$ST2
00:01EA 12-92 00-00'             7644   	l	er2,	NEAR _$ST2+02h
00:01EE 6E-F0                    7645   	push	xr0
00:01F0 01-F0'00-00'             7646   	bl	__faddu8sw
00:01F4 04 E1                    7647   	add	sp,	#4 
00:01F6 2E-F4                    7648   	pop	xr4
00:01F8 12-90 00-00'             7649   	l	er0,	NEAR _PWMtoRPMOffset_Mot2
00:01FC 00 E2                    7650   	mov	er2,	#0 
00:01FE 6E-F0                    7651   	push	xr0
00:0200 01-F0'00-00'             7652   	bl	__fuldu8sw
00:0204 2E-F0                    7653   	pop	xr0
00:0206 7E-F0                    7654   	push	qr0
00:0208 01-F0'00-00'             7655   	bl	__faddu8sw
00:020C 04 E1                    7656   	add	sp,	#4 
00:020E 01-F0'00-00'             7657   	bl	__ftolu8sw
00:0212 1E-F0                    7658   	pop	er0
00:0214 02 E1                    7659   	add	sp,	#2 
00:0216 13-90 32-F9              7660   	st	er0,	0f932h
                                 7661   
                                 7662   ;;			PWCD = PWMIdleDutyRun - Accel_PID_YPitchOutput + PWMtoRPMOffset_Mot3;	
                                 7663   CLINEA 0000H 0001H 0961H 0004H 0049H
00:021A 12-90 00-00'             7664   	l	er0,	NEAR _PWMIdleDutyRun
00:021E 00 E2                    7665   	mov	er2,	#0 
00:0220 6E-F0                    7666   	push	xr0
00:0222 01-F0'00-00'             7667   	bl	__fuldu8sw
00:0226 12-90 00-00'             7668   	l	er0,	NEAR _$ST3
00:022A 12-92 00-00'             7669   	l	er2,	NEAR _$ST3+02h
00:022E 6E-F0                    7670   	push	xr0
00:0230 01-F0'00-00'             7671   	bl	__fsubu8sw
00:0234 04 E1                    7672   	add	sp,	#4 
00:0236 2E-F4                    7673   	pop	xr4
00:0238 12-90 00-00'             7674   	l	er0,	NEAR _PWMtoRPMOffset_Mot3
00:023C 00 E2                    7675   	mov	er2,	#0 
00:023E 6E-F0                    7676   	push	xr0
00:0240 01-F0'00-00'             7677   	bl	__fuldu8sw
00:0244 2E-F0                    7678   	pop	xr0
00:0246 7E-F0                    7679   	push	qr0
00:0248 01-F0'00-00'             7680   	bl	__faddu8sw
00:024C 04 E1                    7681   	add	sp,	#4 
00:024E 01-F0'00-00'             7682   	bl	__ftolu8sw
00:0252 1E-F0                    7683   	pop	er0
00:0254 02 E1                    7684   	add	sp,	#2 
00:0256 13-90 12-F9              7685   	st	er0,	0f912h
                                 7686   
                                 7687   ;;			PWDD = PWMIdleDutyRun - Accel_PID_XRollOutput + PWMtoRPMOffset_Mot4;
                                 7688   CLINEA 0000H 0001H 0962H 0004H 0047H
00:025A 12-90 00-00'             7689   	l	er0,	NEAR _PWMIdleDutyRun
00:025E 00 E2                    7690   	mov	er2,	#0 
00:0260 6E-F0                    7691   	push	xr0
00:0262 01-F0'00-00'             7692   	bl	__fuldu8sw
00:0266 12-90 00-00'             7693   	l	er0,	NEAR _$ST2
00:026A 12-92 00-00'             7694   	l	er2,	NEAR _$ST2+02h
00:026E 6E-F0                    7695   	push	xr0
00:0270 01-F0'00-00'             7696   	bl	__fsubu8sw
00:0274 04 E1                    7697   	add	sp,	#4 
00:0276 2E-F4                    7698   	pop	xr4
00:0278 12-90 00-00'             7699   	l	er0,	NEAR _PWMtoRPMOffset_Mot4
00:027C 00 E2                    7700   	mov	er2,	#0 
00:027E 6E-F0                    7701   	push	xr0
00:0280 01-F0'00-00'             7702   	bl	__fuldu8sw
00:0284 2E-F0                    7703   	pop	xr0
00:0286 7E-F0                    7704   	push	qr0
00:0288 01-F0'00-00'             7705   	bl	__faddu8sw
00:028C 04 E1                    7706   	add	sp,	#4 
00:028E 01-F0'00-00'             7707   	bl	__ftolu8sw
00:0292 1E-F0                    7708   	pop	er0
00:0294 02 E1                    7709   	add	sp,	#2 
00:0296 13-90 22-F9              7710   	st	er0,	0f922h
                                 7711   
                                 7712   ;;			CheckSafetyLimit();
                                 7713   CLINEA 0000H 0001H 0963H 0004H 0016H
00:029A 01-F0'00-00'             7714   	bl	_CheckSafetyLimit
                                 7715   
                                 7716   ;;			PFRUN = 1;	//Turn ON PWM
                                 7717   CLINEA 0000H 0001H 0964H 0004H 001BH
00:029E 80-A0 73-F9              7718   	sb	0f973h.0
                                 7719   
                                 7720   ;;			PERUN = 1;
                                 7721   CLINEA 0000H 0001H 0965H 0004H 000DH
00:02A2 80-A0 37-F9              7722   	sb	0f937h.0
                                 7723   
                                 7724   ;;			PDRUN = 1;
                                 7725   CLINEA 0000H 0001H 0966H 0004H 000DH
00:02A6 80-A0 27-F9              7726   	sb	0f927h.0
                                 7727   
                                 7728   ;;			PCRUN = 1;
                                 7729   CLINEA 0000H 0001H 0967H 0004H 000DH
00:02AA 80-A0 17-F9              7730   	sb	0f917h.0
                                 7731   CBLOCKEND 238 5 2408
                                 7732   
                                 7733   ;;		}
                                 7734   CLINEA 0000H 0000H 0968H 0003H 0003H
00:02AE                          7735   _$L511 :
                                 7736   CBLOCKEND 238 2 2436
                                 7737   
                                 7738   ;;}
                                 7739   CLINEA 0000H 0001H 0984H 0001H 0001H
00:02AE 2E-F4                    7740   	pop	xr4
00:02B0 8E-F2                    7741   	pop	pc
                                 7742   CBLOCKEND 238 1 2436
                                 7743   CFUNCTIONEND 238
                                 7744   
                                 7745   
  --------------------------     7746   	rseg $$AccelSensorControlPID_I$main
                                 7747   CFUNCTION 239
                                 7748   
00:0000                          7749   _AccelSensorControlPID_I	:
                                 7750   CBLOCK 239 1 2438
                                 7751   
                                 7752   ;;void AccelSensorControlPID_I(void){
                                 7753   CLINEA 0000H 0001H 0986H 0001H 0023H
00:0000 CE-F8                    7754   	push	lr
00:0002 6E-F4                    7755   	push	xr4
                                 7756   CBLOCK 239 2 2438
                                 7757   CRET 0004H
                                 7758   CLOCAL 4BH 0002H 0000H 0002H "i" 02H 00H 01H
                                 7759   CSLOCAL 43H 0004H 0004H 0002H "Accel_PID_XRollCurrentCount" 02H 00H 03H
                                 7760   CSLOCAL 43H 0004H 0005H 0002H "Accel_PID_XRollOutput" 02H 00H 03H
                                 7761   CSLOCAL 43H 0004H 0006H 0002H "Accel_PID_YPitchCurrentCount" 02H 00H 03H
                                 7762   CSLOCAL 43H 0004H 0007H 0002H "Accel_PID_YPitchOutput" 02H 00H 03H
                                 7763   
                                 7764   ;;		Accel_PID_XRollCurrentCount = Accel_PID_XRollCounter_I * .001;	//Timer in Seconds
                                 7765   CLINEA 0000H 0001H 099BH 0003H 0053H
00:0004 12-90 00-00'             7766   	l	er0,	NEAR _Accel_PID_XRollCounter_I
00:0008 00 E2                    7767   	mov	er2,	#0 
00:000A 6E-F0                    7768   	push	xr0
00:000C FC E1                    7769   	add	sp,	#-4
00:000E 01-F0'00-00'             7770   	bl	__dildu8sw
00:0012 FC 00                    7771   	mov	r0,	#0fch
00:0014 A9 01                    7772   	mov	r1,	#0a9h
00:0016 F1 02                    7773   	mov	r2,	#0f1h
00:0018 D2 03                    7774   	mov	r3,	#0d2h
00:001A 4D 04                    7775   	mov	r4,	#04dh
00:001C 62 05                    7776   	mov	r5,	#062h
00:001E 50 06                    7777   	mov	r6,	#050h
00:0020 3F 07                    7778   	mov	r7,	#03fh
00:0022 7E-F0                    7779   	push	qr0
00:0024 01-F0'00-00'             7780   	bl	__dmulu8sw
00:0028 08 E1                    7781   	add	sp,	#8 
00:002A 01-F0'00-00'             7782   	bl	__dtofu8sw
00:002E 04 E1                    7783   	add	sp,	#4 
00:0030 2E-F0                    7784   	pop	xr0
00:0032 13-90 00-00'             7785   	st	er0,	NEAR _$ST4
00:0036 13-92 00-00'             7786   	st	er2,	NEAR _$ST4+02h
                                 7787   
                                 7788   ;;		Accel_PID_XRollCounter_I = 0;
                                 7789   CLINEA 0000H 0001H 099CH 0003H 001FH
00:003A 00 E0                    7790   	mov	er0,	#0 
00:003C 13-90 00-00'             7791   	st	er0,	NEAR _Accel_PID_XRollCounter_I
                                 7792   
                                 7793   ;;		Accel_PID_XRollErrSum += (Accel_PID_XRollError * Accel_PID_XRollCurrentCount);
                                 7794   CLINEA 0000H 0001H 099FH 0003H 0050H
00:0040 12-90 00-00'             7795   	l	er0,	NEAR _$ST4
00:0044 6E-F0                    7796   	push	xr0
00:0046 12-90 00-00'             7797   	l	er0,	NEAR _Accel_PID_XRollError
00:004A 12-92 00-00'             7798   	l	er2,	NEAR _Accel_PID_XRollError+02h
00:004E 6E-F0                    7799   	push	xr0
00:0050 01-F0'00-00'             7800   	bl	__fmulu8sw
00:0054 04 E1                    7801   	add	sp,	#4 
00:0056 12-90 00-00'             7802   	l	er0,	NEAR _Accel_PID_XRollErrSum
00:005A 12-92 00-00'             7803   	l	er2,	NEAR _Accel_PID_XRollErrSum+02h
00:005E 6E-F0                    7804   	push	xr0
00:0060 01-F0'00-00'             7805   	bl	__faddu8sw
00:0064 04 E1                    7806   	add	sp,	#4 
00:0066 2E-F0                    7807   	pop	xr0
00:0068 13-90 00-00'             7808   	st	er0,	NEAR _Accel_PID_XRollErrSum
00:006C 13-92 00-00'             7809   	st	er2,	NEAR _Accel_PID_XRollErrSum+02h
                                 7810   
                                 7811   ;;		Accel_PID_XRollOutput += (Accel_PID_XRoll_kd*Accel_PID_XRolldErr);
                                 7812   CLINEA 0000H 0001H 09A4H 0003H 0044H
00:0070 12-90 00-00'             7813   	l	er0,	NEAR _Accel_PID_XRollError
00:0074 12-92 00-00'             7814   	l	er2,	NEAR _Accel_PID_XRollError+02h
00:0078 6E-F0                    7815   	push	xr0
00:007A 12-90 00-00'             7816   	l	er0,	NEAR _Accel_PID_XRoll_kp
00:007E 12-92 00-00'             7817   	l	er2,	NEAR _Accel_PID_XRoll_kp+02h
00:0082 6E-F0                    7818   	push	xr0
00:0084 01-F0'00-00'             7819   	bl	__fmulu8sw
00:0088 04 E1                    7820   	add	sp,	#4 
00:008A 2E-F0                    7821   	pop	xr0
00:008C 12-94 00-00'             7822   	l	er4,	NEAR _Accel_PID_XRollErrSum
00:0090 12-96 00-00'             7823   	l	er6,	NEAR _Accel_PID_XRollErrSum+02h
00:0094 6E-F4                    7824   	push	xr4
00:0096 12-94 00-00'             7825   	l	er4,	NEAR _Accel_PID_XRoll_ki
00:009A 12-96 00-00'             7826   	l	er6,	NEAR _Accel_PID_XRoll_ki+02h
00:009E 6E-F4                    7827   	push	xr4
00:00A0 01-F0'00-00'             7828   	bl	__fmulu8sw
00:00A4 04 E1                    7829   	add	sp,	#4 
00:00A6 2E-F4                    7830   	pop	xr4
00:00A8 6E-F0                    7831   	push	xr0
00:00AA 6E-F4                    7832   	push	xr4
00:00AC 01-F0'00-00'             7833   	bl	__faddu8sw
00:00B0 04 E1                    7834   	add	sp,	#4 
00:00B2 2E-F0                    7835   	pop	xr0
00:00B4 12-94 00-00'             7836   	l	er4,	NEAR _Accel_PID_XRoll_kd
00:00B8 12-96 00-00'             7837   	l	er6,	NEAR _Accel_PID_XRoll_kd+02h
00:00BC 6E-F4                    7838   	push	xr4
00:00BE 12-94 00-00'             7839   	l	er4,	NEAR _Accel_PID_XRolldErr
00:00C2 12-96 00-00'             7840   	l	er6,	NEAR _Accel_PID_XRolldErr+02h
00:00C6 6E-F4                    7841   	push	xr4
00:00C8 01-F0'00-00'             7842   	bl	__fmulu8sw
00:00CC 04 E1                    7843   	add	sp,	#4 
00:00CE 2E-F4                    7844   	pop	xr4
00:00D0 6E-F0                    7845   	push	xr0
00:00D2 6E-F4                    7846   	push	xr4
00:00D4 01-F0'00-00'             7847   	bl	__faddu8sw
00:00D8 04 E1                    7848   	add	sp,	#4 
00:00DA 2E-F0                    7849   	pop	xr0
00:00DC 13-90 00-00'             7850   	st	er0,	NEAR _$ST5
00:00E0 13-92 00-00'             7851   	st	er2,	NEAR _$ST5+02h
                                 7852   
                                 7853   ;;		Accel_PID_YPitchCurrentCount = Accel_PID_YPitchCounter_I * .001;		//Timer in Seconds
                                 7854   CLINEA 0000H 0001H 09A8H 0003H 0056H
00:00E4 12-90 00-00'             7855   	l	er0,	NEAR _Accel_PID_YPitchCounter_I
00:00E8 00 E2                    7856   	mov	er2,	#0 
00:00EA 6E-F0                    7857   	push	xr0
00:00EC FC E1                    7858   	add	sp,	#-4
00:00EE 01-F0'00-00'             7859   	bl	__dildu8sw
00:00F2 FC 00                    7860   	mov	r0,	#0fch
00:00F4 A9 01                    7861   	mov	r1,	#0a9h
00:00F6 F1 02                    7862   	mov	r2,	#0f1h
00:00F8 D2 03                    7863   	mov	r3,	#0d2h
00:00FA 4D 04                    7864   	mov	r4,	#04dh
00:00FC 62 05                    7865   	mov	r5,	#062h
00:00FE 50 06                    7866   	mov	r6,	#050h
00:0100 3F 07                    7867   	mov	r7,	#03fh
00:0102 7E-F0                    7868   	push	qr0
00:0104 01-F0'00-00'             7869   	bl	__dmulu8sw
00:0108 08 E1                    7870   	add	sp,	#8 
00:010A 01-F0'00-00'             7871   	bl	__dtofu8sw
00:010E 04 E1                    7872   	add	sp,	#4 
00:0110 2E-F0                    7873   	pop	xr0
00:0112 13-90 00-00'             7874   	st	er0,	NEAR _$ST6
00:0116 13-92 00-00'             7875   	st	er2,	NEAR _$ST6+02h
                                 7876   
                                 7877   ;;		Accel_PID_YPitchCounter_I = 0;
                                 7878   CLINEA 0000H 0001H 09A9H 0003H 0020H
00:011A 00 E0                    7879   	mov	er0,	#0 
00:011C 13-90 00-00'             7880   	st	er0,	NEAR _Accel_PID_YPitchCounter_I
                                 7881   
                                 7882   ;;		Accel_PID_YPitchErrSum += (Accel_PID_YPitchError * Accel_PID_YPitchCurrentCount);
                                 7883   CLINEA 0000H 0001H 09ADH 0003H 0053H
00:0120 12-90 00-00'             7884   	l	er0,	NEAR _$ST6
00:0124 6E-F0                    7885   	push	xr0
00:0126 12-90 00-00'             7886   	l	er0,	NEAR _Accel_PID_YPitchError
00:012A 12-92 00-00'             7887   	l	er2,	NEAR _Accel_PID_YPitchError+02h
00:012E 6E-F0                    7888   	push	xr0
00:0130 01-F0'00-00'             7889   	bl	__fmulu8sw
00:0134 04 E1                    7890   	add	sp,	#4 
00:0136 12-90 00-00'             7891   	l	er0,	NEAR _Accel_PID_YPitchErrSum
00:013A 12-92 00-00'             7892   	l	er2,	NEAR _Accel_PID_YPitchErrSum+02h
00:013E 6E-F0                    7893   	push	xr0
00:0140 01-F0'00-00'             7894   	bl	__faddu8sw
00:0144 04 E1                    7895   	add	sp,	#4 
00:0146 2E-F0                    7896   	pop	xr0
00:0148 13-90 00-00'             7897   	st	er0,	NEAR _Accel_PID_YPitchErrSum
00:014C 13-92 00-00'             7898   	st	er2,	NEAR _Accel_PID_YPitchErrSum+02h
                                 7899   
                                 7900   ;;		Accel_PID_YPitchOutput = (Accel_PID_YPitch_kp*Accel_PID_YPitchError) + (Accel_PID_YPitch_ki*Accel_PID_YPitchErrSum) + (Accel_PID_YPitch_kd*Accel_PID_YPitchdErr);
                                 7901   CLINEA 0000H 0001H 09B0H 0003H 00A3H
00:0150 12-90 00-00'             7902   	l	er0,	NEAR _Accel_PID_YPitchError
00:0154 12-92 00-00'             7903   	l	er2,	NEAR _Accel_PID_YPitchError+02h
00:0158 6E-F0                    7904   	push	xr0
00:015A 12-90 00-00'             7905   	l	er0,	NEAR _Accel_PID_YPitch_kp
00:015E 12-92 00-00'             7906   	l	er2,	NEAR _Accel_PID_YPitch_kp+02h
00:0162 6E-F0                    7907   	push	xr0
00:0164 01-F0'00-00'             7908   	bl	__fmulu8sw
00:0168 04 E1                    7909   	add	sp,	#4 
00:016A 2E-F0                    7910   	pop	xr0
00:016C 12-94 00-00'             7911   	l	er4,	NEAR _Accel_PID_YPitchErrSum
00:0170 12-96 00-00'             7912   	l	er6,	NEAR _Accel_PID_YPitchErrSum+02h
00:0174 6E-F4                    7913   	push	xr4
00:0176 12-94 00-00'             7914   	l	er4,	NEAR _Accel_PID_YPitch_ki
00:017A 12-96 00-00'             7915   	l	er6,	NEAR _Accel_PID_YPitch_ki+02h
00:017E 6E-F4                    7916   	push	xr4
00:0180 01-F0'00-00'             7917   	bl	__fmulu8sw
00:0184 04 E1                    7918   	add	sp,	#4 
00:0186 2E-F4                    7919   	pop	xr4
00:0188 6E-F0                    7920   	push	xr0
00:018A 6E-F4                    7921   	push	xr4
00:018C 01-F0'00-00'             7922   	bl	__faddu8sw
00:0190 04 E1                    7923   	add	sp,	#4 
00:0192 2E-F0                    7924   	pop	xr0
00:0194 12-94 00-00'             7925   	l	er4,	NEAR _Accel_PID_YPitch_kd
00:0198 12-96 00-00'             7926   	l	er6,	NEAR _Accel_PID_YPitch_kd+02h
00:019C 6E-F4                    7927   	push	xr4
00:019E 12-94 00-00'             7928   	l	er4,	NEAR _Accel_PID_YPitchdErr
00:01A2 12-96 00-00'             7929   	l	er6,	NEAR _Accel_PID_YPitchdErr+02h
00:01A6 6E-F4                    7930   	push	xr4
00:01A8 01-F0'00-00'             7931   	bl	__fmulu8sw
00:01AC 04 E1                    7932   	add	sp,	#4 
00:01AE 2E-F4                    7933   	pop	xr4
00:01B0 6E-F0                    7934   	push	xr0
00:01B2 6E-F4                    7935   	push	xr4
00:01B4 01-F0'00-00'             7936   	bl	__faddu8sw
00:01B8 04 E1                    7937   	add	sp,	#4 
00:01BA 2E-F0                    7938   	pop	xr0
00:01BC 13-90 00-00'             7939   	st	er0,	NEAR _$ST7
00:01C0 13-92 00-00'             7940   	st	er2,	NEAR _$ST7+02h
                                 7941   
                                 7942   ;;		if(PrePIDCount >= 10){
                                 7943   CLINEA 0000H 0001H 09B2H 0003H 0018H
00:01C4 10-90 00-00'             7944   	l	r0,	NEAR _PrePIDCount
00:01C8 0A 70                    7945   	cmp	r0,	#0ah
00:01CA 02 C0                    7946   	bge	_$M39
00:01CC 00-F0'00-00'             7947   	b	_$L514
00:01D0                          7948   _$M39 :
                                 7949   CBLOCK 239 3 2482
                                 7950   
                                 7951   ;;			PFRUN = 0;	//Turn OFF PWM
                                 7952   CLINEA 0000H 0001H 09B3H 0004H 001CH
00:01D0 82-A0 73-F9              7953   	rb	0f973h.0
                                 7954   
                                 7955   ;;			PERUN = 0;
                                 7956   CLINEA 0000H 0001H 09B4H 0004H 000DH
00:01D4 82-A0 37-F9              7957   	rb	0f937h.0
                                 7958   
                                 7959   ;;			PDRUN = 0;
                                 7960   CLINEA 0000H 0001H 09B5H 0004H 000DH
00:01D8 82-A0 27-F9              7961   	rb	0f927h.0
                                 7962   
                                 7963   ;;			PCRUN = 0;
                                 7964   CLINEA 0000H 0001H 09B6H 0004H 000DH
00:01DC 82-A0 17-F9              7965   	rb	0f917h.0
                                 7966   
                                 7967   ;;			PWF0D = PWMIdleDutyRun + Accel_PID_YPitchOutput; 		//Can't be running to change (Only this variable)
                                 7968   CLINEA 0000H 0001H 09BBH 0004H 0067H
00:01E0 12-90 00-00'             7969   	l	er0,	NEAR _PWMIdleDutyRun
00:01E4 00 E2                    7970   	mov	er2,	#0 
00:01E6 6E-F0                    7971   	push	xr0
00:01E8 01-F0'00-00'             7972   	bl	__fuldu8sw
00:01EC 12-90 00-00'             7973   	l	er0,	NEAR _$ST7
00:01F0 12-92 00-00'             7974   	l	er2,	NEAR _$ST7+02h
00:01F4 6E-F0                    7975   	push	xr0
00:01F6 01-F0'00-00'             7976   	bl	__faddu8sw
00:01FA 04 E1                    7977   	add	sp,	#4 
00:01FC 01-F0'00-00'             7978   	bl	__ftolu8sw
00:0200 1E-F0                    7979   	pop	er0
00:0202 02 E1                    7980   	add	sp,	#2 
00:0204 13-90 62-F9              7981   	st	er0,	0f962h
                                 7982   
                                 7983   ;;			PWED = PWMIdleDutyRun + Accel_PID_XRollOutput + PWMtoRPMOffset_Mot2;	
                                 7984   CLINEA 0000H 0001H 09BCH 0004H 0048H
00:0208 12-90 00-00'             7985   	l	er0,	NEAR _PWMIdleDutyRun
00:020C 00 E2                    7986   	mov	er2,	#0 
00:020E 6E-F0                    7987   	push	xr0
00:0210 01-F0'00-00'             7988   	bl	__fuldu8sw
00:0214 12-90 00-00'             7989   	l	er0,	NEAR _$ST5
00:0218 12-92 00-00'             7990   	l	er2,	NEAR _$ST5+02h
00:021C 6E-F0                    7991   	push	xr0
00:021E 01-F0'00-00'             7992   	bl	__faddu8sw
00:0222 04 E1                    7993   	add	sp,	#4 
00:0224 2E-F4                    7994   	pop	xr4
00:0226 12-90 00-00'             7995   	l	er0,	NEAR _PWMtoRPMOffset_Mot2
00:022A 00 E2                    7996   	mov	er2,	#0 
00:022C 6E-F0                    7997   	push	xr0
00:022E 01-F0'00-00'             7998   	bl	__fuldu8sw
00:0232 2E-F0                    7999   	pop	xr0
00:0234 7E-F0                    8000   	push	qr0
00:0236 01-F0'00-00'             8001   	bl	__faddu8sw
00:023A 04 E1                    8002   	add	sp,	#4 
00:023C 01-F0'00-00'             8003   	bl	__ftolu8sw
00:0240 1E-F0                    8004   	pop	er0
00:0242 02 E1                    8005   	add	sp,	#2 
00:0244 13-90 32-F9              8006   	st	er0,	0f932h
                                 8007   
                                 8008   ;;			PWCD = PWMIdleDutyRun - Accel_PID_YPitchOutput + PWMtoRPMOffset_Mot3;	
                                 8009   CLINEA 0000H 0001H 09BDH 0004H 0049H
00:0248 12-90 00-00'             8010   	l	er0,	NEAR _PWMIdleDutyRun
00:024C 00 E2                    8011   	mov	er2,	#0 
00:024E 6E-F0                    8012   	push	xr0
00:0250 01-F0'00-00'             8013   	bl	__fuldu8sw
00:0254 12-90 00-00'             8014   	l	er0,	NEAR _$ST7
00:0258 12-92 00-00'             8015   	l	er2,	NEAR _$ST7+02h
00:025C 6E-F0                    8016   	push	xr0
00:025E 01-F0'00-00'             8017   	bl	__fsubu8sw
00:0262 04 E1                    8018   	add	sp,	#4 
00:0264 2E-F4                    8019   	pop	xr4
00:0266 12-90 00-00'             8020   	l	er0,	NEAR _PWMtoRPMOffset_Mot3
00:026A 00 E2                    8021   	mov	er2,	#0 
00:026C 6E-F0                    8022   	push	xr0
00:026E 01-F0'00-00'             8023   	bl	__fuldu8sw
00:0272 2E-F0                    8024   	pop	xr0
00:0274 7E-F0                    8025   	push	qr0
00:0276 01-F0'00-00'             8026   	bl	__faddu8sw
00:027A 04 E1                    8027   	add	sp,	#4 
00:027C 01-F0'00-00'             8028   	bl	__ftolu8sw
00:0280 1E-F0                    8029   	pop	er0
00:0282 02 E1                    8030   	add	sp,	#2 
00:0284 13-90 12-F9              8031   	st	er0,	0f912h
                                 8032   
                                 8033   ;;			PWDD = PWMIdleDutyRun - Accel_PID_XRollOutput + PWMtoRPMOffset_Mot4;
                                 8034   CLINEA 0000H 0001H 09BEH 0004H 0047H
00:0288 12-90 00-00'             8035   	l	er0,	NEAR _PWMIdleDutyRun
00:028C 00 E2                    8036   	mov	er2,	#0 
00:028E 6E-F0                    8037   	push	xr0
00:0290 01-F0'00-00'             8038   	bl	__fuldu8sw
00:0294 12-90 00-00'             8039   	l	er0,	NEAR _$ST5
00:0298 12-92 00-00'             8040   	l	er2,	NEAR _$ST5+02h
00:029C 6E-F0                    8041   	push	xr0
00:029E 01-F0'00-00'             8042   	bl	__fsubu8sw
00:02A2 04 E1                    8043   	add	sp,	#4 
00:02A4 2E-F4                    8044   	pop	xr4
00:02A6 12-90 00-00'             8045   	l	er0,	NEAR _PWMtoRPMOffset_Mot4
00:02AA 00 E2                    8046   	mov	er2,	#0 
00:02AC 6E-F0                    8047   	push	xr0
00:02AE 01-F0'00-00'             8048   	bl	__fuldu8sw
00:02B2 2E-F0                    8049   	pop	xr0
00:02B4 7E-F0                    8050   	push	qr0
00:02B6 01-F0'00-00'             8051   	bl	__faddu8sw
00:02BA 04 E1                    8052   	add	sp,	#4 
00:02BC 01-F0'00-00'             8053   	bl	__ftolu8sw
00:02C0 1E-F0                    8054   	pop	er0
00:02C2 02 E1                    8055   	add	sp,	#2 
00:02C4 13-90 22-F9              8056   	st	er0,	0f922h
                                 8057   
                                 8058   ;;			CheckSafetyLimit();
                                 8059   CLINEA 0000H 0001H 09BFH 0004H 0016H
00:02C8 01-F0'00-00'             8060   	bl	_CheckSafetyLimit
                                 8061   
                                 8062   ;;			PFRUN = 1;	//Turn ON PWM
                                 8063   CLINEA 0000H 0001H 09C0H 0004H 001BH
00:02CC 80-A0 73-F9              8064   	sb	0f973h.0
                                 8065   
                                 8066   ;;			PERUN = 1;
                                 8067   CLINEA 0000H 0001H 09C1H 0004H 000DH
00:02D0 80-A0 37-F9              8068   	sb	0f937h.0
                                 8069   
                                 8070   ;;			PDRUN = 1;
                                 8071   CLINEA 0000H 0001H 09C2H 0004H 000DH
00:02D4 80-A0 27-F9              8072   	sb	0f927h.0
                                 8073   
                                 8074   ;;			PCRUN = 1;
                                 8075   CLINEA 0000H 0001H 09C3H 0004H 000DH
00:02D8 80-A0 17-F9              8076   	sb	0f917h.0
                                 8077   CBLOCKEND 239 3 2500
                                 8078   
                                 8079   ;;		}
                                 8080   CLINEA 0000H 0000H 09C4H 0003H 0003H
00:02DC                          8081   _$L514 :
                                 8082   CBLOCKEND 239 2 2529
                                 8083   
                                 8084   ;;}
                                 8085   CLINEA 0000H 0001H 09E1H 0001H 0001H
00:02DC 2E-F4                    8086   	pop	xr4
00:02DE 8E-F2                    8087   	pop	pc
                                 8088   CBLOCKEND 239 1 2529
                                 8089   CFUNCTIONEND 239
                                 8090   
                                 8091   
  --------------------------     8092   	rseg $$AccelSensorControlPID_D$main
                                 8093   CFUNCTION 240
                                 8094   
00:0000                          8095   _AccelSensorControlPID_D	:
                                 8096   CBLOCK 240 1 2531
                                 8097   
                                 8098   ;;void AccelSensorControlPID_D(void){
                                 8099   CLINEA 0000H 0001H 09E3H 0001H 0023H
00:0000 CE-F8                    8100   	push	lr
00:0002 6E-F4                    8101   	push	xr4
                                 8102   CBLOCK 240 2 2531
                                 8103   CRET 0004H
                                 8104   CLOCAL 4BH 0002H 0000H 0002H "i" 02H 00H 01H
                                 8105   CSLOCAL 43H 0004H 0008H 0002H "Accel_PID_XRollCurrentCount" 02H 00H 03H
                                 8106   CSLOCAL 43H 0004H 0009H 0002H "Accel_PID_XRollOutput" 02H 00H 03H
                                 8107   CSLOCAL 43H 0004H 000AH 0002H "Accel_PID_YPitchCurrentCount" 02H 00H 03H
                                 8108   CSLOCAL 43H 0004H 000BH 0002H "Accel_PID_YPitchOutput" 02H 00H 03H
                                 8109   
                                 8110   ;;		Accel_PID_XRollCurrentCount = Accel_PID_XRollCounter_D * .001;	//Timer in Seconds
                                 8111   CLINEA 0000H 0001H 09F9H 0003H 0053H
00:0004 12-90 00-00'             8112   	l	er0,	NEAR _Accel_PID_XRollCounter_D
00:0008 00 E2                    8113   	mov	er2,	#0 
00:000A 6E-F0                    8114   	push	xr0
00:000C FC E1                    8115   	add	sp,	#-4
00:000E 01-F0'00-00'             8116   	bl	__dildu8sw
00:0012 FC 00                    8117   	mov	r0,	#0fch
00:0014 A9 01                    8118   	mov	r1,	#0a9h
00:0016 F1 02                    8119   	mov	r2,	#0f1h
00:0018 D2 03                    8120   	mov	r3,	#0d2h
00:001A 4D 04                    8121   	mov	r4,	#04dh
00:001C 62 05                    8122   	mov	r5,	#062h
00:001E 50 06                    8123   	mov	r6,	#050h
00:0020 3F 07                    8124   	mov	r7,	#03fh
00:0022 7E-F0                    8125   	push	qr0
00:0024 01-F0'00-00'             8126   	bl	__dmulu8sw
00:0028 08 E1                    8127   	add	sp,	#8 
00:002A 01-F0'00-00'             8128   	bl	__dtofu8sw
00:002E 04 E1                    8129   	add	sp,	#4 
00:0030 2E-F0                    8130   	pop	xr0
00:0032 13-90 00-00'             8131   	st	er0,	NEAR _$ST8
00:0036 13-92 00-00'             8132   	st	er2,	NEAR _$ST8+02h
                                 8133   
                                 8134   ;;		Accel_PID_XRollCounter_D = 0;
                                 8135   CLINEA 0000H 0001H 09FAH 0003H 001FH
00:003A 00 E0                    8136   	mov	er0,	#0 
00:003C 13-90 00-00'             8137   	st	er0,	NEAR _Accel_PID_XRollCounter_D
                                 8138   
                                 8139   ;;		Accel_PID_XRolldErr	/= Accel_PID_XRollCurrentCount;
                                 8140   CLINEA 0000H 0001H 09FEH 0003H 0035H
00:0040 12-90 00-00'             8141   	l	er0,	NEAR _Accel_PID_XRollError
00:0044 12-92 00-00'             8142   	l	er2,	NEAR _Accel_PID_XRollError+02h
00:0048 6E-F0                    8143   	push	xr0
00:004A 12-90 00-00'             8144   	l	er0,	NEAR _Accel_PID_XRollErrPrev
00:004E 12-92 00-00'             8145   	l	er2,	NEAR _Accel_PID_XRollErrPrev+02h
00:0052 6E-F0                    8146   	push	xr0
00:0054 01-F0'00-00'             8147   	bl	__fsubu8sw
00:0058 04 E1                    8148   	add	sp,	#4 
00:005A 12-90 00-00'             8149   	l	er0,	NEAR _$ST8
00:005E 12-92 00-00'             8150   	l	er2,	NEAR _$ST8+02h
00:0062 6E-F0                    8151   	push	xr0
00:0064 01-F0'00-00'             8152   	bl	__fdivu8sw
00:0068 04 E1                    8153   	add	sp,	#4 
00:006A 2E-F0                    8154   	pop	xr0
00:006C 13-90 00-00'             8155   	st	er0,	NEAR _Accel_PID_XRolldErr
00:0070 13-92 00-00'             8156   	st	er2,	NEAR _Accel_PID_XRolldErr+02h
                                 8157   
                                 8158   ;;		Accel_PID_XRollErrPrev = Accel_PID_XRollError;
                                 8159   CLINEA 0000H 0001H 09FFH 0003H 0030H
00:0074 12-90 00-00'             8160   	l	er0,	NEAR _Accel_PID_XRollError
00:0078 12-92 00-00'             8161   	l	er2,	NEAR _Accel_PID_XRollError+02h
00:007C 13-90 00-00'             8162   	st	er0,	NEAR _Accel_PID_XRollErrPrev
00:0080 13-92 00-00'             8163   	st	er2,	NEAR _Accel_PID_XRollErrPrev+02h
                                 8164   
                                 8165   ;;		if((-Accel_PID_DBounds < Accel_PID_XRollErrPrev) && (Accel_PID_XRollErrPrev < Accel_PID_DBounds))
                                 8166   CLINEA 0000H 0001H 0A02H 0003H 0063H
00:0084 00 00                    8167   	mov	r0,	#00h
00:0086 80 01                    8168   	mov	r1,	#080h
00:0088 3B 02                    8169   	mov	r2,	#03bh
00:008A C5 03                    8170   	mov	r3,	#0c5h
00:008C 6E-F0                    8171   	push	xr0
00:008E 12-90 00-00'             8172   	l	er0,	NEAR _Accel_PID_XRollError
00:0092 12-92 00-00'             8173   	l	er2,	NEAR _Accel_PID_XRollError+02h
00:0096 6E-F0                    8174   	push	xr0
00:0098 01-F0'00-00'             8175   	bl	__fcmpu8sw
00:009C 08 E1                    8176   	add	sp,	#8 
00:009E 0B-A0                    8177   	mov	psw,	r0
00:00A0 14 C0                    8178   	bge	_$L517
00:00A2 12-90 00-00'             8179   	l	er0,	NEAR _Accel_PID_XRollErrPrev
00:00A6 12-92 00-00'             8180   	l	er2,	NEAR _Accel_PID_XRollErrPrev+02h
00:00AA 6E-F0                    8181   	push	xr0
00:00AC 00 00                    8182   	mov	r0,	#00h
00:00AE 80 01                    8183   	mov	r1,	#080h
00:00B0 3B 02                    8184   	mov	r2,	#03bh
00:00B2 45 03                    8185   	mov	r3,	#045h
00:00B4 6E-F0                    8186   	push	xr0
00:00B6 01-F0'00-00'             8187   	bl	__fcmpu8sw
00:00BA 08 E1                    8188   	add	sp,	#8 
00:00BC 0B-A0                    8189   	mov	psw,	r0
00:00BE 05 C0                    8190   	bge	_$L517
                                 8191   CBLOCK 240 3 2563
                                 8192   
                                 8193   ;;			Accel_PID_XRollErrPrev = 0;
                                 8194   CLINEA 0000H 0001H 0A04H 0004H 001EH
00:00C0 00 E0                    8195   	mov	er0,	#0 
00:00C2 13-90 00-00'             8196   	st	er0,	NEAR _Accel_PID_XRollErrPrev
00:00C6 13-90 00-00'             8197   	st	er0,	NEAR _Accel_PID_XRollErrPrev+02h
                                 8198   CBLOCKEND 240 3 2565
                                 8199   
                                 8200   ;;		}
                                 8201   CLINEA 0000H 0000H 0A05H 0003H 0003H
00:00CA                          8202   _$L517 :
                                 8203   
                                 8204   ;;		Accel_PID_XRollOutput += (Accel_PID_XRoll_kd*Accel_PID_XRolldErr);
                                 8205   CLINEA 0000H 0001H 0A0BH 0003H 0044H
00:00CA 12-90 00-00'             8206   	l	er0,	NEAR _Accel_PID_XRollError
00:00CE 12-92 00-00'             8207   	l	er2,	NEAR _Accel_PID_XRollError+02h
00:00D2 6E-F0                    8208   	push	xr0
00:00D4 12-90 00-00'             8209   	l	er0,	NEAR _Accel_PID_XRoll_kp
00:00D8 12-92 00-00'             8210   	l	er2,	NEAR _Accel_PID_XRoll_kp+02h
00:00DC 6E-F0                    8211   	push	xr0
00:00DE 01-F0'00-00'             8212   	bl	__fmulu8sw
00:00E2 04 E1                    8213   	add	sp,	#4 
00:00E4 2E-F0                    8214   	pop	xr0
00:00E6 12-94 00-00'             8215   	l	er4,	NEAR _Accel_PID_XRollErrSum
00:00EA 12-96 00-00'             8216   	l	er6,	NEAR _Accel_PID_XRollErrSum+02h
00:00EE 6E-F4                    8217   	push	xr4
00:00F0 12-94 00-00'             8218   	l	er4,	NEAR _Accel_PID_XRoll_ki
00:00F4 12-96 00-00'             8219   	l	er6,	NEAR _Accel_PID_XRoll_ki+02h
00:00F8 6E-F4                    8220   	push	xr4
00:00FA 01-F0'00-00'             8221   	bl	__fmulu8sw
00:00FE 04 E1                    8222   	add	sp,	#4 
00:0100 2E-F4                    8223   	pop	xr4
00:0102 6E-F0                    8224   	push	xr0
00:0104 6E-F4                    8225   	push	xr4
00:0106 01-F0'00-00'             8226   	bl	__faddu8sw
00:010A 04 E1                    8227   	add	sp,	#4 
00:010C 2E-F0                    8228   	pop	xr0
00:010E 12-94 00-00'             8229   	l	er4,	NEAR _Accel_PID_XRoll_kd
00:0112 12-96 00-00'             8230   	l	er6,	NEAR _Accel_PID_XRoll_kd+02h
00:0116 6E-F4                    8231   	push	xr4
00:0118 12-94 00-00'             8232   	l	er4,	NEAR _Accel_PID_XRolldErr
00:011C 12-96 00-00'             8233   	l	er6,	NEAR _Accel_PID_XRolldErr+02h
00:0120 6E-F4                    8234   	push	xr4
00:0122 01-F0'00-00'             8235   	bl	__fmulu8sw
00:0126 04 E1                    8236   	add	sp,	#4 
00:0128 2E-F4                    8237   	pop	xr4
00:012A 6E-F0                    8238   	push	xr0
00:012C 6E-F4                    8239   	push	xr4
00:012E 01-F0'00-00'             8240   	bl	__faddu8sw
00:0132 04 E1                    8241   	add	sp,	#4 
00:0134 2E-F0                    8242   	pop	xr0
00:0136 13-90 00-00'             8243   	st	er0,	NEAR _$ST9
00:013A 13-92 00-00'             8244   	st	er2,	NEAR _$ST9+02h
                                 8245   
                                 8246   ;;		Accel_PID_YPitchCurrentCount = Accel_PID_YPitchCounter_D * .001;		//Timer in Seconds
                                 8247   CLINEA 0000H 0001H 0A0FH 0003H 0056H
00:013E 12-90 00-00'             8248   	l	er0,	NEAR _Accel_PID_YPitchCounter_D
00:0142 00 E2                    8249   	mov	er2,	#0 
00:0144 6E-F0                    8250   	push	xr0
00:0146 FC E1                    8251   	add	sp,	#-4
00:0148 01-F0'00-00'             8252   	bl	__dildu8sw
00:014C FC 00                    8253   	mov	r0,	#0fch
00:014E A9 01                    8254   	mov	r1,	#0a9h
00:0150 F1 02                    8255   	mov	r2,	#0f1h
00:0152 D2 03                    8256   	mov	r3,	#0d2h
00:0154 4D 04                    8257   	mov	r4,	#04dh
00:0156 62 05                    8258   	mov	r5,	#062h
00:0158 50 06                    8259   	mov	r6,	#050h
00:015A 3F 07                    8260   	mov	r7,	#03fh
00:015C 7E-F0                    8261   	push	qr0
00:015E 01-F0'00-00'             8262   	bl	__dmulu8sw
00:0162 08 E1                    8263   	add	sp,	#8 
00:0164 01-F0'00-00'             8264   	bl	__dtofu8sw
00:0168 04 E1                    8265   	add	sp,	#4 
00:016A 2E-F0                    8266   	pop	xr0
00:016C 13-90 00-00'             8267   	st	er0,	NEAR _$ST10
00:0170 13-92 00-00'             8268   	st	er2,	NEAR _$ST10+02h
                                 8269   
                                 8270   ;;		Accel_PID_YPitchCounter_D = 0;
                                 8271   CLINEA 0000H 0001H 0A10H 0003H 0020H
00:0174 00 E0                    8272   	mov	er0,	#0 
00:0176 13-90 00-00'             8273   	st	er0,	NEAR _Accel_PID_YPitchCounter_D
                                 8274   
                                 8275   ;;		Accel_PID_YPitchdErr /= Accel_PID_YPitchCurrentCount;
                                 8276   CLINEA 0000H 0001H 0A15H 0003H 0037H
00:017A 12-90 00-00'             8277   	l	er0,	NEAR _Accel_PID_YPitchError
00:017E 12-92 00-00'             8278   	l	er2,	NEAR _Accel_PID_YPitchError+02h
00:0182 6E-F0                    8279   	push	xr0
00:0184 12-90 00-00'             8280   	l	er0,	NEAR _Accel_PID_YPitchErrPrev
00:0188 12-92 00-00'             8281   	l	er2,	NEAR _Accel_PID_YPitchErrPrev+02h
00:018C 6E-F0                    8282   	push	xr0
00:018E 01-F0'00-00'             8283   	bl	__fsubu8sw
00:0192 04 E1                    8284   	add	sp,	#4 
00:0194 12-90 00-00'             8285   	l	er0,	NEAR _$ST10
00:0198 12-92 00-00'             8286   	l	er2,	NEAR _$ST10+02h
00:019C 6E-F0                    8287   	push	xr0
00:019E 01-F0'00-00'             8288   	bl	__fdivu8sw
00:01A2 04 E1                    8289   	add	sp,	#4 
00:01A4 2E-F0                    8290   	pop	xr0
00:01A6 13-90 00-00'             8291   	st	er0,	NEAR _Accel_PID_YPitchdErr
00:01AA 13-92 00-00'             8292   	st	er2,	NEAR _Accel_PID_YPitchdErr+02h
                                 8293   
                                 8294   ;;		Accel_PID_YPitchErrPrev = Accel_PID_YPitchError;
                                 8295   CLINEA 0000H 0001H 0A16H 0003H 0032H
00:01AE 12-90 00-00'             8296   	l	er0,	NEAR _Accel_PID_YPitchError
00:01B2 12-92 00-00'             8297   	l	er2,	NEAR _Accel_PID_YPitchError+02h
00:01B6 13-90 00-00'             8298   	st	er0,	NEAR _Accel_PID_YPitchErrPrev
00:01BA 13-92 00-00'             8299   	st	er2,	NEAR _Accel_PID_YPitchErrPrev+02h
                                 8300   
                                 8301   ;;		if((-Accel_PID_DBounds < Accel_PID_XRollErrPrev) && (Accel_PID_XRollErrPrev < Accel_PID_DBounds))
                                 8302   CLINEA 0000H 0001H 0A18H 0003H 0063H
00:01BE 00 00                    8303   	mov	r0,	#00h
00:01C0 80 01                    8304   	mov	r1,	#080h
00:01C2 3B 02                    8305   	mov	r2,	#03bh
00:01C4 C5 03                    8306   	mov	r3,	#0c5h
00:01C6 6E-F0                    8307   	push	xr0
00:01C8 12-90 00-00'             8308   	l	er0,	NEAR _Accel_PID_XRollErrPrev
00:01CC 12-92 00-00'             8309   	l	er2,	NEAR _Accel_PID_XRollErrPrev+02h
00:01D0 6E-F0                    8310   	push	xr0
00:01D2 01-F0'00-00'             8311   	bl	__fcmpu8sw
00:01D6 08 E1                    8312   	add	sp,	#8 
00:01D8 0B-A0                    8313   	mov	psw,	r0
00:01DA 12 C0                    8314   	bge	_$L524
00:01DC 12-90 00-00'             8315   	l	er0,	NEAR _Accel_PID_XRollErrPrev
00:01E0 6E-F0                    8316   	push	xr0
00:01E2 00 00                    8317   	mov	r0,	#00h
00:01E4 80 01                    8318   	mov	r1,	#080h
00:01E6 3B 02                    8319   	mov	r2,	#03bh
00:01E8 45 03                    8320   	mov	r3,	#045h
00:01EA 6E-F0                    8321   	push	xr0
00:01EC 01-F0'00-00'             8322   	bl	__fcmpu8sw
00:01F0 08 E1                    8323   	add	sp,	#8 
00:01F2 0B-A0                    8324   	mov	psw,	r0
00:01F4 05 C0                    8325   	bge	_$L524
                                 8326   CBLOCK 240 4 2585
                                 8327   
                                 8328   ;;			Accel_PID_XRollErrPrev = 0;
                                 8329   CLINEA 0000H 0001H 0A1AH 0004H 001EH
00:01F6 00 E0                    8330   	mov	er0,	#0 
00:01F8 13-90 00-00'             8331   	st	er0,	NEAR _Accel_PID_XRollErrPrev
00:01FC 13-90 00-00'             8332   	st	er0,	NEAR _Accel_PID_XRollErrPrev+02h
                                 8333   CBLOCKEND 240 4 2587
                                 8334   
                                 8335   ;;		}
                                 8336   CLINEA 0000H 0000H 0A1BH 0003H 0003H
00:0200                          8337   _$L524 :
                                 8338   
                                 8339   ;;		Accel_PID_YPitchOutput = (Accel_PID_YPitch_kp*Accel_PID_YPitchError) + (Accel_PID_YPitch_ki*Accel_PID_YPitchErrSum) + (Accel_PID_YPitch_kd*Accel_PID_YPitchdErr);
                                 8340   CLINEA 0000H 0001H 0A20H 0003H 00A3H
00:0200 12-90 00-00'             8341   	l	er0,	NEAR _Accel_PID_YPitchError
00:0204 12-92 00-00'             8342   	l	er2,	NEAR _Accel_PID_YPitchError+02h
00:0208 6E-F0                    8343   	push	xr0
00:020A 12-90 00-00'             8344   	l	er0,	NEAR _Accel_PID_YPitch_kp
00:020E 12-92 00-00'             8345   	l	er2,	NEAR _Accel_PID_YPitch_kp+02h
00:0212 6E-F0                    8346   	push	xr0
00:0214 01-F0'00-00'             8347   	bl	__fmulu8sw
00:0218 04 E1                    8348   	add	sp,	#4 
00:021A 2E-F0                    8349   	pop	xr0
00:021C 12-94 00-00'             8350   	l	er4,	NEAR _Accel_PID_YPitchErrSum
00:0220 12-96 00-00'             8351   	l	er6,	NEAR _Accel_PID_YPitchErrSum+02h
00:0224 6E-F4                    8352   	push	xr4
00:0226 12-94 00-00'             8353   	l	er4,	NEAR _Accel_PID_YPitch_ki
00:022A 12-96 00-00'             8354   	l	er6,	NEAR _Accel_PID_YPitch_ki+02h
00:022E 6E-F4                    8355   	push	xr4
00:0230 01-F0'00-00'             8356   	bl	__fmulu8sw
00:0234 04 E1                    8357   	add	sp,	#4 
00:0236 2E-F4                    8358   	pop	xr4
00:0238 6E-F0                    8359   	push	xr0
00:023A 6E-F4                    8360   	push	xr4
00:023C 01-F0'00-00'             8361   	bl	__faddu8sw
00:0240 04 E1                    8362   	add	sp,	#4 
00:0242 2E-F0                    8363   	pop	xr0
00:0244 12-94 00-00'             8364   	l	er4,	NEAR _Accel_PID_YPitch_kd
00:0248 12-96 00-00'             8365   	l	er6,	NEAR _Accel_PID_YPitch_kd+02h
00:024C 6E-F4                    8366   	push	xr4
00:024E 12-94 00-00'             8367   	l	er4,	NEAR _Accel_PID_YPitchdErr
00:0252 12-96 00-00'             8368   	l	er6,	NEAR _Accel_PID_YPitchdErr+02h
00:0256 6E-F4                    8369   	push	xr4
00:0258 01-F0'00-00'             8370   	bl	__fmulu8sw
00:025C 04 E1                    8371   	add	sp,	#4 
00:025E 2E-F4                    8372   	pop	xr4
00:0260 6E-F0                    8373   	push	xr0
00:0262 6E-F4                    8374   	push	xr4
00:0264 01-F0'00-00'             8375   	bl	__faddu8sw
00:0268 04 E1                    8376   	add	sp,	#4 
00:026A 2E-F0                    8377   	pop	xr0
00:026C 13-90 00-00'             8378   	st	er0,	NEAR _$ST11
00:0270 13-92 00-00'             8379   	st	er2,	NEAR _$ST11+02h
                                 8380   
                                 8381   ;;		if(PrePIDCount >= 10){
                                 8382   CLINEA 0000H 0001H 0A22H 0003H 0018H
00:0274 10-90 00-00'             8383   	l	r0,	NEAR _PrePIDCount
00:0278 0A 70                    8384   	cmp	r0,	#0ah
00:027A 02 C0                    8385   	bge	_$M41
00:027C 00-F0'00-00'             8386   	b	_$L531
00:0280                          8387   _$M41 :
                                 8388   CBLOCK 240 5 2594
                                 8389   
                                 8390   ;;			PFRUN = 0;	//Turn OFF PWM
                                 8391   CLINEA 0000H 0001H 0A23H 0004H 001CH
00:0280 82-A0 73-F9              8392   	rb	0f973h.0
                                 8393   
                                 8394   ;;			PERUN = 0;
                                 8395   CLINEA 0000H 0001H 0A24H 0004H 000DH
00:0284 82-A0 37-F9              8396   	rb	0f937h.0
                                 8397   
                                 8398   ;;			PDRUN = 0;
                                 8399   CLINEA 0000H 0001H 0A25H 0004H 000DH
00:0288 82-A0 27-F9              8400   	rb	0f927h.0
                                 8401   
                                 8402   ;;			PCRUN = 0;
                                 8403   CLINEA 0000H 0001H 0A26H 0004H 000DH
00:028C 82-A0 17-F9              8404   	rb	0f917h.0
                                 8405   
                                 8406   ;;			PWF0D = PWMIdleDutyRun + Accel_PID_YPitchOutput; 		//Can't be running to change (Only this variable)
                                 8407   CLINEA 0000H 0001H 0A2BH 0004H 0067H
00:0290 12-90 00-00'             8408   	l	er0,	NEAR _PWMIdleDutyRun
00:0294 00 E2                    8409   	mov	er2,	#0 
00:0296 6E-F0                    8410   	push	xr0
00:0298 01-F0'00-00'             8411   	bl	__fuldu8sw
00:029C 12-90 00-00'             8412   	l	er0,	NEAR _$ST11
00:02A0 12-92 00-00'             8413   	l	er2,	NEAR _$ST11+02h
00:02A4 6E-F0                    8414   	push	xr0
00:02A6 01-F0'00-00'             8415   	bl	__faddu8sw
00:02AA 04 E1                    8416   	add	sp,	#4 
00:02AC 01-F0'00-00'             8417   	bl	__ftolu8sw
00:02B0 1E-F0                    8418   	pop	er0
00:02B2 02 E1                    8419   	add	sp,	#2 
00:02B4 13-90 62-F9              8420   	st	er0,	0f962h
                                 8421   
                                 8422   ;;			PWED = PWMIdleDutyRun + Accel_PID_XRollOutput + PWMtoRPMOffset_Mot2;	
                                 8423   CLINEA 0000H 0001H 0A2CH 0004H 0048H
00:02B8 12-90 00-00'             8424   	l	er0,	NEAR _PWMIdleDutyRun
00:02BC 00 E2                    8425   	mov	er2,	#0 
00:02BE 6E-F0                    8426   	push	xr0
00:02C0 01-F0'00-00'             8427   	bl	__fuldu8sw
00:02C4 12-90 00-00'             8428   	l	er0,	NEAR _$ST9
00:02C8 12-92 00-00'             8429   	l	er2,	NEAR _$ST9+02h
00:02CC 6E-F0                    8430   	push	xr0
00:02CE 01-F0'00-00'             8431   	bl	__faddu8sw
00:02D2 04 E1                    8432   	add	sp,	#4 
00:02D4 2E-F4                    8433   	pop	xr4
00:02D6 12-90 00-00'             8434   	l	er0,	NEAR _PWMtoRPMOffset_Mot2
00:02DA 00 E2                    8435   	mov	er2,	#0 
00:02DC 6E-F0                    8436   	push	xr0
00:02DE 01-F0'00-00'             8437   	bl	__fuldu8sw
00:02E2 2E-F0                    8438   	pop	xr0
00:02E4 7E-F0                    8439   	push	qr0
00:02E6 01-F0'00-00'             8440   	bl	__faddu8sw
00:02EA 04 E1                    8441   	add	sp,	#4 
00:02EC 01-F0'00-00'             8442   	bl	__ftolu8sw
00:02F0 1E-F0                    8443   	pop	er0
00:02F2 02 E1                    8444   	add	sp,	#2 
00:02F4 13-90 32-F9              8445   	st	er0,	0f932h
                                 8446   
                                 8447   ;;			PWCD = PWMIdleDutyRun - Accel_PID_YPitchOutput + PWMtoRPMOffset_Mot3;	
                                 8448   CLINEA 0000H 0001H 0A2DH 0004H 0049H
00:02F8 12-90 00-00'             8449   	l	er0,	NEAR _PWMIdleDutyRun
00:02FC 00 E2                    8450   	mov	er2,	#0 
00:02FE 6E-F0                    8451   	push	xr0
00:0300 01-F0'00-00'             8452   	bl	__fuldu8sw
00:0304 12-90 00-00'             8453   	l	er0,	NEAR _$ST11
00:0308 12-92 00-00'             8454   	l	er2,	NEAR _$ST11+02h
00:030C 6E-F0                    8455   	push	xr0
00:030E 01-F0'00-00'             8456   	bl	__fsubu8sw
00:0312 04 E1                    8457   	add	sp,	#4 
00:0314 2E-F4                    8458   	pop	xr4
00:0316 12-90 00-00'             8459   	l	er0,	NEAR _PWMtoRPMOffset_Mot3
00:031A 00 E2                    8460   	mov	er2,	#0 
00:031C 6E-F0                    8461   	push	xr0
00:031E 01-F0'00-00'             8462   	bl	__fuldu8sw
00:0322 2E-F0                    8463   	pop	xr0
00:0324 7E-F0                    8464   	push	qr0
00:0326 01-F0'00-00'             8465   	bl	__faddu8sw
00:032A 04 E1                    8466   	add	sp,	#4 
00:032C 01-F0'00-00'             8467   	bl	__ftolu8sw
00:0330 1E-F0                    8468   	pop	er0
00:0332 02 E1                    8469   	add	sp,	#2 
00:0334 13-90 12-F9              8470   	st	er0,	0f912h
                                 8471   
                                 8472   ;;			PWDD = PWMIdleDutyRun - Accel_PID_XRollOutput + PWMtoRPMOffset_Mot4;
                                 8473   CLINEA 0000H 0001H 0A2EH 0004H 0047H
00:0338 12-90 00-00'             8474   	l	er0,	NEAR _PWMIdleDutyRun
00:033C 00 E2                    8475   	mov	er2,	#0 
00:033E 6E-F0                    8476   	push	xr0
00:0340 01-F0'00-00'             8477   	bl	__fuldu8sw
00:0344 12-90 00-00'             8478   	l	er0,	NEAR _$ST9
00:0348 12-92 00-00'             8479   	l	er2,	NEAR _$ST9+02h
00:034C 6E-F0                    8480   	push	xr0
00:034E 01-F0'00-00'             8481   	bl	__fsubu8sw
00:0352 04 E1                    8482   	add	sp,	#4 
00:0354 2E-F4                    8483   	pop	xr4
00:0356 12-90 00-00'             8484   	l	er0,	NEAR _PWMtoRPMOffset_Mot4
00:035A 00 E2                    8485   	mov	er2,	#0 
00:035C 6E-F0                    8486   	push	xr0
00:035E 01-F0'00-00'             8487   	bl	__fuldu8sw
00:0362 2E-F0                    8488   	pop	xr0
00:0364 7E-F0                    8489   	push	qr0
00:0366 01-F0'00-00'             8490   	bl	__faddu8sw
00:036A 04 E1                    8491   	add	sp,	#4 
00:036C 01-F0'00-00'             8492   	bl	__ftolu8sw
00:0370 1E-F0                    8493   	pop	er0
00:0372 02 E1                    8494   	add	sp,	#2 
00:0374 13-90 22-F9              8495   	st	er0,	0f922h
                                 8496   
                                 8497   ;;			CheckSafetyLimit();
                                 8498   CLINEA 0000H 0001H 0A2FH 0004H 0016H
00:0378 01-F0'00-00'             8499   	bl	_CheckSafetyLimit
                                 8500   
                                 8501   ;;			PFRUN = 1;	//Turn ON PWM
                                 8502   CLINEA 0000H 0001H 0A30H 0004H 001BH
00:037C 80-A0 73-F9              8503   	sb	0f973h.0
                                 8504   
                                 8505   ;;			PERUN = 1;
                                 8506   CLINEA 0000H 0001H 0A31H 0004H 000DH
00:0380 80-A0 37-F9              8507   	sb	0f937h.0
                                 8508   
                                 8509   ;;			PDRUN = 1;
                                 8510   CLINEA 0000H 0001H 0A32H 0004H 000DH
00:0384 80-A0 27-F9              8511   	sb	0f927h.0
                                 8512   
                                 8513   ;;			PCRUN = 1;
                                 8514   CLINEA 0000H 0001H 0A33H 0004H 000DH
00:0388 80-A0 17-F9              8515   	sb	0f917h.0
                                 8516   CBLOCKEND 240 5 2612
                                 8517   
                                 8518   ;;		}
                                 8519   CLINEA 0000H 0000H 0A34H 0003H 0003H
00:038C                          8520   _$L531 :
                                 8521   CBLOCKEND 240 2 2641
                                 8522   
                                 8523   ;;}
                                 8524   CLINEA 0000H 0001H 0A51H 0001H 0001H
00:038C 2E-F4                    8525   	pop	xr4
00:038E 8E-F2                    8526   	pop	pc
                                 8527   CBLOCKEND 240 1 2641
                                 8528   CFUNCTIONEND 240
                                 8529   
                                 8530   
  --------------------------     8531   	rseg $$RangeSensorControlPID$main
                                 8532   CFUNCTION 241
                                 8533   
00:0000                          8534   _RangeSensorControlPID	:
                                 8535   CBLOCK 241 1 2642
                                 8536   
                                 8537   ;;void RangeSensorControlPID(void){
                                 8538   CLINEA 0000H 0001H 0A52H 0001H 0021H
00:0000 CE-F8                    8539   	push	lr
00:0002 6E-F8                    8540   	push	xr8
00:0004 6E-F4                    8541   	push	xr4
                                 8542   CBLOCK 241 2 2642
                                 8543   CRET 0008H
                                 8544   CLOCAL 47H 0002H 0024H 0002H "i" 02H 00H 01H
                                 8545   
                                 8546   ;;	Range_PIDError = Range_PIDSetpoint - Range_out;
                                 8547   CLINEA 0000H 0001H 0A57H 0002H 0030H
00:0006 12-90 00-00'             8548   	l	er0,	NEAR _Range_out
00:000A 00 E2                    8549   	mov	er2,	#0 
00:000C 6E-F0                    8550   	push	xr0
00:000E 01-F0'00-00'             8551   	bl	__fuldu8sw
00:0012 2E-F0                    8552   	pop	xr0
00:0014 12-94 00-00'             8553   	l	er4,	NEAR _Range_PIDSetpoint
00:0018 12-96 00-00'             8554   	l	er6,	NEAR _Range_PIDSetpoint+02h
00:001C 7E-F0                    8555   	push	qr0
00:001E 01-F0'00-00'             8556   	bl	__fsubu8sw
00:0022 04 E1                    8557   	add	sp,	#4 
00:0024 2E-F0                    8558   	pop	xr0
00:0026 13-90 00-00'             8559   	st	er0,	NEAR _Range_PIDError
00:002A 13-92 00-00'             8560   	st	er2,	NEAR _Range_PIDError+02h
                                 8561   
                                 8562   ;;	Range_PIDCurrentCount = Range_PIDCounter * .007;		//Timer in Seconds (.007 used to convert 128Hz TBC to seconds)
                                 8563   CLINEA 0000H 0001H 0A5AH 0002H 0071H
00:002E 12-94 00-00'             8564   	l	er4,	NEAR _Range_PIDCounter
00:0032 00 E6                    8565   	mov	er6,	#0 
00:0034 6E-F4                    8566   	push	xr4
00:0036 FC E1                    8567   	add	sp,	#-4
00:0038 01-F0'00-00'             8568   	bl	__dildu8sw
00:003C 79 04                    8569   	mov	r4,	#079h
00:003E E9 05                    8570   	mov	r5,	#0e9h
00:0040 26 06                    8571   	mov	r6,	#026h
00:0042 31 07                    8572   	mov	r7,	#031h
00:0044 08 08                    8573   	mov	r8,	#08h
00:0046 AC 09                    8574   	mov	r9,	#0ach
00:0048 7C 0A                    8575   	mov	r10,	#07ch
00:004A 3F 0B                    8576   	mov	r11,	#03fh
00:004C 6E-F8                    8577   	push	xr8
00:004E 6E-F4                    8578   	push	xr4
00:0050 01-F0'00-00'             8579   	bl	__dmulu8sw
00:0054 08 E1                    8580   	add	sp,	#8 
00:0056 01-F0'00-00'             8581   	bl	__dtofu8sw
00:005A 04 E1                    8582   	add	sp,	#4 
00:005C 2E-F4                    8583   	pop	xr4
00:005E 13-94 00-00'             8584   	st	er4,	NEAR _Range_PIDCurrentCount
00:0062 13-96 00-00'             8585   	st	er6,	NEAR _Range_PIDCurrentCount+02h
                                 8586   
                                 8587   ;;	Range_PIDCounter = 0;
                                 8588   CLINEA 0000H 0001H 0A5BH 0002H 0016H
00:0066 00 E4                    8589   	mov	er4,	#0 
00:0068 13-94 00-00'             8590   	st	er4,	NEAR _Range_PIDCounter
                                 8591   
                                 8592   ;;	Range_PIDErrSum += (Range_PIDError * Range_PIDCurrentCount);
                                 8593   CLINEA 0000H 0001H 0A5EH 0002H 003DH
00:006C 6E-F0                    8594   	push	xr0
00:006E 12-94 00-00'             8595   	l	er4,	NEAR _Range_PIDCurrentCount
00:0072 6E-F4                    8596   	push	xr4
00:0074 01-F0'00-00'             8597   	bl	__fmulu8sw
00:0078 04 E1                    8598   	add	sp,	#4 
00:007A 12-94 00-00'             8599   	l	er4,	NEAR _Range_PIDErrSum
00:007E 12-96 00-00'             8600   	l	er6,	NEAR _Range_PIDErrSum+02h
00:0082 6E-F4                    8601   	push	xr4
00:0084 01-F0'00-00'             8602   	bl	__faddu8sw
00:0088 04 E1                    8603   	add	sp,	#4 
00:008A 2E-F4                    8604   	pop	xr4
00:008C 13-94 00-00'             8605   	st	er4,	NEAR _Range_PIDErrSum
00:0090 13-96 00-00'             8606   	st	er6,	NEAR _Range_PIDErrSum+02h
                                 8607   
                                 8608   ;;	Range_PIDdErr	/= Range_PIDCurrentCount;
                                 8609   CLINEA 0000H 0001H 0A62H 0002H 0028H
00:0094 6E-F0                    8610   	push	xr0
00:0096 12-94 00-00'             8611   	l	er4,	NEAR _Range_PIDErrPrev
00:009A 12-96 00-00'             8612   	l	er6,	NEAR _Range_PIDErrPrev+02h
00:009E 6E-F4                    8613   	push	xr4
00:00A0 01-F0'00-00'             8614   	bl	__fsubu8sw
00:00A4 04 E1                    8615   	add	sp,	#4 
00:00A6 12-94 00-00'             8616   	l	er4,	NEAR _Range_PIDCurrentCount
00:00AA 12-96 00-00'             8617   	l	er6,	NEAR _Range_PIDCurrentCount+02h
00:00AE 6E-F4                    8618   	push	xr4
00:00B0 01-F0'00-00'             8619   	bl	__fdivu8sw
00:00B4 04 E1                    8620   	add	sp,	#4 
00:00B6 2E-F4                    8621   	pop	xr4
00:00B8 13-94 00-00'             8622   	st	er4,	NEAR _Range_PIDdErr
00:00BC 13-96 00-00'             8623   	st	er6,	NEAR _Range_PIDdErr+02h
                                 8624   
                                 8625   ;;	Range_PIDErrPrev = Range_PIDError;
                                 8626   CLINEA 0000H 0001H 0A63H 0002H 0023H
00:00C0 13-90 00-00'             8627   	st	er0,	NEAR _Range_PIDErrPrev
00:00C4 13-92 00-00'             8628   	st	er2,	NEAR _Range_PIDErrPrev+02h
                                 8629   
                                 8630   ;;	Range_PIDOutput = (Range_PID_kp*Range_PIDError) + (Range_PID_ki*Range_PIDErrSum) + (Range_PID_kd*Range_PIDdErr);
                                 8631   CLINEA 0000H 0001H 0A66H 0002H 0071H
00:00C8 6E-F0                    8632   	push	xr0
00:00CA 12-90 00-00'             8633   	l	er0,	NEAR _Range_PID_kp
00:00CE 12-92 00-00'             8634   	l	er2,	NEAR _Range_PID_kp+02h
00:00D2 6E-F0                    8635   	push	xr0
00:00D4 01-F0'00-00'             8636   	bl	__fmulu8sw
00:00D8 04 E1                    8637   	add	sp,	#4 
00:00DA 2E-F0                    8638   	pop	xr0
00:00DC 12-94 00-00'             8639   	l	er4,	NEAR _Range_PIDErrSum
00:00E0 12-96 00-00'             8640   	l	er6,	NEAR _Range_PIDErrSum+02h
00:00E4 6E-F4                    8641   	push	xr4
00:00E6 12-94 00-00'             8642   	l	er4,	NEAR _Range_PID_ki
00:00EA 12-96 00-00'             8643   	l	er6,	NEAR _Range_PID_ki+02h
00:00EE 6E-F4                    8644   	push	xr4
00:00F0 01-F0'00-00'             8645   	bl	__fmulu8sw
00:00F4 04 E1                    8646   	add	sp,	#4 
00:00F6 2E-F4                    8647   	pop	xr4
00:00F8 6E-F0                    8648   	push	xr0
00:00FA 6E-F4                    8649   	push	xr4
00:00FC 01-F0'00-00'             8650   	bl	__faddu8sw
00:0100 04 E1                    8651   	add	sp,	#4 
00:0102 2E-F0                    8652   	pop	xr0
00:0104 12-94 00-00'             8653   	l	er4,	NEAR _Range_PID_kd
00:0108 12-96 00-00'             8654   	l	er6,	NEAR _Range_PID_kd+02h
00:010C 6E-F4                    8655   	push	xr4
00:010E 12-94 00-00'             8656   	l	er4,	NEAR _Range_PIDdErr
00:0112 12-96 00-00'             8657   	l	er6,	NEAR _Range_PIDdErr+02h
00:0116 6E-F4                    8658   	push	xr4
00:0118 01-F0'00-00'             8659   	bl	__fmulu8sw
00:011C 04 E1                    8660   	add	sp,	#4 
00:011E 2E-F4                    8661   	pop	xr4
00:0120 6E-F0                    8662   	push	xr0
00:0122 6E-F4                    8663   	push	xr4
00:0124 01-F0'00-00'             8664   	bl	__faddu8sw
00:0128 04 E1                    8665   	add	sp,	#4 
00:012A 2E-F0                    8666   	pop	xr0
00:012C 13-90 00-00'             8667   	st	er0,	NEAR _Range_PIDOutput
00:0130 13-92 00-00'             8668   	st	er2,	NEAR _Range_PIDOutput+02h
                                 8669   
                                 8670   ;;	PFRUN = 0;	//Turn OFF PWM
                                 8671   CLINEA 0000H 0001H 0A6AH 0002H 001AH
00:0134 82-A0 73-F9              8672   	rb	0f973h.0
                                 8673   
                                 8674   ;;	PERUN = 0;
                                 8675   CLINEA 0000H 0001H 0A6BH 0002H 000BH
00:0138 82-A0 37-F9              8676   	rb	0f937h.0
                                 8677   
                                 8678   ;;	PDRUN = 0;
                                 8679   CLINEA 0000H 0001H 0A6CH 0002H 000BH
00:013C 82-A0 27-F9              8680   	rb	0f927h.0
                                 8681   
                                 8682   ;;	PCRUN = 0;
                                 8683   CLINEA 0000H 0001H 0A6DH 0002H 000BH
00:0140 82-A0 17-F9              8684   	rb	0f917h.0
                                 8685   
                                 8686   ;;	PWF0D += Range_PIDOutput; 		//Can't be running to change (Only this variable)
                                 8687   CLINEA 0000H 0001H 0A6EH 0002H 004EH
00:0144 12-90 62-F9              8688   	l	er0,	0f962h
00:0148 00 E2                    8689   	mov	er2,	#0 
00:014A 6E-F0                    8690   	push	xr0
00:014C 01-F0'00-00'             8691   	bl	__fuldu8sw
00:0150 12-90 00-00'             8692   	l	er0,	NEAR _Range_PIDOutput
00:0154 12-92 00-00'             8693   	l	er2,	NEAR _Range_PIDOutput+02h
00:0158 6E-F0                    8694   	push	xr0
00:015A 01-F0'00-00'             8695   	bl	__faddu8sw
00:015E 04 E1                    8696   	add	sp,	#4 
00:0160 01-F0'00-00'             8697   	bl	__ftolu8sw
00:0164 1E-F0                    8698   	pop	er0
00:0166 02 E1                    8699   	add	sp,	#2 
00:0168 13-90 62-F9              8700   	st	er0,	0f962h
                                 8701   
                                 8702   ;;	PWED += Range_PIDOutput;	
                                 8703   CLINEA 0000H 0001H 0A6FH 0002H 001AH
00:016C 12-90 32-F9              8704   	l	er0,	0f932h
00:0170 00 E2                    8705   	mov	er2,	#0 
00:0172 6E-F0                    8706   	push	xr0
00:0174 01-F0'00-00'             8707   	bl	__fuldu8sw
00:0178 12-90 00-00'             8708   	l	er0,	NEAR _Range_PIDOutput
00:017C 12-92 00-00'             8709   	l	er2,	NEAR _Range_PIDOutput+02h
00:0180 6E-F0                    8710   	push	xr0
00:0182 01-F0'00-00'             8711   	bl	__faddu8sw
00:0186 04 E1                    8712   	add	sp,	#4 
00:0188 01-F0'00-00'             8713   	bl	__ftolu8sw
00:018C 1E-F0                    8714   	pop	er0
00:018E 02 E1                    8715   	add	sp,	#2 
00:0190 13-90 32-F9              8716   	st	er0,	0f932h
                                 8717   
                                 8718   ;;	PWDD += Range_PIDOutput;	
                                 8719   CLINEA 0000H 0001H 0A70H 0002H 001AH
00:0194 12-90 22-F9              8720   	l	er0,	0f922h
00:0198 00 E2                    8721   	mov	er2,	#0 
00:019A 6E-F0                    8722   	push	xr0
00:019C 01-F0'00-00'             8723   	bl	__fuldu8sw
00:01A0 12-90 00-00'             8724   	l	er0,	NEAR _Range_PIDOutput
00:01A4 12-92 00-00'             8725   	l	er2,	NEAR _Range_PIDOutput+02h
00:01A8 6E-F0                    8726   	push	xr0
00:01AA 01-F0'00-00'             8727   	bl	__faddu8sw
00:01AE 04 E1                    8728   	add	sp,	#4 
00:01B0 01-F0'00-00'             8729   	bl	__ftolu8sw
00:01B4 1E-F0                    8730   	pop	er0
00:01B6 02 E1                    8731   	add	sp,	#2 
00:01B8 13-90 22-F9              8732   	st	er0,	0f922h
                                 8733   
                                 8734   ;;	PWCD += Range_PIDOutput;
                                 8735   CLINEA 0000H 0001H 0A71H 0002H 0019H
00:01BC 12-90 12-F9              8736   	l	er0,	0f912h
00:01C0 00 E2                    8737   	mov	er2,	#0 
00:01C2 6E-F0                    8738   	push	xr0
00:01C4 01-F0'00-00'             8739   	bl	__fuldu8sw
00:01C8 12-90 00-00'             8740   	l	er0,	NEAR _Range_PIDOutput
00:01CC 12-92 00-00'             8741   	l	er2,	NEAR _Range_PIDOutput+02h
00:01D0 6E-F0                    8742   	push	xr0
00:01D2 01-F0'00-00'             8743   	bl	__faddu8sw
00:01D6 04 E1                    8744   	add	sp,	#4 
00:01D8 01-F0'00-00'             8745   	bl	__ftolu8sw
00:01DC 1E-F0                    8746   	pop	er0
00:01DE 02 E1                    8747   	add	sp,	#2 
00:01E0 13-90 12-F9              8748   	st	er0,	0f912h
                                 8749   
                                 8750   ;;	CheckSafetyLimit();
                                 8751   CLINEA 0000H 0001H 0A72H 0002H 0014H
00:01E4 01-F0'00-00'             8752   	bl	_CheckSafetyLimit
                                 8753   
                                 8754   ;;	PFRUN = 1;	//Turn ON PWM
                                 8755   CLINEA 0000H 0001H 0A73H 0002H 0019H
00:01E8 80-A0 73-F9              8756   	sb	0f973h.0
                                 8757   
                                 8758   ;;	PERUN = 1;
                                 8759   CLINEA 0000H 0001H 0A74H 0002H 000BH
00:01EC 80-A0 37-F9              8760   	sb	0f937h.0
                                 8761   
                                 8762   ;;	PDRUN = 1;
                                 8763   CLINEA 0000H 0001H 0A75H 0002H 000BH
00:01F0 80-A0 27-F9              8764   	sb	0f927h.0
                                 8765   
                                 8766   ;;	PCRUN = 1;
                                 8767   CLINEA 0000H 0001H 0A76H 0002H 000BH
00:01F4 80-A0 17-F9              8768   	sb	0f917h.0
                                 8769   
                                 8770   ;;	for(i = 0; i<150; i++)
                                 8771   CLINEA 0000H 0001H 0A78H 0002H 0017H
00:01F8 00 E0                    8772   	mov	er0,	#0 
00:01FA                          8773   _$L536 :
                                 8774   CBLOCK 241 3 2681
                                 8775   
                                 8776   ;;		SensorReturn[i] = 0x20;
                                 8777   CLINEA 0000H 0001H 0A7AH 0003H 0019H
00:01FA 20 02                    8778   	mov	r2,	#020h
00:01FC 09-92 00-00'             8779   	st	r2,	NEAR _SensorReturn[er0]
                                 8780   CBLOCKEND 241 3 2683
                                 8781   
                                 8782   ;;	for(i = 0; i<150; i++)
                                 8783   CLINEA 0000H 0000H 0A78H 0002H 0017H
00:0200 81 E0                    8784   	add	er0,	#1 
                                 8785   
                                 8786   ;;	for(i = 0; i<150; i++)
                                 8787   CLINEA 0000H 0000H 0A78H 000EH 0013H
00:0202 96 70                    8788   	cmp	r0,	#096h
00:0204 00 51                    8789   	cmpc	r1,	#00h
00:0206 F9 C5                    8790   	blts	_$L536
                                 8791   
                                 8792   ;;	sprintf(SensorReturn, "%f,%f,%f", Range_out, Range_PIDCurrentCount,Range_PIDOutput);
                                 8793   CLINEA 0000H 0001H 0A7EH 0002H 0055H
00:0208 12-90 00-00'             8794   	l	er0,	NEAR _Range_PIDOutput
00:020C 12-92 00-00'             8795   	l	er2,	NEAR _Range_PIDOutput+02h
00:0210 6E-F0                    8796   	push	xr0
00:0212 FC E1                    8797   	add	sp,	#-4
00:0214 01-F0'00-00'             8798   	bl	__ftodu8sw
00:0218 12-90 00-00'             8799   	l	er0,	NEAR _Range_PIDCurrentCount
00:021C 12-92 00-00'             8800   	l	er2,	NEAR _Range_PIDCurrentCount+02h
00:0220 6E-F0                    8801   	push	xr0
00:0222 FC E1                    8802   	add	sp,	#-4
00:0224 01-F0'00-00'             8803   	bl	__ftodu8sw
00:0228 12-90 00-00'             8804   	l	er0,	NEAR _Range_out
00:022C 5E-F0                    8805   	push	er0
00:022E 00'00                    8806   	mov	r0,	#BYTE1 OFFSET $$S202
00:0230 00'01                    8807   	mov	r1,	#BYTE2 OFFSET $$S202
00:0232 5E-F0                    8808   	push	er0
00:0234 00'00                    8809   	mov	r0,	#BYTE1 OFFSET _SensorReturn
00:0236 00'01                    8810   	mov	r1,	#BYTE2 OFFSET _SensorReturn
00:0238 5E-F0                    8811   	push	er0
00:023A 01-F0'00-00'             8812   	bl	_sprintf_nn
00:023E 16 E1                    8813   	add	sp,	#22
                                 8814   
                                 8815   ;;	SensorReturn[148] = 0x0D;
                                 8816   CLINEA 0000H 0001H 0A80H 0002H 001AH
00:0240 0D 00                    8817   	mov	r0,	#0dh
00:0242 11-90 00-00'             8818   	st	r0,	NEAR _SensorReturn+094h
                                 8819   
                                 8820   ;;	SensorReturn[149] = 0x0A;
                                 8821   CLINEA 0000H 0001H 0A81H 0002H 001AH
00:0246 0A 00                    8822   	mov	r0,	#0ah
00:0248 11-90 00-00'             8823   	st	r0,	NEAR _SensorReturn+095h
                                 8824   
                                 8825   ;;	_flgUartFin = 0;
                                 8826   CLINEA 0000H 0001H 0A84H 0002H 0011H
00:024C 00 00                    8827   	mov	r0,	#00h
00:024E 11-90 00-00'             8828   	st	r0,	NEAR __flgUartFin
                                 8829   
                                 8830   ;;	uart_stop();
                                 8831   CLINEA 0000H 0001H 0A85H 0002H 000DH
00:0252 01-F0'00-00'             8832   	bl	_uart_stop
                                 8833   
                                 8834   ;;	uart_startSend(SensorReturn, 150, _funcUartFin);
                                 8835   CLINEA 0000H 0001H 0A86H 0002H 0031H
00:0256 00'00                    8836   	mov	r0,	#BYTE1 OFFSET __funcUartFin
00:0258 00'01                    8837   	mov	r1,	#BYTE2 OFFSET __funcUartFin
00:025A 5E-F0                    8838   	push	er0
00:025C 96 02                    8839   	mov	r2,	#096h
00:025E 00 03                    8840   	mov	r3,	#00h
00:0260 00'00                    8841   	mov	r0,	#BYTE1 OFFSET _SensorReturn
00:0262 00'01                    8842   	mov	r1,	#BYTE2 OFFSET _SensorReturn
00:0264 01-F0'00-00'             8843   	bl	_uart_startSend
00:0268 02 E1                    8844   	add	sp,	#2 
                                 8845   
                                 8846   ;;	while(_flgUartFin != 1){
                                 8847   CLINEA 0000H 0000H 0A87H 0001H 0001H
00:026A 02 CE                    8848   	bal	_$L544
                                 8849   
                                 8850   ;;	while(_flgUartFin != 1){
                                 8851   CLINEA 0000H 0000H 0A87H 0002H 0019H
00:026C                          8852   _$L542 :
                                 8853   CBLOCK 241 4 2695
                                 8854   
                                 8855   ;;		main_clrWDT();
                                 8856   CLINEA 0000H 0001H 0A88H 0003H 0010H
00:026C 01-F0'00-00'             8857   	bl	_main_clrWDT
                                 8858   CBLOCKEND 241 4 2697
                                 8859   
                                 8860   ;;	while(_flgUartFin != 1){
                                 8861   CLINEA 0000H 0000H 0A87H 0001H 0001H
00:0270                          8862   _$L544 :
                                 8863   
                                 8864   ;;	while(_flgUartFin != 1){
                                 8865   CLINEA 0000H 0000H 0A87H 000EH 0013H
00:0270 10-90 00-00'             8866   	l	r0,	NEAR __flgUartFin
00:0274 01 70                    8867   	cmp	r0,	#01h
00:0276 FA C8                    8868   	bne	_$L542
                                 8869   CBLOCKEND 241 2 2699
                                 8870   
                                 8871   ;;}
                                 8872   CLINEA 0000H 0001H 0A8BH 0001H 0001H
00:0278 2E-F4                    8873   	pop	xr4
00:027A 2E-F8                    8874   	pop	xr8
00:027C 8E-F2                    8875   	pop	pc
                                 8876   CBLOCKEND 241 1 2699
                                 8877   CFUNCTIONEND 241
                                 8878   
                                 8879   
  --------------------------     8880   	rseg $$CheckSafetyLimit$main
                                 8881   CFUNCTION 242
                                 8882   
00:0000                          8883   _CheckSafetyLimit	:
                                 8884   CBLOCK 242 1 2701
                                 8885   
                                 8886   ;;void CheckSafetyLimit(void){	
                                 8887   CLINEA 0000H 0001H 0A8DH 0001H 001DH
                                 8888   CBLOCK 242 2 2701
                                 8889   
                                 8890   ;;	if(PWED > PWMUpperDutyLimitRun){
                                 8891   CLINEA 0000H 0001H 0A8FH 0002H 0021H
00:0000 12-90 32-F9              8892   	l	er0,	0f932h
00:0004 12-92 00-00'             8893   	l	er2,	NEAR _PWMUpperDutyLimitRun
00:0008 27-F0                    8894   	cmp	er0,	er2
00:000A 02 C3                    8895   	ble	_$L546
                                 8896   CBLOCK 242 3 2703
                                 8897   
                                 8898   ;;		PWED = PWMUpperDutyLimitRun;
                                 8899   CLINEA 0000H 0001H 0A90H 0003H 001EH
00:000C 13-92 32-F9              8900   	st	er2,	0f932h
                                 8901   CBLOCKEND 242 3 2705
                                 8902   
                                 8903   ;;	}
                                 8904   CLINEA 0000H 0000H 0A91H 0002H 0002H
00:0010                          8905   _$L546 :
                                 8906   
                                 8907   ;;	if(PWED < PWMLowerDutyLimitRun){
                                 8908   CLINEA 0000H 0001H 0A92H 0002H 0021H
00:0010 12-90 32-F9              8909   	l	er0,	0f932h
00:0014 12-92 00-00'             8910   	l	er2,	NEAR _PWMLowerDutyLimitRun
00:0018 27-F0                    8911   	cmp	er0,	er2
00:001A 02 C0                    8912   	bge	_$L548
                                 8913   CBLOCK 242 4 2706
                                 8914   
                                 8915   ;;		PWED = PWMLowerDutyLimitRun;
                                 8916   CLINEA 0000H 0001H 0A93H 0003H 001EH
00:001C 13-92 32-F9              8917   	st	er2,	0f932h
                                 8918   CBLOCKEND 242 4 2708
                                 8919   
                                 8920   ;;	}
                                 8921   CLINEA 0000H 0000H 0A94H 0002H 0002H
00:0020                          8922   _$L548 :
                                 8923   
                                 8924   ;;	if(PWF0D > PWMUpperDutyLimitRun){
                                 8925   CLINEA 0000H 0001H 0A95H 0002H 0022H
00:0020 12-90 62-F9              8926   	l	er0,	0f962h
00:0024 12-92 00-00'             8927   	l	er2,	NEAR _PWMUpperDutyLimitRun
00:0028 27-F0                    8928   	cmp	er0,	er2
00:002A 02 C3                    8929   	ble	_$L550
                                 8930   CBLOCK 242 5 2709
                                 8931   
                                 8932   ;;		PWF0D = PWMUpperDutyLimitRun;
                                 8933   CLINEA 0000H 0001H 0A96H 0003H 001FH
00:002C 13-92 62-F9              8934   	st	er2,	0f962h
                                 8935   CBLOCKEND 242 5 2711
                                 8936   
                                 8937   ;;	}
                                 8938   CLINEA 0000H 0000H 0A97H 0002H 0002H
00:0030                          8939   _$L550 :
                                 8940   
                                 8941   ;;	if(PWF0D < PWMLowerDutyLimitRun){
                                 8942   CLINEA 0000H 0001H 0A98H 0002H 0022H
00:0030 12-90 62-F9              8943   	l	er0,	0f962h
00:0034 12-92 00-00'             8944   	l	er2,	NEAR _PWMLowerDutyLimitRun
00:0038 27-F0                    8945   	cmp	er0,	er2
00:003A 02 C0                    8946   	bge	_$L552
                                 8947   CBLOCK 242 6 2712
                                 8948   
                                 8949   ;;		PWF0D = PWMLowerDutyLimitRun;
                                 8950   CLINEA 0000H 0001H 0A99H 0003H 001FH
00:003C 13-92 62-F9              8951   	st	er2,	0f962h
                                 8952   CBLOCKEND 242 6 2714
                                 8953   
                                 8954   ;;	}
                                 8955   CLINEA 0000H 0000H 0A9AH 0002H 0002H
00:0040                          8956   _$L552 :
                                 8957   
                                 8958   ;;	if(PWDD > PWMUpperDutyLimitRun){
                                 8959   CLINEA 0000H 0001H 0A9BH 0002H 0021H
00:0040 12-90 22-F9              8960   	l	er0,	0f922h
00:0044 12-92 00-00'             8961   	l	er2,	NEAR _PWMUpperDutyLimitRun
00:0048 27-F0                    8962   	cmp	er0,	er2
00:004A 02 C3                    8963   	ble	_$L554
                                 8964   CBLOCK 242 7 2715
                                 8965   
                                 8966   ;;		PWDD = PWMUpperDutyLimitRun;
                                 8967   CLINEA 0000H 0001H 0A9CH 0003H 001EH
00:004C 13-92 22-F9              8968   	st	er2,	0f922h
                                 8969   CBLOCKEND 242 7 2717
                                 8970   
                                 8971   ;;	}
                                 8972   CLINEA 0000H 0000H 0A9DH 0002H 0002H
00:0050                          8973   _$L554 :
                                 8974   
                                 8975   ;;	if(PWDD < PWMLowerDutyLimitRun){
                                 8976   CLINEA 0000H 0001H 0A9EH 0002H 0021H
00:0050 12-90 22-F9              8977   	l	er0,	0f922h
00:0054 12-92 00-00'             8978   	l	er2,	NEAR _PWMLowerDutyLimitRun
00:0058 27-F0                    8979   	cmp	er0,	er2
00:005A 02 C0                    8980   	bge	_$L556
                                 8981   CBLOCK 242 8 2718
                                 8982   
                                 8983   ;;		PWDD = PWMLowerDutyLimitRun;
                                 8984   CLINEA 0000H 0001H 0A9FH 0003H 001EH
00:005C 13-92 22-F9              8985   	st	er2,	0f922h
                                 8986   CBLOCKEND 242 8 2720
                                 8987   
                                 8988   ;;	}
                                 8989   CLINEA 0000H 0000H 0AA0H 0002H 0002H
00:0060                          8990   _$L556 :
                                 8991   
                                 8992   ;;	if(PWCD > PWMUpperDutyLimitRun){
                                 8993   CLINEA 0000H 0001H 0AA1H 0002H 0021H
00:0060 12-90 12-F9              8994   	l	er0,	0f912h
00:0064 12-92 00-00'             8995   	l	er2,	NEAR _PWMUpperDutyLimitRun
00:0068 27-F0                    8996   	cmp	er0,	er2
00:006A 02 C3                    8997   	ble	_$L558
                                 8998   CBLOCK 242 9 2721
                                 8999   
                                 9000   ;;		PWCD = PWMUpperDutyLimitRun;
                                 9001   CLINEA 0000H 0001H 0AA2H 0003H 001EH
00:006C 13-92 12-F9              9002   	st	er2,	0f912h
                                 9003   CBLOCKEND 242 9 2723
                                 9004   
                                 9005   ;;	}
                                 9006   CLINEA 0000H 0000H 0AA3H 0002H 0002H
00:0070                          9007   _$L558 :
                                 9008   
                                 9009   ;;	if(PWCD < PWMLowerDutyLimitRun){
                                 9010   CLINEA 0000H 0001H 0AA4H 0002H 0021H
00:0070 12-90 12-F9              9011   	l	er0,	0f912h
00:0074 12-92 00-00'             9012   	l	er2,	NEAR _PWMLowerDutyLimitRun
00:0078 27-F0                    9013   	cmp	er0,	er2
00:007A 02 C0                    9014   	bge	_$L560
                                 9015   CBLOCK 242 10 2724
                                 9016   
                                 9017   ;;		PWCD = PWMLowerDutyLimitRun;
                                 9018   CLINEA 0000H 0001H 0AA5H 0003H 001EH
00:007C 13-92 12-F9              9019   	st	er2,	0f912h
                                 9020   CBLOCKEND 242 10 2726
                                 9021   
                                 9022   ;;	}
                                 9023   CLINEA 0000H 0000H 0AA6H 0002H 0002H
00:0080                          9024   _$L560 :
                                 9025   CBLOCKEND 242 2 2727
                                 9026   
                                 9027   ;;}
                                 9028   CLINEA 0000H 0001H 0AA7H 0001H 0001H
00:0080 1F-FE                    9029   	rt
                                 9030   CBLOCKEND 242 1 2727
                                 9031   CFUNCTIONEND 242
                                 9032   
                                 9033   
  --------------------------     9034   	rseg $$CheckSafetyLimitUnscaled$main
                                 9035   CFUNCTION 243
                                 9036   
00:0000                          9037   _CheckSafetyLimitUnscaled	:
                                 9038   CBLOCK 243 1 2729
                                 9039   
                                 9040   ;;void CheckSafetyLimitUnscaled(void){	
                                 9041   CLINEA 0000H 0001H 0AA9H 0001H 0025H
                                 9042   CBLOCK 243 2 2729
                                 9043   
                                 9044   ;;	if(Accel_PID_Motor1 > (49151)){
                                 9045   CLINEA 0000H 0001H 0AABH 0002H 0020H
00:0000 12-90 00-00'             9046   	l	er0,	NEAR _Accel_PID_Motor1
00:0004 00 E2                    9047   	mov	er2,	#0 
00:0006 FF 70                    9048   	cmp	r0,	#0ffh
00:0008 BF 51                    9049   	cmpc	r1,	#0bfh
00:000A 00 52                    9050   	cmpc	r2,	#00h
00:000C 00 53                    9051   	cmpc	r3,	#00h
00:000E 04 C7                    9052   	bles	_$L563
                                 9053   CBLOCK 243 3 2731
                                 9054   
                                 9055   ;;		Accel_PID_Motor1 = 49151;
                                 9056   CLINEA 0000H 0001H 0AACH 0003H 001BH
00:0010 FF 00                    9057   	mov	r0,	#0ffh
00:0012 BF 01                    9058   	mov	r1,	#0bfh
00:0014 13-90 00-00'             9059   	st	er0,	NEAR _Accel_PID_Motor1
                                 9060   CBLOCKEND 243 3 2733
                                 9061   
                                 9062   ;;	}
                                 9063   CLINEA 0000H 0000H 0AADH 0002H 0002H
00:0018                          9064   _$L563 :
                                 9065   
                                 9066   ;;	if(Accel_PID_Motor1 < 16383){
                                 9067   CLINEA 0000H 0001H 0AAEH 0002H 001EH
00:0018 12-90 00-00'             9068   	l	er0,	NEAR _Accel_PID_Motor1
00:001C FF 70                    9069   	cmp	r0,	#0ffh
00:001E 3F 51                    9070   	cmpc	r1,	#03fh
00:0020 04 C0                    9071   	bge	_$L565
                                 9072   CBLOCK 243 4 2734
                                 9073   
                                 9074   ;;		Accel_PID_Motor1 = 16383;
                                 9075   CLINEA 0000H 0001H 0AAFH 0003H 001BH
00:0022 FF 00                    9076   	mov	r0,	#0ffh
00:0024 3F 01                    9077   	mov	r1,	#03fh
00:0026 13-90 00-00'             9078   	st	er0,	NEAR _Accel_PID_Motor1
                                 9079   CBLOCKEND 243 4 2736
                                 9080   
                                 9081   ;;	}
                                 9082   CLINEA 0000H 0000H 0AB0H 0002H 0002H
00:002A                          9083   _$L565 :
                                 9084   
                                 9085   ;;	if(Accel_PID_Motor2 > (49151)){
                                 9086   CLINEA 0000H 0001H 0AB1H 0002H 0020H
00:002A 12-90 00-00'             9087   	l	er0,	NEAR _Accel_PID_Motor2
00:002E 00 E2                    9088   	mov	er2,	#0 
00:0030 FF 70                    9089   	cmp	r0,	#0ffh
00:0032 BF 51                    9090   	cmpc	r1,	#0bfh
00:0034 00 52                    9091   	cmpc	r2,	#00h
00:0036 00 53                    9092   	cmpc	r3,	#00h
00:0038 04 C7                    9093   	bles	_$L567
                                 9094   CBLOCK 243 5 2737
                                 9095   
                                 9096   ;;		Accel_PID_Motor2 = 49151;
                                 9097   CLINEA 0000H 0001H 0AB2H 0003H 001BH
00:003A FF 00                    9098   	mov	r0,	#0ffh
00:003C BF 01                    9099   	mov	r1,	#0bfh
00:003E 13-90 00-00'             9100   	st	er0,	NEAR _Accel_PID_Motor2
                                 9101   CBLOCKEND 243 5 2739
                                 9102   
                                 9103   ;;	}
                                 9104   CLINEA 0000H 0000H 0AB3H 0002H 0002H
00:0042                          9105   _$L567 :
                                 9106   
                                 9107   ;;	if(Accel_PID_Motor2 < (16383)){
                                 9108   CLINEA 0000H 0001H 0AB4H 0002H 0020H
00:0042 12-90 00-00'             9109   	l	er0,	NEAR _Accel_PID_Motor2
00:0046 FF 70                    9110   	cmp	r0,	#0ffh
00:0048 3F 51                    9111   	cmpc	r1,	#03fh
00:004A 04 C0                    9112   	bge	_$L569
                                 9113   CBLOCK 243 6 2740
                                 9114   
                                 9115   ;;		Accel_PID_Motor2 = 16383;
                                 9116   CLINEA 0000H 0001H 0AB5H 0003H 001BH
00:004C FF 00                    9117   	mov	r0,	#0ffh
00:004E 3F 01                    9118   	mov	r1,	#03fh
00:0050 13-90 00-00'             9119   	st	er0,	NEAR _Accel_PID_Motor2
                                 9120   CBLOCKEND 243 6 2742
                                 9121   
                                 9122   ;;	}
                                 9123   CLINEA 0000H 0000H 0AB6H 0002H 0002H
00:0054                          9124   _$L569 :
                                 9125   
                                 9126   ;;	if(Accel_PID_Motor3 > (49151)){
                                 9127   CLINEA 0000H 0001H 0AB7H 0002H 0020H
00:0054 12-90 00-00'             9128   	l	er0,	NEAR _Accel_PID_Motor3
00:0058 00 E2                    9129   	mov	er2,	#0 
00:005A FF 70                    9130   	cmp	r0,	#0ffh
00:005C BF 51                    9131   	cmpc	r1,	#0bfh
00:005E 00 52                    9132   	cmpc	r2,	#00h
00:0060 00 53                    9133   	cmpc	r3,	#00h
00:0062 04 C7                    9134   	bles	_$L571
                                 9135   CBLOCK 243 7 2743
                                 9136   
                                 9137   ;;		Accel_PID_Motor3 = 49151;
                                 9138   CLINEA 0000H 0001H 0AB8H 0003H 001BH
00:0064 FF 00                    9139   	mov	r0,	#0ffh
00:0066 BF 01                    9140   	mov	r1,	#0bfh
00:0068 13-90 00-00'             9141   	st	er0,	NEAR _Accel_PID_Motor3
                                 9142   CBLOCKEND 243 7 2745
                                 9143   
                                 9144   ;;	}
                                 9145   CLINEA 0000H 0000H 0AB9H 0002H 0002H
00:006C                          9146   _$L571 :
                                 9147   
                                 9148   ;;	if(Accel_PID_Motor3 < (16383)){
                                 9149   CLINEA 0000H 0001H 0ABAH 0002H 0020H
00:006C 12-90 00-00'             9150   	l	er0,	NEAR _Accel_PID_Motor3
00:0070 FF 70                    9151   	cmp	r0,	#0ffh
00:0072 3F 51                    9152   	cmpc	r1,	#03fh
00:0074 04 C0                    9153   	bge	_$L573
                                 9154   CBLOCK 243 8 2746
                                 9155   
                                 9156   ;;		Accel_PID_Motor3 = 16383;
                                 9157   CLINEA 0000H 0001H 0ABBH 0003H 001BH
00:0076 FF 00                    9158   	mov	r0,	#0ffh
00:0078 3F 01                    9159   	mov	r1,	#03fh
00:007A 13-90 00-00'             9160   	st	er0,	NEAR _Accel_PID_Motor3
                                 9161   CBLOCKEND 243 8 2748
                                 9162   
                                 9163   ;;	}
                                 9164   CLINEA 0000H 0000H 0ABCH 0002H 0002H
00:007E                          9165   _$L573 :
                                 9166   
                                 9167   ;;	if(Accel_PID_Motor4 > (49151)){
                                 9168   CLINEA 0000H 0001H 0ABDH 0002H 0020H
00:007E 12-90 00-00'             9169   	l	er0,	NEAR _Accel_PID_Motor4
00:0082 00 E2                    9170   	mov	er2,	#0 
00:0084 FF 70                    9171   	cmp	r0,	#0ffh
00:0086 BF 51                    9172   	cmpc	r1,	#0bfh
00:0088 00 52                    9173   	cmpc	r2,	#00h
00:008A 00 53                    9174   	cmpc	r3,	#00h
00:008C 04 C7                    9175   	bles	_$L575
                                 9176   CBLOCK 243 9 2749
                                 9177   
                                 9178   ;;		Accel_PID_Motor4 = 49151;
                                 9179   CLINEA 0000H 0001H 0ABEH 0003H 001BH
00:008E FF 00                    9180   	mov	r0,	#0ffh
00:0090 BF 01                    9181   	mov	r1,	#0bfh
00:0092 13-90 00-00'             9182   	st	er0,	NEAR _Accel_PID_Motor4
                                 9183   CBLOCKEND 243 9 2751
                                 9184   
                                 9185   ;;	}
                                 9186   CLINEA 0000H 0000H 0ABFH 0002H 0002H
00:0096                          9187   _$L575 :
                                 9188   
                                 9189   ;;	if(Accel_PID_Motor4 < (16383)){
                                 9190   CLINEA 0000H 0001H 0AC0H 0002H 0020H
00:0096 12-90 00-00'             9191   	l	er0,	NEAR _Accel_PID_Motor4
00:009A FF 70                    9192   	cmp	r0,	#0ffh
00:009C 3F 51                    9193   	cmpc	r1,	#03fh
00:009E 04 C0                    9194   	bge	_$L577
                                 9195   CBLOCK 243 10 2752
                                 9196   
                                 9197   ;;		Accel_PID_Motor4 = 16383;
                                 9198   CLINEA 0000H 0001H 0AC1H 0003H 001BH
00:00A0 FF 00                    9199   	mov	r0,	#0ffh
00:00A2 3F 01                    9200   	mov	r1,	#03fh
00:00A4 13-90 00-00'             9201   	st	er0,	NEAR _Accel_PID_Motor4
                                 9202   CBLOCKEND 243 10 2754
                                 9203   
                                 9204   ;;	}
                                 9205   CLINEA 0000H 0000H 0AC2H 0002H 0002H
00:00A8                          9206   _$L577 :
                                 9207   CBLOCKEND 243 2 2755
                                 9208   
                                 9209   ;;}
                                 9210   CLINEA 0000H 0001H 0AC3H 0001H 0001H
00:00A8 1F-FE                    9211   	rt
                                 9212   CBLOCKEND 243 1 2755
                                 9213   CFUNCTIONEND 243
                                 9214   
                                 9215   
  --------------------------     9216   	rseg $$Shutdown$main
                                 9217   CFUNCTION 244
                                 9218   
00:0000                          9219   _Shutdown	:
                                 9220   CBLOCK 244 1 2757
                                 9221   
                                 9222   ;;void Shutdown(void){
                                 9223   CLINEA 0000H 0001H 0AC5H 0001H 0014H
00:0000 CE-F8                    9224   	push	lr
                                 9225   CBLOCK 244 2 2757
                                 9226   CRET 0000H
                                 9227   
                                 9228   ;;	if((PWED > PWMSafeDuty)||(PWF0D > PWMSafeDuty)||(PWDD > PWMSafeDuty)||(PWCD > PWMSafeDuty)){
                                 9229   CLINEA 0000H 0001H 0AC6H 0002H 005DH
00:0002 12-90 32-F9              9230   	l	er0,	0f932h
00:0006 12-92 00-00'             9231   	l	er2,	NEAR _PWMSafeDuty
00:000A 27-F0                    9232   	cmp	er0,	er2
00:000C 0E C2                    9233   	bgt	_$L581
00:000E 12-90 62-F9              9234   	l	er0,	0f962h
00:0012 27-F0                    9235   	cmp	er0,	er2
00:0014 0A C2                    9236   	bgt	_$L581
00:0016 12-90 22-F9              9237   	l	er0,	0f922h
00:001A 27-F0                    9238   	cmp	er0,	er2
00:001C 06 C2                    9239   	bgt	_$L581
00:001E 12-90 12-F9              9240   	l	er0,	0f912h
00:0022 27-F0                    9241   	cmp	er0,	er2
00:0024 02 C2                    9242   	bgt	_$M46
00:0026 00-F0'00-00'             9243   	b	_$L594
00:002A                          9244   _$M46 :
00:002A                          9245   _$L581 :
                                 9246   CBLOCK 244 3 2758
                                 9247   CBLOCK 244 4 2759
                                 9248   
                                 9249   ;;			main_clrWDT();					
                                 9250   CLINEA 0000H 0001H 0AC8H 0004H 0016H
00:002A 01-F0'00-00'             9251   	bl	_main_clrWDT
                                 9252   
                                 9253   ;;			PFRUN = 0;	//Turn OFF PWM
                                 9254   CLINEA 0000H 0001H 0AC9H 0004H 001CH
00:002E 82-A0 73-F9              9255   	rb	0f973h.0
                                 9256   
                                 9257   ;;			PERUN = 0;
                                 9258   CLINEA 0000H 0001H 0ACAH 0004H 000DH
00:0032 82-A0 37-F9              9259   	rb	0f937h.0
                                 9260   
                                 9261   ;;			PDRUN = 0;
                                 9262   CLINEA 0000H 0001H 0ACBH 0004H 000DH
00:0036 82-A0 27-F9              9263   	rb	0f927h.0
                                 9264   
                                 9265   ;;			PCRUN = 0;
                                 9266   CLINEA 0000H 0001H 0ACCH 0004H 000DH
00:003A 82-A0 17-F9              9267   	rb	0f917h.0
                                 9268   
                                 9269   ;;			PWF0D -= 10; //Can't be running to change (Only this variable)
                                 9270   CLINEA 0000H 0001H 0ACDH 0004H 0041H
00:003E 12-90 62-F9              9271   	l	er0,	0f962h
00:0042 F6 E0                    9272   	add	er0,	#-10
00:0044 13-90 62-F9              9273   	st	er0,	0f962h
                                 9274   
                                 9275   ;;			PWED -= 10;
                                 9276   CLINEA 0000H 0001H 0ACEH 0004H 000EH
00:0048 12-90 32-F9              9277   	l	er0,	0f932h
00:004C F6 E0                    9278   	add	er0,	#-10
00:004E 13-90 32-F9              9279   	st	er0,	0f932h
                                 9280   
                                 9281   ;;			PWDD -= 10;
                                 9282   CLINEA 0000H 0001H 0ACFH 0004H 000EH
00:0052 12-90 22-F9              9283   	l	er0,	0f922h
00:0056 F6 E0                    9284   	add	er0,	#-10
00:0058 13-90 22-F9              9285   	st	er0,	0f922h
                                 9286   
                                 9287   ;;			PWCD -= 10;
                                 9288   CLINEA 0000H 0001H 0AD0H 0004H 000EH
00:005C 12-90 12-F9              9289   	l	er0,	0f912h
00:0060 F6 E0                    9290   	add	er0,	#-10
00:0062 13-90 12-F9              9291   	st	er0,	0f912h
                                 9292   
                                 9293   ;;			PFRUN = 1;	//Turn ON PWM
                                 9294   CLINEA 0000H 0001H 0AD1H 0004H 001BH
00:0066 80-A0 73-F9              9295   	sb	0f973h.0
                                 9296   
                                 9297   ;;			PERUN = 1;
                                 9298   CLINEA 0000H 0001H 0AD2H 0004H 000DH
00:006A 80-A0 37-F9              9299   	sb	0f937h.0
                                 9300   
                                 9301   ;;			PDRUN = 1;
                                 9302   CLINEA 0000H 0001H 0AD3H 0004H 000DH
00:006E 80-A0 27-F9              9303   	sb	0f927h.0
                                 9304   
                                 9305   ;;			PCRUN = 1;
                                 9306   CLINEA 0000H 0001H 0AD4H 0004H 000DH
00:0072 80-A0 17-F9              9307   	sb	0f917h.0
                                 9308   
                                 9309   ;;			NOPms(100);
                                 9310   CLINEA 0000H 0001H 0AD5H 0004H 000EH
00:0076 64 00                    9311   	mov	r0,	#064h
00:0078 00 01                    9312   	mov	r1,	#00h
00:007A 01-F0'00-00'             9313   	bl	_NOPms
                                 9314   
                                 9315   ;;			if(PWED <= PWMSafeDuty){
                                 9316   CLINEA 0000H 0001H 0AD7H 0004H 001BH
00:007E 12-90 32-F9              9317   	l	er0,	0f932h
00:0082 12-92 00-00'             9318   	l	er2,	NEAR _PWMSafeDuty
00:0086 27-F0                    9319   	cmp	er0,	er2
00:0088 02 C2                    9320   	bgt	_$L597
                                 9321   CBLOCK 244 5 2775
                                 9322   
                                 9323   ;;				PWED = PWMSafeDuty;
                                 9324   CLINEA 0000H 0001H 0AD8H 0005H 0017H
00:008A 13-92 32-F9              9325   	st	er2,	0f932h
                                 9326   CBLOCKEND 244 5 2777
                                 9327   
                                 9328   ;;			}
                                 9329   CLINEA 0000H 0000H 0AD9H 0004H 0004H
00:008E                          9330   _$L597 :
                                 9331   
                                 9332   ;;			if(PWF0D <= PWMSafeDuty){
                                 9333   CLINEA 0000H 0001H 0ADAH 0004H 001CH
00:008E 12-90 62-F9              9334   	l	er0,	0f962h
00:0092 27-F0                    9335   	cmp	er0,	er2
00:0094 02 C2                    9336   	bgt	_$L599
                                 9337   CBLOCK 244 6 2778
                                 9338   
                                 9339   ;;				PWF0D = PWMSafeDuty;
                                 9340   CLINEA 0000H 0001H 0ADBH 0005H 0018H
00:0096 13-92 62-F9              9341   	st	er2,	0f962h
                                 9342   CBLOCKEND 244 6 2780
                                 9343   
                                 9344   ;;			}
                                 9345   CLINEA 0000H 0000H 0ADCH 0004H 0004H
00:009A                          9346   _$L599 :
                                 9347   
                                 9348   ;;			if(PWDD <= PWMSafeDuty){
                                 9349   CLINEA 0000H 0001H 0ADDH 0004H 001BH
00:009A 12-90 22-F9              9350   	l	er0,	0f922h
00:009E 27-F0                    9351   	cmp	er0,	er2
00:00A0 02 C2                    9352   	bgt	_$L601
                                 9353   CBLOCK 244 7 2781
                                 9354   
                                 9355   ;;				PWDD = PWMSafeDuty;
                                 9356   CLINEA 0000H 0001H 0ADEH 0005H 0017H
00:00A2 13-92 22-F9              9357   	st	er2,	0f922h
                                 9358   CBLOCKEND 244 7 2783
                                 9359   
                                 9360   ;;			}
                                 9361   CLINEA 0000H 0000H 0ADFH 0004H 0004H
00:00A6                          9362   _$L601 :
                                 9363   
                                 9364   ;;			if(PWCD <= PWMSafeDuty){
                                 9365   CLINEA 0000H 0001H 0AE0H 0004H 001BH
00:00A6 12-90 12-F9              9366   	l	er0,	0f912h
00:00AA 27-F0                    9367   	cmp	er0,	er2
00:00AC 02 C2                    9368   	bgt	_$L603
                                 9369   CBLOCK 244 8 2784
                                 9370   
                                 9371   ;;				PWCD = PWMSafeDuty;
                                 9372   CLINEA 0000H 0001H 0AE1H 0005H 0017H
00:00AE 13-92 12-F9              9373   	st	er2,	0f912h
                                 9374   CBLOCKEND 244 8 2786
                                 9375   
                                 9376   ;;			}
                                 9377   CLINEA 0000H 0000H 0AE2H 0004H 0004H
00:00B2                          9378   _$L603 :
                                 9379   CBLOCKEND 244 4 2788
                                 9380   
                                 9381   ;;		}while((PWED > PWMSafeDuty)||(PWF0D > PWMSafeDuty)||(PWDD > PWMSafeDuty)||(PWCD > PWMSafeDuty));
                                 9382   CLINEA 0000H 0000H 0AE4H 0003H 0062H
00:00B2 12-90 32-F9              9383   	l	er0,	0f932h
00:00B6 27-F0                    9384   	cmp	er0,	er2
00:00B8 02 C3                    9385   	ble	_$M47
00:00BA 00-F0'00-00'             9386   	b	_$L581
00:00BE                          9387   _$M47 :
00:00BE 12-90 62-F9              9388   	l	er0,	0f962h
00:00C2 27-F0                    9389   	cmp	er0,	er2
00:00C4 02 C3                    9390   	ble	_$M48
00:00C6 00-F0'00-00'             9391   	b	_$L581
00:00CA                          9392   _$M48 :
00:00CA 12-90 22-F9              9393   	l	er0,	0f922h
00:00CE 27-F0                    9394   	cmp	er0,	er2
00:00D0 02 C3                    9395   	ble	_$M49
00:00D2 00-F0'00-00'             9396   	b	_$L581
00:00D6                          9397   _$M49 :
00:00D6 12-90 12-F9              9398   	l	er0,	0f912h
00:00DA 27-F0                    9399   	cmp	er0,	er2
00:00DC 02 C3                    9400   	ble	_$M50
00:00DE 00-F0'00-00'             9401   	b	_$L581
00:00E2                          9402   _$M50 :
00:00E2                          9403   _$L594 :
                                 9404   CBLOCKEND 244 3 2789
                                 9405   
                                 9406   ;;	Accel_PID_Motor1 = 16383;
                                 9407   CLINEA 0000H 0001H 0AE6H 0002H 001AH
00:00E2 FF 00                    9408   	mov	r0,	#0ffh
00:00E4 3F 01                    9409   	mov	r1,	#03fh
00:00E6 13-90 00-00'             9410   	st	er0,	NEAR _Accel_PID_Motor1
                                 9411   
                                 9412   ;;	Accel_PID_Motor2 = 16383;
                                 9413   CLINEA 0000H 0001H 0AE7H 0002H 001AH
00:00EA 13-90 00-00'             9414   	st	er0,	NEAR _Accel_PID_Motor2
                                 9415   
                                 9416   ;;	Accel_PID_Motor3 = 16383;
                                 9417   CLINEA 0000H 0001H 0AE8H 0002H 001AH
00:00EE 13-90 00-00'             9418   	st	er0,	NEAR _Accel_PID_Motor3
                                 9419   
                                 9420   ;;	Accel_PID_Motor4 = 16383;
                                 9421   CLINEA 0000H 0001H 0AE9H 0002H 001AH
00:00F2 13-90 00-00'             9422   	st	er0,	NEAR _Accel_PID_Motor4
                                 9423   CBLOCKEND 244 2 2795
                                 9424   
                                 9425   ;;}
                                 9426   CLINEA 0000H 0001H 0AEBH 0001H 0001H
00:00F6 8E-F2                    9427   	pop	pc
                                 9428   CBLOCKEND 244 1 2795
                                 9429   CFUNCTIONEND 244
                                 9430   
                                 9431   
  --------------------------     9432   	rseg $$ESC1_PWM$main
                                 9433   CFUNCTION 215
                                 9434   
00:0000                          9435   _ESC1_PWM	:
                                 9436   CBLOCK 215 1 2799
                                 9437   
                                 9438   ;;void ESC1_PWM(void){
                                 9439   CLINEA 0000H 0001H 0AEFH 0001H 0014H
                                 9440   CBLOCK 215 2 2799
                                 9441   
                                 9442   ;;      PC0DIR = 0;       // PortB Bit0 set to Output Mode...
                                 9443   CLINEA 0000H 0001H 0AFEH 0007H 003BH
00:0000 82-A0 61-F2              9444   	rb	0f261h.0
                                 9445   
                                 9446   ;;      PC0C1  = 1;       // PortB Bit0 set to CMOS Output...
                                 9447   CLINEA 0000H 0001H 0B01H 0007H 003BH
00:0004 80-A0 63-F2              9448   	sb	0f263h.0
                                 9449   
                                 9450   ;;      PC0C0  = 1;       
                                 9451   CLINEA 0000H 0001H 0B02H 0007H 0018H
00:0008 80-A0 62-F2              9452   	sb	0f262h.0
                                 9453   
                                 9454   ;;      PC0MD1  = 1;            // PortC Bit0 set to PWM Output (1,0)...
                                 9455   CLINEA 0000H 0001H 0B05H 0007H 0046H
00:000C 80-A0 65-F2              9456   	sb	0f265h.0
                                 9457   
                                 9458   ;;      PC0MD0  = 0;      
                                 9459   CLINEA 0000H 0001H 0B06H 0007H 0018H
00:0010 82-A0 64-F2              9460   	rb	0f264h.0
                                 9461   
                                 9462   ;;      PFCS1 = 0;        //00= LS; 01=HS; 10=PLL
                                 9463   CLINEA 0000H 0001H 0B0AH 0007H 002FH
00:0014 92-A0 72-F9              9464   	rb	0f972h.1
                                 9465   
                                 9466   ;;      PFCS0 = 1;
                                 9467   CLINEA 0000H 0001H 0B0BH 0007H 0010H
00:0018 80-A0 72-F9              9468   	sb	0f972h.0
                                 9469   
                                 9470   ;;      PWFP = PWMPeriod;            // Init Period to (1=255kHz; 10=46kHz; 50=10kHz; 200=2.5kH; ; 3185 = 160Hz; 3400=150Hz; 4250=120Hz; 5000=102Hz)
                                 9471   CLINEA 0000H 0001H 0B0EH 0007H 0092H
00:001C 12-90 00-00'             9472   	l	er0,	NEAR _PWMPeriod
00:0020 13-90 60-F9              9473   	st	er0,	0f960h
                                 9474   
                                 9475   ;;      PWF0D =    PWMSafeDuty;           //12    ~  0.25 % duty cycle @ 160Hz
                                 9476   CLINEA 0000H 0001H 0B18H 0007H 004CH
00:0024 12-90 00-00'             9477   	l	er0,	NEAR _PWMSafeDuty
00:0028 13-90 62-F9              9478   	st	er0,	0f962h
                                 9479   
                                 9480   ;;      PFRUN = 0;        // OFF to start
                                 9481   CLINEA 0000H 0001H 0B1AH 0007H 0027H
00:002C 82-A0 73-F9              9482   	rb	0f973h.0
                                 9483   CBLOCKEND 215 2 2843
                                 9484   
                                 9485   ;;}
                                 9486   CLINEA 0000H 0001H 0B1BH 0001H 0001H
00:0030 1F-FE                    9487   	rt
                                 9488   CBLOCKEND 215 1 2843
                                 9489   CFUNCTIONEND 215
                                 9490   
                                 9491   
  --------------------------     9492   	rseg $$ESC2_PWM$main
                                 9493   CFUNCTION 216
                                 9494   
00:0000                          9495   _ESC2_PWM	:
                                 9496   CBLOCK 216 1 2848
                                 9497   
                                 9498   ;;void ESC2_PWM(void){
                                 9499   CLINEA 0000H 0001H 0B20H 0001H 0014H
                                 9500   CBLOCK 216 2 2848
                                 9501   
                                 9502   ;;      PB2DIR = 0;       // PortB Bit0 set to Output Mode...
                                 9503   CLINEA 0000H 0001H 0B2FH 0007H 003BH
00:0000 A2-A0 59-F2              9504   	rb	0f259h.2
                                 9505   
                                 9506   ;;      PB2C1  = 1;       // PortB Bit0 set to CMOS Output...
                                 9507   CLINEA 0000H 0001H 0B32H 0007H 003BH
00:0004 A0-A0 5B-F2              9508   	sb	0f25bh.2
                                 9509   
                                 9510   ;;      PB2C0  = 1;       
                                 9511   CLINEA 0000H 0001H 0B33H 0007H 0018H
00:0008 A0-A0 5A-F2              9512   	sb	0f25ah.2
                                 9513   
                                 9514   ;;      PB2MD1  = 0;            // PortB Bit0 set to PWM Output (0,1)...
                                 9515   CLINEA 0000H 0001H 0B36H 0007H 0046H
00:000C A2-A0 5D-F2              9516   	rb	0f25dh.2
                                 9517   
                                 9518   ;;      PB2MD0  = 1;      
                                 9519   CLINEA 0000H 0001H 0B37H 0007H 0018H
00:0010 A0-A0 5C-F2              9520   	sb	0f25ch.2
                                 9521   
                                 9522   ;;      PECS1 = 0;        //00= LS; 01=HS; 10=PLL
                                 9523   CLINEA 0000H 0001H 0B3BH 0007H 002FH
00:0014 92-A0 36-F9              9524   	rb	0f936h.1
                                 9525   
                                 9526   ;;      PECS0 = 1;
                                 9527   CLINEA 0000H 0001H 0B3CH 0007H 0010H
00:0018 80-A0 36-F9              9528   	sb	0f936h.0
                                 9529   
                                 9530   ;;      PWEP = PWMPeriod;            // Init Period to (1=255kHz; 10=46kHz; 50=10kHz; 200=2.5kH; ; 3185 = 160Hz; 3400=150Hz; 4250=120Hz; 5000=102Hz)
                                 9531   CLINEA 0000H 0001H 0B3FH 0007H 0092H
00:001C 12-90 00-00'             9532   	l	er0,	NEAR _PWMPeriod
00:0020 13-90 30-F9              9533   	st	er0,	0f930h
                                 9534   
                                 9535   ;;      PWED =    PWMSafeDuty;           //12    ~  0.25 % duty cycle @ 160Hz
                                 9536   CLINEA 0000H 0001H 0B49H 0007H 004BH
00:0024 12-90 00-00'             9537   	l	er0,	NEAR _PWMSafeDuty
00:0028 13-90 32-F9              9538   	st	er0,	0f932h
                                 9539   
                                 9540   ;;      PERUN = 0;        // OFF to start
                                 9541   CLINEA 0000H 0001H 0B4BH 0007H 0027H
00:002C 82-A0 37-F9              9542   	rb	0f937h.0
                                 9543   CBLOCKEND 216 2 2892
                                 9544   
                                 9545   ;;}
                                 9546   CLINEA 0000H 0001H 0B4CH 0001H 0001H
00:0030 1F-FE                    9547   	rt
                                 9548   CBLOCKEND 216 1 2892
                                 9549   CFUNCTIONEND 216
                                 9550   
                                 9551   
  --------------------------     9552   	rseg $$ESC3_PWM$main
                                 9553   CFUNCTION 217
                                 9554   
00:0000                          9555   _ESC3_PWM	:
                                 9556   CBLOCK 217 1 2898
                                 9557   
                                 9558   ;;void ESC3_PWM(void){
                                 9559   CLINEA 0000H 0001H 0B52H 0001H 0014H
                                 9560   CBLOCK 217 2 2898
                                 9561   
                                 9562   ;;      PA1DIR = 0;       // PortB Bit0 set to Output Mode...
                                 9563   CLINEA 0000H 0001H 0B61H 0007H 003BH
00:0000 92-A0 51-F2              9564   	rb	0f251h.1
                                 9565   
                                 9566   ;;      PA1C1  = 1;       // PortB Bit0 set to CMOS Output...
                                 9567   CLINEA 0000H 0001H 0B64H 0007H 003BH
00:0004 90-A0 53-F2              9568   	sb	0f253h.1
                                 9569   
                                 9570   ;;      PA1C0  = 1;       
                                 9571   CLINEA 0000H 0001H 0B65H 0007H 0018H
00:0008 90-A0 52-F2              9572   	sb	0f252h.1
                                 9573   
                                 9574   ;;      PA1MD1  = 0;            // PortB Bit0 set to PWM Output (0,1)...
                                 9575   CLINEA 0000H 0001H 0B68H 0007H 0046H
00:000C 92-A0 55-F2              9576   	rb	0f255h.1
                                 9577   
                                 9578   ;;      PA1MD0  = 1;      
                                 9579   CLINEA 0000H 0001H 0B69H 0007H 0018H
00:0010 90-A0 54-F2              9580   	sb	0f254h.1
                                 9581   
                                 9582   ;;      PDCS1 = 0;        //00= LS; 01=HS; 10=PLL
                                 9583   CLINEA 0000H 0001H 0B6DH 0007H 002FH
00:0014 92-A0 26-F9              9584   	rb	0f926h.1
                                 9585   
                                 9586   ;;      PDCS0 = 1;
                                 9587   CLINEA 0000H 0001H 0B6EH 0007H 0010H
00:0018 80-A0 26-F9              9588   	sb	0f926h.0
                                 9589   
                                 9590   ;;      PWDP = PWMPeriod;            // Init Period to (1=255kHz; 10=46kHz; 50=10kHz; 200=2.5kH; ; 3185 = 160Hz; 3400=150Hz; 4250=120Hz; 5000=102Hz)
                                 9591   CLINEA 0000H 0001H 0B71H 0007H 0092H
00:001C 12-90 00-00'             9592   	l	er0,	NEAR _PWMPeriod
00:0020 13-90 20-F9              9593   	st	er0,	0f920h
                                 9594   
                                 9595   ;;      PWDD =    PWMSafeDuty;           //12    ~  0.25 % duty cycle @ 160Hz
                                 9596   CLINEA 0000H 0001H 0B7BH 0007H 004BH
00:0024 12-90 00-00'             9597   	l	er0,	NEAR _PWMSafeDuty
00:0028 13-90 22-F9              9598   	st	er0,	0f922h
                                 9599   
                                 9600   ;;      PDRUN = 0;        // OFF to start
                                 9601   CLINEA 0000H 0001H 0B7DH 0007H 0027H
00:002C 82-A0 27-F9              9602   	rb	0f927h.0
                                 9603   CBLOCKEND 217 2 2942
                                 9604   
                                 9605   ;;}
                                 9606   CLINEA 0000H 0001H 0B7EH 0001H 0001H
00:0030 1F-FE                    9607   	rt
                                 9608   CBLOCKEND 217 1 2942
                                 9609   CFUNCTIONEND 217
                                 9610   
                                 9611   
  --------------------------     9612   	rseg $$ESC4_PWM$main
                                 9613   CFUNCTION 218
                                 9614   
00:0000                          9615   _ESC4_PWM	:
                                 9616   CBLOCK 218 1 2949
                                 9617   
                                 9618   ;;void ESC4_PWM(void){
                                 9619   CLINEA 0000H 0001H 0B85H 0001H 0014H
                                 9620   CBLOCK 218 2 2949
                                 9621   
                                 9622   ;;      PA0DIR = 0;       // PortB Bit0 set to Output Mode...
                                 9623   CLINEA 0000H 0001H 0B94H 0007H 003BH
00:0000 82-A0 51-F2              9624   	rb	0f251h.0
                                 9625   
                                 9626   ;;      PA0C1  = 1;       // PortB Bit0 set to CMOS Output...
                                 9627   CLINEA 0000H 0001H 0B97H 0007H 003BH
00:0004 80-A0 53-F2              9628   	sb	0f253h.0
                                 9629   
                                 9630   ;;      PA0C0  = 1;       
                                 9631   CLINEA 0000H 0001H 0B98H 0007H 0018H
00:0008 80-A0 52-F2              9632   	sb	0f252h.0
                                 9633   
                                 9634   ;;      PA0MD1  = 0;            // PortB Bit0 set to PWM Output (0,1)...
                                 9635   CLINEA 0000H 0001H 0B9BH 0007H 0046H
00:000C 82-A0 55-F2              9636   	rb	0f255h.0
                                 9637   
                                 9638   ;;      PA0MD0  = 1;      
                                 9639   CLINEA 0000H 0001H 0B9CH 0007H 0018H
00:0010 80-A0 54-F2              9640   	sb	0f254h.0
                                 9641   
                                 9642   ;;      PCCS1 = 0;        //00= LS; 01=HS; 10=PLL
                                 9643   CLINEA 0000H 0001H 0BA0H 0007H 002FH
00:0014 92-A0 16-F9              9644   	rb	0f916h.1
                                 9645   
                                 9646   ;;      PCCS0 = 1;
                                 9647   CLINEA 0000H 0001H 0BA1H 0007H 0010H
00:0018 80-A0 16-F9              9648   	sb	0f916h.0
                                 9649   
                                 9650   ;;      PWCP = PWMPeriod;            // Init Period to (1=255kHz; 10=46kHz; 50=10kHz; 200=2.5kH; ; 3185 = 160Hz; 3400=150Hz; 4250=120Hz; 5000=102Hz)
                                 9651   CLINEA 0000H 0001H 0BA4H 0007H 0092H
00:001C 12-90 00-00'             9652   	l	er0,	NEAR _PWMPeriod
00:0020 13-90 10-F9              9653   	st	er0,	0f910h
                                 9654   
                                 9655   ;;      PWCD =    PWMSafeDuty;           //12    ~  0.25 % duty cycle @ 160Hz
                                 9656   CLINEA 0000H 0001H 0BAFH 0007H 004BH
00:0024 12-90 00-00'             9657   	l	er0,	NEAR _PWMSafeDuty
00:0028 13-90 12-F9              9658   	st	er0,	0f912h
                                 9659   
                                 9660   ;;      PCRUN = 0;        // OFF to start
                                 9661   CLINEA 0000H 0001H 0BB3H 0007H 0027H
00:002C 82-A0 17-F9              9662   	rb	0f917h.0
                                 9663   CBLOCKEND 218 2 2996
                                 9664   
                                 9665   ;;}
                                 9666   CLINEA 0000H 0001H 0BB4H 0001H 0001H
00:0030 1F-FE                    9667   	rt
                                 9668   CBLOCKEND 218 1 2996
                                 9669   CFUNCTIONEND 218
                                 9670   
                                 9671   
  --------------------------     9672   	rseg $$TBC_ISR$main
                                 9673   CFUNCTION 256
                                 9674   
00:0000                          9675   _TBC_ISR	:
                                 9676   CBLOCK 256 1 3001
                                 9677   
                                 9678   ;;{
                                 9679   CLINEA 0000H 0001H 0BB9H 0001H 0001H
                                 9680   CBLOCK 256 2 3001
                                 9681   
                                 9682   ;;	E128H = 0;	//Turn OFF TBC Interrupt
                                 9683   CLINEA 0000H 0001H 0BBAH 0002H 0024H
00:0000 D2-A0 16-F0              9684   	rb	0f016h.5
                                 9685   
                                 9686   ;;	E128H = 1;	//Turn ON TBC Interrupt
                                 9687   CLINEA 0000H 0001H 0BBBH 0002H 0023H
00:0004 D0-A0 16-F0              9688   	sb	0f016h.5
                                 9689   CBLOCKEND 256 2 3004
                                 9690   
                                 9691   ;;}
                                 9692   CLINEA 0000H 0001H 0BBCH 0001H 0001H
00:0008 1F-FE                    9693   	rt
                                 9694   CBLOCKEND 256 1 3004
                                 9695   CFUNCTIONEND 256
                                 9696   
                                 9697   
  --------------------------     9698   	rseg $$TMR89_ISR$main
                                 9699   CFUNCTION 257
                                 9700   
00:0000                          9701   _TMR89_ISR	:
                                 9702   CBLOCK 257 1 3009
                                 9703   
                                 9704   ;;{
                                 9705   CLINEA 0000H 0001H 0BC1H 0001H 0001H
00:0000 CE-F8                    9706   	push	lr
                                 9707   CBLOCK 257 2 3009
                                 9708   CRET 0000H
                                 9709   
                                 9710   ;;	LED_1 ^= 1;
                                 9711   CLINEA 0000H 0001H 0BC2H 0002H 000CH
00:0002 A1-A0 50-F2              9712   	tb	0f250h.2
00:0006 03 C9                    9713   	beq	_$M57
00:0008 A2-A0 50-F2              9714   	rb	0f250h.2
00:000C 02 CE                    9715   	bal	_$M58
00:000E                          9716   _$M57 :
00:000E A0-A0 50-F2              9717   	sb	0f250h.2
00:0012                          9718   _$M58 :
                                 9719   
                                 9720   ;;	Accel_PID_XRollCounter_I++;
                                 9721   CLINEA 0000H 0000H 0BC9H 0002H 001CH
00:0012 12-90 00-00'             9722   	l	er0,	NEAR _Accel_PID_XRollCounter_I
00:0016 81 E0                    9723   	add	er0,	#1 
00:0018 13-90 00-00'             9724   	st	er0,	NEAR _Accel_PID_XRollCounter_I
                                 9725   
                                 9726   ;;	if(Accel_PID_XRollCounter_I >= 65535){
                                 9727   CLINEA 0000H 0001H 0BCAH 0002H 0027H
00:001C 00 E2                    9728   	mov	er2,	#0 
00:001E FF 70                    9729   	cmp	r0,	#0ffh
00:0020 FF 51                    9730   	cmpc	r1,	#0ffh
00:0022 00 52                    9731   	cmpc	r2,	#00h
00:0024 00 53                    9732   	cmpc	r3,	#00h
00:0026 03 C5                    9733   	blts	_$L622
                                 9734   CBLOCK 257 3 3018
                                 9735   
                                 9736   ;;		Accel_PID_XRollCounter_I = 0;
                                 9737   CLINEA 0000H 0001H 0BCBH 0003H 001FH
00:0028 00 E0                    9738   	mov	er0,	#0 
00:002A 13-90 00-00'             9739   	st	er0,	NEAR _Accel_PID_XRollCounter_I
                                 9740   CBLOCKEND 257 3 3020
                                 9741   
                                 9742   ;;	}
                                 9743   CLINEA 0000H 0000H 0BCCH 0002H 0002H
00:002E                          9744   _$L622 :
                                 9745   
                                 9746   ;;	Accel_PID_YPitchCounter_I++;
                                 9747   CLINEA 0000H 0000H 0BCDH 0002H 001DH
00:002E 12-90 00-00'             9748   	l	er0,	NEAR _Accel_PID_YPitchCounter_I
00:0032 81 E0                    9749   	add	er0,	#1 
00:0034 13-90 00-00'             9750   	st	er0,	NEAR _Accel_PID_YPitchCounter_I
                                 9751   
                                 9752   ;;	if(Accel_PID_YPitchCounter_I >= 65535){
                                 9753   CLINEA 0000H 0001H 0BCEH 0002H 0028H
00:0038 00 E2                    9754   	mov	er2,	#0 
00:003A FF 70                    9755   	cmp	r0,	#0ffh
00:003C FF 51                    9756   	cmpc	r1,	#0ffh
00:003E 00 52                    9757   	cmpc	r2,	#00h
00:0040 00 53                    9758   	cmpc	r3,	#00h
00:0042 03 C5                    9759   	blts	_$L624
                                 9760   CBLOCK 257 4 3022
                                 9761   
                                 9762   ;;		Accel_PID_YPitchCounter_I = 0;
                                 9763   CLINEA 0000H 0001H 0BCFH 0003H 0020H
00:0044 00 E0                    9764   	mov	er0,	#0 
00:0046 13-90 00-00'             9765   	st	er0,	NEAR _Accel_PID_YPitchCounter_I
                                 9766   CBLOCKEND 257 4 3024
                                 9767   
                                 9768   ;;	}
                                 9769   CLINEA 0000H 0000H 0BD0H 0002H 0002H
00:004A                          9770   _$L624 :
                                 9771   
                                 9772   ;;	Accel_PID_XRollCounter_D++;
                                 9773   CLINEA 0000H 0000H 0BD1H 0002H 001CH
00:004A 12-90 00-00'             9774   	l	er0,	NEAR _Accel_PID_XRollCounter_D
00:004E 81 E0                    9775   	add	er0,	#1 
00:0050 13-90 00-00'             9776   	st	er0,	NEAR _Accel_PID_XRollCounter_D
                                 9777   
                                 9778   ;;	if(Accel_PID_XRollCounter_D >= 65535){
                                 9779   CLINEA 0000H 0001H 0BD2H 0002H 0027H
00:0054 00 E2                    9780   	mov	er2,	#0 
00:0056 FF 70                    9781   	cmp	r0,	#0ffh
00:0058 FF 51                    9782   	cmpc	r1,	#0ffh
00:005A 00 52                    9783   	cmpc	r2,	#00h
00:005C 00 53                    9784   	cmpc	r3,	#00h
00:005E 03 C5                    9785   	blts	_$L626
                                 9786   CBLOCK 257 5 3026
                                 9787   
                                 9788   ;;		Accel_PID_XRollCounter_D = 0;
                                 9789   CLINEA 0000H 0001H 0BD3H 0003H 001FH
00:0060 00 E0                    9790   	mov	er0,	#0 
00:0062 13-90 00-00'             9791   	st	er0,	NEAR _Accel_PID_XRollCounter_D
                                 9792   CBLOCKEND 257 5 3028
                                 9793   
                                 9794   ;;	}
                                 9795   CLINEA 0000H 0000H 0BD4H 0002H 0002H
00:0066                          9796   _$L626 :
                                 9797   
                                 9798   ;;	Accel_PID_YPitchCounter_D++;
                                 9799   CLINEA 0000H 0000H 0BD5H 0002H 001DH
00:0066 12-90 00-00'             9800   	l	er0,	NEAR _Accel_PID_YPitchCounter_D
00:006A 81 E0                    9801   	add	er0,	#1 
00:006C 13-90 00-00'             9802   	st	er0,	NEAR _Accel_PID_YPitchCounter_D
                                 9803   
                                 9804   ;;	if(Accel_PID_YPitchCounter_D >= 65535){
                                 9805   CLINEA 0000H 0001H 0BD6H 0002H 0028H
00:0070 00 E2                    9806   	mov	er2,	#0 
00:0072 FF 70                    9807   	cmp	r0,	#0ffh
00:0074 FF 51                    9808   	cmpc	r1,	#0ffh
00:0076 00 52                    9809   	cmpc	r2,	#00h
00:0078 00 53                    9810   	cmpc	r3,	#00h
00:007A 03 C5                    9811   	blts	_$L628
                                 9812   CBLOCK 257 6 3030
                                 9813   
                                 9814   ;;		Accel_PID_YPitchCounter_D = 0;
                                 9815   CLINEA 0000H 0001H 0BD7H 0003H 0020H
00:007C 00 E0                    9816   	mov	er0,	#0 
00:007E 13-90 00-00'             9817   	st	er0,	NEAR _Accel_PID_YPitchCounter_D
                                 9818   CBLOCKEND 257 6 3032
                                 9819   
                                 9820   ;;	}
                                 9821   CLINEA 0000H 0000H 0BD8H 0002H 0002H
00:0082                          9822   _$L628 :
                                 9823   
                                 9824   ;;	CF_Gyro_Counter++;
                                 9825   CLINEA 0000H 0000H 0BDFH 0002H 0013H
00:0082 12-90 00-00'             9826   	l	er0,	NEAR _CF_Gyro_Counter
00:0086 12-92 00-00'             9827   	l	er2,	NEAR _CF_Gyro_Counter+02h
00:008A 6E-F0                    9828   	push	xr0
00:008C 00 E0                    9829   	mov	er0,	#0 
00:008E 80 02                    9830   	mov	r2,	#080h
00:0090 3F 03                    9831   	mov	r3,	#03fh
00:0092 6E-F0                    9832   	push	xr0
00:0094 01-F0'00-00'             9833   	bl	__faddu8sw
00:0098 04 E1                    9834   	add	sp,	#4 
00:009A 2E-F0                    9835   	pop	xr0
00:009C 13-90 00-00'             9836   	st	er0,	NEAR _CF_Gyro_Counter
00:00A0 13-92 00-00'             9837   	st	er2,	NEAR _CF_Gyro_Counter+02h
                                 9838   
                                 9839   ;;	if(CF_Gyro_Counter >= 65535){
                                 9840   CLINEA 0000H 0001H 0BE0H 0002H 001EH
00:00A4 6E-F0                    9841   	push	xr0
00:00A6 00 00                    9842   	mov	r0,	#00h
00:00A8 FF 01                    9843   	mov	r1,	#0ffh
00:00AA 7F 02                    9844   	mov	r2,	#07fh
00:00AC 47 03                    9845   	mov	r3,	#047h
00:00AE 6E-F0                    9846   	push	xr0
00:00B0 01-F0'00-00'             9847   	bl	__fcmpu8sw
00:00B4 08 E1                    9848   	add	sp,	#8 
00:00B6 0B-A0                    9849   	mov	psw,	r0
00:00B8 05 C1                    9850   	blt	_$L630
                                 9851   CBLOCK 257 7 3040
                                 9852   
                                 9853   ;;		CF_Gyro_Counter = 0;
                                 9854   CLINEA 0000H 0001H 0BE1H 0003H 0016H
00:00BA 00 E0                    9855   	mov	er0,	#0 
00:00BC 13-90 00-00'             9856   	st	er0,	NEAR _CF_Gyro_Counter
00:00C0 13-90 00-00'             9857   	st	er0,	NEAR _CF_Gyro_Counter+02h
                                 9858   CBLOCKEND 257 7 3042
                                 9859   
                                 9860   ;;	}
                                 9861   CLINEA 0000H 0000H 0BE2H 0002H 0002H
00:00C4                          9862   _$L630 :
                                 9863   CBLOCKEND 257 2 3043
                                 9864   
                                 9865   ;;}
                                 9866   CLINEA 0000H 0001H 0BE3H 0001H 0001H
00:00C4 8E-F2                    9867   	pop	pc
                                 9868   CBLOCKEND 257 1 3043
                                 9869   CFUNCTIONEND 257
                                 9870   
                                 9871   
  --------------------------     9872   	rseg $$AccelGyroDataReady_ISR$main
                                 9873   CFUNCTION 258
                                 9874   
00:0000                          9875   _AccelGyroDataReady_ISR	:
                                 9876   CBLOCK 258 1 3047
                                 9877   
                                 9878   ;;{
                                 9879   CLINEA 0000H 0001H 0BE7H 0001H 0001H
                                 9880   CBLOCK 258 2 3047
                                 9881   
                                 9882   ;;	AccGyro_ReadFlag = 1;
                                 9883   CLINEA 0000H 0001H 0BE8H 0002H 0016H
00:0000 01 00                    9884   	mov	r0,	#01h
00:0002 11-90 00-00'             9885   	st	r0,	NEAR _AccGyro_ReadFlag
                                 9886   CBLOCKEND 258 2 3049
                                 9887   
                                 9888   ;;}
                                 9889   CLINEA 0000H 0001H 0BE9H 0001H 0001H
00:0006 1F-FE                    9890   	rt
                                 9891   CBLOCKEND 258 1 3049
                                 9892   CFUNCTIONEND 258
                                 9893   
                                 9894   
  --------------------------     9895   	rseg $$_funcUartFin$main
                                 9896   CFUNCTION 245
                                 9897   
00:0000                          9898   __funcUartFin	:
                                 9899   CBLOCK 245 1 3060
                                 9900   
                                 9901   ;;{
                                 9902   CLINEA 0000H 0001H 0BF4H 0001H 0001H
00:0000 CE-F8                    9903   	push	lr
                                 9904   CBLOCK 245 2 3060
                                 9905   CRET 0000H
                                 9906   CARGUMENT 46H 0002H 0000H "size" 02H 00H 01H
                                 9907   CARGUMENT 46H 0001H 0000H "errStat" 02H 00H 00H
                                 9908   
                                 9909   ;;	uart_continue();					// Function in UART.c: process to continue send and receive...
                                 9910   CLINEA 0000H 0001H 0BF5H 0002H 0054H
00:0002 01-F0'00-00'             9911   	bl	_uart_continue
                                 9912   
                                 9913   ;;	_flgUartFin = (unsigned char)FLG_SET;
                                 9914   CLINEA 0000H 0001H 0BF6H 0002H 0026H
00:0006 01 00                    9915   	mov	r0,	#01h
00:0008 11-90 00-00'             9916   	st	r0,	NEAR __flgUartFin
                                 9917   CBLOCKEND 245 2 3064
                                 9918   
                                 9919   ;;}
                                 9920   CLINEA 0000H 0001H 0BF8H 0001H 0001H
00:000C 8E-F2                    9921   	pop	pc
                                 9922   CBLOCKEND 245 1 3064
                                 9923   CFUNCTIONEND 245
                                 9924   
                                 9925   
  --------------------------     9926   	rseg $$_funcI2CFin$main
                                 9927   CFUNCTION 246
                                 9928   
00:0000                          9929   __funcI2CFin	:
                                 9930   CBLOCK 246 1 3075
                                 9931   
                                 9932   ;;{
                                 9933   CLINEA 0000H 0001H 0C03H 0001H 0001H
00:0000 CE-F8                    9934   	push	lr
                                 9935   CBLOCK 246 2 3075
                                 9936   CRET 0000H
                                 9937   CARGUMENT 46H 0002H 0000H "size" 02H 00H 01H
                                 9938   CARGUMENT 46H 0001H 0000H "errStat" 02H 00H 00H
                                 9939   
                                 9940   ;;	i2c_continue();					// Function in UART.c: process to continue send and receive...
                                 9941   CLINEA 0000H 0001H 0C04H 0002H 0053H
00:0002 01-F0'00-00'             9942   	bl	_i2c_continue
                                 9943   
                                 9944   ;;	_flgI2CFin = (unsigned char)FLG_SET;
                                 9945   CLINEA 0000H 0001H 0C05H 0002H 0025H
00:0006 01 00                    9946   	mov	r0,	#01h
00:0008 11-90 00-00'             9947   	st	r0,	NEAR __flgI2CFin
                                 9948   CBLOCKEND 246 2 3079
                                 9949   
                                 9950   ;;}
                                 9951   CLINEA 0000H 0001H 0C07H 0001H 0001H
00:000C 8E-F2                    9952   	pop	pc
                                 9953   CBLOCKEND 246 1 3079
                                 9954   CFUNCTIONEND 246
                                 9955   
                                 9956   
  --------------------------     9957   	rseg $$_intI2c$main
                                 9958   CFUNCTION 250
                                 9959   
00:0000                          9960   __intI2c	:
                                 9961   CBLOCK 250 1 3089
                                 9962   
                                 9963   ;;{
                                 9964   CLINEA 0000H 0001H 0C11H 0001H 0001H
                                 9965   CBLOCK 250 2 3089
                                 9966   
                                 9967   ;;	i2c_continue();
                                 9968   CLINEA 0000H 0001H 0C12H 0002H 0010H
00:0000 00-F0'00-00'             9969   	b	_i2c_continue
                                 9970   CBLOCKEND 250 2 3092
                                 9971   CLINEA 0000H 0001H 0C14H 0001H 0001H
                                 9972   CBLOCKEND 250 1 3092
                                 9973   CFUNCTIONEND 250
                                 9974   
                                 9975   
  --------------------------     9976   	rseg $$checkI2C$main
                                 9977   CFUNCTION 247
                                 9978   
00:0000                          9979   _checkI2C	:
                                 9980   CBLOCK 247 1 3102
                                 9981   
                                 9982   ;;{
                                 9983   CLINEA 0000H 0001H 0C1EH 0001H 0001H
00:0000 CE-F8                    9984   	push	lr
                                 9985   CBLOCK 247 2 3102
                                 9986   CRET 0000H
                                 9987   CLOCAL 47H 0002H 0024H 0002H "ret" 02H 00H 01H
                                 9988   
                                 9989   ;;	while (ret != 1) {
                                 9990   CLINEA 0000H 0000H 0C23H 0002H 0013H
00:0002                          9991   _$L639 :
                                 9992   CBLOCK 247 3 3107
                                 9993   
                                 9994   ;;		ret = i2c_continue();
                                 9995   CLINEA 0000H 0000H 0C24H 0003H 0017H
00:0002 01-F0'00-00'             9996   	bl	_i2c_continue
                                 9997   CBLOCK 247 4 3109
                                 9998   CBLOCKEND 247 4 3111
                                 9999   CBLOCKEND 247 3 3112
                                10000   
                                10001   ;;	while (ret != 1) {
                                10002   CLINEA 0000H 0000H 0C23H 000EH 0013H
00:0006 01 70                   10003   	cmp	r0,	#01h
00:0008 00 51                   10004   	cmpc	r1,	#00h
00:000A FB C8                   10005   	bne	_$L639
                                10006   CBLOCKEND 247 2 3113
                                10007   
                                10008   ;;}
                                10009   CLINEA 0000H 0001H 0C29H 0001H 0001H
00:000C 8E-F2                   10010   	pop	pc
                                10011   CBLOCKEND 247 1 3113
                                10012   CFUNCTIONEND 247
                                10013   
                                10014   
  --------------------------    10015   	rseg $$main_reqNotHalt$main
                                10016   CFUNCTION 248
                                10017   
00:0000                         10018   _main_reqNotHalt	:
                                10019   CBLOCK 248 1 3123
                                10020   
                                10021   ;;{
                                10022   CLINEA 0000H 0001H 0C33H 0001H 0001H
                                10023   CBLOCK 248 2 3123
                                10024   
                                10025   ;;	_reqNotHalt = (unsigned char)FLG_SET;
                                10026   CLINEA 0000H 0001H 0C34H 0002H 0026H
00:0000 01 00                   10027   	mov	r0,	#01h
00:0002 11-90 00-00'            10028   	st	r0,	NEAR __reqNotHalt
                                10029   CBLOCKEND 248 2 3125
                                10030   
                                10031   ;;}
                                10032   CLINEA 0000H 0001H 0C35H 0001H 0001H
00:0006 1F-FE                   10033   	rt
                                10034   CBLOCKEND 248 1 3125
                                10035   CFUNCTIONEND 248
                                10036   
                                10037   
  --------------------------    10038   	rseg $$_intUart$main
                                10039   CFUNCTION 249
                                10040   
00:0000                         10041   __intUart	:
                                10042   CBLOCK 249 1 3135
                                10043   
                                10044   ;;{
                                10045   CLINEA 0000H 0001H 0C3FH 0001H 0001H
                                10046   CBLOCK 249 2 3135
                                10047   
                                10048   ;;		uart_continue(); //in UART.c: process to continue send and receive...
                                10049   CLINEA 0000H 0001H 0C40H 0003H 0047H
00:0000 00-F0'00-00'            10050   	b	_uart_continue
                                10051   CBLOCKEND 249 2 3137
                                10052   CLINEA 0000H 0001H 0C41H 0001H 0001H
                                10053   CBLOCKEND 249 1 3137
                                10054   CFUNCTIONEND 249
                                10055   
                                10056   
  --------------------------    10057   	rseg $$SetOSC$main
                                10058   CFUNCTION 208
                                10059   
00:0000                         10060   _SetOSC	:
                                10061   CBLOCK 208 1 3142
                                10062   
                                10063   ;;static void SetOSC(void){
                                10064   CLINEA 0000H 0001H 0C46H 0001H 0019H
                                10065   CBLOCK 208 2 3142
                                10066   
                                10067   ;;	SYSC0 = 0;			// Used to select the frequency of the HSCLK => 00=8.192MHz.
                                10068   CLINEA 0000H 0001H 0C49H 0002H 004AH
00:0000 82-A0 02-F0             10069   	rb	0f002h.0
                                10070   
                                10071   ;;	SYSC1 = 0;
                                10072   CLINEA 0000H 0001H 0C4AH 0002H 000BH
00:0004 92-A0 02-F0             10073   	rb	0f002h.1
                                10074   
                                10075   ;;	OSCM1 = 1;			// 10 => Built-in PLL oscillation mode
                                10076   CLINEA 0000H 0001H 0C4CH 0002H 0034H
00:0008 B0-A0 02-F0             10077   	sb	0f002h.3
                                10078   
                                10079   ;;	OSCM0 = 0;
                                10080   CLINEA 0000H 0001H 0C4DH 0002H 000BH
00:000C A2-A0 02-F0             10081   	rb	0f002h.2
                                10082   
                                10083   ;;	ENOSC = 1;			//1=Enable High Speed Oscillator...
                                10084   CLINEA 0000H 0001H 0C4FH 0002H 0031H
00:0010 90-A0 03-F0             10085   	sb	0f003h.1
                                10086   
                                10087   ;;	SYSCLK = 1;			//1=HSCLK; 0=LSCLK 
                                10088   CLINEA 0000H 0001H 0C50H 0002H 0022H
00:0014 80-A0 03-F0             10089   	sb	0f003h.0
                                10090   
                                10091   ;;	LPLL = 1;			//1=Enables the use of PLL oscillation - ADDED 4/30/2013
                                10092   CLINEA 0000H 0001H 0C52H 0002H 0045H
00:0018 F0-A0 03-F0             10093   	sb	0f003h.7
                                10094   
                                10095   ;;	__EI();			//INT enable
                                10096   CLINEA 0000H 0001H 0C54H 0002H 0017H
00:001C 08-ED                   10097   	ei
                                10098   CBLOCKEND 208 2 3157
                                10099   
                                10100   ;;}
                                10101   CLINEA 0000H 0001H 0C55H 0001H 0001H
00:001E 1F-FE                   10102   	rt
                                10103   CBLOCKEND 208 1 3157
                                10104   CFUNCTIONEND 208
                                10105   
                                10106   
  --------------------------    10107   	rseg $$analog_comparator$main
                                10108   CFUNCTION 209
                                10109   
00:0000                         10110   _analog_comparator	:
                                10111   CBLOCK 209 1 3164
                                10112   
                                10113   ;;void analog_comparator(void){
                                10114   CLINEA 0000H 0001H 0C5CH 0001H 001DH
                                10115   CBLOCK 209 2 3164
                                10116   
                                10117   ;;	CMP0EN  = 0x01; 	// Comparator ON...
                                10118   CLINEA 0000H 0001H 0C72H 0002H 0025H
00:0000 80-A0 50-F9             10119   	sb	0f950h.0
                                10120   
                                10121   ;;	CMP0E1  = 0x00; 	// No Interupt...
                                10122   CLINEA 0000H 0001H 0C73H 0002H 0023H
00:0004 92-A0 51-F9             10123   	rb	0f951h.1
                                10124   
                                10125   ;;	CMP0E0  = 0x00;
                                10126   CLINEA 0000H 0001H 0C74H 0002H 0010H
00:0008 82-A0 51-F9             10127   	rb	0f951h.0
                                10128   
                                10129   ;;	CMP0SM1 = 0x00; 	// Detect without Sampling... 
                                10130   CLINEA 0000H 0001H 0C75H 0002H 0030H
00:000C B2-A0 51-F9             10131   	rb	0f951h.3
                                10132   
                                10133   ;;	CMP0RFS = 0x01; 	// Differential Input on B5
                                10134   CLINEA 0000H 0001H 0C76H 0002H 002DH
00:0010 C0-A0 51-F9             10135   	sb	0f951h.4
                                10136   
                                10137   ;;	CMP0EN  = 0x00;
                                10138   CLINEA 0000H 0001H 0C79H 0002H 0010H
00:0014 82-A0 50-F9             10139   	rb	0f950h.0
                                10140   CBLOCKEND 209 2 3196
                                10141   
                                10142   ;;}
                                10143   CLINEA 0000H 0001H 0C7CH 0001H 0001H
00:0018 1F-FE                   10144   	rt
                                10145   CBLOCKEND 209 1 3196
                                10146   CFUNCTIONEND 209
                                10147   
                                10148   
  --------------------------    10149   	rseg $$PortA_Low$main
                                10150   CFUNCTION 210
                                10151   
00:0000                         10152   _PortA_Low	:
                                10153   CBLOCK 210 1 3204
                                10154   
                                10155   ;;void PortA_Low(void){
                                10156   CLINEA 0000H 0001H 0C84H 0001H 0015H
                                10157   CBLOCK 210 2 3204
                                10158   
                                10159   ;;	PA0DIR = 0;		// PortA Bit0 set to Output Mode...
                                10160   CLINEA 0000H 0001H 0C8EH 0002H 0031H
00:0000 82-A0 51-F2             10161   	rb	0f251h.0
                                10162   
                                10163   ;;	PA1DIR = 0;		// PortA Bit1 set to Output Mode...
                                10164   CLINEA 0000H 0001H 0C8FH 0002H 0031H
00:0004 92-A0 51-F2             10165   	rb	0f251h.1
                                10166   
                                10167   ;;	PA2DIR = 0;		// PortA Bit2 set to Output Mode...
                                10168   CLINEA 0000H 0001H 0C90H 0002H 0031H
00:0008 A2-A0 51-F2             10169   	rb	0f251h.2
                                10170   
                                10171   ;;	PA0C1  = 1;		// PortA Bit0 set to CMOS Output...
                                10172   CLINEA 0000H 0001H 0C93H 0002H 0031H
00:000C 80-A0 53-F2             10173   	sb	0f253h.0
                                10174   
                                10175   ;;	PA0C0  = 1;		
                                10176   CLINEA 0000H 0001H 0C94H 0002H 000EH
00:0010 80-A0 52-F2             10177   	sb	0f252h.0
                                10178   
                                10179   ;;	PA1C1  = 1;		// PortA Bit1 set to CMOS Output...
                                10180   CLINEA 0000H 0001H 0C95H 0002H 0031H
00:0014 90-A0 53-F2             10181   	sb	0f253h.1
                                10182   
                                10183   ;;	PA1C0  = 1;	
                                10184   CLINEA 0000H 0001H 0C96H 0002H 000DH
00:0018 90-A0 52-F2             10185   	sb	0f252h.1
                                10186   
                                10187   ;;	PA2C1  = 1;		// PortA Bit2 set to CMOS Output...
                                10188   CLINEA 0000H 0001H 0C97H 0002H 0031H
00:001C A0-A0 53-F2             10189   	sb	0f253h.2
                                10190   
                                10191   ;;	PA2C0  = 1;	
                                10192   CLINEA 0000H 0001H 0C98H 0002H 000DH
00:0020 A0-A0 52-F2             10193   	sb	0f252h.2
                                10194   
                                10195   ;;	PA0MD1  = 0;	// PortA Bit0 set to General Purpose Output...
                                10196   CLINEA 0000H 0001H 0C9BH 0002H 003CH
00:0024 82-A0 55-F2             10197   	rb	0f255h.0
                                10198   
                                10199   ;;	PA0MD0  = 0;	
                                10200   CLINEA 0000H 0001H 0C9CH 0002H 000EH
00:0028 82-A0 54-F2             10201   	rb	0f254h.0
                                10202   
                                10203   ;;	PA1MD1  = 0;	// PortA Bit1 set to General Purpose Output...
                                10204   CLINEA 0000H 0001H 0C9DH 0002H 003CH
00:002C 92-A0 55-F2             10205   	rb	0f255h.1
                                10206   
                                10207   ;;	PA1MD0  = 0;	
                                10208   CLINEA 0000H 0001H 0C9EH 0002H 000EH
00:0030 92-A0 54-F2             10209   	rb	0f254h.1
                                10210   
                                10211   ;;	PA2MD1  = 0;	// PortA Bit2 set to General Purpose Output...
                                10212   CLINEA 0000H 0001H 0C9FH 0002H 003CH
00:0034 A2-A0 55-F2             10213   	rb	0f255h.2
                                10214   
                                10215   ;;	PA2MD0  = 0;	
                                10216   CLINEA 0000H 0001H 0CA0H 0002H 000EH
00:0038 A2-A0 54-F2             10217   	rb	0f254h.2
                                10218   
                                10219   ;;	PA0D = 0;		// A.0 Output OFF....
                                10220   CLINEA 0000H 0001H 0CA3H 0002H 0021H
00:003C 82-A0 50-F2             10221   	rb	0f250h.0
                                10222   
                                10223   ;;	PA1D = 0;		// A.1 Output OFF....
                                10224   CLINEA 0000H 0001H 0CA4H 0002H 0021H
00:0040 92-A0 50-F2             10225   	rb	0f250h.1
                                10226   
                                10227   ;;	PA2D = 0;		// A.2 Output OFF....
                                10228   CLINEA 0000H 0001H 0CA5H 0002H 0021H
00:0044 A2-A0 50-F2             10229   	rb	0f250h.2
                                10230   
                                10231   ;;	main_clrWDT(); 	// Clear WDT
                                10232   CLINEA 0000H 0001H 0CA7H 0002H 001DH
00:0048 00-F0'00-00'            10233   	b	_main_clrWDT
                                10234   CBLOCKEND 210 2 3241
                                10235   CLINEA 0000H 0001H 0CA9H 0001H 0001H
                                10236   CBLOCKEND 210 1 3241
                                10237   CFUNCTIONEND 210
                                10238   
                                10239   
  --------------------------    10240   	rseg $$PortB_Low$main
                                10241   CFUNCTION 211
                                10242   
00:0000                         10243   _PortB_Low	:
                                10244   CBLOCK 211 1 3247
                                10245   
                                10246   ;;void PortB_Low(void){
                                10247   CLINEA 0000H 0001H 0CAFH 0001H 0015H
                                10248   CBLOCK 211 2 3247
                                10249   
                                10250   ;;	PB0DIR = 0;		// PortB Bit0 set to Output Mode...
                                10251   CLINEA 0000H 0001H 0CB9H 0002H 0031H
00:0000 82-A0 59-F2             10252   	rb	0f259h.0
                                10253   
                                10254   ;;	PB1DIR = 0;		// PortB Bit1 set to Output Mode...
                                10255   CLINEA 0000H 0001H 0CBAH 0002H 0031H
00:0004 92-A0 59-F2             10256   	rb	0f259h.1
                                10257   
                                10258   ;;	PB2DIR = 0;		// PortB Bit2 set to Output Mode...
                                10259   CLINEA 0000H 0001H 0CBBH 0002H 0031H
00:0008 A2-A0 59-F2             10260   	rb	0f259h.2
                                10261   
                                10262   ;;	PB3DIR = 0;		// PortB Bit3 set to Output Mode...
                                10263   CLINEA 0000H 0001H 0CBCH 0002H 0031H
00:000C B2-A0 59-F2             10264   	rb	0f259h.3
                                10265   
                                10266   ;;	PB4DIR = 0;		// PortB Bit4 set to Output Mode...
                                10267   CLINEA 0000H 0001H 0CBDH 0002H 0031H
00:0010 C2-A0 59-F2             10268   	rb	0f259h.4
                                10269   
                                10270   ;;	PB5DIR = 0;		// PortB Bit5 set to Output Mode...
                                10271   CLINEA 0000H 0001H 0CBEH 0002H 0031H
00:0014 D2-A0 59-F2             10272   	rb	0f259h.5
                                10273   
                                10274   ;;	PB6DIR = 0;		// PortB Bit6 set to Output Mode...
                                10275   CLINEA 0000H 0001H 0CBFH 0002H 0031H
00:0018 E2-A0 59-F2             10276   	rb	0f259h.6
                                10277   
                                10278   ;;	PB7DIR = 0;		// PortB Bit7 set to Output Mode...
                                10279   CLINEA 0000H 0001H 0CC0H 0002H 0031H
00:001C F2-A0 59-F2             10280   	rb	0f259h.7
                                10281   
                                10282   ;;	PB0C1  = 1;		// PortB Bit0 set to CMOS Output...
                                10283   CLINEA 0000H 0001H 0CC3H 0002H 0031H
00:0020 80-A0 5B-F2             10284   	sb	0f25bh.0
                                10285   
                                10286   ;;	PB0C0  = 1;		
                                10287   CLINEA 0000H 0001H 0CC4H 0002H 000EH
00:0024 80-A0 5A-F2             10288   	sb	0f25ah.0
                                10289   
                                10290   ;;	PB1C1  = 1;		// PortB Bit1 set to CMOS Output...
                                10291   CLINEA 0000H 0001H 0CC5H 0002H 0031H
00:0028 90-A0 5B-F2             10292   	sb	0f25bh.1
                                10293   
                                10294   ;;	PB1C0  = 1;	
                                10295   CLINEA 0000H 0001H 0CC6H 0002H 000DH
00:002C 90-A0 5A-F2             10296   	sb	0f25ah.1
                                10297   
                                10298   ;;	PB2C1  = 1;		// PortB Bit2 set to CMOS Output...
                                10299   CLINEA 0000H 0001H 0CC7H 0002H 0031H
00:0030 A0-A0 5B-F2             10300   	sb	0f25bh.2
                                10301   
                                10302   ;;	PB2C0  = 1;	
                                10303   CLINEA 0000H 0001H 0CC8H 0002H 000DH
00:0034 A0-A0 5A-F2             10304   	sb	0f25ah.2
                                10305   
                                10306   ;;	PB3C1  = 1;		// PortB Bit3 set to CMOS Output...
                                10307   CLINEA 0000H 0001H 0CC9H 0002H 0031H
00:0038 B0-A0 5B-F2             10308   	sb	0f25bh.3
                                10309   
                                10310   ;;	PB3C0  = 1;		
                                10311   CLINEA 0000H 0001H 0CCAH 0002H 000EH
00:003C B0-A0 5A-F2             10312   	sb	0f25ah.3
                                10313   
                                10314   ;;	PB4C1  = 1;		// PortB Bit4 set to CMOS Output...
                                10315   CLINEA 0000H 0001H 0CCBH 0002H 0031H
00:0040 C0-A0 5B-F2             10316   	sb	0f25bh.4
                                10317   
                                10318   ;;	PB4C0  = 1;	
                                10319   CLINEA 0000H 0001H 0CCCH 0002H 000DH
00:0044 C0-A0 5A-F2             10320   	sb	0f25ah.4
                                10321   
                                10322   ;;	PB5C1  = 1;		// PortB Bit5 set to CMOS Output...
                                10323   CLINEA 0000H 0001H 0CCDH 0002H 0031H
00:0048 D0-A0 5B-F2             10324   	sb	0f25bh.5
                                10325   
                                10326   ;;	PB5C0  = 1;	
                                10327   CLINEA 0000H 0001H 0CCEH 0002H 000DH
00:004C D0-A0 5A-F2             10328   	sb	0f25ah.5
                                10329   
                                10330   ;;	PB6C1  = 1;		// PortB Bit6 set to CMOS Output...
                                10331   CLINEA 0000H 0001H 0CCFH 0002H 0031H
00:0050 E0-A0 5B-F2             10332   	sb	0f25bh.6
                                10333   
                                10334   ;;	PB6C0  = 1;	
                                10335   CLINEA 0000H 0001H 0CD0H 0002H 000DH
00:0054 E0-A0 5A-F2             10336   	sb	0f25ah.6
                                10337   
                                10338   ;;	PB7C1  = 1;		// PortB Bit7 set to CMOS Output...
                                10339   CLINEA 0000H 0001H 0CD1H 0002H 0031H
00:0058 F0-A0 5B-F2             10340   	sb	0f25bh.7
                                10341   
                                10342   ;;	PB7C0  = 1;	
                                10343   CLINEA 0000H 0001H 0CD2H 0002H 000DH
00:005C F0-A0 5A-F2             10344   	sb	0f25ah.7
                                10345   
                                10346   ;;	PB0MD1  = 0;	// PortB Bit0 set to General Purpose Output...
                                10347   CLINEA 0000H 0001H 0CD5H 0002H 003CH
00:0060 82-A0 5D-F2             10348   	rb	0f25dh.0
                                10349   
                                10350   ;;	PB0MD0  = 0;	
                                10351   CLINEA 0000H 0001H 0CD6H 0002H 000EH
00:0064 82-A0 5C-F2             10352   	rb	0f25ch.0
                                10353   
                                10354   ;;	PB1MD1  = 0;	// PortB Bit1 set to General Purpose Output...
                                10355   CLINEA 0000H 0001H 0CD7H 0002H 003CH
00:0068 92-A0 5D-F2             10356   	rb	0f25dh.1
                                10357   
                                10358   ;;	PB1MD0  = 0;	
                                10359   CLINEA 0000H 0001H 0CD8H 0002H 000EH
00:006C 92-A0 5C-F2             10360   	rb	0f25ch.1
                                10361   
                                10362   ;;	PB2MD1  = 0;	// PortB Bit2 set to General Purpose Output...
                                10363   CLINEA 0000H 0001H 0CD9H 0002H 003CH
00:0070 A2-A0 5D-F2             10364   	rb	0f25dh.2
                                10365   
                                10366   ;;	PB2MD0  = 0;	
                                10367   CLINEA 0000H 0001H 0CDAH 0002H 000EH
00:0074 A2-A0 5C-F2             10368   	rb	0f25ch.2
                                10369   
                                10370   ;;	PB3MD1  = 0;	// PortB Bit3 set to General Purpose Output...
                                10371   CLINEA 0000H 0001H 0CDBH 0002H 003CH
00:0078 B2-A0 5D-F2             10372   	rb	0f25dh.3
                                10373   
                                10374   ;;	PB3MD0  = 0;	
                                10375   CLINEA 0000H 0001H 0CDCH 0002H 000EH
00:007C B2-A0 5C-F2             10376   	rb	0f25ch.3
                                10377   
                                10378   ;;	PB4MD1  = 0;	// PortB Bit4 set to General Purpose Output...
                                10379   CLINEA 0000H 0001H 0CDDH 0002H 003CH
00:0080 C2-A0 5D-F2             10380   	rb	0f25dh.4
                                10381   
                                10382   ;;	PB4MD0  = 0;	
                                10383   CLINEA 0000H 0001H 0CDEH 0002H 000EH
00:0084 C2-A0 5C-F2             10384   	rb	0f25ch.4
                                10385   
                                10386   ;;	PB5MD1  = 0;	// PortB Bit5 set to General Purpose Output...
                                10387   CLINEA 0000H 0001H 0CDFH 0002H 003CH
00:0088 D2-A0 5D-F2             10388   	rb	0f25dh.5
                                10389   
                                10390   ;;	PB5MD0  = 0;
                                10391   CLINEA 0000H 0001H 0CE0H 0002H 000DH
00:008C D2-A0 5C-F2             10392   	rb	0f25ch.5
                                10393   
                                10394   ;;	PB6MD1  = 0;	// PortB Bit6 set to General Purpose Output...
                                10395   CLINEA 0000H 0001H 0CE1H 0002H 003CH
00:0090 E2-A0 5D-F2             10396   	rb	0f25dh.6
                                10397   
                                10398   ;;	PB6MD0  = 0;	
                                10399   CLINEA 0000H 0001H 0CE2H 0002H 000EH
00:0094 E2-A0 5C-F2             10400   	rb	0f25ch.6
                                10401   
                                10402   ;;	PB7MD1  = 0;	// PortB Bit7 set to General Purpose Output...
                                10403   CLINEA 0000H 0001H 0CE3H 0002H 003CH
00:0098 F2-A0 5D-F2             10404   	rb	0f25dh.7
                                10405   
                                10406   ;;	PB7MD0  = 0;
                                10407   CLINEA 0000H 0001H 0CE4H 0002H 000DH
00:009C F2-A0 5C-F2             10408   	rb	0f25ch.7
                                10409   
                                10410   ;;	PB0D = 0;		// B.0 Output OFF....
                                10411   CLINEA 0000H 0001H 0CE7H 0002H 0021H
00:00A0 82-A0 58-F2             10412   	rb	0f258h.0
                                10413   
                                10414   ;;	PB1D = 0;		// B.1 Output OFF....
                                10415   CLINEA 0000H 0001H 0CE8H 0002H 0021H
00:00A4 92-A0 58-F2             10416   	rb	0f258h.1
                                10417   
                                10418   ;;	PB2D = 0;		// B.2 Output OFF....
                                10419   CLINEA 0000H 0001H 0CE9H 0002H 0021H
00:00A8 A2-A0 58-F2             10420   	rb	0f258h.2
                                10421   
                                10422   ;;	PB3D = 0;		// B.3 Output OFF....
                                10423   CLINEA 0000H 0001H 0CEAH 0002H 0021H
00:00AC B2-A0 58-F2             10424   	rb	0f258h.3
                                10425   
                                10426   ;;	PB4D = 0;		// B.4 Output OFF....
                                10427   CLINEA 0000H 0001H 0CEBH 0002H 0021H
00:00B0 C2-A0 58-F2             10428   	rb	0f258h.4
                                10429   
                                10430   ;;	PB5D = 0;		// B.5 Output OFF....
                                10431   CLINEA 0000H 0001H 0CECH 0002H 0021H
00:00B4 D2-A0 58-F2             10432   	rb	0f258h.5
                                10433   
                                10434   ;;	PB6D = 0;		// B.6 Output OFF....
                                10435   CLINEA 0000H 0001H 0CEDH 0002H 0021H
00:00B8 E2-A0 58-F2             10436   	rb	0f258h.6
                                10437   
                                10438   ;;	PB7D = 0;		// B.7 Output OFF....
                                10439   CLINEA 0000H 0001H 0CEEH 0002H 0021H
00:00BC F2-A0 58-F2             10440   	rb	0f258h.7
                                10441   
                                10442   ;;	main_clrWDT(); 	// Clear WDT
                                10443   CLINEA 0000H 0001H 0CF0H 0002H 001DH
00:00C0 00-F0'00-00'            10444   	b	_main_clrWDT
                                10445   CBLOCKEND 211 2 3314
                                10446   CLINEA 0000H 0001H 0CF2H 0001H 0001H
                                10447   CBLOCKEND 211 1 3314
                                10448   CFUNCTIONEND 211
                                10449   
                                10450   
  --------------------------    10451   	rseg $$PortC_Low$main
                                10452   CFUNCTION 212
                                10453   
00:0000                         10454   _PortC_Low	:
                                10455   CBLOCK 212 1 3320
                                10456   
                                10457   ;;void PortC_Low(void){
                                10458   CLINEA 0000H 0001H 0CF8H 0001H 0015H
                                10459   CBLOCK 212 2 3320
                                10460   
                                10461   ;;	PC0DIR = 0;		// PortC Bit0 set to Output Mode...
                                10462   CLINEA 0000H 0001H 0D02H 0002H 0031H
00:0000 82-A0 61-F2             10463   	rb	0f261h.0
                                10464   
                                10465   ;;	PC1DIR = 0;		// PortC Bit1 set to Output Mode...
                                10466   CLINEA 0000H 0001H 0D03H 0002H 0031H
00:0004 92-A0 61-F2             10467   	rb	0f261h.1
                                10468   
                                10469   ;;	PC2DIR = 0;		// PortC Bit2 set to Output Mode...
                                10470   CLINEA 0000H 0001H 0D04H 0002H 0031H
00:0008 A2-A0 61-F2             10471   	rb	0f261h.2
                                10472   
                                10473   ;;	PC3DIR = 0;		// PortC Bit3 set to Output Mode...
                                10474   CLINEA 0000H 0001H 0D05H 0002H 0031H
00:000C B2-A0 61-F2             10475   	rb	0f261h.3
                                10476   
                                10477   ;;	PC4DIR = 0;		// PortC Bit4 set to Output Mode...
                                10478   CLINEA 0000H 0001H 0D06H 0002H 0031H
00:0010 C2-A0 61-F2             10479   	rb	0f261h.4
                                10480   
                                10481   ;;	PC5DIR = 0;		// PortC Bit5 set to Output Mode...
                                10482   CLINEA 0000H 0001H 0D07H 0002H 0031H
00:0014 D2-A0 61-F2             10483   	rb	0f261h.5
                                10484   
                                10485   ;;	PC6DIR = 0;		// PortC Bit6 set to Output Mode...
                                10486   CLINEA 0000H 0001H 0D08H 0002H 0031H
00:0018 E2-A0 61-F2             10487   	rb	0f261h.6
                                10488   
                                10489   ;;	PC7DIR = 0;		// PortC Bit7 set to Output Mode...
                                10490   CLINEA 0000H 0001H 0D09H 0002H 0031H
00:001C F2-A0 61-F2             10491   	rb	0f261h.7
                                10492   
                                10493   ;;	PC0C1  = 1;		// PortC Bit0 set to High-Impedance Output...
                                10494   CLINEA 0000H 0001H 0D0CH 0002H 003BH
00:0020 80-A0 63-F2             10495   	sb	0f263h.0
                                10496   
                                10497   ;;	PC0C0  = 1;		
                                10498   CLINEA 0000H 0001H 0D0DH 0002H 000EH
00:0024 80-A0 62-F2             10499   	sb	0f262h.0
                                10500   
                                10501   ;;	PC1C1  = 1;		// PortC Bit1 set to High-Impedance Output...
                                10502   CLINEA 0000H 0001H 0D0EH 0002H 003BH
00:0028 90-A0 63-F2             10503   	sb	0f263h.1
                                10504   
                                10505   ;;	PC1C0  = 1;	
                                10506   CLINEA 0000H 0001H 0D0FH 0002H 000DH
00:002C 90-A0 62-F2             10507   	sb	0f262h.1
                                10508   
                                10509   ;;	PC2C1  = 1;		// PortC Bit2 set to High-Impedance Output...
                                10510   CLINEA 0000H 0001H 0D10H 0002H 003BH
00:0030 A0-A0 63-F2             10511   	sb	0f263h.2
                                10512   
                                10513   ;;	PC2C0  = 1;	
                                10514   CLINEA 0000H 0001H 0D11H 0002H 000DH
00:0034 A0-A0 62-F2             10515   	sb	0f262h.2
                                10516   
                                10517   ;;	PC3C1  = 1;		// PortC Bit3 set to High-Impedance Output...
                                10518   CLINEA 0000H 0001H 0D12H 0002H 003BH
00:0038 B0-A0 63-F2             10519   	sb	0f263h.3
                                10520   
                                10521   ;;	PC3C0  = 1;		
                                10522   CLINEA 0000H 0001H 0D13H 0002H 000EH
00:003C B0-A0 62-F2             10523   	sb	0f262h.3
                                10524   
                                10525   ;;	PC4C1  = 1;		// PortC Bit4 set to High-Impedance Output...
                                10526   CLINEA 0000H 0001H 0D14H 0002H 003BH
00:0040 C0-A0 63-F2             10527   	sb	0f263h.4
                                10528   
                                10529   ;;	PC4C0  = 1;	
                                10530   CLINEA 0000H 0001H 0D15H 0002H 000DH
00:0044 C0-A0 62-F2             10531   	sb	0f262h.4
                                10532   
                                10533   ;;	PC5C1  = 1;		// PortC Bit5 set to High-Impedance Output...
                                10534   CLINEA 0000H 0001H 0D16H 0002H 003BH
00:0048 D0-A0 63-F2             10535   	sb	0f263h.5
                                10536   
                                10537   ;;	PC5C0  = 1;	
                                10538   CLINEA 0000H 0001H 0D17H 0002H 000DH
00:004C D0-A0 62-F2             10539   	sb	0f262h.5
                                10540   
                                10541   ;;	PC6C1  = 1;		// PortC Bit6 set to High-Impedance Output...
                                10542   CLINEA 0000H 0001H 0D18H 0002H 003BH
00:0050 E0-A0 63-F2             10543   	sb	0f263h.6
                                10544   
                                10545   ;;	PC6C0  = 1;	
                                10546   CLINEA 0000H 0001H 0D19H 0002H 000DH
00:0054 E0-A0 62-F2             10547   	sb	0f262h.6
                                10548   
                                10549   ;;	PC7C1  = 1;		// PortC Bit7 set to High-Impedance Output...
                                10550   CLINEA 0000H 0001H 0D1AH 0002H 003BH
00:0058 F0-A0 63-F2             10551   	sb	0f263h.7
                                10552   
                                10553   ;;	PC7C0  = 1;	
                                10554   CLINEA 0000H 0001H 0D1BH 0002H 000DH
00:005C F0-A0 62-F2             10555   	sb	0f262h.7
                                10556   
                                10557   ;;	PC0MD1  = 0;	// PortC Bit0 set to General Purpose Output...
                                10558   CLINEA 0000H 0001H 0D1EH 0002H 003CH
00:0060 82-A0 65-F2             10559   	rb	0f265h.0
                                10560   
                                10561   ;;	PC0MD0  = 0;	
                                10562   CLINEA 0000H 0001H 0D1FH 0002H 000EH
00:0064 82-A0 64-F2             10563   	rb	0f264h.0
                                10564   
                                10565   ;;	PC1MD1  = 0;	// PortC Bit1 set to General Purpose Output...
                                10566   CLINEA 0000H 0001H 0D20H 0002H 003CH
00:0068 92-A0 65-F2             10567   	rb	0f265h.1
                                10568   
                                10569   ;;	PC1MD0  = 0;	
                                10570   CLINEA 0000H 0001H 0D21H 0002H 000EH
00:006C 92-A0 64-F2             10571   	rb	0f264h.1
                                10572   
                                10573   ;;	PC2MD1  = 0;	// PortC Bit2 set to General Purpose Output...
                                10574   CLINEA 0000H 0001H 0D22H 0002H 003CH
00:0070 A2-A0 65-F2             10575   	rb	0f265h.2
                                10576   
                                10577   ;;	PC2MD0  = 0;	
                                10578   CLINEA 0000H 0001H 0D23H 0002H 000EH
00:0074 A2-A0 64-F2             10579   	rb	0f264h.2
                                10580   
                                10581   ;;	PC3MD1  = 0;	// PortC Bit3 set to General Purpose Output...
                                10582   CLINEA 0000H 0001H 0D24H 0002H 003CH
00:0078 B2-A0 65-F2             10583   	rb	0f265h.3
                                10584   
                                10585   ;;	PC3MD0  = 0;	
                                10586   CLINEA 0000H 0001H 0D25H 0002H 000EH
00:007C B2-A0 64-F2             10587   	rb	0f264h.3
                                10588   
                                10589   ;;	PC4MD1  = 0;	// PortC Bit4 set to General Purpose Output...
                                10590   CLINEA 0000H 0001H 0D26H 0002H 003CH
00:0080 C2-A0 65-F2             10591   	rb	0f265h.4
                                10592   
                                10593   ;;	PC4MD0  = 0;	
                                10594   CLINEA 0000H 0001H 0D27H 0002H 000EH
00:0084 C2-A0 64-F2             10595   	rb	0f264h.4
                                10596   
                                10597   ;;	PC5MD1  = 0;	// PortC Bit5 set to General Purpose Output...
                                10598   CLINEA 0000H 0001H 0D28H 0002H 003CH
00:0088 D2-A0 65-F2             10599   	rb	0f265h.5
                                10600   
                                10601   ;;	PC5MD0  = 0;
                                10602   CLINEA 0000H 0001H 0D29H 0002H 000DH
00:008C D2-A0 64-F2             10603   	rb	0f264h.5
                                10604   
                                10605   ;;	PC6MD1  = 0;	// PortC Bit6 set to General Purpose Output...
                                10606   CLINEA 0000H 0001H 0D2AH 0002H 003CH
00:0090 E2-A0 65-F2             10607   	rb	0f265h.6
                                10608   
                                10609   ;;	PC6MD0  = 0;	
                                10610   CLINEA 0000H 0001H 0D2BH 0002H 000EH
00:0094 E2-A0 64-F2             10611   	rb	0f264h.6
                                10612   
                                10613   ;;	PC7MD1  = 0;	// PortC Bit7 set to General Purpose Output...
                                10614   CLINEA 0000H 0001H 0D2CH 0002H 003CH
00:0098 F2-A0 65-F2             10615   	rb	0f265h.7
                                10616   
                                10617   ;;	PC7MD0  = 0;
                                10618   CLINEA 0000H 0001H 0D2DH 0002H 000DH
00:009C F2-A0 64-F2             10619   	rb	0f264h.7
                                10620   
                                10621   ;;	PC0D = 0;		// C.0 Output OFF....
                                10622   CLINEA 0000H 0001H 0D30H 0002H 0021H
00:00A0 82-A0 60-F2             10623   	rb	0f260h.0
                                10624   
                                10625   ;;	PC1D = 0;		// C.1 Output OFF....
                                10626   CLINEA 0000H 0001H 0D31H 0002H 0021H
00:00A4 92-A0 60-F2             10627   	rb	0f260h.1
                                10628   
                                10629   ;;	PC2D = 0;		// C.2 Output OFF....
                                10630   CLINEA 0000H 0001H 0D32H 0002H 0021H
00:00A8 A2-A0 60-F2             10631   	rb	0f260h.2
                                10632   
                                10633   ;;	PC3D = 0;		// C.3 Output OFF....
                                10634   CLINEA 0000H 0001H 0D33H 0002H 0021H
00:00AC B2-A0 60-F2             10635   	rb	0f260h.3
                                10636   
                                10637   ;;	PC4D = 0;		// C.4 Output OFF....
                                10638   CLINEA 0000H 0001H 0D34H 0002H 0021H
00:00B0 C2-A0 60-F2             10639   	rb	0f260h.4
                                10640   
                                10641   ;;	PC5D = 0;		// C.5 Output OFF....
                                10642   CLINEA 0000H 0001H 0D35H 0002H 0021H
00:00B4 D2-A0 60-F2             10643   	rb	0f260h.5
                                10644   
                                10645   ;;	PC6D = 0;		// C.6 Output OFF....
                                10646   CLINEA 0000H 0001H 0D36H 0002H 0021H
00:00B8 E2-A0 60-F2             10647   	rb	0f260h.6
                                10648   
                                10649   ;;	PC7D = 0;		// C.7 Output OFF....
                                10650   CLINEA 0000H 0001H 0D37H 0002H 0021H
00:00BC F2-A0 60-F2             10651   	rb	0f260h.7
                                10652   
                                10653   ;;	main_clrWDT(); 	// Clear WDT
                                10654   CLINEA 0000H 0001H 0D39H 0002H 001DH
00:00C0 00-F0'00-00'            10655   	b	_main_clrWDT
                                10656   CBLOCKEND 212 2 3387
                                10657   CLINEA 0000H 0001H 0D3BH 0001H 0001H
                                10658   CBLOCKEND 212 1 3387
                                10659   CFUNCTIONEND 212
                                10660   
                                10661   
  --------------------------    10662   	rseg $$PortD_Low$main
                                10663   CFUNCTION 213
                                10664   
00:0000                         10665   _PortD_Low	:
                                10666   CBLOCK 213 1 3393
                                10667   
                                10668   ;;void PortD_Low(void){
                                10669   CLINEA 0000H 0001H 0D41H 0001H 0015H
                                10670   CBLOCK 213 2 3393
                                10671   
                                10672   ;;	PD0DIR = 0;		// PortD Bit0 set to Output Mode...
                                10673   CLINEA 0000H 0001H 0D4AH 0002H 0031H
00:0000 82-A0 69-F2             10674   	rb	0f269h.0
                                10675   
                                10676   ;;	PD1DIR = 0;		// PortD Bit1 set to Output Mode...
                                10677   CLINEA 0000H 0001H 0D4BH 0002H 0031H
00:0004 92-A0 69-F2             10678   	rb	0f269h.1
                                10679   
                                10680   ;;	PD2DIR = 0;		// PortD Bit2 set to Output Mode...
                                10681   CLINEA 0000H 0001H 0D4CH 0002H 0031H
00:0008 A2-A0 69-F2             10682   	rb	0f269h.2
                                10683   
                                10684   ;;	PD3DIR = 0;		// PortD Bit3 set to Output Mode...
                                10685   CLINEA 0000H 0001H 0D4DH 0002H 0031H
00:000C B2-A0 69-F2             10686   	rb	0f269h.3
                                10687   
                                10688   ;;	PD4DIR = 0;		// PortD Bit4 set to Output Mode...
                                10689   CLINEA 0000H 0001H 0D4EH 0002H 0031H
00:0010 C2-A0 69-F2             10690   	rb	0f269h.4
                                10691   
                                10692   ;;	PD5DIR = 0;		// PortD Bit5 set to Output Mode...
                                10693   CLINEA 0000H 0001H 0D4FH 0002H 0031H
00:0014 D2-A0 69-F2             10694   	rb	0f269h.5
                                10695   
                                10696   ;;	PD0C1= 1;		// PortD Bit0 set to CMOS Output...
                                10697   CLINEA 0000H 0001H 0D52H 0002H 002FH
00:0018 80-A0 6B-F2             10698   	sb	0f26bh.0
                                10699   
                                10700   ;;	PD0C0= 1;		
                                10701   CLINEA 0000H 0001H 0D53H 0002H 000CH
00:001C 80-A0 6A-F2             10702   	sb	0f26ah.0
                                10703   
                                10704   ;;	PD1C1= 1;		// PortD Bit1 set to CMOS Output...
                                10705   CLINEA 0000H 0001H 0D54H 0002H 002FH
00:0020 90-A0 6B-F2             10706   	sb	0f26bh.1
                                10707   
                                10708   ;;	PD1C0= 1;	
                                10709   CLINEA 0000H 0001H 0D55H 0002H 000BH
00:0024 90-A0 6A-F2             10710   	sb	0f26ah.1
                                10711   
                                10712   ;;	PD2C1= 1;		// PortD Bit2 set to CMOS Output...
                                10713   CLINEA 0000H 0001H 0D56H 0002H 002FH
00:0028 A0-A0 6B-F2             10714   	sb	0f26bh.2
                                10715   
                                10716   ;;	PD2C0= 1;	
                                10717   CLINEA 0000H 0001H 0D57H 0002H 000BH
00:002C A0-A0 6A-F2             10718   	sb	0f26ah.2
                                10719   
                                10720   ;;	PD3C1= 1;		// PortD Bit3 set to CMOS Output...
                                10721   CLINEA 0000H 0001H 0D58H 0002H 002FH
00:0030 B0-A0 6B-F2             10722   	sb	0f26bh.3
                                10723   
                                10724   ;;	PD3C0= 1;		
                                10725   CLINEA 0000H 0001H 0D59H 0002H 000CH
00:0034 B0-A0 6A-F2             10726   	sb	0f26ah.3
                                10727   
                                10728   ;;	PD4C1= 1;		// PortD Bit4 set to CMOS Output...
                                10729   CLINEA 0000H 0001H 0D5AH 0002H 002FH
00:0038 C0-A0 6B-F2             10730   	sb	0f26bh.4
                                10731   
                                10732   ;;	PD4C0= 1;	
                                10733   CLINEA 0000H 0001H 0D5BH 0002H 000BH
00:003C C0-A0 6A-F2             10734   	sb	0f26ah.4
                                10735   
                                10736   ;;	PD5C1= 1;		// PortD Bit5 set to CMOS Output...
                                10737   CLINEA 0000H 0001H 0D5CH 0002H 002FH
00:0040 D0-A0 6B-F2             10738   	sb	0f26bh.5
                                10739   
                                10740   ;;	PD5C0= 1;	
                                10741   CLINEA 0000H 0001H 0D5DH 0002H 000BH
00:0044 D0-A0 6A-F2             10742   	sb	0f26ah.5
                                10743   
                                10744   ;;	PD0D = 0;		// D.0 Output OFF....
                                10745   CLINEA 0000H 0001H 0D60H 0002H 0021H
00:0048 82-A0 68-F2             10746   	rb	0f268h.0
                                10747   
                                10748   ;;	PD1D = 0;		// D.1 Output OFF....
                                10749   CLINEA 0000H 0001H 0D61H 0002H 0021H
00:004C 92-A0 68-F2             10750   	rb	0f268h.1
                                10751   
                                10752   ;;	PD2D = 0;		// D.2 Output OFF....
                                10753   CLINEA 0000H 0001H 0D62H 0002H 0021H
00:0050 A2-A0 68-F2             10754   	rb	0f268h.2
                                10755   
                                10756   ;;	PD3D = 0;		// D.3 Output OFF....
                                10757   CLINEA 0000H 0001H 0D63H 0002H 0021H
00:0054 B2-A0 68-F2             10758   	rb	0f268h.3
                                10759   
                                10760   ;;	PD4D = 0;		// D.4 Output OFF....
                                10761   CLINEA 0000H 0001H 0D64H 0002H 0021H
00:0058 C2-A0 68-F2             10762   	rb	0f268h.4
                                10763   
                                10764   ;;	PD5D = 0;		// D.5 Output OFF....
                                10765   CLINEA 0000H 0001H 0D65H 0002H 0021H
00:005C D2-A0 68-F2             10766   	rb	0f268h.5
                                10767   
                                10768   ;;	main_clrWDT(); 	// Clear WDT
                                10769   CLINEA 0000H 0001H 0D68H 0002H 001DH
00:0060 00-F0'00-00'            10770   	b	_main_clrWDT
                                10771   CBLOCKEND 213 2 3434
                                10772   CLINEA 0000H 0001H 0D6AH 0001H 0001H
                                10773   CBLOCKEND 213 1 3434
                                10774   CFUNCTIONEND 213
                                10775   
                                10776   
  --------------------------    10777   	rseg $$PortA_Digital_Inputs$main
                                10778   CFUNCTION 214
                                10779   
00:0000                         10780   _PortA_Digital_Inputs	:
                                10781   CBLOCK 214 1 3440
                                10782   
                                10783   ;;void PortA_Digital_Inputs(void){
                                10784   CLINEA 0000H 0001H 0D70H 0001H 0020H
                                10785   CBLOCK 214 2 3440
                                10786   
                                10787   ;;	PA0DIR = 1;		// PortA Bit0 set to Input Mode...
                                10788   CLINEA 0000H 0001H 0D7AH 0002H 0030H
00:0000 80-A0 51-F2             10789   	sb	0f251h.0
                                10790   
                                10791   ;;	PA1DIR = 1;		// PortA Bit1 set to Input Mode...
                                10792   CLINEA 0000H 0001H 0D7BH 0002H 0030H
00:0004 90-A0 51-F2             10793   	sb	0f251h.1
                                10794   
                                10795   ;;	PA2DIR = 1;		// PortA Bit2 set to Input Mode...
                                10796   CLINEA 0000H 0001H 0D7CH 0002H 0030H
00:0008 A0-A0 51-F2             10797   	sb	0f251h.2
                                10798   
                                10799   ;;	PA0C1  = 1;		// PortA Bit0 set to Input with Pull-Up Resistor...
                                10800   CLINEA 0000H 0001H 0D80H 0002H 0041H
00:000C 80-A0 53-F2             10801   	sb	0f253h.0
                                10802   
                                10803   ;;	PA0C0  = 0;		
                                10804   CLINEA 0000H 0001H 0D81H 0002H 000EH
00:0010 82-A0 52-F2             10805   	rb	0f252h.0
                                10806   
                                10807   ;;	PA1C1  = 1;		// PortA Bit1 set to Input with Pull-Up Resistor...
                                10808   CLINEA 0000H 0001H 0D82H 0002H 0041H
00:0014 90-A0 53-F2             10809   	sb	0f253h.1
                                10810   
                                10811   ;;	PA1C0  = 0;	
                                10812   CLINEA 0000H 0001H 0D83H 0002H 000DH
00:0018 92-A0 52-F2             10813   	rb	0f252h.1
                                10814   
                                10815   ;;	PA2C1  = 1;		// PortA Bit2 set to Input with Pull-Up Resistor...
                                10816   CLINEA 0000H 0001H 0D84H 0002H 0041H
00:001C A0-A0 53-F2             10817   	sb	0f253h.2
                                10818   
                                10819   ;;	PA2C0  = 0;	
                                10820   CLINEA 0000H 0001H 0D85H 0002H 000DH
00:0020 A2-A0 52-F2             10821   	rb	0f252h.2
                                10822   
                                10823   ;;	PA0MD1  = 0;	// PortA Bit0 set to General Purpose I/O...
                                10824   CLINEA 0000H 0001H 0D88H 0002H 0039H
00:0024 82-A0 55-F2             10825   	rb	0f255h.0
                                10826   
                                10827   ;;	PA0MD0  = 0;	
                                10828   CLINEA 0000H 0001H 0D89H 0002H 000EH
00:0028 82-A0 54-F2             10829   	rb	0f254h.0
                                10830   
                                10831   ;;	PA1MD1  = 0;	// PortA Bit1 set to General Purpose I/O...
                                10832   CLINEA 0000H 0001H 0D8AH 0002H 0039H
00:002C 92-A0 55-F2             10833   	rb	0f255h.1
                                10834   
                                10835   ;;	PA1MD0  = 0;	
                                10836   CLINEA 0000H 0001H 0D8BH 0002H 000EH
00:0030 92-A0 54-F2             10837   	rb	0f254h.1
                                10838   
                                10839   ;;	PA2MD1  = 0;	// PortA Bit2 set to General Purpose I/O...
                                10840   CLINEA 0000H 0001H 0D8CH 0002H 0039H
00:0034 A2-A0 55-F2             10841   	rb	0f255h.2
                                10842   
                                10843   ;;	PA2MD0  = 0;	
                                10844   CLINEA 0000H 0001H 0D8DH 0002H 000EH
00:0038 A2-A0 54-F2             10845   	rb	0f254h.2
                                10846   
                                10847   ;;	main_clrWDT(); 	// Clear WDT
                                10848   CLINEA 0000H 0001H 0D8FH 0002H 001DH
00:003C 00-F0'00-00'            10849   	b	_main_clrWDT
                                10850   CBLOCKEND 214 2 3473
                                10851   CLINEA 0000H 0001H 0D91H 0001H 0001H
                                10852   CBLOCKEND 214 1 3473
                                10853   CFUNCTIONEND 214
                                10854   
                                10855   
  --------------------------    10856   	rseg $$NOP$main
                                10857   CFUNCTION 251
                                10858   
00:0000                         10859   _NOP	:
                                10860   CBLOCK 251 1 3536
                                10861   
                                10862   ;;{
                                10863   CLINEA 0000H 0001H 0DD0H 0001H 0001H
00:0000 CE-F8                   10864   	push	lr
00:0002 6E-F4                   10865   	push	xr4
00:0004 5E-F8                   10866   	push	er8
00:0006 00-88                   10867   	mov	r8,	r0
                                10868   CBLOCK 251 2 3536
                                10869   CRET 0006H
                                10870   CARGUMENT 46H 0001H 001CH "sec" 02H 00H 00H
                                10871   CLOCAL 46H 0002H 0027H 0002H "timerThres" 02H 00H 01H
                                10872   CLOCAL 46H 0001H 0018H 0002H "TimeFlag" 02H 00H 00H
                                10873   CLOCAL 46H 0001H 0016H 0002H "TempSec" 02H 00H 00H
                                10874   CLOCAL 46H 0002H 0024H 0002H "timer" 02H 00H 01H
                                10875   CLOCAL 4AH 0002H 0000H 0002H "timertest" 02H 00H 01H
                                10876   
                                10877   ;;	tm_init(TM_CH_NO_AB);
                                10878   CLINEA 0000H 0001H 0DD7H 0002H 0016H
00:0008 01 00                   10879   	mov	r0,	#01h
00:000A 01-F0'00-00'            10880   	bl	_tm_init
                                10881   
                                10882   ;;	TempSec = sec;
                                10883   CLINEA 0000H 0001H 0DD8H 0002H 000FH
00:000E 80-82                   10884   	mov	r2,	r8
                                10885   
                                10886   ;;	TimeFlag = 0;
                                10887   CLINEA 0000H 0001H 0DD9H 0002H 000EH
00:0010 00 04                   10888   	mov	r4,	#00h
                                10889   
                                10890   ;;	tm_setABSource(TM_CS_LSCLK);
                                10891   CLINEA 0000H 0000H 018DH 0002H 0015H
00:0012 82-A0 EA-F8             10892   	rb	0f8eah.0
                                10893   
                                10894   ;;	tm_setABSource(TM_CS_LSCLK);
                                10895   CLINEA 0000H 0000H 018EH 0002H 001AH
00:0016 92-A0 EA-F8             10896   	rb	0f8eah.1
                                10897   
                                10898   ;;	tm_setABData(0xffff);
                                10899   CLINEA 0000H 0000H 0157H 0002H 0025H
00:001A FF 00                   10900   	mov	r0,	#0ffh
00:001C 11-90 E8-F8             10901   	st	r0,	0f8e8h
                                10902   
                                10903   ;;	tm_setABData(0xffff);
                                10904   CLINEA 0000H 0000H 0158H 0002H 0023H
00:0020 11-90 EC-F8             10905   	st	r0,	0f8ech
                                10906   
                                10907   ;;	if(sec == 1){
                                10908   CLINEA 0000H 0001H 0DDEH 0002H 000EH
00:0024 01 78                   10909   	cmp	r8,	#01h
00:0026 02 C8                   10910   	bne	_$L653
                                10911   CBLOCK 251 3 3550
                                10912   
                                10913   ;;		timerThres = 0x7FFF;
                                10914   CLINEA 0000H 0001H 0DDFH 0003H 0016H
00:0028 FF 06                   10915   	mov	r6,	#0ffh
00:002A 7F 07                   10916   	mov	r7,	#07fh
                                10917   
                                10918   ;;		TimeFlag = 0;
                                10919   CLINEA 0000H 0001H 0DE0H 0003H 000FH
                                10920   CBLOCKEND 251 3 3553
                                10921   
                                10922   ;;	}
                                10923   CLINEA 0000H 0000H 0DE1H 0002H 0002H
00:002C                         10924   _$L653 :
                                10925   
                                10926   ;;	if(sec == 2){
                                10927   CLINEA 0000H 0001H 0DE2H 0002H 000EH
00:002C 02 78                   10928   	cmp	r8,	#02h
00:002E 02 C8                   10929   	bne	_$L655
                                10930   CBLOCK 251 4 3554
                                10931   
                                10932   ;;		timerThres = 0xFFFF;
                                10933   CLINEA 0000H 0001H 0DE3H 0003H 0016H
00:0030 7F E6                   10934   	mov	er6,	#-1
                                10935   
                                10936   ;;		TimeFlag = 0;
                                10937   CLINEA 0000H 0001H 0DE4H 0003H 000FH
00:0032 00 04                   10938   	mov	r4,	#00h
                                10939   CBLOCKEND 251 4 3557
                                10940   
                                10941   ;;	}
                                10942   CLINEA 0000H 0000H 0DE5H 0002H 0002H
00:0034                         10943   _$L655 :
                                10944   
                                10945   ;;	if(sec > 2){
                                10946   CLINEA 0000H 0001H 0DE6H 0002H 000DH
00:0034 02 78                   10947   	cmp	r8,	#02h
00:0036 0C C3                   10948   	ble	_$L665
                                10949   CBLOCK 251 5 3558
                                10950   
                                10951   ;;	while(TempSec > 1){
                                10952   CLINEA 0000H 0000H 0DE7H 0001H 0001H
00:0038 02 CE                   10953   	bal	_$L675
                                10954   
                                10955   ;;	while(TempSec > 1){
                                10956   CLINEA 0000H 0000H 0DE7H 0002H 0014H
00:003A                         10957   _$L661 :
                                10958   CBLOCK 251 6 3559
                                10959   
                                10960   ;;		TempSec -= 2;
                                10961   CLINEA 0000H 0001H 0DE8H 0003H 000FH
00:003A FE 12                   10962   	add	r2,	#0feh
                                10963   
                                10964   ;;		TimeFlag++;
                                10965   CLINEA 0000H 0000H 0DE9H 0003H 000DH
00:003C 01 14                   10966   	add	r4,	#01h
                                10967   CBLOCKEND 251 6 3562
                                10968   
                                10969   ;;	while(TempSec > 1){
                                10970   CLINEA 0000H 0000H 0DE7H 0001H 0001H
00:003E                         10971   _$L675 :
                                10972   
                                10973   ;;	while(TempSec > 1){
                                10974   CLINEA 0000H 0000H 0DE7H 000EH 0013H
00:003E 01 72                   10975   	cmp	r2,	#01h
00:0040 FC C2                   10976   	bgt	_$L661
                                10977   
                                10978   ;;	if(TempSec == 1){
                                10979   CLINEA 0000H 0001H 0DEBH 0002H 0012H
00:0042 01 72                   10980   	cmp	r2,	#01h
00:0044 03 C8                   10981   	bne	_$L663
                                10982   CBLOCK 251 7 3563
                                10983   
                                10984   ;;		timerThres = 0x7FFF;
                                10985   CLINEA 0000H 0001H 0DECH 0003H 0016H
00:0046 FF 06                   10986   	mov	r6,	#0ffh
00:0048 7F 07                   10987   	mov	r7,	#07fh
                                10988   CBLOCKEND 251 7 3565
                                10989   
                                10990   ;;	else{
                                10991   CLINEA 0000H 0001H 0DEEH 0002H 0006H
00:004A 02 CE                   10992   	bal	_$L665
00:004C                         10993   _$L663 :
                                10994   CBLOCK 251 8 3566
                                10995   
                                10996   ;;		timerThres = 0xFFFF;
                                10997   CLINEA 0000H 0001H 0DEFH 0003H 0016H
00:004C 7F E6                   10998   	mov	er6,	#-1
                                10999   
                                11000   ;;		TimeFlag--;
                                11001   CLINEA 0000H 0000H 0DF0H 0003H 000DH
00:004E FF 14                   11002   	add	r4,	#0ffh
                                11003   CBLOCKEND 251 8 3569
                                11004   
                                11005   ;;	}
                                11006   CLINEA 0000H 0000H 0DF1H 0002H 0002H
00:0050                         11007   _$L665 :
                                11008   CBLOCKEND 251 5 3570
                                11009   
                                11010   ;;	main_clrWDT();	
                                11011   CLINEA 0000H 0001H 0DF5H 0002H 0010H
00:0050 01-F0'00-00'            11012   	bl	_main_clrWDT
                                11013   
                                11014   ;;	tm_startAB();
                                11015   CLINEA 0000H 0001H 00D1H 0002H 000AH
00:0054 00 00                   11016   	mov	r0,	#00h
00:0056 11-90 E9-F8             11017   	st	r0,	0f8e9h
                                11018   
                                11019   ;;	tm_startAB();
                                11020   CLINEA 0000H 0000H 00D2H 0002H 000BH
00:005A 80-A0 EB-F8             11021   	sb	0f8ebh.0
                                11022   
                                11023   ;;	timer = tm_getABCounter();
                                11024   CLINEA 0000H 0000H 0120H 0002H 001BH
00:005E 10-90 E9-F8             11025   	l	r0,	0f8e9h
00:0062 00 01                   11026   	mov	r1,	#00h
00:0064 05-F2                   11027   	mov	er2,	er0
                                11028   
                                11029   ;;	timer = tm_getABCounter();
                                11030   CLINEA 0000H 0000H 0121H 0002H 0014H
00:0066 10-90 ED-F8             11031   	l	r0,	0f8edh
00:006A 03-83                   11032   	or	r3,	r0
                                11033   
                                11034   ;;	timer = tm_getABCounter();
                                11035   CLINEA 0000H 0000H 0122H 0002H 000CH
00:006C 25-F0                   11036   	mov	er0,	er2
                                11037   
                                11038   ;;	while(timer < timerThres){
                                11039   CLINEA 0000H 0001H 0DF9H 0002H 001BH
00:006E 08 CE                   11040   	bal	_$L668
00:0070                         11041   _$L670 :
                                11042   CBLOCK 251 9 3577
                                11043   
                                11044   ;;		timer = tm_getABCounter();
                                11045   CLINEA 0000H 0000H 0120H 0002H 001BH
00:0070 10-90 E9-F8             11046   	l	r0,	0f8e9h
00:0074 00 01                   11047   	mov	r1,	#00h
00:0076 05-F2                   11048   	mov	er2,	er0
                                11049   
                                11050   ;;		timer = tm_getABCounter();
                                11051   CLINEA 0000H 0000H 0121H 0002H 0014H
00:0078 10-90 ED-F8             11052   	l	r0,	0f8edh
00:007C 03-83                   11053   	or	r3,	r0
                                11054   
                                11055   ;;		timer = tm_getABCounter();
                                11056   CLINEA 0000H 0000H 0122H 0002H 000CH
00:007E 25-F0                   11057   	mov	er0,	er2
                                11058   
                                11059   ;;		timer = tm_getABCounter();
                                11060   CLINEA 0000H 0000H 0DFAH 0003H 001CH
                                11061   CBLOCKEND 251 9 3580
                                11062   
                                11063   ;;	}
                                11064   CLINEA 0000H 0000H 0DFCH 0002H 0002H
00:0080                         11065   _$L668 :
                                11066   
                                11067   ;;	while(timer < timerThres){
                                11068   CLINEA 0000H 0000H 0DF9H 000EH 0013H
00:0080 67-F0                   11069   	cmp	er0,	er6
00:0082 F6 C1                   11070   	blt	_$L670
                                11071   
                                11072   ;;	if(TimeFlag !=0){
                                11073   CLINEA 0000H 0001H 0DFDH 0002H 0012H
00:0084 00 74                   11074   	cmp	r4,	#00h
00:0086 05 C9                   11075   	beq	_$L673
                                11076   
                                11077   ;;		tm_stopAB();
                                11078   CLINEA 0000H 0001H 0105H 0002H 000BH
00:0088 82-A0 EB-F8             11079   	rb	0f8ebh.0
                                11080   
                                11081   ;;		TimeFlag--;
                                11082   CLINEA 0000H 0000H 0DFFH 0003H 000DH
00:008C FF 14                   11083   	add	r4,	#0ffh
                                11084   
                                11085   ;;		timerThres = 0xFFFF;
                                11086   CLINEA 0000H 0001H 0E00H 0003H 0016H
00:008E 7F E6                   11087   	mov	er6,	#-1
                                11088   
                                11089   ;;		goto TimerRestart;
                                11090   CLINEA 0000H 0001H 0E01H 0003H 0014H
00:0090 DF CE                   11091   	bal	_$L665
                                11092   
                                11093   ;;	}
                                11094   CLINEA 0000H 0000H 0E02H 0002H 0002H
00:0092                         11095   _$L673 :
                                11096   CBLOCKEND 251 2 3587
                                11097   
                                11098   ;;}
                                11099   CLINEA 0000H 0001H 0E03H 0001H 0001H
00:0092 1E-F8                   11100   	pop	er8
00:0094 2E-F4                   11101   	pop	xr4
00:0096 8E-F2                   11102   	pop	pc
                                11103   CBLOCKEND 251 1 3587
                                11104   CFUNCTIONEND 251
                                11105   
                                11106   
  --------------------------    11107   	rseg $$NOPms$main
                                11108   CFUNCTION 252
                                11109   
00:0000                         11110   _NOPms	:
                                11111   CBLOCK 252 1 3600
                                11112   
                                11113   ;;{
                                11114   CLINEA 0000H 0001H 0E10H 0001H 0001H
00:0000 CE-F8                   11115   	push	lr
00:0002 6E-F4                   11116   	push	xr4
00:0004 5E-FC                   11117   	push	bp
00:0006 5E-F8                   11118   	push	er8
00:0008 05-F8                   11119   	mov	er8,	er0
                                11120   CBLOCK 252 2 3600
                                11121   CRET 0008H
                                11122   CARGUMENT 46H 0002H 0028H "ms" 02H 00H 01H
                                11123   CLOCAL 46H 0002H 002AH 0002H "timerThres" 02H 00H 01H
                                11124   CLOCAL 46H 0001H 001AH 0002H "TimeFlag" 02H 00H 00H
                                11125   CLOCAL 46H 0002H 0026H 0002H "TempSec" 02H 00H 01H
                                11126   CLOCAL 46H 0002H 0024H 0002H "timer" 02H 00H 01H
                                11127   CLOCAL 4AH 0002H 0000H 0002H "timertest" 02H 00H 01H
                                11128   
                                11129   ;;TempSec = ms;
                                11130   CLINEA 0000H 0001H 0E17H 0001H 000DH
00:000A 05-F4                   11131   	mov	er4,	er0
                                11132   
                                11133   ;;TimeFlag = 0;
                                11134   CLINEA 0000H 0001H 0E18H 0001H 000DH
00:000C 00 06                   11135   	mov	r6,	#00h
                                11136   
                                11137   ;;tm_init(TM_CH_NO_AB);
                                11138   CLINEA 0000H 0001H 0E1AH 0001H 0015H
00:000E 01 00                   11139   	mov	r0,	#01h
00:0010 01-F0'00-00'            11140   	bl	_tm_init
                                11141   
                                11142   ;;tm_setABSource(TM_CS_HTBCLK);
                                11143   CLINEA 0000H 0000H 018DH 0002H 0015H
00:0014 80-A0 EA-F8             11144   	sb	0f8eah.0
                                11145   
                                11146   ;;tm_setABSource(TM_CS_HTBCLK);
                                11147   CLINEA 0000H 0000H 018EH 0002H 001AH
00:0018 92-A0 EA-F8             11148   	rb	0f8eah.1
                                11149   
                                11150   ;;tm_setABData(0xffff);
                                11151   CLINEA 0000H 0000H 0157H 0002H 0025H
00:001C FF 00                   11152   	mov	r0,	#0ffh
00:001E 11-90 E8-F8             11153   	st	r0,	0f8e8h
                                11154   
                                11155   ;;tm_setABData(0xffff);
                                11156   CLINEA 0000H 0000H 0158H 0002H 0023H
00:0022 11-90 EC-F8             11157   	st	r0,	0f8ech
                                11158   
                                11159   ;;if(ms < 128){
                                11160   CLINEA 0000H 0001H 0E1EH 0001H 000DH
00:0026 85-F0                   11161   	mov	er0,	er8
00:0028 80 78                   11162   	cmp	r8,	#080h
00:002A 00 59                   11163   	cmpc	r9,	#00h
00:002C 07 C0                   11164   	bge	_$L677
                                11165   CBLOCK 252 3 3614
                                11166   
                                11167   ;;	timerThres = 0x1FF * ms;
                                11168   CLINEA 0000H 0001H 0E1FH 0002H 0019H
00:002E 7B-91                   11169   	sllc	r1,	#07h
00:0030 7A-90                   11170   	sll	r0,	#07h
00:0032 2B-91                   11171   	sllc	r1,	#02h
00:0034 2A-90                   11172   	sll	r0,	#02h
00:0036 88-80                   11173   	sub	r0,	r8
00:0038 99-81                   11174   	subc	r1,	r9
00:003A 05-FC                   11175   	mov	bp,	er0
                                11176   
                                11177   ;;	TimeFlag = 0;
                                11178   CLINEA 0000H 0001H 0E20H 0002H 000EH
                                11179   CBLOCKEND 252 3 3617
                                11180   
                                11181   ;;}
                                11182   CLINEA 0000H 0000H 0E21H 0001H 0001H
00:003C                         11183   _$L677 :
                                11184   
                                11185   ;;if(ms == 128){
                                11186   CLINEA 0000H 0001H 0E22H 0001H 000EH
00:003C 80 78                   11187   	cmp	r8,	#080h
00:003E 00 59                   11188   	cmpc	r9,	#00h
00:0040 02 C8                   11189   	bne	_$L679
                                11190   CBLOCK 252 4 3618
                                11191   
                                11192   ;;	timerThres = 0xFFFF;
                                11193   CLINEA 0000H 0001H 0E23H 0002H 0015H
00:0042 7F EC                   11194   	mov	bp,	#-1
                                11195   
                                11196   ;;	TimeFlag = 0;
                                11197   CLINEA 0000H 0001H 0E24H 0002H 000EH
00:0044 00 06                   11198   	mov	r6,	#00h
                                11199   CBLOCKEND 252 4 3621
                                11200   
                                11201   ;;}
                                11202   CLINEA 0000H 0000H 0E25H 0001H 0001H
00:0046                         11203   _$L679 :
                                11204   
                                11205   ;;if(ms > 128){
                                11206   CLINEA 0000H 0001H 0E26H 0001H 000DH
00:0046 80 78                   11207   	cmp	r8,	#080h
00:0048 00 59                   11208   	cmpc	r9,	#00h
00:004A 15 C3                   11209   	ble	_$L689
                                11210   CBLOCK 252 5 3622
                                11211   
                                11212   ;;	while(TempSec > 128){
                                11213   CLINEA 0000H 0000H 0E27H 0001H 0001H
00:004C 04 CE                   11214   	bal	_$L699
                                11215   
                                11216   ;;	while(TempSec > 128){
                                11217   CLINEA 0000H 0000H 0E27H 0002H 0016H
00:004E                         11218   _$L685 :
                                11219   CBLOCK 252 6 3623
                                11220   
                                11221   ;;		TempSec -= 128;
                                11222   CLINEA 0000H 0001H 0E28H 0003H 0011H
00:004E 80 10                   11223   	add	r0,	#080h
00:0050 FF 61                   11224   	addc	r1,	#0ffh
00:0052 05-F4                   11225   	mov	er4,	er0
                                11226   
                                11227   ;;		TimeFlag++;
                                11228   CLINEA 0000H 0000H 0E29H 0003H 000DH
00:0054 01 16                   11229   	add	r6,	#01h
                                11230   CBLOCKEND 252 6 3626
                                11231   
                                11232   ;;	while(TempSec > 128){
                                11233   CLINEA 0000H 0000H 0E27H 0001H 0001H
00:0056                         11234   _$L699 :
                                11235   
                                11236   ;;	while(TempSec > 128){
                                11237   CLINEA 0000H 0000H 0E27H 000EH 0013H
00:0056 45-F0                   11238   	mov	er0,	er4
00:0058 80 74                   11239   	cmp	r4,	#080h
00:005A 00 55                   11240   	cmpc	r5,	#00h
00:005C F8 C2                   11241   	bgt	_$L685
                                11242   
                                11243   ;;	if(TempSec != 0){
                                11244   CLINEA 0000H 0001H 0E2BH 0002H 0012H
00:005E 45-F4                   11245   	mov	er4,	er4
00:0060 08 C9                   11246   	beq	_$L687
                                11247   CBLOCK 252 7 3627
                                11248   
                                11249   ;;		timerThres = 0x1FF * TempSec;
                                11250   CLINEA 0000H 0001H 0E2CH 0003H 001FH
00:0062 7B-91                   11251   	sllc	r1,	#07h
00:0064 7A-90                   11252   	sll	r0,	#07h
00:0066 2B-91                   11253   	sllc	r1,	#02h
00:0068 2A-90                   11254   	sll	r0,	#02h
00:006A 48-80                   11255   	sub	r0,	r4
00:006C 59-81                   11256   	subc	r1,	r5
00:006E 05-FC                   11257   	mov	bp,	er0
                                11258   CBLOCKEND 252 7 3629
                                11259   
                                11260   ;;	else{
                                11261   CLINEA 0000H 0001H 0E2EH 0002H 0006H
00:0070 02 CE                   11262   	bal	_$L689
00:0072                         11263   _$L687 :
                                11264   CBLOCK 252 8 3630
                                11265   
                                11266   ;;		timerThres = 0xFFFF;
                                11267   CLINEA 0000H 0001H 0E2FH 0003H 0016H
00:0072 7F EC                   11268   	mov	bp,	#-1
                                11269   
                                11270   ;;		TimeFlag--;
                                11271   CLINEA 0000H 0000H 0E30H 0003H 000DH
00:0074 FF 16                   11272   	add	r6,	#0ffh
                                11273   CBLOCKEND 252 8 3633
                                11274   
                                11275   ;;	}
                                11276   CLINEA 0000H 0000H 0E31H 0002H 0002H
00:0076                         11277   _$L689 :
                                11278   CBLOCKEND 252 5 3634
                                11279   
                                11280   ;;	main_clrWDT();	
                                11281   CLINEA 0000H 0001H 0E35H 0002H 0010H
00:0076 01-F0'00-00'            11282   	bl	_main_clrWDT
                                11283   
                                11284   ;;	tm_startAB();
                                11285   CLINEA 0000H 0001H 00D1H 0002H 000AH
00:007A 00 00                   11286   	mov	r0,	#00h
00:007C 11-90 E9-F8             11287   	st	r0,	0f8e9h
                                11288   
                                11289   ;;	tm_startAB();
                                11290   CLINEA 0000H 0000H 00D2H 0002H 000BH
00:0080 80-A0 EB-F8             11291   	sb	0f8ebh.0
                                11292   
                                11293   ;;	timer = tm_getABCounter();
                                11294   CLINEA 0000H 0000H 0120H 0002H 001BH
00:0084 10-90 E9-F8             11295   	l	r0,	0f8e9h
00:0088 00 01                   11296   	mov	r1,	#00h
00:008A 05-F2                   11297   	mov	er2,	er0
                                11298   
                                11299   ;;	timer = tm_getABCounter();
                                11300   CLINEA 0000H 0000H 0121H 0002H 0014H
00:008C 10-90 ED-F8             11301   	l	r0,	0f8edh
00:0090 03-83                   11302   	or	r3,	r0
                                11303   
                                11304   ;;	timer = tm_getABCounter();
                                11305   CLINEA 0000H 0000H 0122H 0002H 000CH
00:0092 25-F0                   11306   	mov	er0,	er2
                                11307   
                                11308   ;;	while(timer < timerThres){
                                11309   CLINEA 0000H 0001H 0E39H 0002H 001BH
00:0094 08 CE                   11310   	bal	_$L692
00:0096                         11311   _$L694 :
                                11312   CBLOCK 252 9 3641
                                11313   
                                11314   ;;		timer = tm_getABCounter();
                                11315   CLINEA 0000H 0000H 0120H 0002H 001BH
00:0096 10-90 E9-F8             11316   	l	r0,	0f8e9h
00:009A 00 01                   11317   	mov	r1,	#00h
00:009C 05-F2                   11318   	mov	er2,	er0
                                11319   
                                11320   ;;		timer = tm_getABCounter();
                                11321   CLINEA 0000H 0000H 0121H 0002H 0014H
00:009E 10-90 ED-F8             11322   	l	r0,	0f8edh
00:00A2 03-83                   11323   	or	r3,	r0
                                11324   
                                11325   ;;		timer = tm_getABCounter();
                                11326   CLINEA 0000H 0000H 0122H 0002H 000CH
00:00A4 25-F0                   11327   	mov	er0,	er2
                                11328   
                                11329   ;;		timer = tm_getABCounter();
                                11330   CLINEA 0000H 0000H 0E3AH 0003H 001CH
                                11331   CBLOCKEND 252 9 3644
                                11332   
                                11333   ;;	}
                                11334   CLINEA 0000H 0000H 0E3CH 0002H 0002H
00:00A6                         11335   _$L692 :
                                11336   
                                11337   ;;	while(timer < timerThres){
                                11338   CLINEA 0000H 0000H 0E39H 000EH 0013H
00:00A6 C7-F0                   11339   	cmp	er0,	bp
00:00A8 F6 C1                   11340   	blt	_$L694
                                11341   
                                11342   ;;	if(TimeFlag !=0){
                                11343   CLINEA 0000H 0001H 0E3DH 0002H 0012H
00:00AA 00 76                   11344   	cmp	r6,	#00h
00:00AC 05 C9                   11345   	beq	_$L697
                                11346   
                                11347   ;;		tm_stopAB();
                                11348   CLINEA 0000H 0001H 0105H 0002H 000BH
00:00AE 82-A0 EB-F8             11349   	rb	0f8ebh.0
                                11350   
                                11351   ;;		TimeFlag--;
                                11352   CLINEA 0000H 0000H 0E3FH 0003H 000DH
00:00B2 FF 16                   11353   	add	r6,	#0ffh
                                11354   
                                11355   ;;		timerThres = 0xFFFF;
                                11356   CLINEA 0000H 0001H 0E40H 0003H 0016H
00:00B4 7F EC                   11357   	mov	bp,	#-1
                                11358   
                                11359   ;;		goto TimerRestart;
                                11360   CLINEA 0000H 0001H 0E41H 0003H 0014H
00:00B6 DF CE                   11361   	bal	_$L689
                                11362   
                                11363   ;;	}
                                11364   CLINEA 0000H 0000H 0E42H 0002H 0002H
00:00B8                         11365   _$L697 :
                                11366   CBLOCKEND 252 2 3652
                                11367   
                                11368   ;;}
                                11369   CLINEA 0000H 0001H 0E44H 0001H 0001H
00:00B8 1E-F8                   11370   	pop	er8
00:00BA 1E-FC                   11371   	pop	bp
00:00BC 2E-F4                   11372   	pop	xr4
00:00BE 8E-F2                   11373   	pop	pc
                                11374   CBLOCKEND 252 1 3652
                                11375   CFUNCTIONEND 252
                                11376   
                                11377   
  --------------------------    11378   	rseg $$NOPus$main
                                11379   CFUNCTION 253
                                11380   
00:0000                         11381   _NOPus	:
                                11382   CBLOCK 253 1 3662
                                11383   
                                11384   ;;{
                                11385   CLINEA 0000H 0001H 0E4EH 0001H 0001H
                                11386   CBLOCK 253 2 3662
                                11387   
                                11388   ;;	timer_us = 0;
                                11389   CLINEA 0000H 0001H 0E4FH 0002H 000EH
00:0000 00 E0                   11390   	mov	er0,	#0 
00:0002 13-90 00-00'            11391   	st	er0,	NEAR _timer_us
                                11392   
                                11393   ;;	TM8C = 0x00;
                                11394   CLINEA 0000H 0001H 0E50H 0002H 000DH
00:0006 11-90 E1-F8             11395   	st	r0,	0f8e1h
                                11396   
                                11397   ;;	ETM8 = 1;
                                11398   CLINEA 0000H 0001H 0E51H 0002H 000AH
00:000A A0-A0 13-F0             11399   	sb	0f013h.2
                                11400   
                                11401   ;;	while(timer_us == 0);
                                11402   CLINEA 0000H 0000H 0E52H 0002H 0016H
00:000E                         11403   _$L703 :
                                11404   
                                11405   ;;	while(timer_us == 0);
                                11406   CLINEA 0000H 0000H 0E52H 000EH 0013H
00:000E 12-90 00-00'            11407   	l	er0,	NEAR _timer_us
00:0012 FD C9                   11408   	beq	_$L703
                                11409   CBLOCKEND 253 2 3667
                                11410   
                                11411   ;;}
                                11412   CLINEA 0000H 0001H 0E53H 0001H 0001H
00:0014 1F-FE                   11413   	rt
                                11414   CBLOCKEND 253 1 3667
                                11415   CFUNCTIONEND 253
                                11416   
                                11417   
  --------------------------    11418   	rseg $$NOP1000$main
                                11419   CFUNCTION 254
                                11420   
00:0000                         11421   _NOP1000	:
                                11422   CBLOCK 254 1 3670
                                11423   
                                11424   ;;{
                                11425   CLINEA 0000H 0001H 0E56H 0001H 0001H
                                11426   CBLOCK 254 2 3670
                                11427   CLOCAL 4AH 0002H 0000H 0002H "ONCNT" 02H 00H 01H
                                11428   CBLOCKEND 254 2 3676
                                11429   
                                11430   ;;}
                                11431   CLINEA 0000H 0001H 0E5CH 0001H 0001H
00:0000 1F-FE                   11432   	rt
                                11433   CBLOCKEND 254 1 3676
                                11434   CFUNCTIONEND 254
                                11435   
                                11436   
  --------------------------    11437   	rseg $$approx_arctan2$main
                                11438   CFUNCTION 255
                                11439   
00:0000                         11440   _approx_arctan2	:
                                11441   CBLOCK 255 1 3679
                                11442   
                                11443   ;;{
                                11444   CLINEA 0000H 0001H 0E5FH 0001H 0001H
00:0000 CE-F8                   11445   	push	lr
00:0002 5E-FE                   11446   	push	fp
00:0004 1A-AE                   11447   	mov	fp,	sp
00:0006 E4 E1                   11448   	add	sp,	#-028
00:0008 6E-F8                   11449   	push	xr8
00:000A 6E-F4                   11450   	push	xr4
00:000C 05-F8                   11451   	mov	er8,	er0
00:000E 25-FA                   11452   	mov	er10,	er2
                                11453   CBLOCK 255 2 3679
                                11454   CRET 0026H
                                11455   CARGUMENT 47H 0004H 2928H "y" 02H 00H 03H
                                11456   CARGUMENT 43H 0004H 0004H "x" 02H 00H 03H
                                11457   CLOCAL 43H 0004H 001CH 0002H "YoverX" 02H 00H 03H
                                11458   CLOCAL 47H 0004H 2726H 0002H "result" 02H 00H 03H
                                11459   
                                11460   ;;	float YoverX = y/x;
                                11461   CLINEA 0000H 0001H 0E60H 0002H 0014H
00:0010 6E-F0                   11462   	push	xr0
00:0012 44 B0                   11463   	l	er0,	4[fp]
00:0014 46 B2                   11464   	l	er2,	6[fp]
00:0016 6E-F0                   11465   	push	xr0
00:0018 01-F0'00-00'            11466   	bl	__fdivu8sw
00:001C 04 E1                   11467   	add	sp,	#4 
00:001E 2E-F0                   11468   	pop	xr0
00:0020 E4 B0                   11469   	st	er0,	-28[fp]
00:0022 E6 B2                   11470   	st	er2,	-26[fp]
                                11471   
                                11472   ;;	float result = 0;
                                11473   CLINEA 0000H 0001H 0E61H 0002H 0012H
00:0024 00 E4                   11474   	mov	er4,	#0 
00:0026 00 E6                   11475   	mov	er6,	#0 
                                11476   
                                11477   ;;	if(x>0){
                                11478   CLINEA 0000H 0001H 0E63H 0002H 0009H
00:0028 44 B0                   11479   	l	er0,	4[fp]
00:002A 46 B2                   11480   	l	er2,	6[fp]
00:002C 6E-F0                   11481   	push	xr0
00:002E 00 E0                   11482   	mov	er0,	#0 
00:0030 00 E2                   11483   	mov	er2,	#0 
00:0032 6E-F0                   11484   	push	xr0
00:0034 01-F0'00-00'            11485   	bl	__fcmpu8sw
00:0038 08 E1                   11486   	add	sp,	#8 
00:003A 0B-A0                   11487   	mov	psw,	r0
00:003C 02 C2                   11488   	bgt	_$M78
00:003E 00-F0'00-00'            11489   	b	_$L711
00:0042                         11490   _$M78 :
                                11491   CBLOCK 255 3 3683
                                11492   
                                11493   ;;		result = (0.97239*YoverX)-(0.19195*pow(YoverX,3));
                                11494   CLINEA 0000H 0000H 0E64H 0003H 0034H
00:0042 64 B0                   11495   	l	er0,	-28[fp]
00:0044 66 B2                   11496   	l	er2,	-26[fp]
00:0046 6E-F0                   11497   	push	xr0
00:0048 FC E1                   11498   	add	sp,	#-4
00:004A 01-F0'00-00'            11499   	bl	__ftodu8sw
00:004E 3E-F0                   11500   	pop	qr0
00:0050 EB-F0 F8-FF             11501   	lea	-8[fp]
00:0054 37-90                   11502   	st	qr0,	[ea]
00:0056 7E-F0                   11503   	push	qr0
00:0058 59 00                   11504   	mov	r0,	#059h
00:005A A3 01                   11505   	mov	r1,	#0a3h
00:005C 1E 02                   11506   	mov	r2,	#01eh
00:005E A2 03                   11507   	mov	r3,	#0a2h
00:0060 D1 04                   11508   	mov	r4,	#0d1h
00:0062 1D 05                   11509   	mov	r5,	#01dh
00:0064 EF 06                   11510   	mov	r6,	#0efh
00:0066 3F 07                   11511   	mov	r7,	#03fh
00:0068 7E-F0                   11512   	push	qr0
00:006A 01-F0'00-00'            11513   	bl	__dmulu8sw
00:006E 08 E1                   11514   	add	sp,	#8 
00:0070 3E-F0                   11515   	pop	qr0
00:0072 EB-F0 F0-FF             11516   	lea	-16[fp]
00:0076 37-90                   11517   	st	qr0,	[ea]
00:0078 00 E0                   11518   	mov	er0,	#0 
00:007A 00 E2                   11519   	mov	er2,	#0 
00:007C 00 E4                   11520   	mov	er4,	#0 
00:007E 08 06                   11521   	mov	r6,	#08h
00:0080 40 07                   11522   	mov	r7,	#040h
00:0082 7E-F0                   11523   	push	qr0
00:0084 EB-F0 F8-FF             11524   	lea	-8[fp]
00:0088 36-90                   11525   	l	qr0,	[ea]
00:008A 7E-F0                   11526   	push	qr0
00:008C E5-F0                   11527   	mov	er0,	fp
00:008E E8 E0                   11528   	add	er0,	#-24
00:0090 01-F0'00-00'            11529   	bl	_pow
00:0094 10 E1                   11530   	add	sp,	#16
00:0096 EB-F0 F0-FF             11531   	lea	-16[fp]
00:009A 36-90                   11532   	l	qr0,	[ea]
00:009C 7E-F0                   11533   	push	qr0
00:009E EB-F0 E8-FF             11534   	lea	-24[fp]
00:00A2 36-90                   11535   	l	qr0,	[ea]
00:00A4 7E-F0                   11536   	push	qr0
00:00A6 36 00                   11537   	mov	r0,	#036h
00:00A8 CD 01                   11538   	mov	r1,	#0cdh
00:00AA 3B 02                   11539   	mov	r2,	#03bh
00:00AC 4E 03                   11540   	mov	r3,	#04eh
00:00AE D1 04                   11541   	mov	r4,	#0d1h
00:00B0 91 05                   11542   	mov	r5,	#091h
00:00B2 C8 06                   11543   	mov	r6,	#0c8h
00:00B4 3F 07                   11544   	mov	r7,	#03fh
00:00B6 7E-F0                   11545   	push	qr0
00:00B8 01-F0'00-00'            11546   	bl	__dmulu8sw
00:00BC 08 E1                   11547   	add	sp,	#8 
00:00BE 01-F0'00-00'            11548   	bl	__dsubu8sw
00:00C2 08 E1                   11549   	add	sp,	#8 
00:00C4 01-F0'00-00'            11550   	bl	__dtofu8sw
00:00C8 04 E1                   11551   	add	sp,	#4 
00:00CA 2E-F0                   11552   	pop	xr0
00:00CC 05-F4                   11553   	mov	er4,	er0
00:00CE 25-F6                   11554   	mov	er6,	er2
                                11555   CBLOCKEND 255 3 3685
                                11556   
                                11557   ;;	}
                                11558   CLINEA 0000H 0000H 0E65H 0002H 0002H
00:00D0                         11559   _$L711 :
                                11560   
                                11561   ;;	if((x<0)&&(y>=0)){
                                11562   CLINEA 0000H 0001H 0E66H 0002H 0013H
00:00D0 44 B0                   11563   	l	er0,	4[fp]
00:00D2 46 B2                   11564   	l	er2,	6[fp]
00:00D4 6E-F0                   11565   	push	xr0
00:00D6 00 E0                   11566   	mov	er0,	#0 
00:00D8 00 E2                   11567   	mov	er2,	#0 
00:00DA 6E-F0                   11568   	push	xr0
00:00DC 01-F0'00-00'            11569   	bl	__fcmpu8sw
00:00E0 08 E1                   11570   	add	sp,	#8 
00:00E2 0B-A0                   11571   	mov	psw,	r0
00:00E4 02 C1                   11572   	blt	_$M79
00:00E6 00-F0'00-00'            11573   	b	_$L713
00:00EA                         11574   _$M79 :
00:00EA 6E-F8                   11575   	push	xr8
00:00EC 00 E0                   11576   	mov	er0,	#0 
00:00EE 00 E2                   11577   	mov	er2,	#0 
00:00F0 6E-F0                   11578   	push	xr0
00:00F2 01-F0'00-00'            11579   	bl	__fcmpu8sw
00:00F6 08 E1                   11580   	add	sp,	#8 
00:00F8 0B-A0                   11581   	mov	psw,	r0
00:00FA 02 C0                   11582   	bge	_$M80
00:00FC 00-F0'00-00'            11583   	b	_$L713
00:0100                         11584   _$M80 :
                                11585   CBLOCK 255 4 3686
                                11586   
                                11587   ;;		result = (0.97239*YoverX)-(0.19195*pow(YoverX,3))+3.14;
                                11588   CLINEA 0000H 0000H 0E67H 0003H 0039H
00:0100 64 B0                   11589   	l	er0,	-28[fp]
00:0102 66 B2                   11590   	l	er2,	-26[fp]
00:0104 6E-F0                   11591   	push	xr0
00:0106 FC E1                   11592   	add	sp,	#-4
00:0108 01-F0'00-00'            11593   	bl	__ftodu8sw
00:010C 3E-F0                   11594   	pop	qr0
00:010E EB-F0 F8-FF             11595   	lea	-8[fp]
00:0112 37-90                   11596   	st	qr0,	[ea]
00:0114 7E-F0                   11597   	push	qr0
00:0116 59 00                   11598   	mov	r0,	#059h
00:0118 A3 01                   11599   	mov	r1,	#0a3h
00:011A 1E 02                   11600   	mov	r2,	#01eh
00:011C A2 03                   11601   	mov	r3,	#0a2h
00:011E D1 04                   11602   	mov	r4,	#0d1h
00:0120 1D 05                   11603   	mov	r5,	#01dh
00:0122 EF 06                   11604   	mov	r6,	#0efh
00:0124 3F 07                   11605   	mov	r7,	#03fh
00:0126 7E-F0                   11606   	push	qr0
00:0128 01-F0'00-00'            11607   	bl	__dmulu8sw
00:012C 08 E1                   11608   	add	sp,	#8 
00:012E 3E-F0                   11609   	pop	qr0
00:0130 EB-F0 F0-FF             11610   	lea	-16[fp]
00:0134 37-90                   11611   	st	qr0,	[ea]
00:0136 00 E0                   11612   	mov	er0,	#0 
00:0138 00 E2                   11613   	mov	er2,	#0 
00:013A 00 E4                   11614   	mov	er4,	#0 
00:013C 08 06                   11615   	mov	r6,	#08h
00:013E 40 07                   11616   	mov	r7,	#040h
00:0140 7E-F0                   11617   	push	qr0
00:0142 EB-F0 F8-FF             11618   	lea	-8[fp]
00:0146 36-90                   11619   	l	qr0,	[ea]
00:0148 7E-F0                   11620   	push	qr0
00:014A E5-F0                   11621   	mov	er0,	fp
00:014C E8 E0                   11622   	add	er0,	#-24
00:014E 01-F0'00-00'            11623   	bl	_pow
00:0152 10 E1                   11624   	add	sp,	#16
00:0154 EB-F0 F0-FF             11625   	lea	-16[fp]
00:0158 36-90                   11626   	l	qr0,	[ea]
00:015A 7E-F0                   11627   	push	qr0
00:015C EB-F0 E8-FF             11628   	lea	-24[fp]
00:0160 36-90                   11629   	l	qr0,	[ea]
00:0162 7E-F0                   11630   	push	qr0
00:0164 36 00                   11631   	mov	r0,	#036h
00:0166 CD 01                   11632   	mov	r1,	#0cdh
00:0168 3B 02                   11633   	mov	r2,	#03bh
00:016A 4E 03                   11634   	mov	r3,	#04eh
00:016C D1 04                   11635   	mov	r4,	#0d1h
00:016E 91 05                   11636   	mov	r5,	#091h
00:0170 C8 06                   11637   	mov	r6,	#0c8h
00:0172 3F 07                   11638   	mov	r7,	#03fh
00:0174 7E-F0                   11639   	push	qr0
00:0176 01-F0'00-00'            11640   	bl	__dmulu8sw
00:017A 08 E1                   11641   	add	sp,	#8 
00:017C 01-F0'00-00'            11642   	bl	__dsubu8sw
00:0180 08 E1                   11643   	add	sp,	#8 
00:0182 1F 00                   11644   	mov	r0,	#01fh
00:0184 85 01                   11645   	mov	r1,	#085h
00:0186 EB 02                   11646   	mov	r2,	#0ebh
00:0188 51 03                   11647   	mov	r3,	#051h
00:018A B8 04                   11648   	mov	r4,	#0b8h
00:018C 1E 05                   11649   	mov	r5,	#01eh
00:018E 09 06                   11650   	mov	r6,	#09h
00:0190 40 07                   11651   	mov	r7,	#040h
00:0192 7E-F0                   11652   	push	qr0
00:0194 01-F0'00-00'            11653   	bl	__daddu8sw
00:0198 08 E1                   11654   	add	sp,	#8 
00:019A 01-F0'00-00'            11655   	bl	__dtofu8sw
00:019E 04 E1                   11656   	add	sp,	#4 
00:01A0 2E-F0                   11657   	pop	xr0
00:01A2 05-F4                   11658   	mov	er4,	er0
00:01A4 25-F6                   11659   	mov	er6,	er2
                                11660   CBLOCKEND 255 4 3688
                                11661   
                                11662   ;;	}	
                                11663   CLINEA 0000H 0000H 0E68H 0002H 0003H
00:01A6                         11664   _$L713 :
                                11665   
                                11666   ;;	if((y<0)&&(x<0)){
                                11667   CLINEA 0000H 0001H 0E69H 0002H 0012H
00:01A6 6E-F8                   11668   	push	xr8
00:01A8 00 E0                   11669   	mov	er0,	#0 
00:01AA 00 E2                   11670   	mov	er2,	#0 
00:01AC 6E-F0                   11671   	push	xr0
00:01AE 01-F0'00-00'            11672   	bl	__fcmpu8sw
00:01B2 08 E1                   11673   	add	sp,	#8 
00:01B4 0B-A0                   11674   	mov	psw,	r0
00:01B6 02 C1                   11675   	blt	_$M81
00:01B8 00-F0'00-00'            11676   	b	_$L720
00:01BC                         11677   _$M81 :
00:01BC 44 B0                   11678   	l	er0,	4[fp]
00:01BE 46 B2                   11679   	l	er2,	6[fp]
00:01C0 6E-F0                   11680   	push	xr0
00:01C2 00 E0                   11681   	mov	er0,	#0 
00:01C4 00 E2                   11682   	mov	er2,	#0 
00:01C6 6E-F0                   11683   	push	xr0
00:01C8 01-F0'00-00'            11684   	bl	__fcmpu8sw
00:01CC 08 E1                   11685   	add	sp,	#8 
00:01CE 0B-A0                   11686   	mov	psw,	r0
00:01D0 02 C1                   11687   	blt	_$M82
00:01D2 00-F0'00-00'            11688   	b	_$L720
00:01D6                         11689   _$M82 :
                                11690   CBLOCK 255 5 3689
                                11691   
                                11692   ;;		result = (0.97239*YoverX)-(0.19195*pow(YoverX,3))-3.14;
                                11693   CLINEA 0000H 0000H 0E6AH 0003H 0039H
00:01D6 64 B0                   11694   	l	er0,	-28[fp]
00:01D8 66 B2                   11695   	l	er2,	-26[fp]
00:01DA 6E-F0                   11696   	push	xr0
00:01DC FC E1                   11697   	add	sp,	#-4
00:01DE 01-F0'00-00'            11698   	bl	__ftodu8sw
00:01E2 3E-F0                   11699   	pop	qr0
00:01E4 EB-F0 F8-FF             11700   	lea	-8[fp]
00:01E8 37-90                   11701   	st	qr0,	[ea]
00:01EA 7E-F0                   11702   	push	qr0
00:01EC 59 00                   11703   	mov	r0,	#059h
00:01EE A3 01                   11704   	mov	r1,	#0a3h
00:01F0 1E 02                   11705   	mov	r2,	#01eh
00:01F2 A2 03                   11706   	mov	r3,	#0a2h
00:01F4 D1 04                   11707   	mov	r4,	#0d1h
00:01F6 1D 05                   11708   	mov	r5,	#01dh
00:01F8 EF 06                   11709   	mov	r6,	#0efh
00:01FA 3F 07                   11710   	mov	r7,	#03fh
00:01FC 7E-F0                   11711   	push	qr0
00:01FE 01-F0'00-00'            11712   	bl	__dmulu8sw
00:0202 08 E1                   11713   	add	sp,	#8 
00:0204 3E-F0                   11714   	pop	qr0
00:0206 EB-F0 F0-FF             11715   	lea	-16[fp]
00:020A 37-90                   11716   	st	qr0,	[ea]
00:020C 00 E0                   11717   	mov	er0,	#0 
00:020E 00 E2                   11718   	mov	er2,	#0 
00:0210 00 E4                   11719   	mov	er4,	#0 
00:0212 08 06                   11720   	mov	r6,	#08h
00:0214 40 07                   11721   	mov	r7,	#040h
00:0216 7E-F0                   11722   	push	qr0
00:0218 EB-F0 F8-FF             11723   	lea	-8[fp]
00:021C 36-90                   11724   	l	qr0,	[ea]
00:021E 7E-F0                   11725   	push	qr0
00:0220 E5-F0                   11726   	mov	er0,	fp
00:0222 E8 E0                   11727   	add	er0,	#-24
00:0224 01-F0'00-00'            11728   	bl	_pow
00:0228 10 E1                   11729   	add	sp,	#16
00:022A EB-F0 F0-FF             11730   	lea	-16[fp]
00:022E 36-90                   11731   	l	qr0,	[ea]
00:0230 7E-F0                   11732   	push	qr0
00:0232 EB-F0 E8-FF             11733   	lea	-24[fp]
00:0236 36-90                   11734   	l	qr0,	[ea]
00:0238 7E-F0                   11735   	push	qr0
00:023A 36 00                   11736   	mov	r0,	#036h
00:023C CD 01                   11737   	mov	r1,	#0cdh
00:023E 3B 02                   11738   	mov	r2,	#03bh
00:0240 4E 03                   11739   	mov	r3,	#04eh
00:0242 D1 04                   11740   	mov	r4,	#0d1h
00:0244 91 05                   11741   	mov	r5,	#091h
00:0246 C8 06                   11742   	mov	r6,	#0c8h
00:0248 3F 07                   11743   	mov	r7,	#03fh
00:024A 7E-F0                   11744   	push	qr0
00:024C 01-F0'00-00'            11745   	bl	__dmulu8sw
00:0250 08 E1                   11746   	add	sp,	#8 
00:0252 01-F0'00-00'            11747   	bl	__dsubu8sw
00:0256 08 E1                   11748   	add	sp,	#8 
00:0258 1F 00                   11749   	mov	r0,	#01fh
00:025A 85 01                   11750   	mov	r1,	#085h
00:025C EB 02                   11751   	mov	r2,	#0ebh
00:025E 51 03                   11752   	mov	r3,	#051h
00:0260 B8 04                   11753   	mov	r4,	#0b8h
00:0262 1E 05                   11754   	mov	r5,	#01eh
00:0264 09 06                   11755   	mov	r6,	#09h
00:0266 C0 07                   11756   	mov	r7,	#0c0h
00:0268 7E-F0                   11757   	push	qr0
00:026A 01-F0'00-00'            11758   	bl	__daddu8sw
00:026E 08 E1                   11759   	add	sp,	#8 
00:0270 01-F0'00-00'            11760   	bl	__dtofu8sw
00:0274 04 E1                   11761   	add	sp,	#4 
00:0276 2E-F0                   11762   	pop	xr0
00:0278 05-F4                   11763   	mov	er4,	er0
00:027A 25-F6                   11764   	mov	er6,	er2
                                11765   CBLOCKEND 255 5 3691
                                11766   
                                11767   ;;	}
                                11768   CLINEA 0000H 0000H 0E6BH 0002H 0002H
00:027C                         11769   _$L720 :
                                11770   
                                11771   ;;	if((y>0)&&(x==0)){
                                11772   CLINEA 0000H 0001H 0E6CH 0002H 0013H
00:027C 6E-F8                   11773   	push	xr8
00:027E 00 E0                   11774   	mov	er0,	#0 
00:0280 00 E2                   11775   	mov	er2,	#0 
00:0282 6E-F0                   11776   	push	xr0
00:0284 01-F0'00-00'            11777   	bl	__fcmpu8sw
00:0288 08 E1                   11778   	add	sp,	#8 
00:028A 0B-A0                   11779   	mov	psw,	r0
00:028C 11 C3                   11780   	ble	_$L727
00:028E 44 B0                   11781   	l	er0,	4[fp]
00:0290 46 B2                   11782   	l	er2,	6[fp]
00:0292 6E-F0                   11783   	push	xr0
00:0294 00 E0                   11784   	mov	er0,	#0 
00:0296 00 E2                   11785   	mov	er2,	#0 
00:0298 6E-F0                   11786   	push	xr0
00:029A 01-F0'00-00'            11787   	bl	__fcmpu8sw
00:029E 08 E1                   11788   	add	sp,	#8 
00:02A0 0B-A0                   11789   	mov	psw,	r0
00:02A2 06 C8                   11790   	bne	_$L727
                                11791   CBLOCK 255 6 3692
                                11792   
                                11793   ;;		result = 1.57;
                                11794   CLINEA 0000H 0001H 0E6DH 0003H 0010H
00:02A4 C3 00                   11795   	mov	r0,	#0c3h
00:02A6 F5 01                   11796   	mov	r1,	#0f5h
00:02A8 C8 02                   11797   	mov	r2,	#0c8h
00:02AA 3F 03                   11798   	mov	r3,	#03fh
00:02AC 05-F4                   11799   	mov	er4,	er0
00:02AE 25-F6                   11800   	mov	er6,	er2
                                11801   CBLOCKEND 255 6 3694
                                11802   
                                11803   ;;	}
                                11804   CLINEA 0000H 0000H 0E6EH 0002H 0002H
00:02B0                         11805   _$L727 :
                                11806   
                                11807   ;;	if((y<0)&&(x==0)){
                                11808   CLINEA 0000H 0001H 0E6FH 0002H 0013H
00:02B0 6E-F8                   11809   	push	xr8
00:02B2 00 E0                   11810   	mov	er0,	#0 
00:02B4 00 E2                   11811   	mov	er2,	#0 
00:02B6 6E-F0                   11812   	push	xr0
00:02B8 01-F0'00-00'            11813   	bl	__fcmpu8sw
00:02BC 08 E1                   11814   	add	sp,	#8 
00:02BE 0B-A0                   11815   	mov	psw,	r0
00:02C0 11 C0                   11816   	bge	_$L734
00:02C2 44 B0                   11817   	l	er0,	4[fp]
00:02C4 46 B2                   11818   	l	er2,	6[fp]
00:02C6 6E-F0                   11819   	push	xr0
00:02C8 00 E0                   11820   	mov	er0,	#0 
00:02CA 00 E2                   11821   	mov	er2,	#0 
00:02CC 6E-F0                   11822   	push	xr0
00:02CE 01-F0'00-00'            11823   	bl	__fcmpu8sw
00:02D2 08 E1                   11824   	add	sp,	#8 
00:02D4 0B-A0                   11825   	mov	psw,	r0
00:02D6 06 C8                   11826   	bne	_$L734
                                11827   CBLOCK 255 7 3695
                                11828   
                                11829   ;;		result = -1.57;
                                11830   CLINEA 0000H 0001H 0E70H 0003H 0011H
00:02D8 C3 00                   11831   	mov	r0,	#0c3h
00:02DA F5 01                   11832   	mov	r1,	#0f5h
00:02DC C8 02                   11833   	mov	r2,	#0c8h
00:02DE BF 03                   11834   	mov	r3,	#0bfh
00:02E0 05-F4                   11835   	mov	er4,	er0
00:02E2 25-F6                   11836   	mov	er6,	er2
                                11837   CBLOCKEND 255 7 3697
                                11838   
                                11839   ;;	}
                                11840   CLINEA 0000H 0000H 0E71H 0002H 0002H
00:02E4                         11841   _$L734 :
                                11842   
                                11843   ;;	if((x==0)&&(y==0)){			//we made this up....
                                11844   CLINEA 0000H 0001H 0E72H 0002H 002CH
00:02E4 44 B0                   11845   	l	er0,	4[fp]
00:02E6 46 B2                   11846   	l	er2,	6[fp]
00:02E8 6E-F0                   11847   	push	xr0
00:02EA 00 E0                   11848   	mov	er0,	#0 
00:02EC 00 E2                   11849   	mov	er2,	#0 
00:02EE 6E-F0                   11850   	push	xr0
00:02F0 01-F0'00-00'            11851   	bl	__fcmpu8sw
00:02F4 08 E1                   11852   	add	sp,	#8 
00:02F6 0B-A0                   11853   	mov	psw,	r0
00:02F8 38 C8                   11854   	bne	_$L741
00:02FA 6E-F8                   11855   	push	xr8
00:02FC 00 E0                   11856   	mov	er0,	#0 
00:02FE 00 E2                   11857   	mov	er2,	#0 
00:0300 6E-F0                   11858   	push	xr0
00:0302 01-F0'00-00'            11859   	bl	__fcmpu8sw
00:0306 08 E1                   11860   	add	sp,	#8 
00:0308 0B-A0                   11861   	mov	psw,	r0
00:030A 2F C8                   11862   	bne	_$L741
                                11863   CBLOCK 255 8 3698
                                11864   
                                11865   ;;		result = (0.97239*YoverX)-(0.19195*pow(YoverX,3));
                                11866   CLINEA 0000H 0000H 0E76H 0003H 0034H
00:030C 00 E0                   11867   	mov	er0,	#0 
00:030E 00 E2                   11868   	mov	er2,	#0 
00:0310 00 E4                   11869   	mov	er4,	#0 
00:0312 08 06                   11870   	mov	r6,	#08h
00:0314 40 07                   11871   	mov	r7,	#040h
00:0316 7E-F0                   11872   	push	qr0
00:0318 F0 06                   11873   	mov	r6,	#0f0h
00:031A 3F 07                   11874   	mov	r7,	#03fh
00:031C 7E-F0                   11875   	push	qr0
00:031E E5-F0                   11876   	mov	er0,	fp
00:0320 F0 E0                   11877   	add	er0,	#-16
00:0322 01-F0'00-00'            11878   	bl	_pow
00:0326 10 E1                   11879   	add	sp,	#16
00:0328 59 00                   11880   	mov	r0,	#059h
00:032A A3 01                   11881   	mov	r1,	#0a3h
00:032C 1E 02                   11882   	mov	r2,	#01eh
00:032E A2 03                   11883   	mov	r3,	#0a2h
00:0330 D1 04                   11884   	mov	r4,	#0d1h
00:0332 1D 05                   11885   	mov	r5,	#01dh
00:0334 EF 06                   11886   	mov	r6,	#0efh
00:0336 7E-F0                   11887   	push	qr0
00:0338 EB-F0 F0-FF             11888   	lea	-16[fp]
00:033C 36-90                   11889   	l	qr0,	[ea]
00:033E 7E-F0                   11890   	push	qr0
00:0340 36 00                   11891   	mov	r0,	#036h
00:0342 CD 01                   11892   	mov	r1,	#0cdh
00:0344 3B 02                   11893   	mov	r2,	#03bh
00:0346 4E 03                   11894   	mov	r3,	#04eh
00:0348 D1 04                   11895   	mov	r4,	#0d1h
00:034A 91 05                   11896   	mov	r5,	#091h
00:034C C8 06                   11897   	mov	r6,	#0c8h
00:034E 3F 07                   11898   	mov	r7,	#03fh
00:0350 7E-F0                   11899   	push	qr0
00:0352 01-F0'00-00'            11900   	bl	__dmulu8sw
00:0356 08 E1                   11901   	add	sp,	#8 
00:0358 01-F0'00-00'            11902   	bl	__dsubu8sw
00:035C 08 E1                   11903   	add	sp,	#8 
00:035E 01-F0'00-00'            11904   	bl	__dtofu8sw
00:0362 04 E1                   11905   	add	sp,	#4 
00:0364 2E-F0                   11906   	pop	xr0
00:0366 05-F4                   11907   	mov	er4,	er0
00:0368 25-F6                   11908   	mov	er6,	er2
                                11909   CBLOCKEND 255 8 3703
                                11910   
                                11911   ;;	}
                                11912   CLINEA 0000H 0000H 0E77H 0002H 0002H
00:036A                         11913   _$L741 :
                                11914   
                                11915   ;;	result *= 57.29;
                                11916   CLINEA 0000H 0001H 0E78H 0002H 0011H
00:036A 6E-F4                   11917   	push	xr4
00:036C FC E1                   11918   	add	sp,	#-4
00:036E 01-F0'00-00'            11919   	bl	__ftodu8sw
00:0372 85 00                   11920   	mov	r0,	#085h
00:0374 EB 01                   11921   	mov	r1,	#0ebh
00:0376 51 02                   11922   	mov	r2,	#051h
00:0378 B8 03                   11923   	mov	r3,	#0b8h
00:037A 1E 04                   11924   	mov	r4,	#01eh
00:037C A5 05                   11925   	mov	r5,	#0a5h
00:037E 4C 06                   11926   	mov	r6,	#04ch
00:0380 40 07                   11927   	mov	r7,	#040h
00:0382 7E-F0                   11928   	push	qr0
00:0384 01-F0'00-00'            11929   	bl	__dmulu8sw
00:0388 08 E1                   11930   	add	sp,	#8 
00:038A 01-F0'00-00'            11931   	bl	__dtofu8sw
00:038E 04 E1                   11932   	add	sp,	#4 
00:0390 2E-F0                   11933   	pop	xr0
00:0392 05-F4                   11934   	mov	er4,	er0
00:0394 25-F6                   11935   	mov	er6,	er2
                                11936   
                                11937   ;;	if(result > 45){
                                11938   CLINEA 0000H 0001H 0E7AH 0002H 0011H
00:0396 6E-F0                   11939   	push	xr0
00:0398 00 E0                   11940   	mov	er0,	#0 
00:039A 34 02                   11941   	mov	r2,	#034h
00:039C 42 03                   11942   	mov	r3,	#042h
00:039E 6E-F0                   11943   	push	xr0
00:03A0 01-F0'00-00'            11944   	bl	__fcmpu8sw
00:03A4 08 E1                   11945   	add	sp,	#8 
00:03A6 0B-A0                   11946   	mov	psw,	r0
00:03A8 04 C3                   11947   	ble	_$L748
                                11948   CBLOCK 255 9 3706
                                11949   
                                11950   ;;		result = 45;
                                11951   CLINEA 0000H 0001H 0E7BH 0003H 000EH
00:03AA 34 02                   11952   	mov	r2,	#034h
00:03AC 42 03                   11953   	mov	r3,	#042h
00:03AE 00 E4                   11954   	mov	er4,	#0 
00:03B0 25-F6                   11955   	mov	er6,	er2
                                11956   CBLOCKEND 255 9 3708
                                11957   
                                11958   ;;	}
                                11959   CLINEA 0000H 0000H 0E7CH 0002H 0002H
00:03B2                         11960   _$L748 :
                                11961   
                                11962   ;;	if(result < -45){
                                11963   CLINEA 0000H 0001H 0E7DH 0002H 0012H
00:03B2 6E-F4                   11964   	push	xr4
00:03B4 00 E0                   11965   	mov	er0,	#0 
00:03B6 34 02                   11966   	mov	r2,	#034h
00:03B8 C2 03                   11967   	mov	r3,	#0c2h
00:03BA 6E-F0                   11968   	push	xr0
00:03BC 01-F0'00-00'            11969   	bl	__fcmpu8sw
00:03C0 08 E1                   11970   	add	sp,	#8 
00:03C2 0B-A0                   11971   	mov	psw,	r0
00:03C4 04 C0                   11972   	bge	_$L750
                                11973   CBLOCK 255 10 3709
                                11974   
                                11975   ;;		result = -45;
                                11976   CLINEA 0000H 0001H 0E7EH 0003H 000FH
00:03C6 34 02                   11977   	mov	r2,	#034h
00:03C8 C2 03                   11978   	mov	r3,	#0c2h
00:03CA 00 E4                   11979   	mov	er4,	#0 
00:03CC 25-F6                   11980   	mov	er6,	er2
                                11981   CBLOCKEND 255 10 3711
                                11982   
                                11983   ;;	}
                                11984   CLINEA 0000H 0000H 0E7FH 0002H 0002H
00:03CE                         11985   _$L750 :
                                11986   
                                11987   ;;	return(result);
                                11988   CLINEA 0000H 0001H 0E81H 0002H 0010H
00:03CE 45-F0                   11989   	mov	er0,	er4
00:03D0 65-F2                   11990   	mov	er2,	er6
                                11991   CBLOCKEND 255 2 3714
                                11992   
                                11993   ;;}
                                11994   CLINEA 0000H 0000H 0E82H 0001H 0001H
00:03D2 2E-F4                   11995   	pop	xr4
00:03D4 2E-F8                   11996   	pop	xr8
00:03D6 EA-A1                   11997   	mov	sp,	fp
00:03D8 1E-FE                   11998   	pop	fp
00:03DA 8E-F2                   11999   	pop	pc
                                12000   CBLOCKEND 255 1 3714
                                12001   CFUNCTIONEND 255
                                12002   
                                12003   	public _AccelSensorControlPID_D
                                12004   	public _AccelSensorControlPID_I
                                12005   	public _AccelSensorControlPID_P
                                12006   	public _Shutdown
                                12007   	public _NOPms
                                12008   	public _NOPus
                                12009   	public _approx_arctan2
                                12010   	public _checkI2C
                                12011   	public _main_clrWDT
                                12012   	public _Accel_PID_XYChangeFlag
                                12013   	public _main_reqNotHalt
                                12014   	public _ReturnMagData
                                12015   	public _DistanceSensorControl
                                12016   	public _RangeSensorControlPID
                                12017   	public _PortA_Digital_Inputs
                                12018   	public _MagSensorControl
                                12019   	public _ESC2_PWM
                                12020   	public _Get_AccGyroData
                                12021   	public _main
                                12022   	public _MagSensorControlPID
                                12023   	public _ClearVariables
                                12024   	public _PortD_Low
                                12025   	public _NOP1000
                                12026   	public _ESC1_PWM
                                12027   	public _CheckSafetyLimitUnscaled
                                12028   	public _CalibrateAccel
                                12029   	public _Get_RangeData
                                12030   	public _PortC_Low
                                12031   	public _CheckSafetyLimit
                                12032   	public _ESC4_PWM
                                12033   	public _Get_MagData
                                12034   	public _UARTTunePID
                                12035   	public _Get_PingData
                                12036   	public _SerialOutCoefficients
                                12037   	public _PortB_Low
                                12038   	public _CalibrateMotors
                                12039   	public _ReturnAccelData
                                12040   	public _ESC3_PWM
                                12041   	public _CalibrateGyro
                                12042   	public _RampUpMotorTest
                                12043   	public _NOP
                                12044   	public _PortA_Low
                                12045   	public _analog_comparator
                                12046   	public _Run_AccGyroCF
                                12047   	public _SoftStart
                                12048   	public _ReturnSensorData
                                12049   	__flgUartFin comm data 01h #00h
                                12050   	__flgI2CFin comm data 01h #00h
                                12051   	__reqNotHalt comm data 01h #00h
                                12052   	extrn code near : _abs
                                12053   	extrn code near : _irq_init
                                12054   	extrn code near : _uart_PortSet
                                12055   	extrn code near : _i2c_stop
                                12056   	extrn code near : _i2c_startReceive
                                12057   	extrn code near : _uart_startReceive
                                12058   	extrn code near : _pow
                                12059   	extrn code near : _atan
                                12060   	extrn code near : _uart_init
                                12061   	extrn code near : _i2c_continue
                                12062   	extrn code near : _irq_di
                                12063   	extrn code near : _irq_ei
                                12064   	extrn code near : _sscanf_nn
                                12065   	extrn code near : _irq_setHdr
                                12066   	extrn code near : _sprintf_nn
                                12067   	extrn code near : _uart_stop
                                12068   	extrn code near : _uart_startSend
                                12069   	extrn code near : _i2c_startSend
                                12070   	extrn code near : _uart_continue
                                12071   	extrn code near : _atan2
                                12072   	extrn code near : _i2c_init
                                12073   	extrn code near : _tm_init
                                12074   	extrn code : $$start_up
                                12075   
  --------------------------    12076   	cseg #00h at 02h
00:0002 00-00'                  12077   	dw	$$start_up
                                12078   
  --------------------------    12079   	rseg $$NINITTAB
??:0000 68                      12080   	db	068h
??:0001 6B                      12081   	db	06bh
??:0002 00                      12082   	db	00h
??:0003 1C                      12083   	db	01ch
??:0004 00                      12084   	db	00h
??:0005 00                      12085   	align
??:0006 00-00                   12086   	dw	00h
??:0008 80-46                   12087   	dw	04680h
??:000A 1B                      12088   	db	01bh
??:000B 08                      12089   	db	08h
??:000C 6F-12                   12090   	dw	0126fh
??:000E 83-42                   12091   	dw	04283h
??:0010 1A                      12092   	db	01ah
??:0011 04                      12093   	db	04h
??:0012 19                      12094   	db	019h
??:0013 13                      12095   	db	013h
??:0014 38                      12096   	db	038h
??:0015 01                      12097   	db	01h
??:0016 00                      12098   	db	00h
??:0017 00                      12099   	db	00h
??:0018 3B                      12100   	db	03bh
??:0019 00                      12101   	align
??:001A 00-00                   12102   	dw	00h
??:001C 00-00                   12103   	dw	00h
??:001E 00                      12104   	db	00h
??:001F 00                      12105   	db	00h
??:0020 00                      12106   	db	00h
??:0021 00                      12107   	align
??:0022 00-00                   12108   	dw	00h
??:0024 00-00                   12109   	dw	00h
??:0026 00-00                   12110   	dw	00h
??:0028 00-00                   12111   	dw	00h
??:002A 00-00                   12112   	dw	00h
??:002C 00-00                   12113   	dw	00h
??:002E 00-00                   12114   	dw	00h
??:0030 00-00                   12115   	dw	00h
??:0032 00-00                   12116   	dw	00h
??:0034 00-00                   12117   	dw	00h
??:0036 00-00                   12118   	dw	00h
??:0038 00-00                   12119   	dw	00h
??:003A 00-00                   12120   	dw	00h
??:003C 00-00                   12121   	dw	00h
??:003E 00-00                   12122   	dw	00h
??:0040 00-00                   12123   	dw	00h
??:0042 00-00                   12124   	dw	00h
??:0044 00-00                   12125   	dw	00h
??:0046 1E                      12126   	db	01eh
??:0047 00                      12127   	db	00h
??:0048 78                      12128   	db	078h
??:0049 01                      12129   	db	01h
??:004A 60                      12130   	db	060h
??:004B 02                      12131   	db	02h
??:004C 01                      12132   	db	01h
??:004D 03                      12133   	db	03h
??:004E 09                      12134   	db	09h
??:004F 00                      12135   	align
??:0050 00-00                   12136   	dw	00h
??:0052 00-00                   12137   	dw	00h
??:0054 00-00                   12138   	dw	00h
??:0056 00-00                   12139   	dw	00h
??:0058 00-00                   12140   	dw	00h
??:005A 00-00                   12141   	dw	00h
??:005C 00-00                   12142   	dw	00h
??:005E 00-00                   12143   	dw	00h
??:0060 5C-8F                   12144   	dw	08f5ch
??:0062 C2-3F                   12145   	dw	03fc2h
??:0064 6F-12                   12146   	dw	0126fh
??:0066 03-BE                   12147   	dw	0be03h
??:0068 00-00                   12148   	dw	00h
??:006A 00-00                   12149   	dw	00h
??:006C 00-00                   12150   	dw	00h
??:006E 00-00                   12151   	dw	00h
??:0070 70                      12152   	db	070h
??:0071 51                      12153   	db	051h
??:0072 00-00                   12154   	dw	00h
??:0074 0A-00                   12155   	dw	0ah
??:0076 0A-00                   12156   	dw	0ah
??:0078 00-00                   12157   	dw	00h
??:007A 8C-42                   12158   	dw	0428ch
??:007C 00-00                   12159   	dw	00h
??:007E 48-42                   12160   	dw	04248h
??:0080 00-00                   12161   	dw	00h
??:0082 70-43                   12162   	dw	04370h
??:0084 AE-47                   12163   	dw	047aeh
??:0086 E1-BD                   12164   	dw	0bde1h
??:0088 AE-47                   12165   	dw	047aeh
??:008A E1-3D                   12166   	dw	03de1h
??:008C AE-47                   12167   	dw	047aeh
??:008E E1-BD                   12168   	dw	0bde1h
??:0090 AE-47                   12169   	dw	047aeh
??:0092 E1-3D                   12170   	dw	03de1h
??:0094 00-00                   12171   	dw	00h
??:0096 80-3F                   12172   	dw	03f80h
??:0098 00-80                   12173   	dw	08000h
??:009A B3-43                   12174   	dw	043b3h
??:009C 00-00                   12175   	dw	00h
??:009E 34-43                   12176   	dw	04334h
??:00A0 00-00                   12177   	dw	00h
??:00A2 00-00                   12178   	dw	00h
??:00A4 00-00                   12179   	dw	00h
??:00A6 00-00                   12180   	dw	00h
??:00A8 00-00                   12181   	dw	00h
??:00AA 00-00                   12182   	dw	00h
??:00AC 00-00                   12183   	dw	00h
??:00AE 00-00                   12184   	dw	00h
??:00B0 00-00                   12185   	dw	00h
??:00B2 00-00                   12186   	dw	00h
??:00B4 00-00                   12187   	dw	00h
??:00B6 00-00                   12188   	dw	00h
??:00B8 00-00                   12189   	dw	00h
??:00BA 00-00                   12190   	dw	00h
??:00BC 00-00                   12191   	dw	00h
??:00BE 00-00                   12192   	dw	00h
??:00C0 00-00                   12193   	dw	00h
??:00C2 00-00                   12194   	dw	00h
??:00C4 C0-3E                   12195   	dw	03ec0h
??:00C6 00-00                   12196   	dw	00h
??:00C8 00-00                   12197   	dw	00h
??:00CA 9A-99                   12198   	dw	0999ah
??:00CC 59-3F                   12199   	dw	03f59h
??:00CE 00-00                   12200   	dw	00h
??:00D0 00-00                   12201   	dw	00h
??:00D2 00-00                   12202   	dw	00h
??:00D4 00-00                   12203   	dw	00h
??:00D6 00-00                   12204   	dw	00h
??:00D8 00-00                   12205   	dw	00h
??:00DA 00-00                   12206   	dw	00h
??:00DC 00-00                   12207   	dw	00h
??:00DE 1F-85                   12208   	dw	0851fh
??:00E0 6B-3F                   12209   	dw	03f6bh
??:00E2 0A-D7                   12210   	dw	0d70ah
??:00E4 A3-3D                   12211   	dw	03da3h
??:00E6 00                      12212   	db	00h
??:00E7 00                      12213   	db	00h
??:00E8 00-00                   12214   	dw	00h
??:00EA 00-00                   12215   	dw	00h
??:00EC 00-00                   12216   	dw	00h
??:00EE 00-00                   12217   	dw	00h
??:00F0 01                      12218   	db	01h
??:00F1 00                      12219   	align
??:00F2 00-00                   12220   	dw	00h
??:00F4 00-00                   12221   	dw	00h
??:00F6 00-00                   12222   	dw	00h
??:00F8 00-00                   12223   	dw	00h
??:00FA 00-00                   12224   	dw	00h
??:00FC 00-00                   12225   	dw	00h
??:00FE 00-00                   12226   	dw	00h
??:0100 00-00                   12227   	dw	00h
??:0102 00-00                   12228   	dw	00h
??:0104 00-00                   12229   	dw	00h
??:0106 00-00                   12230   	dw	00h
??:0108 00-00                   12231   	dw	00h
??:010A 00-00                   12232   	dw	00h
??:010C 00-00                   12233   	dw	00h
??:010E 00-00                   12234   	dw	00h
??:0110 00-00                   12235   	dw	00h
??:0112 00-00                   12236   	dw	00h
??:0114 00-00                   12237   	dw	00h
??:0116 00-00                   12238   	dw	00h
??:0118 00-00                   12239   	dw	00h
??:011A 00-00                   12240   	dw	00h
??:011C 00-00                   12241   	dw	00h
??:011E 00-00                   12242   	dw	00h
??:0120 80-3F                   12243   	dw	03f80h
??:0122 00-00                   12244   	dw	00h
??:0124 00-00                   12245   	dw	00h
??:0126 00-00                   12246   	dw	00h
??:0128 00-00                   12247   	dw	00h
??:012A 00-00                   12248   	dw	00h
??:012C 00-00                   12249   	dw	00h
??:012E 00-00                   12250   	dw	00h
??:0130 00-00                   12251   	dw	00h
??:0132 00-00                   12252   	dw	00h
??:0134 00-00                   12253   	dw	00h
??:0136 00-00                   12254   	dw	00h
??:0138 00-00                   12255   	dw	00h
??:013A 00-00                   12256   	dw	00h
??:013C 00-00                   12257   	dw	00h
??:013E 00-00                   12258   	dw	00h
??:0140 00-00                   12259   	dw	00h
??:0142 00-00                   12260   	dw	00h
??:0144 00-00                   12261   	dw	00h
??:0146 00-00                   12262   	dw	00h
??:0148 00-00                   12263   	dw	00h
??:014A 00-00                   12264   	dw	00h
??:014C 00-00                   12265   	dw	00h
??:014E 00-00                   12266   	dw	00h
??:0150 00-00                   12267   	dw	00h
??:0152 00-00                   12268   	dw	00h
??:0154 00-00                   12269   	dw	00h
??:0156 00-00                   12270   	dw	00h
??:0158 00-00                   12271   	dw	00h
??:015A 00-00                   12272   	dw	00h
??:015C 00-00                   12273   	dw	00h
??:015E 00-00                   12274   	dw	00h
??:0160 00-00                   12275   	dw	00h
??:0162 00                      12276   	db	00h
??:0163 00                      12277   	db	00h
??:0164 00                      12278   	db	00h
??:0165 00                      12279   	align
??:0166 FF-3F                   12280   	dw	03fffh
??:0168 FF-3F                   12281   	dw	03fffh
??:016A FF-3F                   12282   	dw	03fffh
??:016C FF-3F                   12283   	dw	03fffh
??:016E 00                      12284   	db	00h
??:016F 00                      12285   	align
??:0170 00-00                   12286   	dw	00h
??:0172 8C-42                   12287   	dw	0428ch
??:0174 00-00                   12288   	dw	00h
??:0176 00-00                   12289   	dw	00h
??:0178 00-00                   12290   	dw	00h
??:017A 00-00                   12291   	dw	00h
??:017C 00-00                   12292   	dw	00h
??:017E 00-00                   12293   	dw	00h
??:0180 00-00                   12294   	dw	00h
??:0182 00-00                   12295   	dw	00h
??:0184 00-00                   12296   	dw	00h
??:0186 00-00                   12297   	dw	00h
??:0188 00-00                   12298   	dw	00h
??:018A 00-00                   12299   	dw	00h
??:018C 00-00                   12300   	dw	00h
??:018E 00-00                   12301   	dw	00h
??:0190 00-00                   12302   	dw	00h
??:0192 00-00                   12303   	dw	00h
??:0194 00-00                   12304   	dw	00h
??:0196 00-00                   12305   	dw	00h
??:0198 00-00                   12306   	dw	00h
??:019A 00-00                   12307   	dw	00h
??:019C 00-00                   12308   	dw	00h
??:019E 00                      12309   	db	00h
??:019F 00                      12310   	db	00h
??:01A0 98-3A                   12311   	dw	03a98h
??:01A2 40-1F                   12312   	dw	01f40h
??:01A4 02-21                   12313   	dw	02102h
??:01A6 68-42                   12314   	dw	04268h
??:01A8 00                      12315   	db	00h
??:01A9 00                      12316   	db	00h
??:01AA 00-00                   12317   	dw	00h
??:01AC C8-32                   12318   	dw	032c8h
??:01AE 10-27                   12319   	dw	02710h
??:01B0 34-21                   12320   	dw	02134h
??:01B2 88-FF                   12321   	dw	0ff88h
??:01B4 9C-FF                   12322   	dw	0ff9ch
??:01B6 32-00                   12323   	dw	032h
??:01B8 00-00                   12324   	dw	00h
??:01BA 00                      12325   	db	00h
??:01BB 00                      12326   	align
??:01BC 00-00                   12327   	dw	00h
??:01BE 00-00                   12328   	dw	00h
??:01C0 00-00                   12329   	dw	00h
??:01C2 00-00                   12330   	dw	00h
??:01C4 00-00                   12331   	dw	00h
??:01C6 00-00                   12332   	dw	00h
??:01C8 00-00                   12333   	dw	00h
??:01CA 00-00                   12334   	dw	00h
??:01CC 00-00                   12335   	dw	00h
??:01CE 00-00                   12336   	dw	00h
??:01D0 00-00                   12337   	dw	00h
??:01D2 00-00                   12338   	dw	00h
??:01D4 00-00                   12339   	dw	00h
??:01D6 00-00                   12340   	dw	00h
??:01D8 00-00                   12341   	dw	00h
??:01DA 00-00                   12342   	dw	00h
??:01DC 00-00                   12343   	dw	00h
??:01DE 00-00                   12344   	dw	00h
??:01E0 00-00                   12345   	dw	00h
??:01E2 00-00                   12346   	dw	00h
                                12347   
  --------------------------    12348   	rseg $$TAB_uartSetParam$main
00:0000                         12349   __uartSetParam :
00:0000 00-E1                   12350   	dw	0e100h
00:0002 00-00                   12351   	dw	00h
00:0004 00                      12352   	db	00h
00:0005 02                      12353   	db	02h
00:0006 00                      12354   	db	00h
00:0007 00                      12355   	db	00h
00:0008 00                      12356   	db	00h
00:0009 00                      12357   	align
                                12358   
  --------------------------    12359   	rseg $$TAB$$S189$main
00:0000                         12360   $$S189 :
00:0000 25 66 2C 25 66 2C 25 66 12361   	DB	"%f,%f,%f,%f,%f,%f,%f,%u"
00:0008 2C 25 66 2C 25 66 2C 25   >>>   
00:0010 66 2C 25 66 2C 25 75 00   >>>   , 00H
                                12362   
  --------------------------    12363   	rseg $$TAB$$S202$main
00:0000                         12364   $$S202 :
00:0000 25 66 2C 25 66 2C 25 66 12365   	DB	"%f,%f,%f",
00:0008 00                        >>>    00H
                                12366   
  --------------------------    12367   	rseg $$TAB$$S215$main
00:0000                         12368   $$S215 :
00:0000 25 66 00                12369   	DB	"%f", 00H
                                12370   
  --------------------------    12371   	rseg $$TAB$$S229$main
00:0000                         12372   $$S229 :
00:0000 47 79 72 6F 20 43 61 6C 12373   	DB	"Gyro Calibration: Please Keep the Quad Flat and Return Any 2 chars to Start"
00:0008 69 62 72 61 74 69 6F 6E   >>>   
00:0010 3A 20 50 6C 65 61 73 65   >>>   
00:0018 20 4B 65 65 70 20 74 68   >>>   
00:0020 65 20 51 75 61 64 20 46   >>>   
00:0028 6C 61 74 20 61 6E 64 20   >>>   
00:0030 52 65 74 75 72 6E 20 41   >>>   
00:0038 6E 79 20 32 20 63 68 61   >>>   
00:0040 72 73 20 74 6F 20 53 74   >>>   
00:0048 61 72 74 00               >>>   , 00H
                                12374   
  --------------------------    12375   	rseg $$TAB$$S254$main
00:0000                         12376   $$S254 :
00:0000 47 79 72 6F 20 43 61 6C 12377   	DB	"Gyro Calibration Complete!"
00:0008 69 62 72 61 74 69 6F 6E   >>>   
00:0010 20 43 6F 6D 70 6C 65 74   >>>   
00:0018 65 21 00                  >>>   , 00H
                                12378   
  --------------------------    12379   	rseg $$TAB$$S270$main
00:0000                         12380   $$S270 :
00:0000 41 63 63 65 6C 20 43 61 12381   	DB	"Accel Calibration: Keep Quad Flat! Return any 2 chars to Start"
00:0008 6C 69 62 72 61 74 69 6F   >>>   
00:0010 6E 3A 20 4B 65 65 70 20   >>>   
00:0018 51 75 61 64 20 46 6C 61   >>>   
00:0020 74 21 20 52 65 74 75 72   >>>   
00:0028 6E 20 61 6E 79 20 32 20   >>>   
00:0030 63 68 61 72 73 20 74 6F   >>>   
00:0038 20 53 74 61 72 74 00      >>>   , 00H
                                12382   
  --------------------------    12383   	rseg $$TAB$$S301$main
00:0000                         12384   $$S301 :
00:0000 41 63 63 65 6C 20 43 61 12385   	DB	"Accel Calibration: Tilt the Quad 90deg in the ROLL Direction! Return any 2 chars to Start"
00:0008 6C 69 62 72 61 74 69 6F   >>>   
00:0010 6E 3A 20 54 69 6C 74 20   >>>   
00:0018 74 68 65 20 51 75 61 64   >>>   
00:0020 20 39 30 64 65 67 20 69   >>>   
00:0028 6E 20 74 68 65 20 52 4F   >>>   
00:0030 4C 4C 20 44 69 72 65 63   >>>   
00:0038 74 69 6F 6E 21 20 52 65   >>>   
00:0040 74 75 72 6E 20 61 6E 79   >>>   
00:0048 20 32 20 63 68 61 72 73   >>>   
00:0050 20 74 6F 20 53 74 61 72   >>>   
00:0058 74 00                     >>>   , 00H
                                12386   
  --------------------------    12387   	rseg $$TAB$$S326$main
00:0000                         12388   $$S326 :
00:0000 41 63 63 65 6C 20 43 61 12389   	DB	"Accel Calibration: Tilt the Quad 90deg in the PITCH direction! Return any 2 chars to Start"
00:0008 6C 69 62 72 61 74 69 6F   >>>   
00:0010 6E 3A 20 54 69 6C 74 20   >>>   
00:0018 74 68 65 20 51 75 61 64   >>>   
00:0020 20 39 30 64 65 67 20 69   >>>   
00:0028 6E 20 74 68 65 20 50 49   >>>   
00:0030 54 43 48 20 64 69 72 65   >>>   
00:0038 63 74 69 6F 6E 21 20 52   >>>   
00:0040 65 74 75 72 6E 20 61 6E   >>>   
00:0048 79 20 32 20 63 68 61 72   >>>   
00:0050 73 20 74 6F 20 53 74 61   >>>   
00:0058 72 74 00                  >>>   , 00H
                                12390   
  --------------------------    12391   	rseg $$TAB$$S351$main
00:0000                         12392   $$S351 :
00:0000 41 63 63 65 6C 20 43 61 12393   	DB	"Accel Calibration Complete!"
00:0008 6C 69 62 72 61 74 69 6F   >>>   
00:0010 6E 20 43 6F 6D 70 6C 65   >>>   
00:0018 74 65 21 00               >>>   , 00H
                                12394   
  --------------------------    12395   	rseg $$TAB$$S373$main
00:0000                         12396   $$S373 :
00:0000 43 75 72 72 65 6E 74 20 12397   	DB	"Current Settings: kp=%f,ki=%f,kd=%f,a1=%f,a2=%f"
00:0008 53 65 74 74 69 6E 67 73   >>>   
00:0010 3A 20 6B 70 3D 25 66 2C   >>>   
00:0018 6B 69 3D 25 66 2C 6B 64   >>>   
00:0020 3D 25 66 2C 61 31 3D 25   >>>   
00:0028 66 2C 61 32 3D 25 66 00   >>>   , 00H
                                12398   
  --------------------------    12399   	rseg $$TAB$$S423$main
00:0000                         12400   $$S423 :
00:0000 4E 65 77 20 53 65 74 74 12401   	DB	"New Settings: kp=%f,ki=%f,kd=%f,a1=%f,a2=%f"
00:0008 69 6E 67 73 3A 20 6B 70   >>>   
00:0010 3D 25 66 2C 6B 69 3D 25   >>>   
00:0018 66 2C 6B 64 3D 25 66 2C   >>>   
00:0020 61 31 3D 25 66 2C 61 32   >>>   
00:0028 3D 25 66 00               >>>   , 00H
                                12402   
  --------------------------    12403   	rseg $$TAB$$S490$main
00:0000                         12404   $$S490 :
00:0000 25 66 2C 25 66 2C 25 66 12405   	DB	"%f,%f,%f,%f"
00:0008 2C 25 66 00               >>>   , 00H
                                12406   
  --------------------------    12407   	rseg $$NINITVAR
00:0000                         12408   _MPU6050Address :
00:0000                         12409   	ds	01h
00:0001                         12410   _AccGyro_PWRMGMT1REG :
00:0001                         12411   	ds	01h
00:0002                         12412   _AccGyro_PWRMGMT1REG_Contents :
00:0002                         12413   	ds	01h
00:0003                         12414   _AccGyro_AccelConfig :
00:0003                         12415   	ds	01h
00:0004                         12416   _AccGyro_AccelConfig_Contents :
00:0004                         12417   	ds	01h
00:0005                         12418   	align
00:0006                         12419   _AccGyro_AccelScaling :
00:0006                         12420   	ds	04h
00:000A                         12421   _AccGyro_GyroConfig :
00:000A                         12422   	ds	01h
00:000B                         12423   _AccGyro_GyroConfig_Contents :
00:000B                         12424   	ds	01h
00:000C                         12425   _AccGyro_GyroScaling :
00:000C                         12426   	ds	04h
00:0010                         12427   _AccGyro_GyroAccelLPF :
00:0010                         12428   	ds	01h
00:0011                         12429   _AccGyro_GyroAccelLPF_Contents :
00:0011                         12430   	ds	01h
00:0012                         12431   _AccGyro_GyroAccel_SMPRTDIV :
00:0012                         12432   	ds	01h
00:0013                         12433   _AccGyro_GyroAccelLPF_SMPRTDIVCo :
00:0013                         12434   	ds	01h
00:0014                         12435   _AccGyro_INTENABLEReg :
00:0014                         12436   	ds	01h
00:0015                         12437   _AccGyro_INTENABLEReg_contents :
00:0015                         12438   	ds	01h
00:0016                         12439   _AccGYRO_Test :
00:0016                         12440   	ds	01h
00:0017                         12441   _AccGyro_ReadFlag :
00:0017                         12442   	ds	01h
00:0018                         12443   _AccGyro_ReadData :
00:0018                         12444   	ds	01h
00:0019                         12445   	align
00:001A                         12446   _Temp_out :
00:001A                         12447   	ds	04h
00:001E                         12448   _Accel_SavIndex :
00:001E                         12449   	ds	01h
00:001F                         12450   _Accel_RetIndex :
00:001F                         12451   	ds	01h
00:0020                         12452   _AccGyro_CF_FlagCounter :
00:0020                         12453   	ds	01h
00:0021                         12454   	align
00:0022                         12455   _CF_Accel_XRoll :
00:0022                         12456   	ds	04h
00:0026                         12457   _CF_Accel_YPitch :
00:0026                         12458   	ds	04h
00:002A                         12459   _CF_Gyro_XRoll :
00:002A                         12460   	ds	04h
00:002E                         12461   _CF_Gyro_YPitch :
00:002E                         12462   	ds	04h
00:0032                         12463   _CF_Accel_ForceMagApprox :
00:0032                         12464   	ds	04h
00:0036                         12465   _CF_Gyro_CurrentCount :
00:0036                         12466   	ds	04h
00:003A                         12467   _Gyro_Xcal :
00:003A                         12468   	ds	04h
00:003E                         12469   _Gyro_Ycal :
00:003E                         12470   	ds	04h
00:0042                         12471   _Gyro_Zcal :
00:0042                         12472   	ds	04h
00:0046                         12473   _HMC5883Address :
00:0046                         12474   	ds	01h
00:0047                         12475   _Mag_ConfigA :
00:0047                         12476   	ds	01h
00:0048                         12477   _Mag_ConfigA_Contents :
00:0048                         12478   	ds	01h
00:0049                         12479   _Mag_ConfigB :
00:0049                         12480   	ds	01h
00:004A                         12481   _Mag_ConfigB_Contents :
00:004A                         12482   	ds	01h
00:004B                         12483   _Mag_ModeReg :
00:004B                         12484   	ds	01h
00:004C                         12485   _Mag_ModeReg_Contents :
00:004C                         12486   	ds	01h
00:004D                         12487   _Mag_ReadData :
00:004D                         12488   	ds	01h
00:004E                         12489   _Mag_Status :
00:004E                         12490   	ds	01h
00:004F                         12491   	align
00:0050                         12492   _Mag_Xout :
00:0050                         12493   	ds	04h
00:0054                         12494   _Mag_Yout :
00:0054                         12495   	ds	04h
00:0058                         12496   _Mag_Zout :
00:0058                         12497   	ds	04h
00:005C                         12498   _Mag_Angle :
00:005C                         12499   	ds	04h
00:0060                         12500   _Mag_GainFactor :
00:0060                         12501   	ds	04h
00:0064                         12502   _Mag_DeclinationAngle :
00:0064                         12503   	ds	04h
00:0068                         12504   _timer_us :
00:0068                         12505   	ds	02h
00:006A                         12506   _Ping_timer :
00:006A                         12507   	ds	02h
00:006C                         12508   _Ping_out :
00:006C                         12509   	ds	04h
00:0070                         12510   _Range_Address :
00:0070                         12511   	ds	01h
00:0071                         12512   _Range_TakeRangeReading :
00:0071                         12513   	ds	01h
00:0072                         12514   _Range_out :
00:0072                         12515   	ds	02h
00:0074                         12516   _MotorStep :
00:0074                         12517   	ds	02h
00:0076                         12518   _Mag_MotorStep :
00:0076                         12519   	ds	02h
00:0078                         12520   _Range_ZHiThres :
00:0078                         12521   	ds	04h
00:007C                         12522   _Range_ZLoThres :
00:007C                         12523   	ds	04h
00:0080                         12524   _Range_Ceiling :
00:0080                         12525   	ds	04h
00:0084                         12526   _Accel_XLoThres :
00:0084                         12527   	ds	04h
00:0088                         12528   _Accel_XHiThres :
00:0088                         12529   	ds	04h
00:008C                         12530   _Accel_YLoThres :
00:008C                         12531   	ds	04h
00:0090                         12532   _Accel_YHiThres :
00:0090                         12533   	ds	04h
00:0094                         12534   _Mag_CWThres :
00:0094                         12535   	ds	04h
00:0098                         12536   _Mag_CCWThres :
00:0098                         12537   	ds	04h
00:009C                         12538   _Mag_OpposingPole :
00:009C                         12539   	ds	04h
00:00A0                         12540   _Mag_PIDSetpoint :
00:00A0                         12541   	ds	04h
00:00A4                         12542   _Mag_PIDCorrectionFactor :
00:00A4                         12543   	ds	04h
00:00A8                         12544   _Mag_PIDAngleScaled :
00:00A8                         12545   	ds	04h
00:00AC                         12546   _Mag_PIDError :
00:00AC                         12547   	ds	04h
00:00B0                         12548   _Mag_PIDCounter :
00:00B0                         12549   	ds	02h
00:00B2                         12550   _Mag_PIDCurrentCount :
00:00B2                         12551   	ds	04h
00:00B6                         12552   _Mag_PIDErrSum :
00:00B6                         12553   	ds	04h
00:00BA                         12554   _Mag_PIDdErr :
00:00BA                         12555   	ds	04h
00:00BE                         12556   _Mag_PIDErrPrev :
00:00BE                         12557   	ds	04h
00:00C2                         12558   _Mag_PID_kp :
00:00C2                         12559   	ds	04h
00:00C6                         12560   _Mag_PID_ki :
00:00C6                         12561   	ds	04h
00:00CA                         12562   _Mag_PID_kd :
00:00CA                         12563   	ds	04h
00:00CE                         12564   _Mag_PIDOutput :
00:00CE                         12565   	ds	04h
00:00D2                         12566   _CF_Gyro_Counter :
00:00D2                         12567   	ds	04h
00:00D6                         12568   _CF_YPitch :
00:00D6                         12569   	ds	04h
00:00DA                         12570   _CF_XRoll :
00:00DA                         12571   	ds	04h
00:00DE                         12572   _CF_HPF :
00:00DE                         12573   	ds	04h
00:00E2                         12574   _CF_LPF :
00:00E2                         12575   	ds	04h
00:00E6                         12576   _CF_UseFlag :
00:00E6                         12577   	ds	01h
00:00E7                         12578   _CF_Counter :
00:00E7                         12579   	ds	01h
00:00E8                         12580   _CF_YPitch_avg :
00:00E8                         12581   	ds	04h
00:00EC                         12582   _CF_XRoll_avg :
00:00EC                         12583   	ds	04h
00:00F0                         12584   _CF_highlow_flag :
00:00F0                         12585   	ds	01h
00:00F1                         12586   	align
00:00F2                         12587   _CF_YPitch_high :
00:00F2                         12588   	ds	04h
00:00F6                         12589   _CF_XRoll_high :
00:00F6                         12590   	ds	04h
00:00FA                         12591   _CF_YPitch_low :
00:00FA                         12592   	ds	04h
00:00FE                         12593   _CF_XRoll_low :
00:00FE                         12594   	ds	04h
00:0102                         12595   _CF_avgCnt :
00:0102                         12596   	ds	04h
00:0106                         12597   _CF_StdDev_M_X :
00:0106                         12598   	ds	04h
00:010A                         12599   _CF_StdDev_M_Y :
00:010A                         12600   	ds	04h
00:010E                         12601   _CF_StdDev_Mtmp_X :
00:010E                         12602   	ds	04h
00:0112                         12603   _CF_StdDev_Mtmp_Y :
00:0112                         12604   	ds	04h
00:0116                         12605   _CF_StdDev_S_X :
00:0116                         12606   	ds	04h
00:011A                         12607   _CF_StdDev_S_Y :
00:011A                         12608   	ds	04h
00:011E                         12609   _CF_StdDev_K :
00:011E                         12610   	ds	04h
00:0122                         12611   _Accel_PID_XRollError :
00:0122                         12612   	ds	04h
00:0126                         12613   _Accel_PID_XRollCounter_I :
00:0126                         12614   	ds	02h
00:0128                         12615   _Accel_PID_XRollCounter_D :
00:0128                         12616   	ds	02h
00:012A                         12617   _Accel_PID_XRollErrSum :
00:012A                         12618   	ds	04h
00:012E                         12619   _Accel_PID_XRollErrPrev :
00:012E                         12620   	ds	04h
00:0132                         12621   _Accel_PID_YPitchError :
00:0132                         12622   	ds	04h
00:0136                         12623   _Accel_PID_YPitchCounter_I :
00:0136                         12624   	ds	02h
00:0138                         12625   _Accel_PID_YPitchCounter_D :
00:0138                         12626   	ds	02h
00:013A                         12627   _Accel_PID_YPitchErrSum :
00:013A                         12628   	ds	04h
00:013E                         12629   _Accel_PID_YPitchErrPrev :
00:013E                         12630   	ds	04h
00:0142                         12631   _Accel_PID_XRolldErr :
00:0142                         12632   	ds	04h
00:0146                         12633   _Accel_PID_YPitchdErr :
00:0146                         12634   	ds	04h
00:014A                         12635   _Accel_PID_XRoll_kp :
00:014A                         12636   	ds	04h
00:014E                         12637   _Accel_PID_XRoll_ki :
00:014E                         12638   	ds	04h
00:0152                         12639   _Accel_PID_XRoll_kd :
00:0152                         12640   	ds	04h
00:0156                         12641   _Accel_PID_YPitch_kp :
00:0156                         12642   	ds	04h
00:015A                         12643   _Accel_PID_YPitch_ki :
00:015A                         12644   	ds	04h
00:015E                         12645   _Accel_PID_YPitch_kd :
00:015E                         12646   	ds	04h
00:0162                         12647   _Accel_PID_IFlag :
00:0162                         12648   	ds	01h
00:0163                         12649   _Accel_PID_DFlag :
00:0163                         12650   	ds	01h
00:0164                         12651   _Accel_PID_XYChangeFlag :
00:0164                         12652   	ds	01h
00:0165                         12653   	align
00:0166                         12654   _Accel_PID_Motor1 :
00:0166                         12655   	ds	02h
00:0168                         12656   _Accel_PID_Motor2 :
00:0168                         12657   	ds	02h
00:016A                         12658   _Accel_PID_Motor3 :
00:016A                         12659   	ds	02h
00:016C                         12660   _Accel_PID_Motor4 :
00:016C                         12661   	ds	02h
00:016E                         12662   _Accel_PID_GoCounter :
00:016E                         12663   	ds	01h
00:016F                         12664   	align
00:0170                         12665   _Range_PIDSetpoint :
00:0170                         12666   	ds	04h
00:0174                         12667   _Range_PIDError :
00:0174                         12668   	ds	04h
00:0178                         12669   _Range_PIDCounter :
00:0178                         12670   	ds	02h
00:017A                         12671   _Range_PIDCurrentCount :
00:017A                         12672   	ds	04h
00:017E                         12673   _Range_PIDErrSum :
00:017E                         12674   	ds	04h
00:0182                         12675   _Range_PIDdErr :
00:0182                         12676   	ds	04h
00:0186                         12677   _Range_PIDErrPrev :
00:0186                         12678   	ds	04h
00:018A                         12679   _Range_PIDOutput :
00:018A                         12680   	ds	04h
00:018E                         12681   _Range_PID_kp :
00:018E                         12682   	ds	04h
00:0192                         12683   _Range_PID_ki :
00:0192                         12684   	ds	04h
00:0196                         12685   _Range_PID_kd :
00:0196                         12686   	ds	04h
00:019A                         12687   _TestingEndTimer :
00:019A                         12688   	ds	02h
00:019C                         12689   _Timer8Counter :
00:019C                         12690   	ds	02h
00:019E                         12691   _PrePIDCount :
00:019E                         12692   	ds	01h
00:019F                         12693   _PWMflag :
00:019F                         12694   	ds	01h
00:01A0                         12695   _PWMUpperDutyLimitCalib :
00:01A0                         12696   	ds	02h
00:01A2                         12697   _PWMLowerDutyLimitCalib :
00:01A2                         12698   	ds	02h
00:01A4                         12699   _PWMSafeDuty :
00:01A4                         12700   	ds	02h
00:01A6                         12701   _PWMPeriod :
00:01A6                         12702   	ds	02h
00:01A8                         12703   _PWMCounter :
00:01A8                         12704   	ds	01h
00:01A9                         12705   _PWMSensorResPerInc :
00:01A9                         12706   	ds	01h
00:01AA                         12707   _PWMUpperLowerDiff :
00:01AA                         12708   	ds	02h
00:01AC                         12709   _PWMUpperDutyLimitRun :
00:01AC                         12710   	ds	02h
00:01AE                         12711   _PWMIdleDutyRun :
00:01AE                         12712   	ds	02h
00:01B0                         12713   _PWMLowerDutyLimitRun :
00:01B0                         12714   	ds	02h
00:01B2                         12715   _PWMtoRPMOffset_Mot2 :
00:01B2                         12716   	ds	02h
00:01B4                         12717   _PWMtoRPMOffset_Mot3 :
00:01B4                         12718   	ds	02h
00:01B6                         12719   _PWMtoRPMOffset_Mot4 :
00:01B6                         12720   	ds	02h
00:01B8                         12721   _$ST0 :
00:01B8                         12722   	ds	02h
00:01BA                         12723   _$ST1 :
00:01BA                         12724   	ds	01h
00:01BB                         12725   	align
00:01BC                         12726   _$ST2 :
00:01BC                         12727   	ds	04h
00:01C0                         12728   _$ST3 :
00:01C0                         12729   	ds	04h
00:01C4                         12730   _$ST4 :
00:01C4                         12731   	ds	04h
00:01C8                         12732   _$ST5 :
00:01C8                         12733   	ds	04h
00:01CC                         12734   _$ST6 :
00:01CC                         12735   	ds	04h
00:01D0                         12736   _$ST7 :
00:01D0                         12737   	ds	04h
00:01D4                         12738   _$ST8 :
00:01D4                         12739   	ds	04h
00:01D8                         12740   _$ST9 :
00:01D8                         12741   	ds	04h
00:01DC                         12742   _$ST10 :
00:01DC                         12743   	ds	04h
00:01E0                         12744   _$ST11 :
00:01E0                         12745   	ds	04h
                                12746   
  --------------------------    12747   	rseg $$NVARmain
00:0000                         12748   _RecWorld :
00:0000                         12749   	ds	08h
00:0008                         12750   _SensorReturn :
00:0008                         12751   	ds	0c8h
00:00D0                         12752   _Gyro_Zout :
00:00D0                         12753   	ds	028h
00:00F8                         12754   _Gyro_Yout :
00:00F8                         12755   	ds	028h
00:0120                         12756   _NewVar_Str :
00:0120                         12757   	ds	06h
00:0126                         12758   _NewVar :
00:0126                         12759   	ds	04h
00:012A                         12760   _AccGyro_Data :
00:012A                         12761   	ds	0eh
00:0138                         12762   _Range_Output :
00:0138                         12763   	ds	02h
00:013A                         12764   _Accel_Zcal :
00:013A                         12765   	ds	0ch
00:0146                         12766   _Accel_Xcal :
00:0146                         12767   	ds	0ch
00:0152                         12768   _Mag_Data :
00:0152                         12769   	ds	06h
00:0158                         12770   _Accel_Xout :
00:0158                         12771   	ds	028h
00:0180                         12772   _Accel_Ycal :
00:0180                         12773   	ds	0ch
00:018C                         12774   _SensorReturnSM :
00:018C                         12775   	ds	032h
00:01BE                         12776   _Accel_Yout :
00:01BE                         12777   	ds	028h
00:01E6                         12778   _Accel_Zout :
00:01E6                         12779   	ds	028h
00:020E                         12780   _Gyro_Xout :
00:020E                         12781   	ds	028h
                                12782   	extrn code : __faddu8sw
                                12783   	extrn code : __fsubu8sw
                                12784   	extrn code : __fnegu8sw
                                12785   	extrn code : __fcmpu8sw
                                12786   	extrn code : __fmulu8sw
                                12787   	extrn code : __fdivu8sw
                                12788   	extrn code : __fildu8sw
                                12789   	extrn code : __ftolu8sw
                                12790   	extrn code : __ftodu8sw
                                12791   	extrn code : __daddu8sw
                                12792   	extrn code : __dsubu8sw
                                12793   	extrn code : __dmulu8sw
                                12794   	extrn code : __dildu8sw
                                12795   	extrn code : __dtofu8sw
                                12796   	extrn code : __fuldu8sw
                                12797   
                                12798   	end



  Target       : ML610112 (nX-U8/100)
  Memory Model : SMALL
  Data   Model : NEAR
  ROM WINDOW   : (not specified)
  Internal RAM : E000H to EFFFH

  Errors   : 0
  Warnings : 0  (/Wrpeast)
  Lines    : 12798
