RASU8(ML610112)Relocatable Assembler, Ver.1.61.2    assemble list. page:   1 
 Source File: _output\_obj\main.asm
 Object File: _output\_obj\main.obj
 Date  : 2014/06/16 Mon.[20:15]
 Title : 
## Loc. Object                   Line   Source Statements

                                    1   ;; Compile Options : /TML610112 /MS /near /Icommon /Imain /Iirq /Itimer /Iclock /Itbc /Iuart /Ii2c /SS 256 /SD /Oa /Ot /W 3 /Wc /Fa_output\_obj\ 
                                    2   ;; Version Number  : Ver.3.41.8
                                    3   ;; File Name       : main.c
                                    4   
                                    5   	type (ML610112) 
                                    6   	model small, near
                                    7   	$$NVARmain segment data 2h #0h
                                    8   	$$NINITVAR segment data 2h #0h
                                    9   	$$NINITTAB segment table 2h any
                                   10   	$$AccelGyroDataReady_ISR$main segment code 2h #0h
                                   11   	$$AccelSensorControlPID_D$main segment code 2h #0h
                                   12   	$$AccelSensorControlPID_I$main segment code 2h #0h
                                   13   	$$AccelSensorControlPID_P$main segment code 2h #0h
                                   14   	$$CalibrateAccel$main segment code 2h #0h
                                   15   	$$CalibrateGyro$main segment code 2h #0h
                                   16   	$$CalibrateMotors$main segment code 2h #0h
                                   17   	$$CheckSafetyLimit$main segment code 2h #0h
                                   18   	$$CheckSafetyLimitUnscaled$main segment code 2h #0h
                                   19   	$$ClearVariables$main segment code 2h #0h
                                   20   	$$DistanceSensorControl$main segment code 2h #0h
                                   21   	$$ESC1_PWM$main segment code 2h #0h
                                   22   	$$ESC2_PWM$main segment code 2h #0h
                                   23   	$$ESC3_PWM$main segment code 2h #0h
                                   24   	$$ESC4_PWM$main segment code 2h #0h
                                   25   	$$Get_AccGyroData$main segment code 2h #0h
                                   26   	$$Get_MagData$main segment code 2h #0h
                                   27   	$$Get_PingData$main segment code 2h #0h
                                   28   	$$Get_RangeData$main segment code 2h #0h
                                   29   	$$Initialization$main segment code 2h #0h
                                   30   	$$MagSensorControl$main segment code 2h #0h
                                   31   	$$MagSensorControlPID$main segment code 2h #0h
                                   32   	$$NOP$main segment code 2h #0h
                                   33   	$$NOP1000$main segment code 2h #0h
                                   34   	$$NOPms$main segment code 2h #0h
                                   35   	$$NOPus$main segment code 2h #0h
                                   36   	$$PortA_Digital_Inputs$main segment code 2h #0h
                                   37   	$$PortA_Low$main segment code 2h #0h
                                   38   	$$PortB_Low$main segment code 2h #0h
                                   39   	$$PortC_Low$main segment code 2h #0h
                                   40   	$$PortD_Low$main segment code 2h #0h
                                   41   	$$RampUpMotorTest$main segment code 2h #0h
                                   42   	$$RangeSensorControlPID$main segment code 2h #0h
                                   43   	$$ReturnAccelData$main segment code 2h #0h
                                   44   	$$ReturnMagData$main segment code 2h #0h
                                   45   	$$ReturnSensorData$main segment code 2h #0h
                                   46   	$$Run_AccGyroCF$main segment code 2h #0h
                                   47   	$$SerialOutCoefficients$main segment code 2h #0h
                                   48   	$$SetOSC$main segment code 2h #0h
                                   49   	$$Shutdown$main segment code 2h #0h
                                   50   	$$SoftStart$main segment code 2h #0h
                                   51   	$$TAB$$S183$main segment table 2h #0h
                                   52   	$$TAB$$S196$main segment table 2h #0h
                                   53   	$$TAB$$S209$main segment table 2h #0h
                                   54   	$$TAB$$S223$main segment table 2h #0h
                                   55   	$$TAB$$S248$main segment table 2h #0h
                                   56   	$$TAB$$S264$main segment table 2h #0h
                                   57   	$$TAB$$S295$main segment table 2h #0h
                                   58   	$$TAB$$S320$main segment table 2h #0h
                                   59   	$$TAB$$S345$main segment table 2h #0h
                                   60   	$$TAB$$S367$main segment table 2h #0h
                                   61   	$$TAB$$S423$main segment table 2h #0h
                                   62   	$$TAB$$S501$main segment table 2h #0h
                                   63   	$$TAB_uartSetParam$main segment table 2h #0h
                                   64   	$$TBC_ISR$main segment code 2h #0h
                                   65   	$$TMR89_ISR$main segment code 2h #0h
                                   66   	$$UARTTunePID$main segment code 2h #0h
                                   67   	$$_funcI2CFin$main segment code 2h #0h
                                   68   	$$_funcUartFin$main segment code 2h #0h
                                   69   	$$_intI2c$main segment code 2h #0h
                                   70   	$$_intUart$main segment code 2h #0h
                                   71   	$$analog_comparator$main segment code 2h #0h
                                   72   	$$approx_arctan2$main segment code 2h #0h
                                   73   	$$checkI2C$main segment code 2h #0h
                                   74   	$$main$main segment code 2h #0h
                                   75   	$$main_clrWDT$main segment code 2h #0h
                                   76   	$$main_reqNotHalt$main segment code 2h #0h
                                   77   	STACKSEG 0100h
                                   78   CVERSION 3.41.8
                                   79   CGLOBAL 01H 03H 0000H "AccelSensorControlPID_D" 08H 02H 0F0H 00H 81H 1aH 00H 00H 07H
                                   80   CGLOBAL 01H 03H 0000H "AccelSensorControlPID_I" 08H 02H 0EFH 00H 81H 16H 00H 00H 07H
                                   81   CGLOBAL 01H 03H 0000H "AccelSensorControlPID_P" 08H 02H 0EEH 00H 81H 0eH 00H 00H 07H
                                   82   CGLOBAL 01H 03H 0000H "Shutdown" 08H 02H 0F4H 00H 81H 02H 00H 00H 07H
                                   83   CSGLOBAL 03H 0000H "TBC_ISR" 08H 02H 00H 01H 80H 00H 00H 00H 07H
                                   84   CGLOBAL 01H 03H 0000H "NOPms" 08H 02H 0FCH 00H 81H 0aH 00H 00H 07H
                                   85   CGLOBAL 01H 03H 0000H "NOPus" 08H 02H 0FDH 00H 80H 00H 00H 00H 07H
                                   86   CGLOBAL 01H 03H 0000H "approx_arctan2" 08H 02H 0FFH 00H 83H 40H 00H 00H 03H
                                   87   CGLOBAL 01H 03H 0000H "checkI2C" 08H 02H 0F7H 00H 81H 02H 00H 00H 07H
                                   88   CGLOBAL 01H 03H 0000H "main_clrWDT" 08H 02H 0CEH 00H 80H 00H 00H 00H 07H
                                   89   CSGLOBAL 03H 0000H "_funcUartFin" 08H 02H 0F5H 00H 81H 02H 00H 00H 07H
                                   90   CGLOBAL 01H 03H 0000H "main_reqNotHalt" 08H 02H 0F8H 00H 80H 00H 00H 00H 07H
                                   91   CGLOBAL 01H 03H 0000H "ReturnMagData" 08H 02H 0E3H 00H 81H 0eH 00H 00H 07H
                                   92   CGLOBAL 01H 03H 0000H "DistanceSensorControl" 08H 02H 0EBH 00H 81H 0aH 00H 00H 07H
                                   93   CSGLOBAL 03H 0000H "Initialization" 08H 02H 0CFH 00H 81H 0aH 00H 00H 07H
                                   94   CGLOBAL 01H 03H 0000H "RangeSensorControlPID" 08H 02H 0F1H 00H 81H 20H 00H 00H 07H
                                   95   CGLOBAL 01H 03H 0000H "PortA_Digital_Inputs" 08H 02H 0D6H 00H 80H 00H 00H 00H 07H
                                   96   CGLOBAL 01H 03H 0000H "MagSensorControl" 08H 02H 0ECH 00H 81H 0aH 00H 00H 07H
                                   97   CGLOBAL 01H 03H 0000H "ESC2_PWM" 08H 02H 0D8H 00H 80H 00H 00H 00H 07H
                                   98   CGLOBAL 01H 03H 0000H "Get_AccGyroData" 08H 02H 0DDH 00H 81H 10H 00H 00H 07H
                                   99   CGLOBAL 01H 03H 0000H "main" 08H 02H 03H 01H 80H 00H 00H 00H 01H
                                  100   CGLOBAL 01H 03H 0000H "MagSensorControlPID" 08H 02H 0EDH 00H 81H 2aH 00H 00H 07H
                                  101   CSGLOBAL 03H 0000H "_intUart" 08H 02H 0F9H 00H 80H 00H 00H 00H 07H
                                  102   CGLOBAL 01H 03H 0000H "ClearVariables" 08H 02H 0E0H 00H 80H 00H 00H 00H 07H
                                  103   CGLOBAL 01H 03H 0000H "PortD_Low" 08H 02H 0D5H 00H 80H 00H 00H 00H 07H
                                  104   CGLOBAL 01H 03H 0000H "NOP1000" 08H 02H 0FEH 00H 80H 00H 00H 00H 07H
                                  105   CGLOBAL 01H 03H 0000H "ESC1_PWM" 08H 02H 0D7H 00H 80H 00H 00H 00H 07H
                                  106   CSGLOBAL 03H 0000H "_intI2c" 08H 02H 0FAH 00H 80H 00H 00H 00H 07H
                                  107   CGLOBAL 01H 03H 0000H "CheckSafetyLimitUnscaled" 08H 02H 0F3H 00H 80H 00H 00H 00H 07H
                                  108   CSGLOBAL 03H 0000H "SetOSC" 08H 02H 0D0H 00H 80H 00H 00H 00H 07H
                                  109   CGLOBAL 01H 03H 0000H "CalibrateAccel" 08H 02H 0E6H 00H 81H 0cH 00H 00H 07H
                                  110   CSGLOBAL 03H 0000H "AccelGyroDataReady_ISR" 08H 02H 02H 01H 80H 00H 00H 00H 07H
                                  111   CGLOBAL 01H 03H 0000H "Get_RangeData" 08H 02H 0DBH 00H 81H 0aH 00H 00H 07H
                                  112   CGLOBAL 01H 03H 0000H "PortC_Low" 08H 02H 0D4H 00H 80H 00H 00H 00H 07H
                                  113   CSGLOBAL 03H 0000H "TMR89_ISR" 08H 02H 01H 01H 81H 0aH 00H 00H 07H
                                  114   CGLOBAL 01H 03H 0000H "CheckSafetyLimit" 08H 02H 0F2H 00H 80H 00H 00H 00H 07H
                                  115   CGLOBAL 01H 03H 0000H "ESC4_PWM" 08H 02H 0DAH 00H 80H 00H 00H 00H 07H
                                  116   CGLOBAL 01H 03H 0000H "Get_MagData" 08H 02H 0DFH 00H 83H 28H 00H 00H 07H
                                  117   CGLOBAL 01H 03H 0000H "UARTTunePID" 08H 02H 0E8H 00H 81H 32H 00H 00H 07H
                                  118   CGLOBAL 01H 03H 0000H "Get_PingData" 08H 02H 0DCH 00H 81H 16H 00H 00H 07H
                                  119   CGLOBAL 01H 03H 0000H "SerialOutCoefficients" 08H 02H 0E7H 00H 81H 32H 00H 00H 07H
                                  120   CGLOBAL 01H 03H 0000H "PortB_Low" 08H 02H 0D3H 00H 80H 00H 00H 00H 07H
                                  121   CGLOBAL 01H 03H 0000H "CalibrateMotors" 08H 02H 0E4H 00H 80H 00H 00H 00H 07H
                                  122   CGLOBAL 01H 03H 0000H "ReturnAccelData" 08H 02H 0E2H 00H 81H 0cH 00H 00H 07H
                                  123   CGLOBAL 01H 03H 0000H "ESC3_PWM" 08H 02H 0D9H 00H 80H 00H 00H 00H 07H
                                  124   CGLOBAL 01H 03H 0000H "CalibrateGyro" 08H 02H 0E5H 00H 81H 0cH 00H 00H 07H
                                  125   CGLOBAL 01H 03H 0000H "RampUpMotorTest" 08H 02H 0EAH 00H 80H 00H 00H 00H 07H
                                  126   CGLOBAL 01H 03H 0000H "NOP" 08H 02H 0FBH 00H 81H 08H 00H 00H 07H
                                  127   CGLOBAL 01H 03H 0000H "PortA_Low" 08H 02H 0D2H 00H 80H 00H 00H 00H 07H
                                  128   CGLOBAL 01H 03H 0000H "analog_comparator" 08H 02H 0D1H 00H 80H 00H 00H 00H 07H
                                  129   CGLOBAL 01H 03H 0000H "Run_AccGyroCF" 08H 02H 0DEH 00H 83H 20H 00H 00H 07H
                                  130   CSGLOBAL 03H 0000H "_funcI2CFin" 08H 02H 0F6H 00H 81H 02H 00H 00H 07H
                                  131   CGLOBAL 01H 03H 0000H "SoftStart" 08H 02H 0E9H 00H 81H 02H 00H 00H 07H
                                  132   CGLOBAL 01H 03H 0000H "ReturnSensorData" 08H 02H 0E1H 00H 81H 2eH 00H 00H 07H
                                  133   CSTRUCTTAG 0000H 0000H 0005H 000CH 00000016H "_Notag"
                                  134   CSTRUCTMEM 42H 00000002H 00000000H "_Mode" 02H 00H 08H
                                  135   CSTRUCTMEM 43H 00000002H 00000002H "_Handle" 02H 00H 08H
                                  136   CSTRUCTMEM 42H 00000002H 00000004H "_Buf" 04H 03H 00H 00H 00H
                                  137   CSTRUCTMEM 42H 00000002H 00000006H "_Bend" 04H 03H 00H 00H 00H
                                  138   CSTRUCTMEM 42H 00000002H 00000008H "_Next" 04H 03H 00H 00H 00H
                                  139   CSTRUCTMEM 42H 00000002H 0000000AH "_Rend" 04H 03H 00H 00H 00H
                                  140   CSTRUCTMEM 42H 00000002H 0000000CH "_Rsave" 04H 03H 00H 00H 00H
                                  141   CSTRUCTMEM 42H 00000002H 0000000EH "_Wend" 04H 03H 00H 00H 00H
                                  142   CSTRUCTMEM 42H 00000002H 00000010H "_Back" 05H 01H 02H 00H 00H 00H
                                  143   CSTRUCTMEM 42H 00000001H 00000012H "_Cbuf" 02H 00H 00H
                                  144   CSTRUCTMEM 42H 00000001H 00000013H "_Nback" 02H 00H 00H
                                  145   CSTRUCTMEM 43H 00000002H 00000014H "_Tmpnam" 04H 03H 00H 00H 00H
                                  146   CSTRUCTTAG 0000H 0000H 0004H 0001H 00000004H "_Notag"
                                  147   CSTRUCTMEM 42H 00000004H 00000000H "_Off" 02H 00H 02H
                                  148   CSTRUCTTAG 0000H 0000H 0003H 0006H 0000000AH "_Notag"
                                  149   CSTRUCTMEM 42H 00000004H 00000000H "br" 02H 00H 02H
                                  150   CSTRUCTMEM 42H 00000001H 00000004H "lg" 02H 00H 00H
                                  151   CSTRUCTMEM 42H 00000001H 00000005H "pt" 02H 00H 00H
                                  152   CSTRUCTMEM 42H 00000001H 00000006H "stp" 02H 00H 00H
                                  153   CSTRUCTMEM 42H 00000001H 00000007H "neg" 02H 00H 00H
                                  154   CSTRUCTMEM 42H 00000001H 00000008H "dir" 02H 00H 00H
                                  155   CSTRUCTTAG 0000H 0000H 0002H 0002H 00000008H "_Notag"
                                  156   CSTRUCTMEM 43H 00000004H 00000000H "quot" 02H 00H 02H
                                  157   CSTRUCTMEM 43H 00000004H 00000004H "rem" 02H 00H 02H
                                  158   CSTRUCTTAG 0000H 0000H 0001H 0002H 00000004H "_Notag"
                                  159   CSTRUCTMEM 43H 00000002H 00000000H "quot" 02H 00H 01H
                                  160   CSTRUCTMEM 43H 00000002H 00000002H "rem" 02H 00H 01H
                                  161   CSTRUCTTAG 0000H 0000H 0000H 0008H 00000001H "_Notag"
                                  162   CSTRUCTMEM 52H 00000001H 00000000H "b0" 02H 00H 00H
                                  163   CSTRUCTMEM 52H 00000001H 00000001H "b1" 02H 00H 00H
                                  164   CSTRUCTMEM 52H 00000001H 00000002H "b2" 02H 00H 00H
                                  165   CSTRUCTMEM 52H 00000001H 00000003H "b3" 02H 00H 00H
                                  166   CSTRUCTMEM 52H 00000001H 00000004H "b4" 02H 00H 00H
                                  167   CSTRUCTMEM 52H 00000001H 00000005H "b5" 02H 00H 00H
                                  168   CSTRUCTMEM 52H 00000001H 00000006H "b6" 02H 00H 00H
                                  169   CSTRUCTMEM 52H 00000001H 00000007H "b7" 02H 00H 00H
                                  170   CUNIONTAG 0000H 0000H 0006H 0002H 00000008H "_Notag"
                                  171   CUNIONMEM 42H 00000008H "_W" 05H 01H 04H 00H 00H 08H
                                  172   CUNIONMEM 43H 00000008H "_D" 02H 00H 04H
                                  173   CTYPEDEF 0000H 0000H 01H "_Dconst" 04H 00H 06H 06H 00H
                                  174   CTYPEDEF 0000H 0000H 43H "_Ptrdifft" 02H 00H 01H
                                  175   CTYPEDEF 0000H 0000H 42H "_Sizet" 02H 00H 01H
                                  176   CTYPEDEF 0000H 0000H 43H "tUartSetParam" 04H 00H 05H 03H 00H
                                  177   CTYPEDEF 0000H 0000H 42H "size_t" 02H 00H 01H
                                  178   CTYPEDEF 0000H 0000H 43H "cbfUart" 0AH 03H 00H 02H 2EH 00H 00H 00H 00H 00H 07H
                                  179   CTYPEDEF 0000H 0000H 43H "fpos_t" 04H 00H 05H 04H 00H
                                  180   CTYPEDEF 0000H 0000H 43H "cbfI2c" 0AH 03H 00H 02H 43H 00H 00H 00H 00H 00H 07H
                                  181   CTYPEDEF 0000H 0000H 03H "_Cmpfun_nf" 08H 02H 01H 00H 00H 00H 00H 00H 01H
                                  182   CTYPEDEF 0000H 0000H 03H "_Cmpfun_nn" 08H 02H 00H 00H 00H 00H 00H 00H 01H
                                  183   CTYPEDEF 0000H 0000H 03H "_Cmpfun_ff" 08H 02H 03H 00H 00H 00H 00H 00H 01H
                                  184   CTYPEDEF 0000H 0000H 03H "_Cmpfun_fn" 08H 02H 02H 00H 00H 00H 00H 00H 01H
                                  185   CTYPEDEF 0000H 0000H 43H "FILE" 04H 00H 05H 05H 00H
                                  186   CTYPEDEF 0000H 0000H 43H "div_t" 04H 00H 05H 01H 00H
                                  187   CTYPEDEF 0000H 0000H 43H "ldiv_t" 04H 00H 05H 02H 00H
                                  188   CTYPEDEF 0000H 0000H 43H "_BYTE_FIELD" 04H 00H 05H 00H 00H
                                  189   CSGLOBAL 43H 0004H "CF_LPF" 02H 00H 03H
                                  190   CSGLOBAL 43H 0004H "Mag_OpposingPole" 02H 00H 03H
                                  191   CSGLOBAL 42H 0001H "AccGyro_GyroAccel_SMPRTDIV" 02H 00H 00H
                                  192   CSGLOBAL 43H 0004H "Mag_PIDOutput" 02H 00H 03H
                                  193   CSGLOBAL 42H 0008H "RecWorld" 05H 01H 08H 00H 00H 00H
                                  194   CGLOBAL 00H 42H 0001H "_flgUartFin" 02H 00H 00H
                                  195   CSGLOBAL 42H 0002H "Accel_PID_Motor4" 02H 00H 01H
                                  196   CSGLOBAL 42H 0002H "Accel_PID_Motor1" 02H 00H 01H
                                  197   CSGLOBAL 42H 0002H "Accel_PID_Motor2" 02H 00H 01H
                                  198   CSGLOBAL 42H 0002H "Accel_PID_Motor3" 02H 00H 01H
                                  199   CSGLOBAL 42H 0002H "PWMIdleDutyRun" 02H 00H 01H
                                  200   CSGLOBAL 42H 0002H "Mag_PIDCounter" 02H 00H 01H
                                  201   CSGLOBAL 43H 0004H "CF_YPitch_high" 02H 00H 03H
                                  202   CSGLOBAL 43H 0004H "Mag_CWThres" 02H 00H 03H
                                  203   CSGLOBAL 43H 0004H "Ping_out" 02H 00H 03H
                                  204   CSGLOBAL 42H 00C8H "SensorReturn" 05H 01H 0C8H 00H 00H 00H
                                  205   CSGLOBAL 42H 0001H "PWMCounter" 02H 00H 00H
                                  206   CSGLOBAL 42H 0001H "AccGyro_PWRMGMT1REG_Contents" 02H 00H 00H
                                  207   CSGLOBAL 42H 0001H "Accel_SavIndex" 02H 00H 00H
                                  208   CSGLOBAL 42H 0001H "AccGyro_ReadData" 02H 00H 00H
                                  209   CSGLOBAL 43H 0004H "Mag_PIDError" 02H 00H 03H
                                  210   CSGLOBAL 43H 0004H "CF_Gyro_YPitch" 02H 00H 03H
                                  211   CSGLOBAL 43H 0004H "Mag_PID_kd" 02H 00H 03H
                                  212   CSGLOBAL 43H 0004H "Mag_PID_ki" 02H 00H 03H
                                  213   CSGLOBAL 43H 0004H "Mag_PID_kp" 02H 00H 03H
                                  214   CSGLOBAL 43H 0004H "Mag_Xout" 02H 00H 03H
                                  215   CSGLOBAL 42H 0002H "PWMPeriod" 02H 00H 01H
                                  216   CSGLOBAL 43H 0004H "CF_YPitch_low" 02H 00H 03H
                                  217   CSGLOBAL 43H 0004H "Gyro_Zout" 02H 00H 03H
                                  218   CSGLOBAL 43H 0004H "Accel_PID_XRollErrPrev" 02H 00H 03H
                                  219   CSGLOBAL 42H 0002H "Range_out" 02H 00H 01H
                                  220   CSGLOBAL 43H 0004H "Range_PIDError" 02H 00H 03H
                                  221   CSGLOBAL 43H 0004H "Gyro_Yout" 02H 00H 03H
                                  222   CSGLOBAL 43H 0004H "Range_PIDOutput" 02H 00H 03H
                                  223   CSGLOBAL 42H 0006H "NewVar_Str" 05H 01H 06H 00H 00H 00H
                                  224   CSGLOBAL 42H 0001H "AccGyro_AccelConfig" 02H 00H 00H
                                  225   CSGLOBAL 43H 0004H "Accel_PID_XRolldErr" 02H 00H 03H
                                  226   CSGLOBAL 43H 0002H "Accel_PID_PBounds_Var_Pos" 02H 00H 01H
                                  227   CSGLOBAL 42H 0002H "PWMLowerDutyLimitCalib" 02H 00H 01H
                                  228   CSGLOBAL 43H 0004H "Accel_PID_XRoll_ki" 02H 00H 03H
                                  229   CGLOBAL 01H 42H 0001H "Accel_PID_XYChangeFlag" 02H 00H 00H
                                  230   CSGLOBAL 43H 0004H "Accel_PID_XRoll_kd" 02H 00H 03H
                                  231   CSGLOBAL 43H 0004H "Accel_PID_YPitchError" 02H 00H 03H
                                  232   CSGLOBAL 43H 0004H "Accel_PID_XRoll_kp" 02H 00H 03H
                                  233   CSGLOBAL 42H 0001H "AccGyro_CF_FlagCounter" 02H 00H 00H
                                  234   CSGLOBAL 43H 0002H "Accel_PID_PBounds_Var_Neg" 02H 00H 01H
                                  235   CSGLOBAL 43H 0004H "Accel_Zout_Avg" 02H 00H 03H
                                  236   CSGLOBAL 42H 0001H "AccGyro_ReadFlag" 02H 00H 00H
                                  237   CSGLOBAL 43H 0004H "Accel_Yout_Avg" 02H 00H 03H
                                  238   CSGLOBAL 43H 0004H "Mag_PIDErrSum" 02H 00H 03H
                                  239   CSGLOBAL 43H 0004H "Accel_Xout_Avg" 02H 00H 03H
                                  240   CSGLOBAL 43H 0004H "Range_PIDSetpoint" 02H 00H 03H
                                  241   CSGLOBAL 42H 0001H "Mag_ModeReg_Contents" 02H 00H 00H
                                  242   CSGLOBAL 43H 0004H "NewVar" 02H 00H 03H
                                  243   CSGLOBAL 43H 0004H "Mag_Yout" 02H 00H 03H
                                  244   CSGLOBAL 43H 0004H "CF_Gyro_Counter" 02H 00H 03H
                                  245   CSGLOBAL 43H 0004H "CF_XRoll" 02H 00H 03H
                                  246   CSGLOBAL 42H 0002H "Mag_MotorStep" 02H 00H 01H
                                  247   CSGLOBAL 42H 0001H "Accel_PID_DFlag" 02H 00H 00H
                                  248   CSGLOBAL 42H 0001H "AccGyro_GyroAccelLPF_SMPRTDIVCo" 02H 00H 00H
                                  249   CSGLOBAL 43H 0004H "CF_Accel_ForceMagApprox" 02H 00H 03H
                                  250   CSGLOBAL 42H 0002H "PWMtoRPMOffset_Mot2" 02H 00H 01H
                                  251   CSGLOBAL 42H 0002H "PWMtoRPMOffset_Mot3" 02H 00H 01H
                                  252   CSGLOBAL 42H 0002H "PWMtoRPMOffset_Mot4" 02H 00H 01H
                                  253   CSGLOBAL 43H 0004H "Mag_Zout" 02H 00H 03H
                                  254   CSGLOBAL 43H 0004H "Accel_PID_XRollErrSum" 02H 00H 03H
                                  255   CSGLOBAL 42H 0001H "Accel_PID_GoCounter" 02H 00H 00H
                                  256   CSGLOBAL 43H 0004H "CF_StdDev_Mtmp_X" 02H 00H 03H
                                  257   CSGLOBAL 43H 0004H "CF_StdDev_Mtmp_Y" 02H 00H 03H
                                  258   CSGLOBAL 43H 0004H "CF_StdDev_K" 02H 00H 03H
                                  259   CSGLOBAL 43H 0004H "Mag_PIDCurrentCount" 02H 00H 03H
                                  260   CSGLOBAL 42H 000EH "AccGyro_Data" 05H 01H 0EH 00H 00H 00H
                                  261   CSGLOBAL 43H 0004H "CF_XRoll_avg" 02H 00H 03H
                                  262   CSGLOBAL 43H 0004H "Accel_PID_YPitch_kp" 02H 00H 03H
                                  263   CSGLOBAL 43H 0004H "Accel_PID_YPitch_ki" 02H 00H 03H
                                  264   CSGLOBAL 43H 0004H "Accel_PID_YPitch_kd" 02H 00H 03H
                                  265   CSGLOBAL 43H 0004H "Mag_PIDdErr" 02H 00H 03H
                                  266   CSGLOBAL 42H 0001H "PWMflag" 02H 00H 00H
                                  267   CSGLOBAL 42H 0001H "AccGyro_INTENABLEReg_contents" 02H 00H 00H
                                  268   CSGLOBAL 42H 0001H "AccGyro_GyroConfig_Contents" 02H 00H 00H
                                  269   CSGLOBAL 42H 0001H "HMC5883Address" 02H 00H 00H
                                  270   CSGLOBAL 43H 0004H "Accel_PID_XRollError" 02H 00H 03H
                                  271   CSGLOBAL 42H 0001H "PWMSensorResPerInc" 02H 00H 00H
                                  272   CSGLOBAL 43H 0004H "CF_Gyro_XRoll" 02H 00H 03H
                                  273   CSGLOBAL 43H 0004H "Accel_PID_YPitchdErr" 02H 00H 03H
                                  274   CSGLOBAL 42H 0001H "MPU6050Address" 02H 00H 00H
                                  275   CSGLOBAL 42H 0002H "PWMUpperLowerDiff" 02H 00H 01H
                                  276   CSGLOBAL 01H 000AH "_uartSetParam" 04H 00H 05H 03H 00H
                                  277   CSGLOBAL 43H 0004H "Range_PIDdErr" 02H 00H 03H
                                  278   CSGLOBAL 42H 0002H "PWMSafeDuty" 02H 00H 01H
                                  279   CSGLOBAL 43H 0004H "CF_StdDev_M_X" 02H 00H 03H
                                  280   CSGLOBAL 43H 0004H "CF_StdDev_M_Y" 02H 00H 03H
                                  281   CSGLOBAL 43H 0004H "Accel_PID_YPitchErrPrev" 02H 00H 03H
                                  282   CSGLOBAL 43H 0004H "CF_XRoll_low" 02H 00H 03H
                                  283   CSGLOBAL 43H 0004H "CF_StdDev_S_X" 02H 00H 03H
                                  284   CSGLOBAL 43H 0004H "CF_StdDev_S_Y" 02H 00H 03H
                                  285   CSGLOBAL 42H 0001H "Mag_ModeReg" 02H 00H 00H
                                  286   CSGLOBAL 42H 0001H "Mag_ConfigB_Contents" 02H 00H 00H
                                  287   CSGLOBAL 43H 0004H "Temp_out" 02H 00H 03H
                                  288   CSGLOBAL 42H 0001H "AccGyro_PWRMGMT1REG" 02H 00H 00H
                                  289   CSGLOBAL 43H 0002H "Accel_PID_DBounds_Var_Neg" 02H 00H 01H
                                  290   CSGLOBAL 42H 0001H "Mag_ConfigA_Contents" 02H 00H 00H
                                  291   CSGLOBAL 42H 0001H "AccGyro_GyroConfig" 02H 00H 00H
                                  292   CSGLOBAL 43H 0004H "Range_PIDErrSum" 02H 00H 03H
                                  293   CSGLOBAL 43H 0004H "CF_YPitch" 02H 00H 03H
                                  294   CSGLOBAL 43H 0002H "Accel_PID_DBounds_Var_Pos" 02H 00H 01H
                                  295   CSGLOBAL 42H 0002H "Range_Output" 05H 01H 02H 00H 00H 00H
                                  296   CSGLOBAL 42H 0002H "PWMLowerDutyLimitRun" 02H 00H 01H
                                  297   CSGLOBAL 43H 0004H "CF_avgCnt" 02H 00H 03H
                                  298   CSGLOBAL 42H 0001H "PrePIDCount" 02H 00H 00H
                                  299   CSGLOBAL 42H 0001H "AccGyro_GyroAccelLPF" 02H 00H 00H
                                  300   CSGLOBAL 42H 0001H "Range_Address" 02H 00H 00H
                                  301   CSGLOBAL 43H 0004H "Mag_DeclinationAngle" 02H 00H 03H
                                  302   CSGLOBAL 42H 0001H "CF_Counter" 02H 00H 00H
                                  303   CSGLOBAL 43H 0004H "Range_PIDCurrentCount" 02H 00H 03H
                                  304   CSGLOBAL 43H 0004H "Range_ZHiThres" 02H 00H 03H
                                  305   CSGLOBAL 43H 0004H "Range_ZLoThres" 02H 00H 03H
                                  306   CSGLOBAL 43H 0004H "Mag_PIDAngleScaled" 02H 00H 03H
                                  307   CSGLOBAL 42H 0002H "Range_PIDCounter" 02H 00H 01H
                                  308   CSGLOBAL 42H 0002H "PWMUpperDutyLimitRun" 02H 00H 01H
                                  309   CSGLOBAL 43H 0004H "Range_Ceiling" 02H 00H 03H
                                  310   CSGLOBAL 43H 0004H "Accel_PID_YPitchErrSum" 02H 00H 03H
                                  311   CSGLOBAL 43H 0004H "CF_XRoll_high" 02H 00H 03H
                                  312   CSGLOBAL 43H 0004H "Mag_CCWThres" 02H 00H 03H
                                  313   CSGLOBAL 43H 000CH "Accel_Zcal" 05H 01H 03H 00H 00H 03H
                                  314   CSGLOBAL 42H 0002H "Accel_PID_XRollCounter_D" 02H 00H 01H
                                  315   CSGLOBAL 42H 0002H "Accel_PID_XRollCounter_I" 02H 00H 01H
                                  316   CSGLOBAL 42H 0001H "Mag_Status" 02H 00H 00H
                                  317   CSGLOBAL 42H 0001H "AccGyro_AccelConfig_Contents" 02H 00H 00H
                                  318   CSGLOBAL 43H 0004H "Mag_PIDCorrectionFactor" 02H 00H 03H
                                  319   CGLOBAL 00H 42H 0001H "_flgI2CFin" 02H 00H 00H
                                  320   CSGLOBAL 43H 000CH "Accel_Xcal" 05H 01H 03H 00H 00H 03H
                                  321   CSGLOBAL 43H 0004H "AccGyro_GyroScaling" 02H 00H 03H
                                  322   CSGLOBAL 43H 0004H "CF_Accel_XRoll" 02H 00H 03H
                                  323   CSGLOBAL 42H 0006H "Mag_Data" 05H 01H 06H 00H 00H 00H
                                  324   CSGLOBAL 43H 003CH "Accel_Xout" 05H 01H 0FH 00H 00H 03H
                                  325   CSGLOBAL 42H 0002H "Accel_PID_YPitchCounter_D" 02H 00H 01H
                                  326   CSGLOBAL 42H 0002H "Accel_PID_YPitchCounter_I" 02H 00H 01H
                                  327   CSGLOBAL 42H 0001H "CF_highlow_flag" 02H 00H 00H
                                  328   CSGLOBAL 43H 000CH "Accel_Ycal" 05H 01H 03H 00H 00H 03H
                                  329   CSGLOBAL 42H 0001H "AccGYRO_Test" 02H 00H 00H
                                  330   CSGLOBAL 42H 0032H "SensorReturnSM" 05H 01H 32H 00H 00H 00H
                                  331   CSGLOBAL 43H 0004H "CF_Gyro_CurrentCount" 02H 00H 03H
                                  332   CSGLOBAL 43H 0004H "Mag_PIDErrPrev" 02H 00H 03H
                                  333   CGLOBAL 00H 42H 0001H "_reqNotHalt" 02H 00H 00H
                                  334   CSGLOBAL 42H 0001H "CF_UseFlag" 02H 00H 00H
                                  335   CSGLOBAL 42H 0002H "TestingEndTimer" 02H 00H 01H
                                  336   CSGLOBAL 43H 0004H "CF_Accel_YPitch" 02H 00H 03H
                                  337   CSGLOBAL 43H 0004H "Mag_Angle" 02H 00H 03H
                                  338   CSGLOBAL 43H 0004H "Mag_GainFactor" 02H 00H 03H
                                  339   CSGLOBAL 42H 0001H "AccGyro_INTENABLEReg" 02H 00H 00H
                                  340   CSGLOBAL 42H 0002H "PWMUpperDutyLimitCalib" 02H 00H 01H
                                  341   CSGLOBAL 43H 0002H "testI" 02H 00H 01H
                                  342   CSGLOBAL 43H 0002H "testD" 02H 00H 01H
                                  343   CSGLOBAL 43H 0004H "Mag_PIDSetpoint" 02H 00H 03H
                                  344   CSGLOBAL 43H 0002H "testP" 02H 00H 01H
                                  345   CSGLOBAL 43H 0004H "AccGyro_AccelScaling" 02H 00H 03H
                                  346   CSGLOBAL 43H 0004H "Accel_XLoThres" 02H 00H 03H
                                  347   CSGLOBAL 43H 0004H "Accel_YHiThres" 02H 00H 03H
                                  348   CSGLOBAL 43H 0004H "Range_PID_kp" 02H 00H 03H
                                  349   CSGLOBAL 43H 0004H "Accel_XHiThres" 02H 00H 03H
                                  350   CSGLOBAL 42H 0001H "Range_TakeRangeReading" 02H 00H 00H
                                  351   CSGLOBAL 43H 0004H "Range_PID_kd" 02H 00H 03H
                                  352   CSGLOBAL 43H 003CH "Accel_Yout" 05H 01H 0FH 00H 00H 03H
                                  353   CSGLOBAL 43H 0004H "Range_PID_ki" 02H 00H 03H
                                  354   CSGLOBAL 42H 0002H "MotorStep" 02H 00H 01H
                                  355   CSGLOBAL 43H 003CH "Accel_Zout" 05H 01H 0FH 00H 00H 03H
                                  356   CSGLOBAL 42H 0002H "Timer8Counter" 02H 00H 01H
                                  357   CSGLOBAL 42H 0001H "AccGyro_GyroAccelLPF_Contents" 02H 00H 00H
                                  358   CSGLOBAL 43H 0004H "Gyro_Zcal" 02H 00H 03H
                                  359   CSGLOBAL 42H 0001H "Accel_PID_IFlag" 02H 00H 00H
                                  360   CSGLOBAL 42H 0001H "Mag_ConfigA" 02H 00H 00H
                                  361   CSGLOBAL 42H 0001H "Mag_ConfigB" 02H 00H 00H
                                  362   CSGLOBAL 42H 0001H "Mag_ReadData" 02H 00H 00H
                                  363   CSGLOBAL 43H 0004H "Accel_YLoThres" 02H 00H 03H
                                  364   CSGLOBAL 43H 0004H "Gyro_Ycal" 02H 00H 03H
                                  365   CSGLOBAL 42H 0002H "timer_us" 02H 00H 01H
                                  366   CSGLOBAL 43H 0004H "Gyro_Xout" 02H 00H 03H
                                  367   CSGLOBAL 43H 0004H "Gyro_Xcal" 02H 00H 03H
                                  368   CSGLOBAL 43H 0004H "CF_YPitch_avg" 02H 00H 03H
                                  369   CSGLOBAL 43H 0004H "CF_HPF" 02H 00H 03H
                                  370   CSGLOBAL 43H 0004H "Range_PIDErrPrev" 02H 00H 03H
                                  371   CSGLOBAL 42H 0002H "Ping_timer" 02H 00H 01H
                                  372   CFILE 0001H 0000085AH "main\\ML610112.H"
                                  373   CFILE 0002H 000000D8H "main\\stdlib.h"
                                  374   CFILE 0003H 0000007AH "main\\yvals.h"
                                  375   CFILE 0004H 0000006BH "uart\\uart.h"
                                  376   CFILE 0005H 00000027H "common\\common.h"
                                  377   CFILE 0006H 00000057H "irq\\irq.h"
                                  378   CFILE 0007H 00000023H "main\\mcu.h"
                                  379   CFILE 0008H 00000045H "i2c\\i2c.h"
                                  380   CFILE 0009H 000000EEH "main\\stdio.h"
                                  381   CFILE 000AH 00000046H "tbc\\tbc.h"
                                  382   CFILE 000BH 000001B8H "timer\\timer.h"
                                  383   CFILE 000CH 0000004FH "main\\math.h"
                                  384   CFILE 0000H 00000FFEH "main\\main.c"
                                  385   
  --------------------------      386   	rseg $$main$main
                                  387   CFUNCTION 259
                                  388   
00:0000                           389   _main	:
                                  390   CBLOCK 259 1 562
                                  391   
                                  392   ;;{
                                  393   CLINEA 0000H 0001H 0232H 0001H 0001H
                                  394   CBLOCK 259 2 562
                                  395   CLOCAL 47H 0002H 0026H 0002H "i" 02H 00H 01H
                                  396   
                                  397   ;;		Initialization(); 			//Ports, UART, Timers, Oscillator, Comparators, etc.
                                  398   CLINEA 0000H 0001H 0237H 0003H 004BH
00:0000 01-F0'00-00'              399   	bl	_Initialization
                                  400   
                                  401   ;;		main_clrWDT();				//kick the dog...1.34uS duration
                                  402   CLINEA 0000H 0001H 0238H 0003H 0034H
00:0004 01-F0'00-00'              403   	bl	_main_clrWDT
                                  404   
                                  405   ;;		CalibrateMotors();			//Time-consuming ~6s
                                  406   CLINEA 0000H 0001H 0239H 0003H 002BH
00:0008 01-F0'00-00'              407   	bl	_CalibrateMotors
                                  408   
                                  409   ;;		CalibrateGyro();			//Enter Calibration Sequence for Gyro
                                  410   CLINEA 0000H 0001H 023AH 0003H 003AH
00:000C 01-F0'00-00'              411   	bl	_CalibrateGyro
                                  412   
                                  413   ;;			Accel_Zcal[0] = -162;
                                  414   CLINEA 0000H 0001H 0241H 0004H 0018H
00:0010 00 E0                     415   	mov	er0,	#0 
00:0012 22 02                     416   	mov	r2,	#022h
00:0014 C3 03                     417   	mov	r3,	#0c3h
00:0016 13-90 00-00'              418   	st	er0,	NEAR _Accel_Zcal
00:001A 13-92 00-00'              419   	st	er2,	NEAR _Accel_Zcal+02h
                                  420   
                                  421   ;;Main_Loop:
                                  422   CLINEA 0000H 0001H 024AH 0001H 000AH
                                  423   CLABEL 001EH "Main_Loop"
00:001E                           424   _$L30 :
                                  425   
                                  426   ;;		SerialOutCoefficients();	//~23ms when PID is Triggered as well..13.8ms otherwise
                                  427   CLINEA 0000H 0001H 024BH 0003H 0052H
00:001E 01-F0'00-00'              428   	bl	_SerialOutCoefficients
                                  429   
                                  430   ;;		PrePIDCount = 0;
                                  431   CLINEA 0000H 0001H 024CH 0003H 0012H
00:0022 00 00                     432   	mov	r0,	#00h
00:0024 11-90 00-00'              433   	st	r0,	NEAR _PrePIDCount
                                  434   
                                  435   ;;		UARTTunePID();				//Allow PID & CF Constant changes over UART
                                  436   CLINEA 0000H 0001H 024DH 0003H 003FH
00:0028 01-F0'00-00'              437   	bl	_UARTTunePID
                                  438   
                                  439   ;;		main_clrWDT();				//kick the dog...1.34uS duration.
                                  440   CLINEA 0000H 0001H 024EH 0003H 0035H
00:002C 01-F0'00-00'              441   	bl	_main_clrWDT
                                  442   
                                  443   ;;		Accel_SavIndex = 0;			//Reset Circular Buffer for Accel/Gyro Measurements
                                  444   CLINEA 0000H 0001H 0250H 0003H 004BH
00:0030 00 00                     445   	mov	r0,	#00h
00:0032 11-90 00-00'              446   	st	r0,	NEAR _Accel_SavIndex
                                  447   
                                  448   ;;		for(i=0; i<AccelAvg; i++){
                                  449   CLINEA 0000H 0001H 0252H 0003H 001CH
00:0036 00 E4                     450   	mov	er4,	#0 
00:0038                           451   _$L33 :
                                  452   CBLOCK 259 3 594
                                  453   
                                  454   ;;			Accel_Xout[i] = 0;
                                  455   CLINEA 0000H 0001H 0253H 0004H 0015H
00:0038 45-F0                     456   	mov	er0,	er4
00:003A 2B-91                     457   	sllc	r1,	#02h
00:003C 2A-90                     458   	sll	r0,	#02h
00:003E 00 E2                     459   	mov	er2,	#0 
00:0040 09-A2 00-00'              460   	st	er2,	NEAR _Accel_Xout[er0]
00:0044 09-A2 00-00'              461   	st	er2,	NEAR _Accel_Xout+02h[er0]
                                  462   
                                  463   ;;			Accel_Yout[i] = 0;
                                  464   CLINEA 0000H 0001H 0254H 0004H 0015H
00:0048 45-F0                     465   	mov	er0,	er4
00:004A 2B-91                     466   	sllc	r1,	#02h
00:004C 2A-90                     467   	sll	r0,	#02h
00:004E 09-A2 00-00'              468   	st	er2,	NEAR _Accel_Yout[er0]
00:0052 09-A2 00-00'              469   	st	er2,	NEAR _Accel_Yout+02h[er0]
                                  470   
                                  471   ;;			Accel_Zout[i] = 0;
                                  472   CLINEA 0000H 0001H 0255H 0004H 0015H
00:0056 45-F0                     473   	mov	er0,	er4
00:0058 2B-91                     474   	sllc	r1,	#02h
00:005A 2A-90                     475   	sll	r0,	#02h
00:005C 09-A2 00-00'              476   	st	er2,	NEAR _Accel_Zout[er0]
00:0060 09-A2 00-00'              477   	st	er2,	NEAR _Accel_Zout+02h[er0]
                                  478   CBLOCKEND 259 3 601
                                  479   
                                  480   ;;		for(i=0; i<AccelAvg; i++){
                                  481   CLINEA 0000H 0000H 0252H 0003H 001CH
00:0064 81 E4                     482   	add	er4,	#1 
00:0066 0F 74                     483   	cmp	r4,	#0fh
00:0068 00 55                     484   	cmpc	r5,	#00h
00:006A E6 C5                     485   	blts	_$L33
                                  486   
                                  487   ;;		EPB3 = 1;					//Enable Accel/Gyro Interrupt Pin
                                  488   CLINEA 0000H 0001H 025AH 0003H 0031H
00:006C F0-A0 11-F0               489   	sb	0f011h.7
                                  490   
                                  491   ;;		SoftStart();				//Smoothly bring up the Motor RPM
                                  492   CLINEA 0000H 0001H 025CH 0003H 0033H
00:0070 01-F0'00-00'              493   	bl	_SoftStart
                                  494   
                                  495   ;;Fast_Loop:							//This loop takes 22.4ms for this loop as of 3/30/2014		
                                  496   CLINEA 0000H 0001H 025FH 0001H 0049H
                                  497   CLABEL 0025H "Fast_Loop"
00:0074                           498   _$L37 :
                                  499   
                                  500   ;;		main_clrWDT();				//kick the dog...1.34uS duration
                                  501   CLINEA 0000H 0001H 0261H 0003H 0034H
00:0074 01-F0'00-00'              502   	bl	_main_clrWDT
                                  503   
                                  504   ;;		ClearVariables();			//Fresh start each loop...
                                  505   CLINEA 0000H 0001H 0262H 0003H 0030H
00:0078 01-F0'00-00'              506   	bl	_ClearVariables
                                  507   
                                  508   ;;		if(AccGyro_ReadFlag >= 1){		//Triggered by External Interrupt (flag set in AccelGyroDataReady_ISR)
                                  509   CLINEA 0000H 0001H 0278H 0003H 0064H
00:007C 10-90 00-00'              510   	l	r0,	NEAR _AccGyro_ReadFlag
00:0080 01 70                     511   	cmp	r0,	#01h
00:0082 09 C1                     512   	blt	_$L38
                                  513   CBLOCK 259 4 632
                                  514   
                                  515   ;;			LED_4 = 1;				//LED4 = C2, Pin 14	//Loop Time = 1.5ms @20Hz Rate
                                  516   CLINEA 0000H 0001H 0279H 0004H 0043H
00:0084 A0-A0 60-F2               517   	sb	0f260h.2
                                  518   
                                  519   ;;			Get_AccGyroData();
                                  520   CLINEA 0000H 0001H 027AH 0004H 0015H
00:0088 01-F0'00-00'              521   	bl	_Get_AccGyroData
                                  522   
                                  523   ;;			LED_4 = 0;
                                  524   CLINEA 0000H 0001H 027BH 0004H 000DH
00:008C A2-A0 60-F2               525   	rb	0f260h.2
                                  526   
                                  527   ;;			AccGyro_ReadFlag = 0;
                                  528   CLINEA 0000H 0001H 027CH 0004H 0018H
00:0090 00 00                     529   	mov	r0,	#00h
00:0092 11-90 00-00'              530   	st	r0,	NEAR _AccGyro_ReadFlag
                                  531   CBLOCKEND 259 4 637
                                  532   
                                  533   ;;		}
                                  534   CLINEA 0000H 0000H 027DH 0003H 0003H
00:0096                           535   _$L38 :
                                  536   
                                  537   ;;		if(AccGyro_CF_FlagCounter > 0){	//This Value is incremented after Get_AccGyroData(); is called
                                  538   CLINEA 0000H 0001H 027EH 0003H 0060H
00:0096 10-90 00-00'              539   	l	r0,	NEAR _AccGyro_CF_FlagCounter
00:009A 00 70                     540   	cmp	r0,	#00h
00:009C 09 C3                     541   	ble	_$L40
                                  542   CBLOCK 259 5 638
                                  543   
                                  544   ;;			LED_2 = 1;			//B7, Pin 11	//Inside RUN_CF	//Loop Time = 13.5ms
                                  545   CLINEA 0000H 0001H 027FH 0004H 0041H
00:009E F0-A0 58-F2               546   	sb	0f258h.7
                                  547   
                                  548   ;;			Run_AccGyroCF();
                                  549   CLINEA 0000H 0001H 0280H 0004H 0013H
00:00A2 01-F0'00-00'              550   	bl	_Run_AccGyroCF
                                  551   
                                  552   ;;			LED_2 = 0;
                                  553   CLINEA 0000H 0001H 0281H 0004H 000DH
00:00A6 F2-A0 58-F2               554   	rb	0f258h.7
                                  555   
                                  556   ;;			AccGyro_CF_FlagCounter--;	//Decremented because this value is not a static 1/0... number shows number of items in buffer that have not gone though the CF yet
                                  557   CLINEA 0000H 0000H 0282H 0004H 00A0H
00:00AA 0C-F0 00-00'              558   	lea	OFFSET _AccGyro_CF_FlagCounter
00:00AE 3F-FE                     559   	dec	[ea]
                                  560   CBLOCKEND 259 5 643
                                  561   
                                  562   ;;		}
                                  563   CLINEA 0000H 0000H 0283H 0003H 0003H
00:00B0                           564   _$L40 :
                                  565   
                                  566   ;;		if(Accel_PID_GoCounter>= 1){		//This increments in the Run_AccGyroCF()... I don't know if this is the best trigger.. but for now, it works.  Calls GetAccGyroData and AccGyroCF once within the routine.
                                  567   CLINEA 0000H 0001H 0284H 0003H 00CAH
00:00B0 10-90 00-00'              568   	l	r0,	NEAR _Accel_PID_GoCounter
00:00B4 01 70                     569   	cmp	r0,	#01h
00:00B6 28 C1                     570   	blt	_$L42
                                  571   CBLOCK 259 6 644
                                  572   
                                  573   ;;			LED_3 = 1;			//C1, Pin 13		//Loop Time = 25.47 with UART Debugging ON... 
                                  574   CLINEA 0000H 0001H 0285H 0004H 004CH
00:00B8 90-A0 60-F2               575   	sb	0f260h.1
                                  576   
                                  577   ;;			AccelSensorControlPID_P(); 		
                                  578   CLINEA 0000H 0001H 0286H 0004H 0020H
00:00BC 01-F0'00-00'              579   	bl	_AccelSensorControlPID_P
                                  580   
                                  581   ;;			LED_3 = 0;
                                  582   CLINEA 0000H 0001H 0287H 0004H 000DH
00:00C0 92-A0 60-F2               583   	rb	0f260h.1
                                  584   
                                  585   ;;			Accel_PID_IFlag++;
                                  586   CLINEA 0000H 0000H 0288H 0004H 0015H
00:00C4 0C-F0 00-00'              587   	lea	OFFSET _Accel_PID_IFlag
00:00C8 2F-FE                     588   	inc	[ea]
                                  589   
                                  590   ;;			Accel_PID_DFlag++;
                                  591   CLINEA 0000H 0000H 0289H 0004H 0015H
00:00CA 0C-F0 00-00'              592   	lea	OFFSET _Accel_PID_DFlag
00:00CE 2F-FE                     593   	inc	[ea]
00:00D0 10-90 00-00'              594   	l	r0,	NEAR _Accel_PID_DFlag
                                  595   
                                  596   ;;			if(Accel_PID_DFlag < DenterThres){
                                  597   CLINEA 0000H 0001H 028AH 0004H 0025H
00:00D4 01 70                     598   	cmp	r0,	#01h
00:00D6 10 C0                     599   	bge	_$L44
                                  600   CBLOCK 259 7 650
                                  601   
                                  602   ;;				Accel_PID_YPitchErrPrev = Accel_PID_YPitchError;
                                  603   CLINEA 0000H 0001H 028BH 0005H 0034H
00:00D8 12-90 00-00'              604   	l	er0,	NEAR _Accel_PID_YPitchError
00:00DC 12-92 00-00'              605   	l	er2,	NEAR _Accel_PID_YPitchError+02h
00:00E0 13-90 00-00'              606   	st	er0,	NEAR _Accel_PID_YPitchErrPrev
00:00E4 13-92 00-00'              607   	st	er2,	NEAR _Accel_PID_YPitchErrPrev+02h
                                  608   
                                  609   ;;				Accel_PID_XRollErrPrev = Accel_PID_XRollError;
                                  610   CLINEA 0000H 0001H 028CH 0005H 0032H
00:00E8 12-90 00-00'              611   	l	er0,	NEAR _Accel_PID_XRollError
00:00EC 12-92 00-00'              612   	l	er2,	NEAR _Accel_PID_XRollError+02h
00:00F0 13-90 00-00'              613   	st	er0,	NEAR _Accel_PID_XRollErrPrev
00:00F4 13-92 00-00'              614   	st	er2,	NEAR _Accel_PID_XRollErrPrev+02h
                                  615   CBLOCKEND 259 7 653
                                  616   
                                  617   ;;			}
                                  618   CLINEA 0000H 0000H 028DH 0004H 0004H
00:00F8                           619   _$L44 :
                                  620   
                                  621   ;;			Accel_PID_GoCounter = 0;
                                  622   CLINEA 0000H 0001H 028EH 0004H 001BH
00:00F8 00 00                     623   	mov	r0,	#00h
00:00FA 11-90 00-00'              624   	st	r0,	NEAR _Accel_PID_GoCounter
                                  625   
                                  626   ;;			TestingEndTimer++;			//Comment this out to always loop (i.e.: no shut-down...)
                                  627   CLINEA 0000H 0000H 028FH 0004H 0051H
00:00FE 12-90 00-00'              628   	l	er0,	NEAR _TestingEndTimer
00:0102 81 E0                     629   	add	er0,	#1 
00:0104 13-90 00-00'              630   	st	er0,	NEAR _TestingEndTimer
                                  631   CBLOCKEND 259 6 656
                                  632   
                                  633   ;;		}
                                  634   CLINEA 0000H 0000H 0290H 0003H 0003H
00:0108                           635   _$L42 :
                                  636   
                                  637   ;;		if(Accel_PID_IFlag >= IenterThres){		//This increments in the Run_AccGyroCF()... I don't know if this is the best trigger.. but for now, it works.  Calls GetAccGyroData and AccGyroCF once within the routine.
                                  638   CLINEA 0000H 0001H 0292H 0003H 00D1H
00:0108 10-90 00-00'              639   	l	r0,	NEAR _Accel_PID_IFlag
00:010C 01 70                     640   	cmp	r0,	#01h
00:010E 05 C1                     641   	blt	_$L46
                                  642   CBLOCK 259 8 658
                                  643   
                                  644   ;;			AccelSensorControlPID_I(); 		
                                  645   CLINEA 0000H 0001H 0294H 0004H 0020H
00:0110 01-F0'00-00'              646   	bl	_AccelSensorControlPID_I
                                  647   
                                  648   ;;			Accel_PID_IFlag = 0;
                                  649   CLINEA 0000H 0001H 0296H 0004H 0017H
00:0114 00 00                     650   	mov	r0,	#00h
00:0116 11-90 00-00'              651   	st	r0,	NEAR _Accel_PID_IFlag
                                  652   CBLOCKEND 259 8 663
                                  653   
                                  654   ;;		}
                                  655   CLINEA 0000H 0000H 0297H 0003H 0003H
00:011A                           656   _$L46 :
                                  657   
                                  658   ;;		if(Accel_PID_DFlag >= DenterThres){		//This increments in the Run_AccGyroCF()... I don't know if this is the best trigger.. but for now, it works.  Calls GetAccGyroData and AccGyroCF once within the routine.
                                  659   CLINEA 0000H 0001H 0298H 0003H 00D1H
00:011A 10-90 00-00'              660   	l	r0,	NEAR _Accel_PID_DFlag
00:011E 01 70                     661   	cmp	r0,	#01h
00:0120 05 C1                     662   	blt	_$L48
                                  663   CBLOCK 259 9 664
                                  664   
                                  665   ;;			AccelSensorControlPID_D();
                                  666   CLINEA 0000H 0001H 029AH 0004H 001DH
00:0122 01-F0'00-00'              667   	bl	_AccelSensorControlPID_D
                                  668   
                                  669   ;;			Accel_PID_DFlag = 0;
                                  670   CLINEA 0000H 0001H 029CH 0004H 0017H
00:0126 00 00                     671   	mov	r0,	#00h
00:0128 11-90 00-00'              672   	st	r0,	NEAR _Accel_PID_DFlag
                                  673   CBLOCKEND 259 9 669
                                  674   
                                  675   ;;		}
                                  676   CLINEA 0000H 0000H 029DH 0003H 0003H
00:012C                           677   _$L48 :
                                  678   
                                  679   ;;		if(TestingEndTimer < 1000){		//50 == 3secs = 250 = 15 seconds
                                  680   CLINEA 0000H 0001H 02AFH 0003H 003FH
00:012C 12-90 00-00'              681   	l	er0,	NEAR _TestingEndTimer
00:0130 E8 70                     682   	cmp	r0,	#0e8h
00:0132 03 51                     683   	cmpc	r1,	#03h
00:0134 02 C0                     684   	bge	_$M1
00:0136 00-F0'00-00'              685   	b	_$L37
00:013A                           686   _$M1 :
                                  687   CBLOCK 259 10 687
                                  688   
                                  689   ;;			goto Fast_Loop;
                                  690   CLINEA 0000H 0001H 02B1H 0004H 0012H
                                  691   CBLOCKEND 259 10 690
                                  692   
                                  693   ;;		else{
                                  694   CLINEA 0000H 0000H 02B3H 0003H 0007H
                                  695   CBLOCK 259 11 691
                                  696   
                                  697   ;;			EPB3 = 0;
                                  698   CLINEA 0000H 0001H 02B4H 0004H 000CH
00:013A F2-A0 11-F0               699   	rb	0f011h.7
                                  700   
                                  701   ;;			Shutdown();
                                  702   CLINEA 0000H 0001H 02B7H 0004H 000EH
00:013E 01-F0'00-00'              703   	bl	_Shutdown
                                  704   
                                  705   ;;			TestingEndTimer = 0;
                                  706   CLINEA 0000H 0001H 02B8H 0004H 0017H
00:0142 00 E0                     707   	mov	er0,	#0 
00:0144 13-90 00-00'              708   	st	er0,	NEAR _TestingEndTimer
                                  709   
                                  710   ;;			goto Main_Loop;
                                  711   CLINEA 0000H 0001H 02BAH 0004H 0012H
00:0148 00-F0'00-00'              712   	b	_$L30
                                  713   CBLOCKEND 259 11 699
                                  714   CBLOCKEND 259 2 701
                                  715   
                                  716   ;;}//end main
                                  717   CLINEA 0000H 0001H 02BDH 0001H 000BH
                                  718   CBLOCKEND 259 1 701
                                  719   CFUNCTIONEND 259
                                  720   
                                  721   
  --------------------------      722   	rseg $$main_clrWDT$main
                                  723   CFUNCTION 206
                                  724   
00:0000                           725   _main_clrWDT	:
                                  726   CBLOCK 206 1 882
                                  727   
                                  728   ;;{
                                  729   CLINEA 0000H 0001H 0372H 0001H 0001H
                                  730   CBLOCK 206 2 882
                                  731   
                                  732   ;;	do {
                                  733   CLINEA 0000H 0001H 0376H 0002H 0005H
00:0000                           734   _$L56 :
                                  735   CBLOCK 206 3 886
                                  736   
                                  737   ;;		WDTCON = 0x5Au;
                                  738   CLINEA 0000H 0001H 0377H 0003H 0011H
00:0000 5A 00                     739   	mov	r0,	#05ah
00:0002 11-90 0E-F0               740   	st	r0,	0f00eh
                                  741   CBLOCKEND 206 3 888
                                  742   
                                  743   ;;	} while (WDP != 1);
                                  744   CLINEA 0000H 0000H 0378H 0002H 0014H
00:0006 81-A0 0E-F0               745   	tb	0f00eh.0
00:000A FA C9                     746   	beq	_$L56
                                  747   
                                  748   ;;	WDTCON = 0xA5u;
                                  749   CLINEA 0000H 0001H 0379H 0002H 0010H
00:000C A5 00                     750   	mov	r0,	#0a5h
00:000E 11-90 0E-F0               751   	st	r0,	0f00eh
                                  752   CBLOCKEND 206 2 891
                                  753   
                                  754   ;;}
                                  755   CLINEA 0000H 0001H 037BH 0001H 0001H
00:0012 1F-FE                     756   	rt
                                  757   CBLOCKEND 206 1 891
                                  758   CFUNCTIONEND 206
                                  759   
                                  760   
  --------------------------      761   	rseg $$Initialization$main
                                  762   CFUNCTION 207
                                  763   
00:0000                           764   _Initialization	:
                                  765   CBLOCK 207 1 898
                                  766   
                                  767   ;;static void Initialization(void){
                                  768   CLINEA 0000H 0001H 0382H 0001H 0021H
00:0000 CE-F8                     769   	push	lr
                                  770   CBLOCK 207 2 898
                                  771   CRET 0000H
                                  772   
                                  773   ;;	DSIO0 = 1; // 0=> Enables Synchronous Serial Port 0 (initial value).
                                  774   CLINEA 0000H 0001H 0386H 0002H 0045H
00:0002 80-A0 2A-F0               775   	sb	0f02ah.0
                                  776   
                                  777   ;;	DUA0  = 0; // 0=> Enables the operation of UART0 (initial value).
                                  778   CLINEA 0000H 0001H 0387H 0002H 0042H
00:0006 A2-A0 2A-F0               779   	rb	0f02ah.2
                                  780   
                                  781   ;;	DUA1  = 1; // 0=> Enables Uart1 (initial value). 
                                  782   CLINEA 0000H 0001H 0388H 0002H 0032H
00:000A B0-A0 2A-F0               783   	sb	0f02ah.3
                                  784   
                                  785   ;;	DI2C1 = 1; // 0=> Enables I2C bus Interface (Slave) (initial value).
                                  786   CLINEA 0000H 0001H 0389H 0002H 0045H
00:000E E0-A0 2A-F0               787   	sb	0f02ah.6
                                  788   
                                  789   ;;	DI2C0 = 0; // 0=> Enables I2C bus Interface (Master) (initial value).	
                                  790   CLINEA 0000H 0001H 038AH 0002H 0047H
00:0012 F2-A0 2A-F0               791   	rb	0f02ah.7
                                  792   
                                  793   ;;	BLKCON4 = 0x00; // 0=> Enables SA-ADC
                                  794   CLINEA 0000H 0001H 038CH 0002H 0026H
00:0016 00 00                     795   	mov	r0,	#00h
00:0018 11-90 2C-F0               796   	st	r0,	0f02ch
                                  797   
                                  798   ;;	BLKCON6 = 0x00; // (1=disables; 0=enables) the operation of Timers 8, 9, A, E, F.
                                  799   CLINEA 0000H 0001H 038DH 0002H 0052H
00:001C 11-90 2E-F0               800   	st	r0,	0f02eh
                                  801   
                                  802   ;;	BLKCON7 = 0x00; // (1=disables; 0=enables) the operation of PWM (PWMC, PWMD, PWME, PWMF
                                  803   CLINEA 0000H 0001H 038EH 0002H 0058H
00:0020 11-90 2F-F0               804   	st	r0,	0f02fh
                                  805   
                                  806   ;;	PortA_Low();	//Initialize all 3 Ports of Port A to GPIO-Low
                                  807   CLINEA 0000H 0001H 0391H 0002H 003CH
00:0024 01-F0'00-00'              808   	bl	_PortA_Low
                                  809   
                                  810   ;;	PortB_Low();	//Initialize all 8 Ports of Port B to GPIO-Low
                                  811   CLINEA 0000H 0001H 0392H 0002H 003CH
00:0028 01-F0'00-00'              812   	bl	_PortB_Low
                                  813   
                                  814   ;;	PortC_Low();	//Initialize all 8 Ports of Port C to GPIO-Low
                                  815   CLINEA 0000H 0001H 0393H 0002H 003CH
00:002C 01-F0'00-00'              816   	bl	_PortC_Low
                                  817   
                                  818   ;;	PortD_Low();	//Initialize all 6 Ports of Port D to GPIO-Low
                                  819   CLINEA 0000H 0001H 0394H 0002H 003CH
00:0030 01-F0'00-00'              820   	bl	_PortD_Low
                                  821   
                                  822   ;;    SetOSC();
                                  823   CLINEA 0000H 0001H 0397H 0005H 000DH
00:0034 01-F0'00-00'              824   	bl	_SetOSC
                                  825   
                                  826   ;;	irq_di();	// Disable Interrupts
                                  827   CLINEA 0000H 0001H 039BH 0002H 0020H
00:0038 01-F0'00-00'              828   	bl	_irq_di
                                  829   
                                  830   ;;	irq_init();	// Initialize Interrupts (All Off and NO Requests)
                                  831   CLINEA 0000H 0001H 039CH 0002H 003FH
00:003C 01-F0'00-00'              832   	bl	_irq_init
                                  833   
                                  834   ;;	(void)irq_setHdr( (unsigned char)IRQ_NO_I2CMINT, _intI2c );
                                  835   CLINEA 0000H 0001H 03B9H 0002H 003CH
00:0040 00'02                     836   	mov	r2,	#BYTE1 OFFSET __intI2c
00:0042 00'03                     837   	mov	r3,	#BYTE2 OFFSET __intI2c
00:0044 0C 00                     838   	mov	r0,	#0ch
00:0046 01-F0'00-00'              839   	bl	_irq_setHdr
                                  840   
                                  841   ;;		EI2CM = 1;
                                  842   CLINEA 0000H 0001H 03BAH 0003H 000CH
00:004A F0-A0 12-F0               843   	sb	0f012h.7
                                  844   
                                  845   ;;	(void)irq_setHdr( (unsigned char)IRQ_NO_UA0INT, _intUart );		
                                  846   CLINEA 0000H 0001H 03BEH 0002H 003EH
00:004E 00'02                     847   	mov	r2,	#BYTE1 OFFSET __intUart
00:0050 00'03                     848   	mov	r3,	#BYTE2 OFFSET __intUart
00:0052 0F 00                     849   	mov	r0,	#0fh
00:0054 01-F0'00-00'              850   	bl	_irq_setHdr
                                  851   
                                  852   ;;		EUA0 = 1; // EUA0 is the enable flag for the UART0 interrupt (1=ENABLED)
                                  853   CLINEA 0000H 0001H 03BFH 0003H 004AH
00:0058 80-A0 14-F0               854   	sb	0f014h.0
                                  855   
                                  856   ;;	(void)irq_setHdr( (unsigned char)IRQ_NO_TM9INT, TMR89_ISR );  //Clear interrupt request flag
                                  857   CLINEA 0000H 0001H 03CCH 0002H 005DH
00:005C 00'02                     858   	mov	r2,	#BYTE1 OFFSET _TMR89_ISR
00:005E 00'03                     859   	mov	r3,	#BYTE2 OFFSET _TMR89_ISR
00:0060 0E 00                     860   	mov	r0,	#0eh
00:0062 01-F0'00-00'              861   	bl	_irq_setHdr
                                  862   
                                  863   ;;		ETM8 = 1;	  	// Enable timer 8 Interrupt (1=ENABLED
                                  864   CLINEA 0000H 0001H 03CDH 0003H 0035H
00:0066 A0-A0 13-F0               865   	sb	0f013h.2
                                  866   
                                  867   ;;		ETM9 = 1;	  	// Enable timer 9 Interrupt (1=ENABLED)
                                  868   CLINEA 0000H 0001H 03CEH 0003H 0036H
00:006A B0-A0 13-F0               869   	sb	0f013h.3
                                  870   
                                  871   ;;		QTM8 = 1;		// timer 8 IRQ request flag
                                  872   CLINEA 0000H 0001H 03CFH 0003H 0028H
00:006E A0-A0 1B-F0               873   	sb	0f01bh.2
                                  874   
                                  875   ;;		QTM9 = 1;		// timer 9 IRQ request flag
                                  876   CLINEA 0000H 0001H 03D0H 0003H 0028H
00:0072 B0-A0 1B-F0               877   	sb	0f01bh.3
                                  878   
                                  879   ;;		T8CS0 = 1;
                                  880   CLINEA 0000H 0001H 03D1H 0003H 000CH
00:0076 80-A0 E2-F8               881   	sb	0f8e2h.0
                                  882   
                                  883   ;;		T8CS1 = 1;
                                  884   CLINEA 0000H 0001H 03D2H 0003H 000CH
00:007A 90-A0 E2-F8               885   	sb	0f8e2h.1
                                  886   
                                  887   ;;		T8CS2 = 0;
                                  888   CLINEA 0000H 0001H 03D3H 0003H 000CH
00:007E A2-A0 E2-F8               889   	rb	0f8e2h.2
                                  890   
                                  891   ;;		T9CS0 = 1;
                                  892   CLINEA 0000H 0001H 03D4H 0003H 000CH
00:0082 80-A0 E6-F8               893   	sb	0f8e6h.0
                                  894   
                                  895   ;;		T9CS1 = 1;
                                  896   CLINEA 0000H 0001H 03D5H 0003H 000CH
00:0086 90-A0 E6-F8               897   	sb	0f8e6h.1
                                  898   
                                  899   ;;		T9CS2 = 0;
                                  900   CLINEA 0000H 0001H 03D6H 0003H 000CH
00:008A A2-A0 E6-F8               901   	rb	0f8e6h.2
                                  902   
                                  903   ;;		tm_init(TM_CH_NO_89);
                                  904   CLINEA 0000H 0001H 03D7H 0003H 0017H
00:008E 00 00                     905   	mov	r0,	#00h
00:0090 01-F0'00-00'              906   	bl	_tm_init
                                  907   
                                  908   ;;		tm_set89Data(8192);				//A value of 1023 should yield 125us interrupts at 8.192 MHz
                                  909   CLINEA 0000H 0000H 0150H 0002H 0025H
00:0094 00 00                     910   	mov	r0,	#00h
00:0096 11-90 E0-F8               911   	st	r0,	0f8e0h
                                  912   
                                  913   ;;		tm_set89Data(8192);				//A value of 1023 should yield 125us interrupts at 8.192 MHz
                                  914   CLINEA 0000H 0000H 0151H 0002H 0023H
00:009A 20 00                     915   	mov	r0,	#020h
00:009C 11-90 E4-F8               916   	st	r0,	0f8e4h
                                  917   
                                  918   ;;		tm_set89Source(TM_CS_HTBCLK);
                                  919   CLINEA 0000H 0000H 0186H 0002H 0015H
00:00A0 80-A0 E2-F8               920   	sb	0f8e2h.0
                                  921   
                                  922   ;;		tm_set89Source(TM_CS_HTBCLK);
                                  923   CLINEA 0000H 0000H 0187H 0002H 001AH
00:00A4 92-A0 E2-F8               924   	rb	0f8e2h.1
                                  925   
                                  926   ;;		tm_start89();
                                  927   CLINEA 0000H 0001H 00CAH 0002H 000AH
00:00A8 00 00                     928   	mov	r0,	#00h
00:00AA 11-90 E1-F8               929   	st	r0,	0f8e1h
                                  930   
                                  931   ;;		tm_start89();
                                  932   CLINEA 0000H 0000H 00CBH 0002H 000BH
00:00AE 80-A0 E3-F8               933   	sb	0f8e3h.0
                                  934   
                                  935   ;;		T89M16 = 1;
                                  936   CLINEA 0000H 0001H 03DBH 0003H 000DH
00:00B2 D0-A0 E2-F8               937   	sb	0f8e2h.5
                                  938   
                                  939   ;;		HTD3 = 1;
                                  940   CLINEA 0000H 0001H 03DDH 0003H 000BH
00:00B6 B0-A0 0B-F0               941   	sb	0f00bh.3
                                  942   
                                  943   ;;		HTD2 = 1;
                                  944   CLINEA 0000H 0001H 03DEH 0003H 000BH
00:00BA A0-A0 0B-F0               945   	sb	0f00bh.2
                                  946   
                                  947   ;;		HTD1 = 1;
                                  948   CLINEA 0000H 0001H 03DFH 0003H 000BH
00:00BE 90-A0 0B-F0               949   	sb	0f00bh.1
                                  950   
                                  951   ;;		HTD0 = 1; 
                                  952   CLINEA 0000H 0001H 03E0H 0003H 000CH
00:00C2 80-A0 0B-F0               953   	sb	0f00bh.0
                                  954   
                                  955   ;;	PB3DIR = 1;
                                  956   CLINEA 0000H 0001H 03E3H 0002H 000CH
00:00C6 B0-A0 59-F2               957   	sb	0f259h.3
                                  958   
                                  959   ;;	PB3C1 = 0;
                                  960   CLINEA 0000H 0001H 03E4H 0002H 000BH
00:00CA B2-A0 5B-F2               961   	rb	0f25bh.3
                                  962   
                                  963   ;;	PB3C0 = 0;
                                  964   CLINEA 0000H 0001H 03E5H 0002H 000BH
00:00CE B2-A0 5A-F2               965   	rb	0f25ah.3
                                  966   
                                  967   ;;	PB3MD1 = 0;
                                  968   CLINEA 0000H 0001H 03E6H 0002H 000CH
00:00D2 B2-A0 5D-F2               969   	rb	0f25dh.3
                                  970   
                                  971   ;;	PB3MD0 = 0;
                                  972   CLINEA 0000H 0001H 03E7H 0002H 000CH
00:00D6 B2-A0 5C-F2               973   	rb	0f25ch.3
                                  974   
                                  975   ;;	PB3E1 = 1;
                                  976   CLINEA 0000H 0001H 03E8H 0002H 000BH
00:00DA F0-A0 25-F0               977   	sb	0f025h.7
                                  978   
                                  979   ;;	PB3E0 = 0;		//PBnE0-1 are used to choose the Rising-Edge Mode for this interrupt
                                  980   CLINEA 0000H 0001H 03EAH 0002H 0051H
00:00DE F2-A0 24-F0               981   	rb	0f024h.7
                                  982   
                                  983   ;;	PB3SM = 0;
                                  984   CLINEA 0000H 0001H 03EBH 0002H 000BH
00:00E2 F2-A0 26-F0               985   	rb	0f026h.7
                                  986   
                                  987   ;;	(void)irq_setHdr( (unsigned char)IRQ_NO_PB3INT, AccelGyroDataReady_ISR );  //Clear interrupt request flag
                                  988   CLINEA 0000H 0001H 03EDH 0002H 006AH
00:00E6 00'02                     989   	mov	r2,	#BYTE1 OFFSET _AccelGyroDataReady_ISR
00:00E8 00'03                     990   	mov	r3,	#BYTE2 OFFSET _AccelGyroDataReady_ISR
00:00EA 08 00                     991   	mov	r0,	#08h
00:00EC 01-F0'00-00'              992   	bl	_irq_setHdr
                                  993   
                                  994   ;;	EPB3 = 0;	//Enables Interrupt
                                  995   CLINEA 0000H 0001H 03EFH 0002H 001EH
00:00F0 F2-A0 11-F0               996   	rb	0f011h.7
                                  997   
                                  998   ;;	QPB3 = 0;	//Enables Request Flag (need to set to start using... this is set after the UART control Stuff!)
                                  999   CLINEA 0000H 0001H 03F0H 0002H 006BH
00:00F4 F2-A0 19-F0              1000   	rb	0f019h.7
                                 1001   
                                 1002   ;;	WDTMOD = 0x03; 	// 0x03=overflow 8sec...
                                 1003   CLINEA 0000H 0001H 03F4H 0002H 0029H
00:00F8 03 00                    1004   	mov	r0,	#03h
00:00FA 11-90 0F-F0              1005   	st	r0,	0f00fh
                                 1006   
                                 1007   ;;	main_clrWDT(); 	// Clear WDT
                                 1008   CLINEA 0000H 0001H 03F5H 0002H 001DH
00:00FE 01-F0'00-00'             1009   	bl	_main_clrWDT
                                 1010   
                                 1011   ;;	(void)i2c_init(I2C_MOD_FST, (unsigned short)HSCLK_KHZ, I2C_SYN_ON);
                                 1012   CLINEA 0000H 0001H 03F9H 0002H 0044H
00:0102 01 00                    1013   	mov	r0,	#01h
00:0104 4E-F0                    1014   	push	r0
00:0106 40 02                    1015   	mov	r2,	#040h
00:0108 1F 03                    1016   	mov	r3,	#01fh
00:010A 01-F0'00-00'             1017   	bl	_i2c_init
00:010E 02 E1                    1018   	add	sp,	#2 
                                 1019   
                                 1020   ;;			     &_uartSetParam );				/* Param... 	 */
                                 1021   CLINEA 0000H 0001H 03FFH 0009H 002DH
00:0110 00'00                    1022   	mov	r0,	#BYTE1 OFFSET __uartSetParam
00:0112 00'01                    1023   	mov	r1,	#BYTE2 OFFSET __uartSetParam
00:0114 5E-F0                    1024   	push	er0
00:0116 40 02                    1025   	mov	r2,	#040h
00:0118 1F 03                    1026   	mov	r3,	#01fh
00:011A 02 00                    1027   	mov	r0,	#02h
00:011C 01-F0'00-00'             1028   	bl	_uart_init
00:0120 02 E1                    1029   	add	sp,	#2 
                                 1030   
                                 1031   ;;		uart_PortSet();
                                 1032   CLINEA 0000H 0001H 0400H 0003H 0011H
00:0122 01-F0'00-00'             1033   	bl	_uart_PortSet
                                 1034   
                                 1035   ;;		_flgUartFin = 0;
                                 1036   CLINEA 0000H 0001H 0401H 0003H 0012H
00:0126 00 00                    1037   	mov	r0,	#00h
00:0128 11-90 00-00'             1038   	st	r0,	NEAR __flgUartFin
                                 1039   
                                 1040   ;;		uart_stop();
                                 1041   CLINEA 0000H 0001H 0402H 0003H 000EH
00:012C 01-F0'00-00'             1042   	bl	_uart_stop
                                 1043   
                                 1044   ;;	irq_ei(); // Enable Interrupts
                                 1045   CLINEA 0000H 0001H 0404H 0002H 001FH
00:0130 01-F0'00-00'             1046   	bl	_irq_ei
                                 1047   
                                 1048   ;;		ESC1_PWM();
                                 1049   CLINEA 0000H 0001H 0408H 0003H 000DH
00:0134 01-F0'00-00'             1050   	bl	_ESC1_PWM
                                 1051   
                                 1052   ;;		ESC2_PWM();
                                 1053   CLINEA 0000H 0001H 0409H 0003H 000DH
00:0138 01-F0'00-00'             1054   	bl	_ESC2_PWM
                                 1055   
                                 1056   ;;		ESC3_PWM();
                                 1057   CLINEA 0000H 0001H 040AH 0003H 000DH
00:013C 01-F0'00-00'             1058   	bl	_ESC3_PWM
                                 1059   
                                 1060   ;;		ESC4_PWM();
                                 1061   CLINEA 0000H 0001H 040BH 0003H 000DH
00:0140 01-F0'00-00'             1062   	bl	_ESC4_PWM
                                 1063   
                                 1064   ;;		PD0DIR = 1;
                                 1065   CLINEA 0000H 0001H 040DH 0003H 000DH
00:0144 80-A0 69-F2              1066   	sb	0f269h.0
                                 1067   
                                 1068   ;;		PD1DIR = 1;
                                 1069   CLINEA 0000H 0001H 040EH 0003H 000DH
00:0148 90-A0 69-F2              1070   	sb	0f269h.1
                                 1071   
                                 1072   ;;		PD2DIR = 0;
                                 1073   CLINEA 0000H 0001H 040FH 0003H 000DH
00:014C A2-A0 69-F2              1074   	rb	0f269h.2
                                 1075   
                                 1076   ;;		PWMUpperLowerDiff = PWMUpperDutyLimitRun-PWMLowerDutyLimitRun;
                                 1077   CLINEA 0000H 0001H 0411H 0003H 0040H
00:0150 12-90 00-00'             1078   	l	er0,	NEAR _PWMUpperDutyLimitRun
00:0154 12-92 00-00'             1079   	l	er2,	NEAR _PWMLowerDutyLimitRun
00:0158 28-80                    1080   	sub	r0,	r2
00:015A 39-81                    1081   	subc	r1,	r3
00:015C 13-90 00-00'             1082   	st	er0,	NEAR _PWMUpperLowerDiff
                                 1083   
                                 1084   ;;	_flgI2CFin = 0;														//reset I2C completed flag
                                 1085   CLINEA 0000H 0001H 0414H 0002H 0038H
00:0160 00 00                    1086   	mov	r0,	#00h
00:0162 11-90 00-00'             1087   	st	r0,	NEAR __flgI2CFin
                                 1088   
                                 1089   ;;	i2c_stop();															//Make sure I2C is not currently running
                                 1090   CLINEA 0000H 0001H 0415H 0002H 0043H
00:0166 01-F0'00-00'             1091   	bl	_i2c_stop
                                 1092   
                                 1093   ;;	i2c_startSend( MPU6050Address, &AccGyro_PWRMGMT1REG, 1, &AccGyro_PWRMGMT1REG_Contents, 1, (cbfI2c)_funcI2CFin);		//Begin I2C Receive Command
                                 1094   CLINEA 0000H 0001H 0416H 0002H 008DH
00:016A 00'00                    1095   	mov	r0,	#BYTE1 OFFSET __funcI2CFin
00:016C 00'01                    1096   	mov	r1,	#BYTE2 OFFSET __funcI2CFin
00:016E 5E-F0                    1097   	push	er0
00:0170 01 E0                    1098   	mov	er0,	#1 
00:0172 5E-F0                    1099   	push	er0
00:0174 00'00                    1100   	mov	r0,	#BYTE1 OFFSET _AccGyro_PWRMGMT1REG_Contents
00:0176 00'01                    1101   	mov	r1,	#BYTE2 OFFSET _AccGyro_PWRMGMT1REG_Contents
00:0178 5E-F0                    1102   	push	er0
00:017A 01 E0                    1103   	mov	er0,	#1 
00:017C 5E-F0                    1104   	push	er0
00:017E 00'02                    1105   	mov	r2,	#BYTE1 OFFSET _AccGyro_PWRMGMT1REG
00:0180 00'03                    1106   	mov	r3,	#BYTE2 OFFSET _AccGyro_PWRMGMT1REG
00:0182 10-90 00-00'             1107   	l	r0,	NEAR _MPU6050Address
00:0186 01-F0'00-00'             1108   	bl	_i2c_startSend
00:018A 08 E1                    1109   	add	sp,	#8 
                                 1110   
                                 1111   ;;	while(_flgI2CFin != 1){												//Wait for I2C commands to finish transfer
                                 1112   CLINEA 0000H 0000H 0417H 0001H 0015H
00:018C 02 CE                    1113   	bal	_$L99
                                 1114   
                                 1115   ;;	while(_flgI2CFin != 1){												//Wait for I2C commands to finish transfer
                                 1116   CLINEA 0000H 0000H 0417H 0002H 004EH
00:018E                          1117   _$L61 :
                                 1118   CBLOCK 207 3 1047
                                 1119   
                                 1120   ;;		main_clrWDT();
                                 1121   CLINEA 0000H 0001H 0418H 0003H 0010H
00:018E 01-F0'00-00'             1122   	bl	_main_clrWDT
                                 1123   CBLOCKEND 207 3 1049
                                 1124   
                                 1125   ;;	while(_flgI2CFin != 1){												//Wait for I2C commands to finish transfer
                                 1126   CLINEA 0000H 0000H 0417H 0001H 0015H
00:0192                          1127   _$L99 :
00:0192 10-90 00-00'             1128   	l	r0,	NEAR __flgI2CFin
00:0196 01 70                    1129   	cmp	r0,	#01h
00:0198 FA C8                    1130   	bne	_$L61
                                 1131   
                                 1132   ;;	_flgI2CFin = 0;														//reset I2C completed flag
                                 1133   CLINEA 0000H 0001H 041BH 0002H 0038H
00:019A 00 00                    1134   	mov	r0,	#00h
00:019C 11-90 00-00'             1135   	st	r0,	NEAR __flgI2CFin
                                 1136   
                                 1137   ;;	i2c_stop();															//Make sure I2C is not currently running
                                 1138   CLINEA 0000H 0001H 041CH 0002H 0043H
00:01A0 01-F0'00-00'             1139   	bl	_i2c_stop
                                 1140   
                                 1141   ;;	i2c_startSend( MPU6050Address, &AccGyro_AccelConfig, 1, &AccGyro_AccelConfig_Contents, 1, (cbfI2c)_funcI2CFin);		//Begin I2C Receive Command
                                 1142   CLINEA 0000H 0001H 041DH 0002H 008DH
00:01A4 00'00                    1143   	mov	r0,	#BYTE1 OFFSET __funcI2CFin
00:01A6 00'01                    1144   	mov	r1,	#BYTE2 OFFSET __funcI2CFin
00:01A8 5E-F0                    1145   	push	er0
00:01AA 01 E0                    1146   	mov	er0,	#1 
00:01AC 5E-F0                    1147   	push	er0
00:01AE 00'00                    1148   	mov	r0,	#BYTE1 OFFSET _AccGyro_AccelConfig_Contents
00:01B0 00'01                    1149   	mov	r1,	#BYTE2 OFFSET _AccGyro_AccelConfig_Contents
00:01B2 5E-F0                    1150   	push	er0
00:01B4 01 E0                    1151   	mov	er0,	#1 
00:01B6 5E-F0                    1152   	push	er0
00:01B8 00'02                    1153   	mov	r2,	#BYTE1 OFFSET _AccGyro_AccelConfig
00:01BA 00'03                    1154   	mov	r3,	#BYTE2 OFFSET _AccGyro_AccelConfig
00:01BC 10-90 00-00'             1155   	l	r0,	NEAR _MPU6050Address
00:01C0 01-F0'00-00'             1156   	bl	_i2c_startSend
00:01C4 08 E1                    1157   	add	sp,	#8 
                                 1158   
                                 1159   ;;	while(_flgI2CFin != 1){												//Wait for I2C commands to finish transfer
                                 1160   CLINEA 0000H 0000H 041EH 0001H 0015H
00:01C6 02 CE                    1161   	bal	_$L100
                                 1162   
                                 1163   ;;	while(_flgI2CFin != 1){												//Wait for I2C commands to finish transfer
                                 1164   CLINEA 0000H 0000H 041EH 0002H 004EH
00:01C8                          1165   _$L65 :
                                 1166   CBLOCK 207 4 1054
                                 1167   
                                 1168   ;;		main_clrWDT();
                                 1169   CLINEA 0000H 0001H 041FH 0003H 0010H
00:01C8 01-F0'00-00'             1170   	bl	_main_clrWDT
                                 1171   CBLOCKEND 207 4 1056
                                 1172   
                                 1173   ;;	while(_flgI2CFin != 1){												//Wait for I2C commands to finish transfer
                                 1174   CLINEA 0000H 0000H 041EH 0001H 0015H
00:01CC                          1175   _$L100 :
00:01CC 10-90 00-00'             1176   	l	r0,	NEAR __flgI2CFin
00:01D0 01 70                    1177   	cmp	r0,	#01h
00:01D2 FA C8                    1178   	bne	_$L65
                                 1179   
                                 1180   ;;	_flgI2CFin = 0;														//reset I2C completed flag
                                 1181   CLINEA 0000H 0001H 0422H 0002H 0038H
00:01D4 00 00                    1182   	mov	r0,	#00h
00:01D6 11-90 00-00'             1183   	st	r0,	NEAR __flgI2CFin
                                 1184   
                                 1185   ;;	i2c_stop();															//Make sure I2C is not currently running
                                 1186   CLINEA 0000H 0001H 0423H 0002H 0043H
00:01DA 01-F0'00-00'             1187   	bl	_i2c_stop
                                 1188   
                                 1189   ;;	i2c_startSend( MPU6050Address, &AccGyro_GyroConfig, 1, &AccGyro_GyroConfig_Contents, 1, (cbfI2c)_funcI2CFin);		//Begin I2C Receive Command
                                 1190   CLINEA 0000H 0001H 0424H 0002H 008BH
00:01DE 00'00                    1191   	mov	r0,	#BYTE1 OFFSET __funcI2CFin
00:01E0 00'01                    1192   	mov	r1,	#BYTE2 OFFSET __funcI2CFin
00:01E2 5E-F0                    1193   	push	er0
00:01E4 01 E0                    1194   	mov	er0,	#1 
00:01E6 5E-F0                    1195   	push	er0
00:01E8 00'00                    1196   	mov	r0,	#BYTE1 OFFSET _AccGyro_GyroConfig_Contents
00:01EA 00'01                    1197   	mov	r1,	#BYTE2 OFFSET _AccGyro_GyroConfig_Contents
00:01EC 5E-F0                    1198   	push	er0
00:01EE 01 E0                    1199   	mov	er0,	#1 
00:01F0 5E-F0                    1200   	push	er0
00:01F2 00'02                    1201   	mov	r2,	#BYTE1 OFFSET _AccGyro_GyroConfig
00:01F4 00'03                    1202   	mov	r3,	#BYTE2 OFFSET _AccGyro_GyroConfig
00:01F6 10-90 00-00'             1203   	l	r0,	NEAR _MPU6050Address
00:01FA 01-F0'00-00'             1204   	bl	_i2c_startSend
00:01FE 08 E1                    1205   	add	sp,	#8 
                                 1206   
                                 1207   ;;	while(_flgI2CFin != 1){												//Wait for I2C commands to finish transfer
                                 1208   CLINEA 0000H 0000H 0425H 0001H 0015H
00:0200 02 CE                    1209   	bal	_$L101
                                 1210   
                                 1211   ;;	while(_flgI2CFin != 1){												//Wait for I2C commands to finish transfer
                                 1212   CLINEA 0000H 0000H 0425H 0002H 004EH
00:0202                          1213   _$L69 :
                                 1214   CBLOCK 207 5 1061
                                 1215   
                                 1216   ;;		main_clrWDT();
                                 1217   CLINEA 0000H 0001H 0426H 0003H 0010H
00:0202 01-F0'00-00'             1218   	bl	_main_clrWDT
                                 1219   CBLOCKEND 207 5 1063
                                 1220   
                                 1221   ;;	while(_flgI2CFin != 1){												//Wait for I2C commands to finish transfer
                                 1222   CLINEA 0000H 0000H 0425H 0001H 0015H
00:0206                          1223   _$L101 :
00:0206 10-90 00-00'             1224   	l	r0,	NEAR __flgI2CFin
00:020A 01 70                    1225   	cmp	r0,	#01h
00:020C FA C8                    1226   	bne	_$L69
                                 1227   
                                 1228   ;;	_flgI2CFin = 0;														//reset I2C completed flag
                                 1229   CLINEA 0000H 0001H 042AH 0002H 0038H
00:020E 00 00                    1230   	mov	r0,	#00h
00:0210 11-90 00-00'             1231   	st	r0,	NEAR __flgI2CFin
                                 1232   
                                 1233   ;;	i2c_stop();															//Make sure I2C is not currently running
                                 1234   CLINEA 0000H 0001H 042BH 0002H 0043H
00:0214 01-F0'00-00'             1235   	bl	_i2c_stop
                                 1236   
                                 1237   ;;	i2c_startSend( MPU6050Address, &AccGyro_GyroAccel_SMPRTDIV, 1, &AccGyro_GyroAccelLPF_SMPRTDIVContents, 1, (cbfI2c)_funcI2CFin);		//Begin I2C Receive Command
                                 1238   CLINEA 0000H 0001H 042CH 0002H 009DH
00:0218 00'00                    1239   	mov	r0,	#BYTE1 OFFSET __funcI2CFin
00:021A 00'01                    1240   	mov	r1,	#BYTE2 OFFSET __funcI2CFin
00:021C 5E-F0                    1241   	push	er0
00:021E 01 E0                    1242   	mov	er0,	#1 
00:0220 5E-F0                    1243   	push	er0
00:0222 00'00                    1244   	mov	r0,	#BYTE1 OFFSET _AccGyro_GyroAccelLPF_SMPRTDIVCo
00:0224 00'01                    1245   	mov	r1,	#BYTE2 OFFSET _AccGyro_GyroAccelLPF_SMPRTDIVCo
00:0226 5E-F0                    1246   	push	er0
00:0228 01 E0                    1247   	mov	er0,	#1 
00:022A 5E-F0                    1248   	push	er0
00:022C 00'02                    1249   	mov	r2,	#BYTE1 OFFSET _AccGyro_GyroAccel_SMPRTDIV
00:022E 00'03                    1250   	mov	r3,	#BYTE2 OFFSET _AccGyro_GyroAccel_SMPRTDIV
00:0230 10-90 00-00'             1251   	l	r0,	NEAR _MPU6050Address
00:0234 01-F0'00-00'             1252   	bl	_i2c_startSend
00:0238 08 E1                    1253   	add	sp,	#8 
                                 1254   
                                 1255   ;;	while(_flgI2CFin != 1){												//Wait for I2C commands to finish transfer
                                 1256   CLINEA 0000H 0000H 042DH 0001H 0015H
00:023A 02 CE                    1257   	bal	_$L102
                                 1258   
                                 1259   ;;	while(_flgI2CFin != 1){												//Wait for I2C commands to finish transfer
                                 1260   CLINEA 0000H 0000H 042DH 0002H 004EH
00:023C                          1261   _$L73 :
                                 1262   CBLOCK 207 6 1069
                                 1263   
                                 1264   ;;		main_clrWDT();
                                 1265   CLINEA 0000H 0001H 042EH 0003H 0010H
00:023C 01-F0'00-00'             1266   	bl	_main_clrWDT
                                 1267   CBLOCKEND 207 6 1071
                                 1268   
                                 1269   ;;	while(_flgI2CFin != 1){												//Wait for I2C commands to finish transfer
                                 1270   CLINEA 0000H 0000H 042DH 0001H 0015H
00:0240                          1271   _$L102 :
00:0240 10-90 00-00'             1272   	l	r0,	NEAR __flgI2CFin
00:0244 01 70                    1273   	cmp	r0,	#01h
00:0246 FA C8                    1274   	bne	_$L73
                                 1275   
                                 1276   ;;	_flgI2CFin = 0;														//reset I2C completed flag
                                 1277   CLINEA 0000H 0001H 0432H 0002H 0038H
00:0248 00 00                    1278   	mov	r0,	#00h
00:024A 11-90 00-00'             1279   	st	r0,	NEAR __flgI2CFin
                                 1280   
                                 1281   ;;	i2c_stop();															//Make sure I2C is not currently running
                                 1282   CLINEA 0000H 0001H 0433H 0002H 0043H
00:024E 01-F0'00-00'             1283   	bl	_i2c_stop
                                 1284   
                                 1285   ;;	i2c_startSend( MPU6050Address, &AccGyro_GyroAccelLPF, 1, &AccGyro_GyroAccelLPF_Contents, 1, (cbfI2c)_funcI2CFin);		//Begin I2C Receive Command
                                 1286   CLINEA 0000H 0001H 0434H 0002H 008FH
00:0252 00'00                    1287   	mov	r0,	#BYTE1 OFFSET __funcI2CFin
00:0254 00'01                    1288   	mov	r1,	#BYTE2 OFFSET __funcI2CFin
00:0256 5E-F0                    1289   	push	er0
00:0258 01 E0                    1290   	mov	er0,	#1 
00:025A 5E-F0                    1291   	push	er0
00:025C 00'00                    1292   	mov	r0,	#BYTE1 OFFSET _AccGyro_GyroAccelLPF_Contents
00:025E 00'01                    1293   	mov	r1,	#BYTE2 OFFSET _AccGyro_GyroAccelLPF_Contents
00:0260 5E-F0                    1294   	push	er0
00:0262 01 E0                    1295   	mov	er0,	#1 
00:0264 5E-F0                    1296   	push	er0
00:0266 00'02                    1297   	mov	r2,	#BYTE1 OFFSET _AccGyro_GyroAccelLPF
00:0268 00'03                    1298   	mov	r3,	#BYTE2 OFFSET _AccGyro_GyroAccelLPF
00:026A 10-90 00-00'             1299   	l	r0,	NEAR _MPU6050Address
00:026E 01-F0'00-00'             1300   	bl	_i2c_startSend
00:0272 08 E1                    1301   	add	sp,	#8 
                                 1302   
                                 1303   ;;	while(_flgI2CFin != 1){												//Wait for I2C commands to finish transfer
                                 1304   CLINEA 0000H 0000H 0435H 0001H 0015H
00:0274 02 CE                    1305   	bal	_$L103
                                 1306   
                                 1307   ;;	while(_flgI2CFin != 1){												//Wait for I2C commands to finish transfer
                                 1308   CLINEA 0000H 0000H 0435H 0002H 004EH
00:0276                          1309   _$L77 :
                                 1310   CBLOCK 207 7 1077
                                 1311   
                                 1312   ;;		main_clrWDT();
                                 1313   CLINEA 0000H 0001H 0436H 0003H 0010H
00:0276 01-F0'00-00'             1314   	bl	_main_clrWDT
                                 1315   CBLOCKEND 207 7 1079
                                 1316   
                                 1317   ;;	while(_flgI2CFin != 1){												//Wait for I2C commands to finish transfer
                                 1318   CLINEA 0000H 0000H 0435H 0001H 0015H
00:027A                          1319   _$L103 :
00:027A 10-90 00-00'             1320   	l	r0,	NEAR __flgI2CFin
00:027E 01 70                    1321   	cmp	r0,	#01h
00:0280 FA C8                    1322   	bne	_$L77
                                 1323   
                                 1324   ;;	_flgI2CFin = 0;														//reset I2C completed flag
                                 1325   CLINEA 0000H 0001H 043AH 0002H 0038H
00:0282 00 00                    1326   	mov	r0,	#00h
00:0284 11-90 00-00'             1327   	st	r0,	NEAR __flgI2CFin
                                 1328   
                                 1329   ;;	i2c_stop();															//Make sure I2C is not currently running
                                 1330   CLINEA 0000H 0001H 043BH 0002H 0043H
00:0288 01-F0'00-00'             1331   	bl	_i2c_stop
                                 1332   
                                 1333   ;;	i2c_startSend( MPU6050Address, &AccGyro_INTENABLEReg, 1, &AccGyro_INTENABLEReg_contents, 1, (cbfI2c)_funcI2CFin);		//Begin I2C Receive Command
                                 1334   CLINEA 0000H 0001H 043CH 0002H 008FH
00:028C 00'00                    1335   	mov	r0,	#BYTE1 OFFSET __funcI2CFin
00:028E 00'01                    1336   	mov	r1,	#BYTE2 OFFSET __funcI2CFin
00:0290 5E-F0                    1337   	push	er0
00:0292 01 E0                    1338   	mov	er0,	#1 
00:0294 5E-F0                    1339   	push	er0
00:0296 00'00                    1340   	mov	r0,	#BYTE1 OFFSET _AccGyro_INTENABLEReg_contents
00:0298 00'01                    1341   	mov	r1,	#BYTE2 OFFSET _AccGyro_INTENABLEReg_contents
00:029A 5E-F0                    1342   	push	er0
00:029C 01 E0                    1343   	mov	er0,	#1 
00:029E 5E-F0                    1344   	push	er0
00:02A0 00'02                    1345   	mov	r2,	#BYTE1 OFFSET _AccGyro_INTENABLEReg
00:02A2 00'03                    1346   	mov	r3,	#BYTE2 OFFSET _AccGyro_INTENABLEReg
00:02A4 10-90 00-00'             1347   	l	r0,	NEAR _MPU6050Address
00:02A8 01-F0'00-00'             1348   	bl	_i2c_startSend
00:02AC 08 E1                    1349   	add	sp,	#8 
                                 1350   
                                 1351   ;;	while(_flgI2CFin != 1){												//Wait for I2C commands to finish transfer
                                 1352   CLINEA 0000H 0000H 043DH 0001H 0015H
00:02AE 02 CE                    1353   	bal	_$L104
                                 1354   
                                 1355   ;;	while(_flgI2CFin != 1){												//Wait for I2C commands to finish transfer
                                 1356   CLINEA 0000H 0000H 043DH 0002H 004EH
00:02B0                          1357   _$L81 :
                                 1358   CBLOCK 207 8 1085
                                 1359   
                                 1360   ;;		main_clrWDT();
                                 1361   CLINEA 0000H 0001H 043EH 0003H 0010H
00:02B0 01-F0'00-00'             1362   	bl	_main_clrWDT
                                 1363   CBLOCKEND 207 8 1087
                                 1364   
                                 1365   ;;	while(_flgI2CFin != 1){												//Wait for I2C commands to finish transfer
                                 1366   CLINEA 0000H 0000H 043DH 0001H 0015H
00:02B4                          1367   _$L104 :
00:02B4 10-90 00-00'             1368   	l	r0,	NEAR __flgI2CFin
00:02B8 01 70                    1369   	cmp	r0,	#01h
00:02BA FA C8                    1370   	bne	_$L81
                                 1371   
                                 1372   ;;	_flgI2CFin = 0;														//reset I2C completed flag
                                 1373   CLINEA 0000H 0001H 0442H 0002H 0038H
00:02BC 00 00                    1374   	mov	r0,	#00h
00:02BE 11-90 00-00'             1375   	st	r0,	NEAR __flgI2CFin
                                 1376   
                                 1377   ;;	i2c_stop();															//Make sure I2C is not currently running
                                 1378   CLINEA 0000H 0001H 0443H 0002H 0043H
00:02C2 01-F0'00-00'             1379   	bl	_i2c_stop
                                 1380   
                                 1381   ;;	i2c_startSend( HMC5883Address, &Mag_ConfigA, 1, &Mag_ConfigA_Contents, 1, (cbfI2c)_funcI2CFin);		//Begin I2C Receive Command
                                 1382   CLINEA 0000H 0001H 0444H 0002H 007DH
00:02C6 00'00                    1383   	mov	r0,	#BYTE1 OFFSET __funcI2CFin
00:02C8 00'01                    1384   	mov	r1,	#BYTE2 OFFSET __funcI2CFin
00:02CA 5E-F0                    1385   	push	er0
00:02CC 01 E0                    1386   	mov	er0,	#1 
00:02CE 5E-F0                    1387   	push	er0
00:02D0 00'00                    1388   	mov	r0,	#BYTE1 OFFSET _Mag_ConfigA_Contents
00:02D2 00'01                    1389   	mov	r1,	#BYTE2 OFFSET _Mag_ConfigA_Contents
00:02D4 5E-F0                    1390   	push	er0
00:02D6 01 E0                    1391   	mov	er0,	#1 
00:02D8 5E-F0                    1392   	push	er0
00:02DA 00'02                    1393   	mov	r2,	#BYTE1 OFFSET _Mag_ConfigA
00:02DC 00'03                    1394   	mov	r3,	#BYTE2 OFFSET _Mag_ConfigA
00:02DE 10-90 00-00'             1395   	l	r0,	NEAR _HMC5883Address
00:02E2 01-F0'00-00'             1396   	bl	_i2c_startSend
00:02E6 08 E1                    1397   	add	sp,	#8 
                                 1398   
                                 1399   ;;	while(_flgI2CFin != 1){												//Wait for I2C commands to finish transfer
                                 1400   CLINEA 0000H 0000H 0445H 0001H 0015H
00:02E8 02 CE                    1401   	bal	_$L105
                                 1402   
                                 1403   ;;	while(_flgI2CFin != 1){												//Wait for I2C commands to finish transfer
                                 1404   CLINEA 0000H 0000H 0445H 0002H 004EH
00:02EA                          1405   _$L85 :
                                 1406   CBLOCK 207 9 1093
                                 1407   
                                 1408   ;;		main_clrWDT();
                                 1409   CLINEA 0000H 0001H 0446H 0003H 0010H
00:02EA 01-F0'00-00'             1410   	bl	_main_clrWDT
                                 1411   CBLOCKEND 207 9 1095
                                 1412   
                                 1413   ;;	while(_flgI2CFin != 1){												//Wait for I2C commands to finish transfer
                                 1414   CLINEA 0000H 0000H 0445H 0001H 0015H
00:02EE                          1415   _$L105 :
00:02EE 10-90 00-00'             1416   	l	r0,	NEAR __flgI2CFin
00:02F2 01 70                    1417   	cmp	r0,	#01h
00:02F4 FA C8                    1418   	bne	_$L85
                                 1419   
                                 1420   ;;	_flgI2CFin = 0;														//reset I2C completed flag
                                 1421   CLINEA 0000H 0001H 0449H 0002H 0038H
00:02F6 00 00                    1422   	mov	r0,	#00h
00:02F8 11-90 00-00'             1423   	st	r0,	NEAR __flgI2CFin
                                 1424   
                                 1425   ;;	i2c_stop();															//Make sure I2C is not currently running
                                 1426   CLINEA 0000H 0001H 044AH 0002H 0043H
00:02FC 01-F0'00-00'             1427   	bl	_i2c_stop
                                 1428   
                                 1429   ;;	i2c_startSend( HMC5883Address, &Mag_ConfigB, 1, &Mag_ConfigB_Contents, 1, (cbfI2c)_funcI2CFin);		//Begin I2C Receive Command
                                 1430   CLINEA 0000H 0001H 044BH 0002H 007DH
00:0300 00'00                    1431   	mov	r0,	#BYTE1 OFFSET __funcI2CFin
00:0302 00'01                    1432   	mov	r1,	#BYTE2 OFFSET __funcI2CFin
00:0304 5E-F0                    1433   	push	er0
00:0306 01 E0                    1434   	mov	er0,	#1 
00:0308 5E-F0                    1435   	push	er0
00:030A 00'00                    1436   	mov	r0,	#BYTE1 OFFSET _Mag_ConfigB_Contents
00:030C 00'01                    1437   	mov	r1,	#BYTE2 OFFSET _Mag_ConfigB_Contents
00:030E 5E-F0                    1438   	push	er0
00:0310 01 E0                    1439   	mov	er0,	#1 
00:0312 5E-F0                    1440   	push	er0
00:0314 00'02                    1441   	mov	r2,	#BYTE1 OFFSET _Mag_ConfigB
00:0316 00'03                    1442   	mov	r3,	#BYTE2 OFFSET _Mag_ConfigB
00:0318 10-90 00-00'             1443   	l	r0,	NEAR _HMC5883Address
00:031C 01-F0'00-00'             1444   	bl	_i2c_startSend
00:0320 08 E1                    1445   	add	sp,	#8 
                                 1446   
                                 1447   ;;	while(_flgI2CFin != 1){												//Wait for I2C commands to finish transfer
                                 1448   CLINEA 0000H 0000H 044CH 0001H 0015H
00:0322 02 CE                    1449   	bal	_$L106
                                 1450   
                                 1451   ;;	while(_flgI2CFin != 1){												//Wait for I2C commands to finish transfer
                                 1452   CLINEA 0000H 0000H 044CH 0002H 004EH
00:0324                          1453   _$L89 :
                                 1454   CBLOCK 207 10 1100
                                 1455   
                                 1456   ;;		main_clrWDT();
                                 1457   CLINEA 0000H 0001H 044DH 0003H 0010H
00:0324 01-F0'00-00'             1458   	bl	_main_clrWDT
                                 1459   CBLOCKEND 207 10 1102
                                 1460   
                                 1461   ;;	while(_flgI2CFin != 1){												//Wait for I2C commands to finish transfer
                                 1462   CLINEA 0000H 0000H 044CH 0001H 0015H
00:0328                          1463   _$L106 :
00:0328 10-90 00-00'             1464   	l	r0,	NEAR __flgI2CFin
00:032C 01 70                    1465   	cmp	r0,	#01h
00:032E FA C8                    1466   	bne	_$L89
                                 1467   
                                 1468   ;;	_flgI2CFin = 0;														//reset I2C completed flag
                                 1469   CLINEA 0000H 0001H 0450H 0002H 0038H
00:0330 00 00                    1470   	mov	r0,	#00h
00:0332 11-90 00-00'             1471   	st	r0,	NEAR __flgI2CFin
                                 1472   
                                 1473   ;;	i2c_stop();															//Make sure I2C is not currently running
                                 1474   CLINEA 0000H 0001H 0451H 0002H 0043H
00:0336 01-F0'00-00'             1475   	bl	_i2c_stop
                                 1476   
                                 1477   ;;	i2c_startSend( HMC5883Address, &Mag_ModeReg, 1, &Mag_ModeReg_Contents, 1, (cbfI2c)_funcI2CFin);		//Begin I2C Receive Command
                                 1478   CLINEA 0000H 0001H 0452H 0002H 007DH
00:033A 00'00                    1479   	mov	r0,	#BYTE1 OFFSET __funcI2CFin
00:033C 00'01                    1480   	mov	r1,	#BYTE2 OFFSET __funcI2CFin
00:033E 5E-F0                    1481   	push	er0
00:0340 01 E0                    1482   	mov	er0,	#1 
00:0342 5E-F0                    1483   	push	er0
00:0344 00'00                    1484   	mov	r0,	#BYTE1 OFFSET _Mag_ModeReg_Contents
00:0346 00'01                    1485   	mov	r1,	#BYTE2 OFFSET _Mag_ModeReg_Contents
00:0348 5E-F0                    1486   	push	er0
00:034A 01 E0                    1487   	mov	er0,	#1 
00:034C 5E-F0                    1488   	push	er0
00:034E 00'02                    1489   	mov	r2,	#BYTE1 OFFSET _Mag_ModeReg
00:0350 00'03                    1490   	mov	r3,	#BYTE2 OFFSET _Mag_ModeReg
00:0352 10-90 00-00'             1491   	l	r0,	NEAR _HMC5883Address
00:0356 01-F0'00-00'             1492   	bl	_i2c_startSend
00:035A 08 E1                    1493   	add	sp,	#8 
                                 1494   
                                 1495   ;;	while(_flgI2CFin != 1){												//Wait for I2C commands to finish transfer
                                 1496   CLINEA 0000H 0000H 0453H 0001H 0015H
00:035C 02 CE                    1497   	bal	_$L107
                                 1498   
                                 1499   ;;	while(_flgI2CFin != 1){												//Wait for I2C commands to finish transfer
                                 1500   CLINEA 0000H 0000H 0453H 0002H 004EH
00:035E                          1501   _$L93 :
                                 1502   CBLOCK 207 11 1107
                                 1503   
                                 1504   ;;		main_clrWDT();
                                 1505   CLINEA 0000H 0001H 0454H 0003H 0010H
00:035E 01-F0'00-00'             1506   	bl	_main_clrWDT
                                 1507   CBLOCKEND 207 11 1109
                                 1508   
                                 1509   ;;	while(_flgI2CFin != 1){												//Wait for I2C commands to finish transfer
                                 1510   CLINEA 0000H 0000H 0453H 0001H 0015H
00:0362                          1511   _$L107 :
00:0362 10-90 00-00'             1512   	l	r0,	NEAR __flgI2CFin
00:0366 01 70                    1513   	cmp	r0,	#01h
00:0368 FA C8                    1514   	bne	_$L93
                                 1515   
                                 1516   ;;	EPB3 = 0;
                                 1517   CLINEA 0000H 0001H 0458H 0002H 000AH
00:036A F2-A0 11-F0              1518   	rb	0f011h.7
                                 1519   
                                 1520   ;;	_flgI2CFin = 0;																	//reset I2C completed Flag
                                 1521   CLINEA 0000H 0001H 045BH 0002H 003BH
00:036E 00 00                    1522   	mov	r0,	#00h
00:0370 11-90 00-00'             1523   	st	r0,	NEAR __flgI2CFin
                                 1524   
                                 1525   ;;	i2c_stop();																		//Make sure I2C is not currently running
                                 1526   CLINEA 0000H 0001H 045CH 0002H 0046H
00:0374 01-F0'00-00'             1527   	bl	_i2c_stop
                                 1528   
                                 1529   ;;	I20MD = 1;		//Switch to I2C Fast Operation (400kbps)
                                 1530   CLINEA 0000H 0001H 045DH 0002H 0035H
00:0378 90-A0 A4-F2              1531   	sb	0f2a4h.1
                                 1532   
                                 1533   ;;	i2c_startReceive(MPU6050Address, &AccGyro_ReadData, 1, &AccGyro_Data, 14, (cbfI2c)_funcI2CFin);	//Begin I2C Receive Command
                                 1534   CLINEA 0000H 0001H 045EH 0002H 007CH
00:037C 00'00                    1535   	mov	r0,	#BYTE1 OFFSET __funcI2CFin
00:037E 00'01                    1536   	mov	r1,	#BYTE2 OFFSET __funcI2CFin
00:0380 5E-F0                    1537   	push	er0
00:0382 0E E0                    1538   	mov	er0,	#14
00:0384 5E-F0                    1539   	push	er0
00:0386 00'00                    1540   	mov	r0,	#BYTE1 OFFSET _AccGyro_Data
00:0388 00'01                    1541   	mov	r1,	#BYTE2 OFFSET _AccGyro_Data
00:038A 5E-F0                    1542   	push	er0
00:038C 01 E0                    1543   	mov	er0,	#1 
00:038E 5E-F0                    1544   	push	er0
00:0390 00'02                    1545   	mov	r2,	#BYTE1 OFFSET _AccGyro_ReadData
00:0392 00'03                    1546   	mov	r3,	#BYTE2 OFFSET _AccGyro_ReadData
00:0394 10-90 00-00'             1547   	l	r0,	NEAR _MPU6050Address
00:0398 01-F0'00-00'             1548   	bl	_i2c_startReceive
00:039C 08 E1                    1549   	add	sp,	#8 
                                 1550   
                                 1551   ;;	while(_flgI2CFin != 1){															//Wait for I2C commands to finish transfer
                                 1552   CLINEA 0000H 0000H 045FH 0001H 0015H
00:039E 02 CE                    1553   	bal	_$L108
                                 1554   
                                 1555   ;;	while(_flgI2CFin != 1){															//Wait for I2C commands to finish transfer
                                 1556   CLINEA 0000H 0000H 045FH 0002H 0051H
00:03A0                          1557   _$L97 :
                                 1558   CBLOCK 207 12 1119
                                 1559   
                                 1560   ;;		main_clrWDT();
                                 1561   CLINEA 0000H 0001H 0460H 0003H 0010H
00:03A0 01-F0'00-00'             1562   	bl	_main_clrWDT
                                 1563   CBLOCKEND 207 12 1125
                                 1564   
                                 1565   ;;	while(_flgI2CFin != 1){															//Wait for I2C commands to finish transfer
                                 1566   CLINEA 0000H 0000H 045FH 0001H 0015H
00:03A4                          1567   _$L108 :
00:03A4 10-90 00-00'             1568   	l	r0,	NEAR __flgI2CFin
00:03A8 01 70                    1569   	cmp	r0,	#01h
00:03AA FA C8                    1570   	bne	_$L97
                                 1571   
                                 1572   ;;	PD1C1 = 1;
                                 1573   CLINEA 0000H 0001H 0469H 0002H 000BH
00:03AC 90-A0 6B-F2              1574   	sb	0f26bh.1
                                 1575   
                                 1576   ;;	PD1C0 = 1;
                                 1577   CLINEA 0000H 0001H 046AH 0002H 000BH
00:03B0 90-A0 6A-F2              1578   	sb	0f26ah.1
                                 1579   
                                 1580   ;;	PC6DIR = 1;
                                 1581   CLINEA 0000H 0001H 046DH 0002H 000CH
00:03B4 E0-A0 61-F2              1582   	sb	0f261h.6
                                 1583   
                                 1584   ;;	PC6C0 = 1;
                                 1585   CLINEA 0000H 0001H 046EH 0002H 000BH
00:03B8 E0-A0 62-F2              1586   	sb	0f262h.6
                                 1587   
                                 1588   ;;	PC6C1 = 1;
                                 1589   CLINEA 0000H 0001H 046FH 0002H 000BH
00:03BC E0-A0 63-F2              1590   	sb	0f263h.6
                                 1591   
                                 1592   ;;	PC6MD0 = 0;
                                 1593   CLINEA 0000H 0001H 0470H 0002H 000CH
00:03C0 E2-A0 64-F2              1594   	rb	0f264h.6
                                 1595   
                                 1596   ;;	PC6MD1 = 0;
                                 1597   CLINEA 0000H 0001H 0471H 0002H 000CH
00:03C4 E2-A0 65-F2              1598   	rb	0f265h.6
                                 1599   CBLOCKEND 207 2 1141
                                 1600   
                                 1601   ;;}//End Initialization
                                 1602   CLINEA 0000H 0001H 0475H 0001H 0015H
00:03C8 8E-F2                    1603   	pop	pc
                                 1604   CBLOCKEND 207 1 1141
                                 1605   CFUNCTIONEND 207
                                 1606   
                                 1607   
  --------------------------     1608   	rseg $$Get_RangeData$main
                                 1609   CFUNCTION 219
                                 1610   
00:0000                          1611   _Get_RangeData	:
                                 1612   CBLOCK 219 1 1147
                                 1613   
                                 1614   ;;void Get_RangeData(void){
                                 1615   CLINEA 0000H 0001H 047BH 0001H 0019H
00:0000 CE-F8                    1616   	push	lr
                                 1617   CBLOCK 219 2 1147
                                 1618   CRET 0000H
                                 1619   
                                 1620   ;;	_flgI2CFin = 0;														//reset I2C completed flag
                                 1621   CLINEA 0000H 0001H 047DH 0002H 0038H
00:0002 00 00                    1622   	mov	r0,	#00h
00:0004 11-90 00-00'             1623   	st	r0,	NEAR __flgI2CFin
                                 1624   
                                 1625   ;;	i2c_stop();															//Make sure I2C is not currently running
                                 1626   CLINEA 0000H 0001H 047EH 0002H 0043H
00:0008 01-F0'00-00'             1627   	bl	_i2c_stop
                                 1628   
                                 1629   ;;	I20MD = 0;		//Switch to I2C Standard Operation (100kbps)
                                 1630   CLINEA 0000H 0001H 047FH 0002H 0039H
00:000C 92-A0 A4-F2              1631   	rb	0f2a4h.1
                                 1632   
                                 1633   ;;	i2c_startSend( Range_Address, &Range_TakeRangeReading, 1, &AccGyro_PWRMGMT1REG_Contents, 0, (cbfI2c)_funcI2CFin);		//Begin I2C Receive Command
                                 1634   CLINEA 0000H 0001H 0480H 0002H 008FH
00:0010 00'00                    1635   	mov	r0,	#BYTE1 OFFSET __funcI2CFin
00:0012 00'01                    1636   	mov	r1,	#BYTE2 OFFSET __funcI2CFin
00:0014 5E-F0                    1637   	push	er0
00:0016 00 E0                    1638   	mov	er0,	#0 
00:0018 5E-F0                    1639   	push	er0
00:001A 00'00                    1640   	mov	r0,	#BYTE1 OFFSET _AccGyro_PWRMGMT1REG_Contents
00:001C 00'01                    1641   	mov	r1,	#BYTE2 OFFSET _AccGyro_PWRMGMT1REG_Contents
00:001E 5E-F0                    1642   	push	er0
00:0020 01 E0                    1643   	mov	er0,	#1 
00:0022 5E-F0                    1644   	push	er0
00:0024 00'02                    1645   	mov	r2,	#BYTE1 OFFSET _Range_TakeRangeReading
00:0026 00'03                    1646   	mov	r3,	#BYTE2 OFFSET _Range_TakeRangeReading
00:0028 10-90 00-00'             1647   	l	r0,	NEAR _Range_Address
00:002C 01-F0'00-00'             1648   	bl	_i2c_startSend
00:0030 08 E1                    1649   	add	sp,	#8 
                                 1650   
                                 1651   ;;	while(_flgI2CFin != 1){												//Wait for I2C commands to finish transfer
                                 1652   CLINEA 0000H 0000H 0481H 0001H 0001H
00:0032 02 CE                    1653   	bal	_$L122
                                 1654   
                                 1655   ;;	while(_flgI2CFin != 1){												//Wait for I2C commands to finish transfer
                                 1656   CLINEA 0000H 0000H 0481H 0002H 004EH
00:0034                          1657   _$L112 :
                                 1658   CBLOCK 219 3 1153
                                 1659   
                                 1660   ;;		main_clrWDT();
                                 1661   CLINEA 0000H 0001H 0482H 0003H 0010H
00:0034 01-F0'00-00'             1662   	bl	_main_clrWDT
                                 1663   CBLOCKEND 219 3 1155
                                 1664   
                                 1665   ;;	while(_flgI2CFin != 1){												//Wait for I2C commands to finish transfer
                                 1666   CLINEA 0000H 0000H 0481H 0001H 0001H
00:0038                          1667   _$L122 :
00:0038 10-90 00-00'             1668   	l	r0,	NEAR __flgI2CFin
00:003C 01 70                    1669   	cmp	r0,	#01h
00:003E FA C8                    1670   	bne	_$L112
                                 1671   
                                 1672   ;;	}
                                 1673   CLINEA 0000H 0000H 0483H 0002H 0002H
00:0040                          1674   _$L111 :
                                 1675   
                                 1676   ;;	while(RANGE_STAT==1);
                                 1677   CLINEA 0000H 0000H 0484H 0000H 0000H
00:0040 E1-A0 60-F2              1678   	tb	0f260h.6
00:0044 FD C8                    1679   	bne	_$L111
                                 1680   
                                 1681   ;;	_flgI2CFin = 0;																	//reset I2C completed Flag
                                 1682   CLINEA 0000H 0001H 0487H 0002H 003BH
00:0046 00 00                    1683   	mov	r0,	#00h
00:0048 11-90 00-00'             1684   	st	r0,	NEAR __flgI2CFin
                                 1685   
                                 1686   ;;	i2c_stop();																		//Make sure I2C is not currently running
                                 1687   CLINEA 0000H 0001H 0488H 0002H 0046H
00:004C 01-F0'00-00'             1688   	bl	_i2c_stop
                                 1689   
                                 1690   ;;	i2c_startReceive(Range_Address, &Range_TakeRangeReading, 0, &Range_Output, 2, (cbfI2c)_funcI2CFin);	//Begin I2C Receive Command
                                 1691   CLINEA 0000H 0001H 0489H 0002H 0080H
00:0050 00'00                    1692   	mov	r0,	#BYTE1 OFFSET __funcI2CFin
00:0052 00'01                    1693   	mov	r1,	#BYTE2 OFFSET __funcI2CFin
00:0054 5E-F0                    1694   	push	er0
00:0056 02 E0                    1695   	mov	er0,	#2 
00:0058 5E-F0                    1696   	push	er0
00:005A 00'00                    1697   	mov	r0,	#BYTE1 OFFSET _Range_Output
00:005C 00'01                    1698   	mov	r1,	#BYTE2 OFFSET _Range_Output
00:005E 5E-F0                    1699   	push	er0
00:0060 00 E0                    1700   	mov	er0,	#0 
00:0062 5E-F0                    1701   	push	er0
00:0064 00'02                    1702   	mov	r2,	#BYTE1 OFFSET _Range_TakeRangeReading
00:0066 00'03                    1703   	mov	r3,	#BYTE2 OFFSET _Range_TakeRangeReading
00:0068 10-90 00-00'             1704   	l	r0,	NEAR _Range_Address
00:006C 01-F0'00-00'             1705   	bl	_i2c_startReceive
00:0070 08 E1                    1706   	add	sp,	#8 
                                 1707   
                                 1708   ;;	while(_flgI2CFin != 1){															//Wait for I2C commands to finish transfer
                                 1709   CLINEA 0000H 0000H 048AH 0001H 0001H
00:0072 02 CE                    1710   	bal	_$L123
                                 1711   
                                 1712   ;;	while(_flgI2CFin != 1){															//Wait for I2C commands to finish transfer
                                 1713   CLINEA 0000H 0000H 048AH 0002H 0051H
00:0074                          1714   _$L120 :
                                 1715   CBLOCK 219 4 1162
                                 1716   
                                 1717   ;;		main_clrWDT();
                                 1718   CLINEA 0000H 0001H 048BH 0003H 0010H
00:0074 01-F0'00-00'             1719   	bl	_main_clrWDT
                                 1720   CBLOCKEND 219 4 1164
                                 1721   
                                 1722   ;;	while(_flgI2CFin != 1){															//Wait for I2C commands to finish transfer
                                 1723   CLINEA 0000H 0000H 048AH 0001H 0001H
00:0078                          1724   _$L123 :
00:0078 10-90 00-00'             1725   	l	r0,	NEAR __flgI2CFin
00:007C 01 70                    1726   	cmp	r0,	#01h
00:007E FA C8                    1727   	bne	_$L120
                                 1728   
                                 1729   ;;	Range_out = (Range_Output[0]<<8)+(Range_Output[1]);
                                 1730   CLINEA 0000H 0001H 048EH 0002H 0034H
00:0080 10-90 00-00'             1731   	l	r0,	NEAR _Range_Output+01h
00:0084 00 01                    1732   	mov	r1,	#00h
00:0086 10-92 00-00'             1733   	l	r2,	NEAR _Range_Output
00:008A 20-83                    1734   	mov	r3,	r2
00:008C 00 02                    1735   	mov	r2,	#00h
00:008E 26-F0                    1736   	add	er0,	er2
00:0090 13-90 00-00'             1737   	st	er0,	NEAR _Range_out
                                 1738   
                                 1739   ;;	I20MD = 1;		//Switch Back to I2C Fast Operation (400kbps)
                                 1740   CLINEA 0000H 0001H 048FH 0002H 003AH
00:0094 90-A0 A4-F2              1741   	sb	0f2a4h.1
                                 1742   CBLOCKEND 219 2 1168
                                 1743   
                                 1744   ;;}
                                 1745   CLINEA 0000H 0001H 0490H 0001H 0001H
00:0098 8E-F2                    1746   	pop	pc
                                 1747   CBLOCKEND 219 1 1168
                                 1748   CFUNCTIONEND 219
                                 1749   
                                 1750   
  --------------------------     1751   	rseg $$Get_PingData$main
                                 1752   CFUNCTION 220
                                 1753   
00:0000                          1754   _Get_PingData	:
                                 1755   CBLOCK 220 1 1170
                                 1756   
                                 1757   ;;void Get_PingData(void){
                                 1758   CLINEA 0000H 0001H 0492H 0001H 0018H
00:0000 CE-F8                    1759   	push	lr
00:0002 6E-F4                    1760   	push	xr4
                                 1761   CBLOCK 220 2 1170
                                 1762   CRET 0004H
                                 1763   
                                 1764   ;;	PD1DIR = 0;		// PortD Bit0 set to Output Mode...
                                 1765   CLINEA 0000H 0001H 0495H 0002H 0031H
00:0004 92-A0 69-F2              1766   	rb	0f269h.1
                                 1767   
                                 1768   ;;	PingSensor = 1;
                                 1769   CLINEA 0000H 0001H 0496H 0002H 0010H
00:0008 90-A0 68-F2              1770   	sb	0f268h.1
                                 1771   
                                 1772   ;;	NOPus();
                                 1773   CLINEA 0000H 0001H 0497H 0002H 0009H
00:000C 01-F0'00-00'             1774   	bl	_NOPus
                                 1775   
                                 1776   ;;	PingSensor = 0;
                                 1777   CLINEA 0000H 0001H 0498H 0002H 0010H
00:0010 92-A0 68-F2              1778   	rb	0f268h.1
                                 1779   
                                 1780   ;;	PD1DIR = 1;		// PortD Bit0 set to Input Mode...
                                 1781   CLINEA 0000H 0001H 049BH 0002H 0030H
00:0014 90-A0 69-F2              1782   	sb	0f269h.1
                                 1783   
                                 1784   ;;	while(PingSensor == 0){
                                 1785   CLINEA 0000H 0001H 049CH 0002H 0018H
00:0018 02 CE                    1786   	bal	_$L125
00:001A                          1787   _$L127 :
                                 1788   CBLOCK 220 3 1180
                                 1789   
                                 1790   ;;		NOPus();
                                 1791   CLINEA 0000H 0001H 049DH 0003H 000AH
00:001A 01-F0'00-00'             1792   	bl	_NOPus
                                 1793   CBLOCKEND 220 3 1182
                                 1794   
                                 1795   ;;	}
                                 1796   CLINEA 0000H 0000H 049EH 0002H 0002H
00:001E                          1797   _$L125 :
                                 1798   
                                 1799   ;;	while(PingSensor == 0){
                                 1800   CLINEA 0000H 0000H 049CH 0000H 0000H
00:001E 91-A0 68-F2              1801   	tb	0f268h.1
00:0022 FB C9                    1802   	beq	_$L127
                                 1803   
                                 1804   ;;	while(PingSensor ==1){
                                 1805   CLINEA 0000H 0001H 049FH 0002H 0017H
00:0024 07 CE                    1806   	bal	_$L129
00:0026                          1807   _$L131 :
                                 1808   CBLOCK 220 4 1183
                                 1809   
                                 1810   ;;		NOPus();
                                 1811   CLINEA 0000H 0001H 04A0H 0003H 000AH
00:0026 01-F0'00-00'             1812   	bl	_NOPus
                                 1813   
                                 1814   ;;		Ping_timer++;
                                 1815   CLINEA 0000H 0000H 04A1H 0003H 000FH
00:002A 12-90 00-00'             1816   	l	er0,	NEAR _Ping_timer
00:002E 81 E0                    1817   	add	er0,	#1 
00:0030 13-90 00-00'             1818   	st	er0,	NEAR _Ping_timer
                                 1819   CBLOCKEND 220 4 1186
                                 1820   
                                 1821   ;;	}
                                 1822   CLINEA 0000H 0000H 04A2H 0002H 0002H
00:0034                          1823   _$L129 :
                                 1824   
                                 1825   ;;	while(PingSensor ==1){
                                 1826   CLINEA 0000H 0000H 049FH 0000H 0000H
00:0034 91-A0 68-F2              1827   	tb	0f268h.1
00:0038 F6 C8                    1828   	bne	_$L131
                                 1829   
                                 1830   ;;	Ping_timer *= 11;	//Convert the ping timer response to us
                                 1831   CLINEA 0000H 0001H 04A3H 0002H 003AH
00:003A 12-90 00-00'             1832   	l	er0,	NEAR _Ping_timer
00:003E 05-F2                    1833   	mov	er2,	er0
00:0040 2B-91                    1834   	sllc	r1,	#02h
00:0042 2A-90                    1835   	sll	r0,	#02h
00:0044 26-F0                    1836   	add	er0,	er2
00:0046 06-F0                    1837   	add	er0,	er0
00:0048 26-F0                    1838   	add	er0,	er2
00:004A 13-90 00-00'             1839   	st	er0,	NEAR _Ping_timer
                                 1840   
                                 1841   ;;	Ping_out = (0.0162*Ping_timer) + 0.1359; //Convert us to distance based on Datasheet
                                 1842   CLINEA 0000H 0001H 04A4H 0002H 0055H
00:004E 00 E2                    1843   	mov	er2,	#0 
00:0050 6E-F0                    1844   	push	xr0
00:0052 FC E1                    1845   	add	sp,	#-4
00:0054 01-F0'00-00'             1846   	bl	__dildu8sw
00:0058 82 00                    1847   	mov	r0,	#082h
00:005A E2 01                    1848   	mov	r1,	#0e2h
00:005C C7 02                    1849   	mov	r2,	#0c7h
00:005E 98 03                    1850   	mov	r3,	#098h
00:0060 BB 04                    1851   	mov	r4,	#0bbh
00:0062 96 05                    1852   	mov	r5,	#096h
00:0064 90 06                    1853   	mov	r6,	#090h
00:0066 3F 07                    1854   	mov	r7,	#03fh
00:0068 7E-F0                    1855   	push	qr0
00:006A 01-F0'00-00'             1856   	bl	__dmulu8sw
00:006E 08 E1                    1857   	add	sp,	#8 
00:0070 13 00                    1858   	mov	r0,	#013h
00:0072 61 01                    1859   	mov	r1,	#061h
00:0074 C3 02                    1860   	mov	r2,	#0c3h
00:0076 D3 03                    1861   	mov	r3,	#0d3h
00:0078 2B 04                    1862   	mov	r4,	#02bh
00:007A 65 05                    1863   	mov	r5,	#065h
00:007C C1 06                    1864   	mov	r6,	#0c1h
00:007E 7E-F0                    1865   	push	qr0
00:0080 01-F0'00-00'             1866   	bl	__daddu8sw
00:0084 08 E1                    1867   	add	sp,	#8 
00:0086 01-F0'00-00'             1868   	bl	__dtofu8sw
00:008A 04 E1                    1869   	add	sp,	#4 
00:008C 2E-F0                    1870   	pop	xr0
00:008E 13-90 00-00'             1871   	st	er0,	NEAR _Ping_out
00:0092 13-92 00-00'             1872   	st	er2,	NEAR _Ping_out+02h
                                 1873   CBLOCKEND 220 2 1190
                                 1874   
                                 1875   ;;}
                                 1876   CLINEA 0000H 0001H 04A6H 0001H 0001H
00:0096 2E-F4                    1877   	pop	xr4
00:0098 8E-F2                    1878   	pop	pc
                                 1879   CBLOCKEND 220 1 1190
                                 1880   CFUNCTIONEND 220
                                 1881   
                                 1882   
  --------------------------     1883   	rseg $$Get_AccGyroData$main
                                 1884   CFUNCTION 221
                                 1885   
00:0000                          1886   _Get_AccGyroData	:
                                 1887   CBLOCK 221 1 1192
                                 1888   
                                 1889   ;;void Get_AccGyroData(void){
                                 1890   CLINEA 0000H 0001H 04A8H 0001H 001BH
00:0000 CE-F8                    1891   	push	lr
00:0002 6E-F8                    1892   	push	xr8
00:0004 5E-F4                    1893   	push	er4
                                 1894   CBLOCK 221 2 1192
                                 1895   CRET 0006H
                                 1896   CSLOCAL 43H 0002H 0000H 0002H "i" 02H 00H 01H
                                 1897   
                                 1898   ;;	EPB3 = 0;		//Turn off Accel/Gyro Interrupt.  This can probably be removed...
                                 1899   CLINEA 0000H 0001H 04B0H 0002H 004DH
00:0006 F2-A0 11-F0              1900   	rb	0f011h.7
                                 1901   
                                 1902   ;;	_flgI2CFin = 0;																	//reset I2C completed Flag
                                 1903   CLINEA 0000H 0001H 04B2H 0002H 003BH
00:000A 00 00                    1904   	mov	r0,	#00h
00:000C 11-90 00-00'             1905   	st	r0,	NEAR __flgI2CFin
                                 1906   
                                 1907   ;;	i2c_stop();																		//Make sure I2C is not currently running
                                 1908   CLINEA 0000H 0001H 04B3H 0002H 0046H
00:0010 01-F0'00-00'             1909   	bl	_i2c_stop
                                 1910   
                                 1911   ;;	I20MD = 1;		//Switch to I2C Fast Operation (400kbps)
                                 1912   CLINEA 0000H 0001H 04B4H 0002H 0035H
00:0014 90-A0 A4-F2              1913   	sb	0f2a4h.1
                                 1914   
                                 1915   ;;	i2c_startReceive(MPU6050Address, &AccGyro_ReadData, 1, &AccGyro_Data, 14, (cbfI2c)_funcI2CFin);	//Begin I2C Receive Command
                                 1916   CLINEA 0000H 0001H 04B5H 0002H 007CH
00:0018 00'00                    1917   	mov	r0,	#BYTE1 OFFSET __funcI2CFin
00:001A 00'01                    1918   	mov	r1,	#BYTE2 OFFSET __funcI2CFin
00:001C 5E-F0                    1919   	push	er0
00:001E 0E E0                    1920   	mov	er0,	#14
00:0020 5E-F0                    1921   	push	er0
00:0022 00'00                    1922   	mov	r0,	#BYTE1 OFFSET _AccGyro_Data
00:0024 00'01                    1923   	mov	r1,	#BYTE2 OFFSET _AccGyro_Data
00:0026 5E-F0                    1924   	push	er0
00:0028 01 E0                    1925   	mov	er0,	#1 
00:002A 5E-F0                    1926   	push	er0
00:002C 00'02                    1927   	mov	r2,	#BYTE1 OFFSET _AccGyro_ReadData
00:002E 00'03                    1928   	mov	r3,	#BYTE2 OFFSET _AccGyro_ReadData
00:0030 10-90 00-00'             1929   	l	r0,	NEAR _MPU6050Address
00:0034 01-F0'00-00'             1930   	bl	_i2c_startReceive
00:0038 08 E1                    1931   	add	sp,	#8 
                                 1932   
                                 1933   ;;	while(_flgI2CFin != 1){															//Wait for I2C commands to finish transfer
                                 1934   CLINEA 0000H 0000H 04B6H 0001H 0001H
00:003A 02 CE                    1935   	bal	_$L146
                                 1936   
                                 1937   ;;	while(_flgI2CFin != 1){															//Wait for I2C commands to finish transfer
                                 1938   CLINEA 0000H 0000H 04B6H 0002H 0051H
00:003C                          1939   _$L136 :
                                 1940   CBLOCK 221 3 1206
                                 1941   
                                 1942   ;;		main_clrWDT();
                                 1943   CLINEA 0000H 0001H 04B7H 0003H 0010H
00:003C 01-F0'00-00'             1944   	bl	_main_clrWDT
                                 1945   CBLOCKEND 221 3 1208
                                 1946   
                                 1947   ;;	while(_flgI2CFin != 1){															//Wait for I2C commands to finish transfer
                                 1948   CLINEA 0000H 0000H 04B6H 0001H 0001H
00:0040                          1949   _$L146 :
00:0040 10-90 00-00'             1950   	l	r0,	NEAR __flgI2CFin
00:0044 01 70                    1951   	cmp	r0,	#01h
00:0046 FA C8                    1952   	bne	_$L136
                                 1953   
                                 1954   ;;	Accel_Xout[Accel_SavIndex] = (AccGyro_Data[0]<<8)+(AccGyro_Data[1]);
                                 1955   CLINEA 0000H 0001H 04BBH 0002H 0045H
00:0048 10-90 00-00'             1956   	l	r0,	NEAR _AccGyro_Data+01h
00:004C 00 01                    1957   	mov	r1,	#00h
00:004E 10-92 00-00'             1958   	l	r2,	NEAR _AccGyro_Data
00:0052 20-83                    1959   	mov	r3,	r2
00:0054 00 02                    1960   	mov	r2,	#00h
00:0056 26-F0                    1961   	add	er0,	er2
00:0058 10-82                    1962   	mov	r2,	r1
00:005A 2F-83                    1963   	extbw	er2
00:005C 30-82                    1964   	mov	r2,	r3
00:005E 6E-F0                    1965   	push	xr0
00:0060 01-F0'00-00'             1966   	bl	__fildu8sw
00:0064 2E-F0                    1967   	pop	xr0
00:0066 10-94 00-00'             1968   	l	r4,	NEAR _Accel_SavIndex
00:006A 00 05                    1969   	mov	r5,	#00h
00:006C 2B-95                    1970   	sllc	r5,	#02h
00:006E 2A-94                    1971   	sll	r4,	#02h
00:0070 49-A0 00-00'             1972   	st	er0,	NEAR _Accel_Xout[er4]
00:0074 49-A2 00-00'             1973   	st	er2,	NEAR _Accel_Xout+02h[er4]
                                 1974   
                                 1975   ;;	Accel_Yout[Accel_SavIndex] = (AccGyro_Data[2]<<8)+(AccGyro_Data[3]);
                                 1976   CLINEA 0000H 0001H 04BCH 0002H 0045H
00:0078 10-90 00-00'             1977   	l	r0,	NEAR _AccGyro_Data+02h
00:007C 00 01                    1978   	mov	r1,	#00h
00:007E 00-83                    1979   	mov	r3,	r0
00:0080 00 02                    1980   	mov	r2,	#00h
00:0082 10-90 00-00'             1981   	l	r0,	NEAR _AccGyro_Data+03h
00:0086 26-F0                    1982   	add	er0,	er2
00:0088 10-82                    1983   	mov	r2,	r1
00:008A 2F-83                    1984   	extbw	er2
00:008C 30-82                    1985   	mov	r2,	r3
00:008E 6E-F0                    1986   	push	xr0
00:0090 01-F0'00-00'             1987   	bl	__fildu8sw
00:0094 2E-F0                    1988   	pop	xr0
00:0096 49-A0 00-00'             1989   	st	er0,	NEAR _Accel_Yout[er4]
00:009A 49-A2 00-00'             1990   	st	er2,	NEAR _Accel_Yout+02h[er4]
                                 1991   
                                 1992   ;;	Accel_Zout[Accel_SavIndex] = (AccGyro_Data[4]<<8)+(AccGyro_Data[5]);
                                 1993   CLINEA 0000H 0001H 04BDH 0002H 0045H
00:009E 10-90 00-00'             1994   	l	r0,	NEAR _AccGyro_Data+04h
00:00A2 00 01                    1995   	mov	r1,	#00h
00:00A4 00-83                    1996   	mov	r3,	r0
00:00A6 00 02                    1997   	mov	r2,	#00h
00:00A8 10-90 00-00'             1998   	l	r0,	NEAR _AccGyro_Data+05h
00:00AC 26-F0                    1999   	add	er0,	er2
00:00AE 10-82                    2000   	mov	r2,	r1
00:00B0 2F-83                    2001   	extbw	er2
00:00B2 30-82                    2002   	mov	r2,	r3
00:00B4 6E-F0                    2003   	push	xr0
00:00B6 01-F0'00-00'             2004   	bl	__fildu8sw
00:00BA 2E-F0                    2005   	pop	xr0
00:00BC 49-A0 00-00'             2006   	st	er0,	NEAR _Accel_Zout[er4]
00:00C0 49-A2 00-00'             2007   	st	er2,	NEAR _Accel_Zout+02h[er4]
                                 2008   
                                 2009   ;;	Gyro_Xout = (AccGyro_Data[8]<<8)+(AccGyro_Data[9]);
                                 2010   CLINEA 0000H 0001H 04C6H 0002H 0034H
00:00C4 10-90 00-00'             2011   	l	r0,	NEAR _AccGyro_Data+08h
00:00C8 00 01                    2012   	mov	r1,	#00h
00:00CA 00-83                    2013   	mov	r3,	r0
00:00CC 00 02                    2014   	mov	r2,	#00h
00:00CE 10-90 00-00'             2015   	l	r0,	NEAR _AccGyro_Data+09h
00:00D2 26-F0                    2016   	add	er0,	er2
00:00D4 10-82                    2017   	mov	r2,	r1
00:00D6 2F-83                    2018   	extbw	er2
00:00D8 30-82                    2019   	mov	r2,	r3
00:00DA 6E-F0                    2020   	push	xr0
00:00DC 01-F0'00-00'             2021   	bl	__fildu8sw
00:00E0 2E-F0                    2022   	pop	xr0
00:00E2 13-90 00-00'             2023   	st	er0,	NEAR _Gyro_Xout
00:00E6 13-92 00-00'             2024   	st	er2,	NEAR _Gyro_Xout+02h
                                 2025   
                                 2026   ;;	Gyro_Yout = (AccGyro_Data[10]<<8)+(AccGyro_Data[11]);
                                 2027   CLINEA 0000H 0001H 04C7H 0002H 0036H
00:00EA 10-90 00-00'             2028   	l	r0,	NEAR _AccGyro_Data+0ah
00:00EE 00 01                    2029   	mov	r1,	#00h
00:00F0 00-83                    2030   	mov	r3,	r0
00:00F2 00 02                    2031   	mov	r2,	#00h
00:00F4 10-90 00-00'             2032   	l	r0,	NEAR _AccGyro_Data+0bh
00:00F8 26-F0                    2033   	add	er0,	er2
00:00FA 10-82                    2034   	mov	r2,	r1
00:00FC 2F-83                    2035   	extbw	er2
00:00FE 30-82                    2036   	mov	r2,	r3
00:0100 6E-F0                    2037   	push	xr0
00:0102 01-F0'00-00'             2038   	bl	__fildu8sw
00:0106 2E-F0                    2039   	pop	xr0
00:0108 13-90 00-00'             2040   	st	er0,	NEAR _Gyro_Yout
00:010C 13-92 00-00'             2041   	st	er2,	NEAR _Gyro_Yout+02h
                                 2042   
                                 2043   ;;	Gyro_Zout = (AccGyro_Data[12]<<8)+(AccGyro_Data[13]);
                                 2044   CLINEA 0000H 0001H 04C8H 0002H 0036H
00:0110 10-90 00-00'             2045   	l	r0,	NEAR _AccGyro_Data+0ch
00:0114 00 01                    2046   	mov	r1,	#00h
00:0116 00-83                    2047   	mov	r3,	r0
00:0118 00 02                    2048   	mov	r2,	#00h
00:011A 10-90 00-00'             2049   	l	r0,	NEAR _AccGyro_Data+0dh
00:011E 26-F0                    2050   	add	er0,	er2
00:0120 10-82                    2051   	mov	r2,	r1
00:0122 2F-83                    2052   	extbw	er2
00:0124 30-82                    2053   	mov	r2,	r3
00:0126 6E-F0                    2054   	push	xr0
00:0128 01-F0'00-00'             2055   	bl	__fildu8sw
00:012C 2E-F0                    2056   	pop	xr0
00:012E 13-90 00-00'             2057   	st	er0,	NEAR _Gyro_Zout
00:0132 13-92 00-00'             2058   	st	er2,	NEAR _Gyro_Zout+02h
                                 2059   
                                 2060   ;;	Accel_Xout[Accel_SavIndex] -= Accel_Xcal[0];
                                 2061   CLINEA 0000H 0001H 04CAH 0002H 002DH
00:0136 48-A0 00-00'             2062   	l	er0,	NEAR _Accel_Xout[er4]
00:013A 48-A2 00-00'             2063   	l	er2,	NEAR _Accel_Xout+02h[er4]
00:013E 6E-F0                    2064   	push	xr0
00:0140 12-90 00-00'             2065   	l	er0,	NEAR _Accel_Xcal
00:0144 12-92 00-00'             2066   	l	er2,	NEAR _Accel_Xcal+02h
00:0148 6E-F0                    2067   	push	xr0
00:014A 01-F0'00-00'             2068   	bl	__fsubu8sw
00:014E 04 E1                    2069   	add	sp,	#4 
00:0150 2E-F0                    2070   	pop	xr0
00:0152 49-A0 00-00'             2071   	st	er0,	NEAR _Accel_Xout[er4]
00:0156 49-A2 00-00'             2072   	st	er2,	NEAR _Accel_Xout+02h[er4]
                                 2073   
                                 2074   ;;	Accel_Yout[Accel_SavIndex] -= Accel_Ycal[0];
                                 2075   CLINEA 0000H 0001H 04CBH 0002H 002DH
00:015A 48-A0 00-00'             2076   	l	er0,	NEAR _Accel_Yout[er4]
00:015E 48-A2 00-00'             2077   	l	er2,	NEAR _Accel_Yout+02h[er4]
00:0162 6E-F0                    2078   	push	xr0
00:0164 12-90 00-00'             2079   	l	er0,	NEAR _Accel_Ycal
00:0168 12-92 00-00'             2080   	l	er2,	NEAR _Accel_Ycal+02h
00:016C 6E-F0                    2081   	push	xr0
00:016E 01-F0'00-00'             2082   	bl	__fsubu8sw
00:0172 04 E1                    2083   	add	sp,	#4 
00:0174 2E-F0                    2084   	pop	xr0
00:0176 49-A0 00-00'             2085   	st	er0,	NEAR _Accel_Yout[er4]
00:017A 49-A2 00-00'             2086   	st	er2,	NEAR _Accel_Yout+02h[er4]
                                 2087   
                                 2088   ;;	Accel_Zout[Accel_SavIndex] -= Accel_Zcal[0];
                                 2089   CLINEA 0000H 0001H 04CCH 0002H 002DH
00:017E 48-A0 00-00'             2090   	l	er0,	NEAR _Accel_Zout[er4]
00:0182 48-A2 00-00'             2091   	l	er2,	NEAR _Accel_Zout+02h[er4]
00:0186 6E-F0                    2092   	push	xr0
00:0188 12-90 00-00'             2093   	l	er0,	NEAR _Accel_Zcal
00:018C 12-92 00-00'             2094   	l	er2,	NEAR _Accel_Zcal+02h
00:0190 6E-F0                    2095   	push	xr0
00:0192 01-F0'00-00'             2096   	bl	__fsubu8sw
00:0196 04 E1                    2097   	add	sp,	#4 
00:0198 2E-F0                    2098   	pop	xr0
00:019A 49-A0 00-00'             2099   	st	er0,	NEAR _Accel_Zout[er4]
00:019E 49-A2 00-00'             2100   	st	er2,	NEAR _Accel_Zout+02h[er4]
                                 2101   
                                 2102   ;;	Gyro_Xout -= Gyro_Xcal;
                                 2103   CLINEA 0000H 0001H 04CEH 0002H 0018H
00:01A2 12-90 00-00'             2104   	l	er0,	NEAR _Gyro_Xout
00:01A6 12-92 00-00'             2105   	l	er2,	NEAR _Gyro_Xout+02h
00:01AA 6E-F0                    2106   	push	xr0
00:01AC 12-90 00-00'             2107   	l	er0,	NEAR _Gyro_Xcal
00:01B0 12-92 00-00'             2108   	l	er2,	NEAR _Gyro_Xcal+02h
00:01B4 6E-F0                    2109   	push	xr0
00:01B6 01-F0'00-00'             2110   	bl	__fsubu8sw
00:01BA 04 E1                    2111   	add	sp,	#4 
00:01BC 2E-F0                    2112   	pop	xr0
00:01BE 13-90 00-00'             2113   	st	er0,	NEAR _Gyro_Xout
00:01C2 13-92 00-00'             2114   	st	er2,	NEAR _Gyro_Xout+02h
                                 2115   
                                 2116   ;;	Gyro_Yout -= Gyro_Ycal;
                                 2117   CLINEA 0000H 0001H 04CFH 0002H 0018H
00:01C6 12-90 00-00'             2118   	l	er0,	NEAR _Gyro_Yout
00:01CA 12-92 00-00'             2119   	l	er2,	NEAR _Gyro_Yout+02h
00:01CE 6E-F0                    2120   	push	xr0
00:01D0 12-90 00-00'             2121   	l	er0,	NEAR _Gyro_Ycal
00:01D4 12-92 00-00'             2122   	l	er2,	NEAR _Gyro_Ycal+02h
00:01D8 6E-F0                    2123   	push	xr0
00:01DA 01-F0'00-00'             2124   	bl	__fsubu8sw
00:01DE 04 E1                    2125   	add	sp,	#4 
00:01E0 2E-F0                    2126   	pop	xr0
00:01E2 13-90 00-00'             2127   	st	er0,	NEAR _Gyro_Yout
00:01E6 13-92 00-00'             2128   	st	er2,	NEAR _Gyro_Yout+02h
                                 2129   
                                 2130   ;;	Gyro_Zout -= Gyro_Zcal;
                                 2131   CLINEA 0000H 0001H 04D0H 0002H 0018H
00:01EA 12-90 00-00'             2132   	l	er0,	NEAR _Gyro_Zout
00:01EE 12-92 00-00'             2133   	l	er2,	NEAR _Gyro_Zout+02h
00:01F2 6E-F0                    2134   	push	xr0
00:01F4 12-90 00-00'             2135   	l	er0,	NEAR _Gyro_Zcal
00:01F8 12-92 00-00'             2136   	l	er2,	NEAR _Gyro_Zcal+02h
00:01FC 6E-F0                    2137   	push	xr0
00:01FE 01-F0'00-00'             2138   	bl	__fsubu8sw
00:0202 04 E1                    2139   	add	sp,	#4 
00:0204 2E-F0                    2140   	pop	xr0
00:0206 13-90 00-00'             2141   	st	er0,	NEAR _Gyro_Zout
00:020A 13-92 00-00'             2142   	st	er2,	NEAR _Gyro_Zout+02h
                                 2143   
                                 2144   ;;	for(i=0; i<AccelAvg; i++)
                                 2145   CLINEA 0000H 0001H 04D2H 0002H 001AH
00:020E 00 E0                    2146   	mov	er0,	#0 
00:0210 13-90 00-00'             2147   	st	er0,	NEAR _$ST0
00:0214                          2148   _$L140 :
                                 2149   CBLOCK 221 4 1235
                                 2150   
                                 2151   ;;		Accel_Xout_Avg += Accel_Xout[i];
                                 2152   CLINEA 0000H 0001H 04D4H 0003H 0022H
00:0214 05-F4                    2153   	mov	er4,	er0
00:0216 2B-95                    2154   	sllc	r5,	#02h
00:0218 2A-94                    2155   	sll	r4,	#02h
00:021A 48-A8 00-00'             2156   	l	er8,	NEAR _Accel_Xout[er4]
00:021E 48-AA 00-00'             2157   	l	er10,	NEAR _Accel_Xout+02h[er4]
00:0222 6E-F8                    2158   	push	xr8
00:0224 12-90 00-00'             2159   	l	er0,	NEAR _Accel_Xout_Avg
00:0228 12-92 00-00'             2160   	l	er2,	NEAR _Accel_Xout_Avg+02h
00:022C 6E-F0                    2161   	push	xr0
00:022E 01-F0'00-00'             2162   	bl	__faddu8sw
00:0232 04 E1                    2163   	add	sp,	#4 
00:0234 2E-F0                    2164   	pop	xr0
00:0236 13-90 00-00'             2165   	st	er0,	NEAR _Accel_Xout_Avg
00:023A 13-92 00-00'             2166   	st	er2,	NEAR _Accel_Xout_Avg+02h
                                 2167   
                                 2168   ;;		Accel_Yout_Avg += Accel_Yout[i];
                                 2169   CLINEA 0000H 0001H 04D5H 0003H 0022H
00:023E 48-A8 00-00'             2170   	l	er8,	NEAR _Accel_Yout[er4]
00:0242 48-AA 00-00'             2171   	l	er10,	NEAR _Accel_Yout+02h[er4]
00:0246 6E-F8                    2172   	push	xr8
00:0248 12-90 00-00'             2173   	l	er0,	NEAR _Accel_Yout_Avg
00:024C 12-92 00-00'             2174   	l	er2,	NEAR _Accel_Yout_Avg+02h
00:0250 6E-F0                    2175   	push	xr0
00:0252 01-F0'00-00'             2176   	bl	__faddu8sw
00:0256 04 E1                    2177   	add	sp,	#4 
00:0258 2E-F0                    2178   	pop	xr0
00:025A 13-90 00-00'             2179   	st	er0,	NEAR _Accel_Yout_Avg
00:025E 13-92 00-00'             2180   	st	er2,	NEAR _Accel_Yout_Avg+02h
                                 2181   
                                 2182   ;;		Accel_Zout_Avg += Accel_Zout[i];
                                 2183   CLINEA 0000H 0001H 04D6H 0003H 0022H
00:0262 48-A0 00-00'             2184   	l	er0,	NEAR _Accel_Zout[er4]
00:0266 48-A2 00-00'             2185   	l	er2,	NEAR _Accel_Zout+02h[er4]
00:026A 6E-F0                    2186   	push	xr0
00:026C 12-90 00-00'             2187   	l	er0,	NEAR _Accel_Zout_Avg
00:0270 12-92 00-00'             2188   	l	er2,	NEAR _Accel_Zout_Avg+02h
00:0274 6E-F0                    2189   	push	xr0
00:0276 01-F0'00-00'             2190   	bl	__faddu8sw
00:027A 04 E1                    2191   	add	sp,	#4 
00:027C 2E-F0                    2192   	pop	xr0
00:027E 13-90 00-00'             2193   	st	er0,	NEAR _Accel_Zout_Avg
00:0282 13-92 00-00'             2194   	st	er2,	NEAR _Accel_Zout_Avg+02h
                                 2195   CBLOCKEND 221 4 1239
                                 2196   
                                 2197   ;;	for(i=0; i<AccelAvg; i++)
                                 2198   CLINEA 0000H 0000H 04D2H 0002H 001AH
00:0286 12-90 00-00'             2199   	l	er0,	NEAR _$ST0
00:028A 81 E0                    2200   	add	er0,	#1 
00:028C 13-90 00-00'             2201   	st	er0,	NEAR _$ST0
00:0290 0F 70                    2202   	cmp	r0,	#0fh
00:0292 00 51                    2203   	cmpc	r1,	#00h
00:0294 BF C5                    2204   	blts	_$L140
                                 2205   
                                 2206   ;;	Accel_Xout_Avg /= AccelAvg;
                                 2207   CLINEA 0000H 0001H 04D8H 0002H 001CH
00:0296 12-90 00-00'             2208   	l	er0,	NEAR _Accel_Xout_Avg
00:029A 12-92 00-00'             2209   	l	er2,	NEAR _Accel_Xout_Avg+02h
00:029E 6E-F0                    2210   	push	xr0
00:02A0 00 E0                    2211   	mov	er0,	#0 
00:02A2 70 02                    2212   	mov	r2,	#070h
00:02A4 41 03                    2213   	mov	r3,	#041h
00:02A6 6E-F0                    2214   	push	xr0
00:02A8 01-F0'00-00'             2215   	bl	__fdivu8sw
00:02AC 04 E1                    2216   	add	sp,	#4 
00:02AE 2E-F0                    2217   	pop	xr0
00:02B0 13-90 00-00'             2218   	st	er0,	NEAR _Accel_Xout_Avg
00:02B4 13-92 00-00'             2219   	st	er2,	NEAR _Accel_Xout_Avg+02h
                                 2220   
                                 2221   ;;	Accel_Yout_Avg /= AccelAvg;
                                 2222   CLINEA 0000H 0001H 04D9H 0002H 001CH
00:02B8 12-90 00-00'             2223   	l	er0,	NEAR _Accel_Yout_Avg
00:02BC 12-92 00-00'             2224   	l	er2,	NEAR _Accel_Yout_Avg+02h
00:02C0 6E-F0                    2225   	push	xr0
00:02C2 00 E0                    2226   	mov	er0,	#0 
00:02C4 70 02                    2227   	mov	r2,	#070h
00:02C6 41 03                    2228   	mov	r3,	#041h
00:02C8 6E-F0                    2229   	push	xr0
00:02CA 01-F0'00-00'             2230   	bl	__fdivu8sw
00:02CE 04 E1                    2231   	add	sp,	#4 
00:02D0 2E-F0                    2232   	pop	xr0
00:02D2 13-90 00-00'             2233   	st	er0,	NEAR _Accel_Yout_Avg
00:02D6 13-92 00-00'             2234   	st	er2,	NEAR _Accel_Yout_Avg+02h
                                 2235   
                                 2236   ;;	Accel_Zout_Avg /= AccelAvg;
                                 2237   CLINEA 0000H 0001H 04DAH 0002H 001CH
00:02DA 12-90 00-00'             2238   	l	er0,	NEAR _Accel_Zout_Avg
00:02DE 12-92 00-00'             2239   	l	er2,	NEAR _Accel_Zout_Avg+02h
00:02E2 6E-F0                    2240   	push	xr0
00:02E4 00 E0                    2241   	mov	er0,	#0 
00:02E6 70 02                    2242   	mov	r2,	#070h
00:02E8 41 03                    2243   	mov	r3,	#041h
00:02EA 6E-F0                    2244   	push	xr0
00:02EC 01-F0'00-00'             2245   	bl	__fdivu8sw
00:02F0 04 E1                    2246   	add	sp,	#4 
00:02F2 2E-F0                    2247   	pop	xr0
00:02F4 13-90 00-00'             2248   	st	er0,	NEAR _Accel_Zout_Avg
00:02F8 13-92 00-00'             2249   	st	er2,	NEAR _Accel_Zout_Avg+02h
                                 2250   
                                 2251   ;;	Accel_SavIndex++;
                                 2252   CLINEA 0000H 0000H 04DDH 0002H 0012H
00:02FC 0C-F0 00-00'             2253   	lea	OFFSET _Accel_SavIndex
00:0300 2F-FE                    2254   	inc	[ea]
00:0302 10-90 00-00'             2255   	l	r0,	NEAR _Accel_SavIndex
                                 2256   
                                 2257   ;;	if(Accel_SavIndex >= AccelAvg){
                                 2258   CLINEA 0000H 0001H 04DEH 0002H 0020H
00:0306 0F 70                    2259   	cmp	r0,	#0fh
00:0308 03 C1                    2260   	blt	_$L144
                                 2261   CBLOCK 221 5 1246
                                 2262   
                                 2263   ;;		Accel_SavIndex = 0;
                                 2264   CLINEA 0000H 0001H 04DFH 0003H 0015H
00:030A 00 00                    2265   	mov	r0,	#00h
00:030C 11-90 00-00'             2266   	st	r0,	NEAR _Accel_SavIndex
                                 2267   CBLOCKEND 221 5 1248
                                 2268   
                                 2269   ;;	}
                                 2270   CLINEA 0000H 0000H 04E0H 0002H 0002H
00:0310                          2271   _$L144 :
                                 2272   
                                 2273   ;;	EPB3 = 1;		//Turns Accel/Gyro Interrupt back on... again, this may not be necessary
                                 2274   CLINEA 0000H 0001H 04E3H 0002H 0054H
00:0310 F0-A0 11-F0              2275   	sb	0f011h.7
                                 2276   
                                 2277   ;;	AccGyro_CF_FlagCounter++;	//Counts up to the number of values are in the buffer so main loop can call CF filter function
                                 2278   CLINEA 0000H 0000H 04E4H 0002H 0079H
00:0314 0C-F0 00-00'             2279   	lea	OFFSET _AccGyro_CF_FlagCounter
00:0318 2F-FE                    2280   	inc	[ea]
                                 2281   CBLOCKEND 221 2 1253
                                 2282   
                                 2283   ;;}
                                 2284   CLINEA 0000H 0001H 04E5H 0001H 0001H
00:031A 1E-F4                    2285   	pop	er4
00:031C 2E-F8                    2286   	pop	xr8
00:031E 8E-F2                    2287   	pop	pc
                                 2288   CBLOCKEND 221 1 1253
                                 2289   CFUNCTIONEND 221
                                 2290   
                                 2291   
  --------------------------     2292   	rseg $$Run_AccGyroCF$main
                                 2293   CFUNCTION 222
                                 2294   
00:0000                          2295   _Run_AccGyroCF	:
                                 2296   CBLOCK 222 1 1255
                                 2297   
                                 2298   ;;void Run_AccGyroCF(void){
                                 2299   CLINEA 0000H 0001H 04E7H 0001H 0019H
00:0000 CE-F8                    2300   	push	lr
00:0002 5E-FE                    2301   	push	fp
00:0004 1A-AE                    2302   	mov	fp,	sp
00:0006 F8 E1                    2303   	add	sp,	#-08
00:0008 6E-F4                    2304   	push	xr4
                                 2305   CBLOCK 222 2 1255
                                 2306   CRET 000EH
                                 2307   CSLOCAL 43H 0002H 0001H 0002H "i" 02H 00H 01H
                                 2308   CSLOCAL 43H 0001H 0002H 0002H "I2CCont" 02H 00H 00H
                                 2309   
                                 2310   ;;	CF_Gyro_CurrentCount = CF_Gyro_Counter * .001;		//Timer in Seconds (.007 used to convert 128Hz TBC to seconds)
                                 2311   CLINEA 0000H 0001H 04EDH 0002H 006FH
00:000A 12-90 00-00'             2312   	l	er0,	NEAR _CF_Gyro_Counter
00:000E 12-92 00-00'             2313   	l	er2,	NEAR _CF_Gyro_Counter+02h
00:0012 6E-F0                    2314   	push	xr0
00:0014 FC E1                    2315   	add	sp,	#-4
00:0016 01-F0'00-00'             2316   	bl	__ftodu8sw
00:001A FC 00                    2317   	mov	r0,	#0fch
00:001C A9 01                    2318   	mov	r1,	#0a9h
00:001E F1 02                    2319   	mov	r2,	#0f1h
00:0020 D2 03                    2320   	mov	r3,	#0d2h
00:0022 4D 04                    2321   	mov	r4,	#04dh
00:0024 62 05                    2322   	mov	r5,	#062h
00:0026 50 06                    2323   	mov	r6,	#050h
00:0028 3F 07                    2324   	mov	r7,	#03fh
00:002A 7E-F0                    2325   	push	qr0
00:002C 01-F0'00-00'             2326   	bl	__dmulu8sw
00:0030 08 E1                    2327   	add	sp,	#8 
00:0032 01-F0'00-00'             2328   	bl	__dtofu8sw
00:0036 04 E1                    2329   	add	sp,	#4 
00:0038 2E-F0                    2330   	pop	xr0
00:003A 13-90 00-00'             2331   	st	er0,	NEAR _CF_Gyro_CurrentCount
00:003E 13-92 00-00'             2332   	st	er2,	NEAR _CF_Gyro_CurrentCount+02h
                                 2333   
                                 2334   ;;	CF_Gyro_Counter = 0;
                                 2335   CLINEA 0000H 0001H 04EEH 0002H 0015H
00:0042 00 E0                    2336   	mov	er0,	#0 
00:0044 13-90 00-00'             2337   	st	er0,	NEAR _CF_Gyro_Counter
00:0048 13-90 00-00'             2338   	st	er0,	NEAR _CF_Gyro_Counter+02h
                                 2339   
                                 2340   ;;	CF_Gyro_YPitch = CF_YPitch + ((Gyro_Xout/AccGyro_GyroScaling) * CF_Gyro_CurrentCount);
                                 2341   CLINEA 0000H 0001H 04F0H 0002H 0057H
00:004C 12-90 00-00'             2342   	l	er0,	NEAR _Gyro_Xout
00:0050 12-92 00-00'             2343   	l	er2,	NEAR _Gyro_Xout+02h
00:0054 6E-F0                    2344   	push	xr0
00:0056 12-90 00-00'             2345   	l	er0,	NEAR _AccGyro_GyroScaling
00:005A 12-92 00-00'             2346   	l	er2,	NEAR _AccGyro_GyroScaling+02h
00:005E 6E-F0                    2347   	push	xr0
00:0060 01-F0'00-00'             2348   	bl	__fdivu8sw
00:0064 04 E1                    2349   	add	sp,	#4 
00:0066 12-90 00-00'             2350   	l	er0,	NEAR _CF_Gyro_CurrentCount
00:006A 12-92 00-00'             2351   	l	er2,	NEAR _CF_Gyro_CurrentCount+02h
00:006E 6E-F0                    2352   	push	xr0
00:0070 01-F0'00-00'             2353   	bl	__fmulu8sw
00:0074 04 E1                    2354   	add	sp,	#4 
00:0076 12-90 00-00'             2355   	l	er0,	NEAR _CF_YPitch
00:007A 12-92 00-00'             2356   	l	er2,	NEAR _CF_YPitch+02h
00:007E 6E-F0                    2357   	push	xr0
00:0080 01-F0'00-00'             2358   	bl	__faddu8sw
00:0084 04 E1                    2359   	add	sp,	#4 
00:0086 2E-F0                    2360   	pop	xr0
00:0088 13-90 00-00'             2361   	st	er0,	NEAR _CF_Gyro_YPitch
00:008C 13-92 00-00'             2362   	st	er2,	NEAR _CF_Gyro_YPitch+02h
                                 2363   
                                 2364   ;;	CF_Gyro_XRoll = CF_XRoll - ((Gyro_Yout/AccGyro_GyroScaling) * CF_Gyro_CurrentCount);	
                                 2365   CLINEA 0000H 0001H 04F1H 0002H 0056H
00:0090 12-90 00-00'             2366   	l	er0,	NEAR _Gyro_Yout
00:0094 12-92 00-00'             2367   	l	er2,	NEAR _Gyro_Yout+02h
00:0098 6E-F0                    2368   	push	xr0
00:009A 12-90 00-00'             2369   	l	er0,	NEAR _AccGyro_GyroScaling
00:009E 12-92 00-00'             2370   	l	er2,	NEAR _AccGyro_GyroScaling+02h
00:00A2 6E-F0                    2371   	push	xr0
00:00A4 01-F0'00-00'             2372   	bl	__fdivu8sw
00:00A8 04 E1                    2373   	add	sp,	#4 
00:00AA 12-90 00-00'             2374   	l	er0,	NEAR _CF_Gyro_CurrentCount
00:00AE 12-92 00-00'             2375   	l	er2,	NEAR _CF_Gyro_CurrentCount+02h
00:00B2 6E-F0                    2376   	push	xr0
00:00B4 01-F0'00-00'             2377   	bl	__fmulu8sw
00:00B8 04 E1                    2378   	add	sp,	#4 
00:00BA 2E-F0                    2379   	pop	xr0
00:00BC 12-94 00-00'             2380   	l	er4,	NEAR _CF_XRoll
00:00C0 12-96 00-00'             2381   	l	er6,	NEAR _CF_XRoll+02h
00:00C4 7E-F0                    2382   	push	qr0
00:00C6 01-F0'00-00'             2383   	bl	__fsubu8sw
00:00CA 04 E1                    2384   	add	sp,	#4 
00:00CC 2E-F0                    2385   	pop	xr0
00:00CE 13-90 00-00'             2386   	st	er0,	NEAR _CF_Gyro_XRoll
00:00D2 13-92 00-00'             2387   	st	er2,	NEAR _CF_Gyro_XRoll+02h
                                 2388   
                                 2389   ;;	CF_Accel_ForceMagApprox = abs(Accel_Xout_Avg) + abs(Accel_Yout_Avg) + abs(Accel_Zout_Avg);
                                 2390   CLINEA 0000H 0000H 04F3H 0002H 005BH
00:00D6 12-90 00-00'             2391   	l	er0,	NEAR _Accel_Xout_Avg
00:00DA 12-92 00-00'             2392   	l	er2,	NEAR _Accel_Xout_Avg+02h
00:00DE 6E-F0                    2393   	push	xr0
00:00E0 01-F0'00-00'             2394   	bl	__ftolu8sw
00:00E4 1E-F0                    2395   	pop	er0
00:00E6 02 E1                    2396   	add	sp,	#2 
00:00E8 01-F0'00-00'             2397   	bl	_abs
00:00EC 05-F4                    2398   	mov	er4,	er0
00:00EE 12-90 00-00'             2399   	l	er0,	NEAR _Accel_Yout_Avg
00:00F2 12-92 00-00'             2400   	l	er2,	NEAR _Accel_Yout_Avg+02h
00:00F6 6E-F0                    2401   	push	xr0
00:00F8 01-F0'00-00'             2402   	bl	__ftolu8sw
00:00FC 1E-F0                    2403   	pop	er0
00:00FE 02 E1                    2404   	add	sp,	#2 
00:0100 01-F0'00-00'             2405   	bl	_abs
00:0104 06-F4                    2406   	add	er4,	er0
00:0106 12-90 00-00'             2407   	l	er0,	NEAR _Accel_Zout_Avg
00:010A 12-92 00-00'             2408   	l	er2,	NEAR _Accel_Zout_Avg+02h
00:010E 6E-F0                    2409   	push	xr0
00:0110 01-F0'00-00'             2410   	bl	__ftolu8sw
00:0114 1E-F0                    2411   	pop	er0
00:0116 02 E1                    2412   	add	sp,	#2 
00:0118 01-F0'00-00'             2413   	bl	_abs
00:011C 05-F2                    2414   	mov	er2,	er0
00:011E 45-F0                    2415   	mov	er0,	er4
00:0120 26-F0                    2416   	add	er0,	er2
00:0122 10-82                    2417   	mov	r2,	r1
00:0124 2F-83                    2418   	extbw	er2
00:0126 30-82                    2419   	mov	r2,	r3
00:0128 6E-F0                    2420   	push	xr0
00:012A 01-F0'00-00'             2421   	bl	__fildu8sw
00:012E 2E-F0                    2422   	pop	xr0
00:0130 13-90 00-00'             2423   	st	er0,	NEAR _CF_Accel_ForceMagApprox
00:0134 13-92 00-00'             2424   	st	er2,	NEAR _CF_Accel_ForceMagApprox+02h
                                 2425   
                                 2426   ;;	if (CF_Accel_ForceMagApprox > 16384 && CF_Accel_ForceMagApprox < 32768)
                                 2427   CLINEA 0000H 0001H 04F4H 0002H 0048H
00:0138 6E-F0                    2428   	push	xr0
00:013A 00 E0                    2429   	mov	er0,	#0 
00:013C 80 02                    2430   	mov	r2,	#080h
00:013E 46 03                    2431   	mov	r3,	#046h
00:0140 6E-F0                    2432   	push	xr0
00:0142 01-F0'00-00'             2433   	bl	__fcmpu8sw
00:0146 08 E1                    2434   	add	sp,	#8 
00:0148 0B-A0                    2435   	mov	psw,	r0
00:014A 02 C2                    2436   	bgt	_$M8
00:014C 00-F0'00-00'             2437   	b	_$L148
00:0150                          2438   _$M8 :
00:0150 12-90 00-00'             2439   	l	er0,	NEAR _CF_Accel_ForceMagApprox
00:0154 12-92 00-00'             2440   	l	er2,	NEAR _CF_Accel_ForceMagApprox+02h
00:0158 6E-F0                    2441   	push	xr0
00:015A 00 E0                    2442   	mov	er0,	#0 
00:015C 00 02                    2443   	mov	r2,	#00h
00:015E 47 03                    2444   	mov	r3,	#047h
00:0160 6E-F0                    2445   	push	xr0
00:0162 01-F0'00-00'             2446   	bl	__fcmpu8sw
00:0166 08 E1                    2447   	add	sp,	#8 
00:0168 0B-A0                    2448   	mov	psw,	r0
00:016A 02 C1                    2449   	blt	_$M9
00:016C 00-F0'00-00'             2450   	b	_$L148
00:0170                          2451   _$M9 :
                                 2452   CBLOCK 222 3 1269
                                 2453   
                                 2454   ;;        CF_Accel_YPitch = atan2(Accel_Yout_Avg, Accel_Zout_Avg) * (57.29);	//57.29 = 180deg/pi
                                 2455   CLINEA 0000H 0000H 04F7H 0009H 005EH
00:0170 12-90 00-00'             2456   	l	er0,	NEAR _Accel_Zout_Avg
00:0174 12-92 00-00'             2457   	l	er2,	NEAR _Accel_Zout_Avg+02h
00:0178 6E-F0                    2458   	push	xr0
00:017A FC E1                    2459   	add	sp,	#-4
00:017C 01-F0'00-00'             2460   	bl	__ftodu8sw
00:0180 12-90 00-00'             2461   	l	er0,	NEAR _Accel_Yout_Avg
00:0184 12-92 00-00'             2462   	l	er2,	NEAR _Accel_Yout_Avg+02h
00:0188 6E-F0                    2463   	push	xr0
00:018A FC E1                    2464   	add	sp,	#-4
00:018C 01-F0'00-00'             2465   	bl	__ftodu8sw
00:0190 E5-F0                    2466   	mov	er0,	fp
00:0192 F8 E0                    2467   	add	er0,	#-8
00:0194 01-F0'00-00'             2468   	bl	_atan2
00:0198 10 E1                    2469   	add	sp,	#16
00:019A EB-F0 F8-FF              2470   	lea	-8[fp]
00:019E 36-90                    2471   	l	qr0,	[ea]
00:01A0 7E-F0                    2472   	push	qr0
00:01A2 85 00                    2473   	mov	r0,	#085h
00:01A4 EB 01                    2474   	mov	r1,	#0ebh
00:01A6 51 02                    2475   	mov	r2,	#051h
00:01A8 B8 03                    2476   	mov	r3,	#0b8h
00:01AA 1E 04                    2477   	mov	r4,	#01eh
00:01AC A5 05                    2478   	mov	r5,	#0a5h
00:01AE 4C 06                    2479   	mov	r6,	#04ch
00:01B0 40 07                    2480   	mov	r7,	#040h
00:01B2 7E-F0                    2481   	push	qr0
00:01B4 01-F0'00-00'             2482   	bl	__dmulu8sw
00:01B8 08 E1                    2483   	add	sp,	#8 
00:01BA 01-F0'00-00'             2484   	bl	__dtofu8sw
00:01BE 04 E1                    2485   	add	sp,	#4 
00:01C0 2E-F0                    2486   	pop	xr0
00:01C2 13-90 00-00'             2487   	st	er0,	NEAR _CF_Accel_YPitch
00:01C6 13-92 00-00'             2488   	st	er2,	NEAR _CF_Accel_YPitch+02h
                                 2489   
                                 2490   ;;        CF_YPitch = (CF_Gyro_YPitch * CF_HPF) + (CF_Accel_YPitch * CF_LPF);
                                 2491   CLINEA 0000H 0001H 04F8H 0009H 004BH
00:01CA 12-90 00-00'             2492   	l	er0,	NEAR _CF_Gyro_YPitch
00:01CE 12-92 00-00'             2493   	l	er2,	NEAR _CF_Gyro_YPitch+02h
00:01D2 6E-F0                    2494   	push	xr0
00:01D4 12-90 00-00'             2495   	l	er0,	NEAR _CF_HPF
00:01D8 12-92 00-00'             2496   	l	er2,	NEAR _CF_HPF+02h
00:01DC 6E-F0                    2497   	push	xr0
00:01DE 01-F0'00-00'             2498   	bl	__fmulu8sw
00:01E2 04 E1                    2499   	add	sp,	#4 
00:01E4 2E-F0                    2500   	pop	xr0
00:01E6 12-94 00-00'             2501   	l	er4,	NEAR _CF_Accel_YPitch
00:01EA 12-96 00-00'             2502   	l	er6,	NEAR _CF_Accel_YPitch+02h
00:01EE 6E-F4                    2503   	push	xr4
00:01F0 12-94 00-00'             2504   	l	er4,	NEAR _CF_LPF
00:01F4 12-96 00-00'             2505   	l	er6,	NEAR _CF_LPF+02h
00:01F8 6E-F4                    2506   	push	xr4
00:01FA 01-F0'00-00'             2507   	bl	__fmulu8sw
00:01FE 04 E1                    2508   	add	sp,	#4 
00:0200 2E-F4                    2509   	pop	xr4
00:0202 6E-F0                    2510   	push	xr0
00:0204 6E-F4                    2511   	push	xr4
00:0206 01-F0'00-00'             2512   	bl	__faddu8sw
00:020A 04 E1                    2513   	add	sp,	#4 
00:020C 2E-F0                    2514   	pop	xr0
00:020E 13-90 00-00'             2515   	st	er0,	NEAR _CF_YPitch
00:0212 13-92 00-00'             2516   	st	er2,	NEAR _CF_YPitch+02h
                                 2517   
                                 2518   ;;        CF_Accel_XRoll = atan2(Accel_Xout_Avg, Accel_Zout_Avg) * (57.29);
                                 2519   CLINEA 0000H 0000H 04FBH 0009H 0049H
00:0216 12-90 00-00'             2520   	l	er0,	NEAR _Accel_Zout_Avg
00:021A 12-92 00-00'             2521   	l	er2,	NEAR _Accel_Zout_Avg+02h
00:021E 6E-F0                    2522   	push	xr0
00:0220 FC E1                    2523   	add	sp,	#-4
00:0222 01-F0'00-00'             2524   	bl	__ftodu8sw
00:0226 12-90 00-00'             2525   	l	er0,	NEAR _Accel_Xout_Avg
00:022A 12-92 00-00'             2526   	l	er2,	NEAR _Accel_Xout_Avg+02h
00:022E 6E-F0                    2527   	push	xr0
00:0230 FC E1                    2528   	add	sp,	#-4
00:0232 01-F0'00-00'             2529   	bl	__ftodu8sw
00:0236 E5-F0                    2530   	mov	er0,	fp
00:0238 F8 E0                    2531   	add	er0,	#-8
00:023A 01-F0'00-00'             2532   	bl	_atan2
00:023E 10 E1                    2533   	add	sp,	#16
00:0240 EB-F0 F8-FF              2534   	lea	-8[fp]
00:0244 36-90                    2535   	l	qr0,	[ea]
00:0246 7E-F0                    2536   	push	qr0
00:0248 85 00                    2537   	mov	r0,	#085h
00:024A EB 01                    2538   	mov	r1,	#0ebh
00:024C 51 02                    2539   	mov	r2,	#051h
00:024E B8 03                    2540   	mov	r3,	#0b8h
00:0250 1E 04                    2541   	mov	r4,	#01eh
00:0252 A5 05                    2542   	mov	r5,	#0a5h
00:0254 4C 06                    2543   	mov	r6,	#04ch
00:0256 40 07                    2544   	mov	r7,	#040h
00:0258 7E-F0                    2545   	push	qr0
00:025A 01-F0'00-00'             2546   	bl	__dmulu8sw
00:025E 08 E1                    2547   	add	sp,	#8 
00:0260 01-F0'00-00'             2548   	bl	__dtofu8sw
00:0264 04 E1                    2549   	add	sp,	#4 
00:0266 2E-F0                    2550   	pop	xr0
00:0268 13-90 00-00'             2551   	st	er0,	NEAR _CF_Accel_XRoll
00:026C 13-92 00-00'             2552   	st	er2,	NEAR _CF_Accel_XRoll+02h
                                 2553   
                                 2554   ;;        CF_XRoll = (CF_Gyro_XRoll * CF_HPF) + (CF_Accel_XRoll * CF_LPF);
                                 2555   CLINEA 0000H 0001H 04FCH 0009H 0048H
00:0270 12-90 00-00'             2556   	l	er0,	NEAR _CF_Gyro_XRoll
00:0274 12-92 00-00'             2557   	l	er2,	NEAR _CF_Gyro_XRoll+02h
00:0278 6E-F0                    2558   	push	xr0
00:027A 12-90 00-00'             2559   	l	er0,	NEAR _CF_HPF
00:027E 12-92 00-00'             2560   	l	er2,	NEAR _CF_HPF+02h
00:0282 6E-F0                    2561   	push	xr0
00:0284 01-F0'00-00'             2562   	bl	__fmulu8sw
00:0288 04 E1                    2563   	add	sp,	#4 
00:028A 2E-F0                    2564   	pop	xr0
00:028C 12-94 00-00'             2565   	l	er4,	NEAR _CF_Accel_XRoll
00:0290 12-96 00-00'             2566   	l	er6,	NEAR _CF_Accel_XRoll+02h
00:0294 6E-F4                    2567   	push	xr4
00:0296 12-94 00-00'             2568   	l	er4,	NEAR _CF_LPF
00:029A 12-96 00-00'             2569   	l	er6,	NEAR _CF_LPF+02h
00:029E 6E-F4                    2570   	push	xr4
00:02A0 01-F0'00-00'             2571   	bl	__fmulu8sw
00:02A4 04 E1                    2572   	add	sp,	#4 
00:02A6 2E-F4                    2573   	pop	xr4
00:02A8 6E-F0                    2574   	push	xr0
00:02AA 6E-F4                    2575   	push	xr4
00:02AC 01-F0'00-00'             2576   	bl	__faddu8sw
00:02B0 04 E1                    2577   	add	sp,	#4 
00:02B2 2E-F0                    2578   	pop	xr0
                                 2579   CBLOCKEND 222 3 1277
                                 2580   
                                 2581   ;;	else{
                                 2582   CLINEA 0000H 0001H 04FEH 0002H 0006H
00:02B4 00-F0'00-00'             2583   	b	_$L155
00:02B8                          2584   _$L148 :
                                 2585   CBLOCK 222 4 1278
                                 2586   
                                 2587   ;;        CF_Accel_YPitch = atan2(Accel_Yout_Avg, Accel_Zout_Avg) * (57.29);	//57.29 = 180deg/pi
                                 2588   CLINEA 0000H 0000H 0500H 0009H 005EH
00:02B8 12-90 00-00'             2589   	l	er0,	NEAR _Accel_Zout_Avg
00:02BC 12-92 00-00'             2590   	l	er2,	NEAR _Accel_Zout_Avg+02h
00:02C0 6E-F0                    2591   	push	xr0
00:02C2 FC E1                    2592   	add	sp,	#-4
00:02C4 01-F0'00-00'             2593   	bl	__ftodu8sw
00:02C8 12-90 00-00'             2594   	l	er0,	NEAR _Accel_Yout_Avg
00:02CC 12-92 00-00'             2595   	l	er2,	NEAR _Accel_Yout_Avg+02h
00:02D0 6E-F0                    2596   	push	xr0
00:02D2 FC E1                    2597   	add	sp,	#-4
00:02D4 01-F0'00-00'             2598   	bl	__ftodu8sw
00:02D8 E5-F0                    2599   	mov	er0,	fp
00:02DA F8 E0                    2600   	add	er0,	#-8
00:02DC 01-F0'00-00'             2601   	bl	_atan2
00:02E0 10 E1                    2602   	add	sp,	#16
00:02E2 EB-F0 F8-FF              2603   	lea	-8[fp]
00:02E6 36-90                    2604   	l	qr0,	[ea]
00:02E8 7E-F0                    2605   	push	qr0
00:02EA 85 00                    2606   	mov	r0,	#085h
00:02EC EB 01                    2607   	mov	r1,	#0ebh
00:02EE 51 02                    2608   	mov	r2,	#051h
00:02F0 B8 03                    2609   	mov	r3,	#0b8h
00:02F2 1E 04                    2610   	mov	r4,	#01eh
00:02F4 A5 05                    2611   	mov	r5,	#0a5h
00:02F6 4C 06                    2612   	mov	r6,	#04ch
00:02F8 40 07                    2613   	mov	r7,	#040h
00:02FA 7E-F0                    2614   	push	qr0
00:02FC 01-F0'00-00'             2615   	bl	__dmulu8sw
00:0300 08 E1                    2616   	add	sp,	#8 
00:0302 01-F0'00-00'             2617   	bl	__dtofu8sw
00:0306 04 E1                    2618   	add	sp,	#4 
00:0308 2E-F0                    2619   	pop	xr0
00:030A 13-90 00-00'             2620   	st	er0,	NEAR _CF_Accel_YPitch
00:030E 13-92 00-00'             2621   	st	er2,	NEAR _CF_Accel_YPitch+02h
                                 2622   
                                 2623   ;;		CF_YPitch = CF_Gyro_YPitch;
                                 2624   CLINEA 0000H 0001H 0501H 0003H 001DH
00:0312 12-90 00-00'             2625   	l	er0,	NEAR _CF_Gyro_YPitch
00:0316 12-92 00-00'             2626   	l	er2,	NEAR _CF_Gyro_YPitch+02h
00:031A 13-90 00-00'             2627   	st	er0,	NEAR _CF_YPitch
00:031E 13-92 00-00'             2628   	st	er2,	NEAR _CF_YPitch+02h
                                 2629   
                                 2630   ;;        CF_Accel_XRoll = atan2(Accel_Xout_Avg, Accel_Zout_Avg) * (57.29);
                                 2631   CLINEA 0000H 0000H 0504H 0009H 0049H
00:0322 12-90 00-00'             2632   	l	er0,	NEAR _Accel_Zout_Avg
00:0326 12-92 00-00'             2633   	l	er2,	NEAR _Accel_Zout_Avg+02h
00:032A 6E-F0                    2634   	push	xr0
00:032C FC E1                    2635   	add	sp,	#-4
00:032E 01-F0'00-00'             2636   	bl	__ftodu8sw
00:0332 12-90 00-00'             2637   	l	er0,	NEAR _Accel_Xout_Avg
00:0336 12-92 00-00'             2638   	l	er2,	NEAR _Accel_Xout_Avg+02h
00:033A 6E-F0                    2639   	push	xr0
00:033C FC E1                    2640   	add	sp,	#-4
00:033E 01-F0'00-00'             2641   	bl	__ftodu8sw
00:0342 E5-F0                    2642   	mov	er0,	fp
00:0344 F8 E0                    2643   	add	er0,	#-8
00:0346 01-F0'00-00'             2644   	bl	_atan2
00:034A 10 E1                    2645   	add	sp,	#16
00:034C EB-F0 F8-FF              2646   	lea	-8[fp]
00:0350 36-90                    2647   	l	qr0,	[ea]
00:0352 7E-F0                    2648   	push	qr0
00:0354 85 00                    2649   	mov	r0,	#085h
00:0356 EB 01                    2650   	mov	r1,	#0ebh
00:0358 51 02                    2651   	mov	r2,	#051h
00:035A B8 03                    2652   	mov	r3,	#0b8h
00:035C 1E 04                    2653   	mov	r4,	#01eh
00:035E A5 05                    2654   	mov	r5,	#0a5h
00:0360 4C 06                    2655   	mov	r6,	#04ch
00:0362 40 07                    2656   	mov	r7,	#040h
00:0364 7E-F0                    2657   	push	qr0
00:0366 01-F0'00-00'             2658   	bl	__dmulu8sw
00:036A 08 E1                    2659   	add	sp,	#8 
00:036C 01-F0'00-00'             2660   	bl	__dtofu8sw
00:0370 04 E1                    2661   	add	sp,	#4 
00:0372 2E-F0                    2662   	pop	xr0
00:0374 13-90 00-00'             2663   	st	er0,	NEAR _CF_Accel_XRoll
00:0378 13-92 00-00'             2664   	st	er2,	NEAR _CF_Accel_XRoll+02h
                                 2665   
                                 2666   ;;		CF_XRoll = CF_Gyro_XRoll;
                                 2667   CLINEA 0000H 0001H 0505H 0003H 001BH
00:037C 12-90 00-00'             2668   	l	er0,	NEAR _CF_Gyro_XRoll
00:0380 12-92 00-00'             2669   	l	er2,	NEAR _CF_Gyro_XRoll+02h
                                 2670   CBLOCKEND 222 4 1286
                                 2671   
                                 2672   ;;	}
                                 2673   CLINEA 0000H 0000H 0506H 0002H 0002H
00:0384                          2674   _$L155 :
00:0384 13-90 00-00'             2675   	st	er0,	NEAR _CF_XRoll
00:0388 13-92 00-00'             2676   	st	er2,	NEAR _CF_XRoll+02h
                                 2677   
                                 2678   ;;	Accel_PID_GoCounter++;		//Counts up to 4 to trigger the PID loop to start.
                                 2679   CLINEA 0000H 0000H 0527H 0002H 004BH
00:038C 0C-F0 00-00'             2680   	lea	OFFSET _Accel_PID_GoCounter
00:0390 2F-FE                    2681   	inc	[ea]
                                 2682   CBLOCKEND 222 2 1321
                                 2683   
                                 2684   ;;}
                                 2685   CLINEA 0000H 0001H 0529H 0001H 0001H
00:0392 2E-F4                    2686   	pop	xr4
00:0394 EA-A1                    2687   	mov	sp,	fp
00:0396 1E-FE                    2688   	pop	fp
00:0398 8E-F2                    2689   	pop	pc
                                 2690   CBLOCKEND 222 1 1321
                                 2691   CFUNCTIONEND 222
                                 2692   
                                 2693   
  --------------------------     2694   	rseg $$Get_MagData$main
                                 2695   CFUNCTION 223
                                 2696   
00:0000                          2697   _Get_MagData	:
                                 2698   CBLOCK 223 1 1324
                                 2699   
                                 2700   ;;void Get_MagData(void){
                                 2701   CLINEA 0000H 0001H 052CH 0001H 0017H
00:0000 CE-F8                    2702   	push	lr
00:0002 5E-FE                    2703   	push	fp
00:0004 1A-AE                    2704   	mov	fp,	sp
00:0006 F8 E1                    2705   	add	sp,	#-08
00:0008 6E-F4                    2706   	push	xr4
                                 2707   CBLOCK 223 2 1324
                                 2708   CRET 000EH
                                 2709   
                                 2710   ;;	_flgI2CFin = 0;														//reset I2C completed flag
                                 2711   CLINEA 0000H 0001H 052EH 0002H 0038H
00:000A 00 00                    2712   	mov	r0,	#00h
00:000C 11-90 00-00'             2713   	st	r0,	NEAR __flgI2CFin
                                 2714   
                                 2715   ;;	i2c_stop();															//Make sure I2C is not currently running
                                 2716   CLINEA 0000H 0001H 052FH 0002H 0043H
00:0010 01-F0'00-00'             2717   	bl	_i2c_stop
                                 2718   
                                 2719   ;;	i2c_startSend( HMC5883Address, &Mag_ModeReg, 1, &Mag_ModeReg_Contents, 1, (cbfI2c)_funcI2CFin);		//Begin I2C Receive Command
                                 2720   CLINEA 0000H 0001H 0530H 0002H 007DH
00:0014 00'00                    2721   	mov	r0,	#BYTE1 OFFSET __funcI2CFin
00:0016 00'01                    2722   	mov	r1,	#BYTE2 OFFSET __funcI2CFin
00:0018 5E-F0                    2723   	push	er0
00:001A 01 E0                    2724   	mov	er0,	#1 
00:001C 5E-F0                    2725   	push	er0
00:001E 00'00                    2726   	mov	r0,	#BYTE1 OFFSET _Mag_ModeReg_Contents
00:0020 00'01                    2727   	mov	r1,	#BYTE2 OFFSET _Mag_ModeReg_Contents
00:0022 5E-F0                    2728   	push	er0
00:0024 01 E0                    2729   	mov	er0,	#1 
00:0026 5E-F0                    2730   	push	er0
00:0028 00'02                    2731   	mov	r2,	#BYTE1 OFFSET _Mag_ModeReg
00:002A 00'03                    2732   	mov	r3,	#BYTE2 OFFSET _Mag_ModeReg
00:002C 10-90 00-00'             2733   	l	r0,	NEAR _HMC5883Address
00:0030 01-F0'00-00'             2734   	bl	_i2c_startSend
00:0034 08 E1                    2735   	add	sp,	#8 
                                 2736   
                                 2737   ;;	while(_flgI2CFin != 1){												//Wait for I2C commands to finish transfer
                                 2738   CLINEA 0000H 0000H 0531H 0001H 0001H
00:0036 02 CE                    2739   	bal	_$L173
                                 2740   
                                 2741   ;;	while(_flgI2CFin != 1){												//Wait for I2C commands to finish transfer
                                 2742   CLINEA 0000H 0000H 0531H 0002H 004EH
00:0038                          2743   _$L159 :
                                 2744   CBLOCK 223 3 1329
                                 2745   
                                 2746   ;;		main_clrWDT();
                                 2747   CLINEA 0000H 0001H 0532H 0003H 0010H
00:0038 01-F0'00-00'             2748   	bl	_main_clrWDT
                                 2749   CBLOCKEND 223 3 1331
                                 2750   
                                 2751   ;;	while(_flgI2CFin != 1){												//Wait for I2C commands to finish transfer
                                 2752   CLINEA 0000H 0000H 0531H 0001H 0001H
00:003C                          2753   _$L173 :
00:003C 10-90 00-00'             2754   	l	r0,	NEAR __flgI2CFin
00:0040 01 70                    2755   	cmp	r0,	#01h
00:0042 FA C8                    2756   	bne	_$L159
                                 2757   
                                 2758   ;;	_flgI2CFin = 0;																	//reset I2C completed Flag
                                 2759   CLINEA 0000H 0001H 0535H 0002H 003BH
00:0044 00 00                    2760   	mov	r0,	#00h
00:0046 11-90 00-00'             2761   	st	r0,	NEAR __flgI2CFin
                                 2762   
                                 2763   ;;	i2c_stop();																		//Make sure I2C is not currently running
                                 2764   CLINEA 0000H 0001H 0536H 0002H 0046H
00:004A 01-F0'00-00'             2765   	bl	_i2c_stop
                                 2766   
                                 2767   ;;	i2c_startReceive(HMC5883Address, &Mag_ReadData, 1, &Mag_Data, 6, (cbfI2c)_funcI2CFin);	//Begin I2C Recieve Command
                                 2768   CLINEA 0000H 0001H 0537H 0002H 0073H
00:004E 00'00                    2769   	mov	r0,	#BYTE1 OFFSET __funcI2CFin
00:0050 00'01                    2770   	mov	r1,	#BYTE2 OFFSET __funcI2CFin
00:0052 5E-F0                    2771   	push	er0
00:0054 06 E0                    2772   	mov	er0,	#6 
00:0056 5E-F0                    2773   	push	er0
00:0058 00'00                    2774   	mov	r0,	#BYTE1 OFFSET _Mag_Data
00:005A 00'01                    2775   	mov	r1,	#BYTE2 OFFSET _Mag_Data
00:005C 5E-F0                    2776   	push	er0
00:005E 01 E0                    2777   	mov	er0,	#1 
00:0060 5E-F0                    2778   	push	er0
00:0062 00'02                    2779   	mov	r2,	#BYTE1 OFFSET _Mag_ReadData
00:0064 00'03                    2780   	mov	r3,	#BYTE2 OFFSET _Mag_ReadData
00:0066 10-90 00-00'             2781   	l	r0,	NEAR _HMC5883Address
00:006A 01-F0'00-00'             2782   	bl	_i2c_startReceive
00:006E 08 E1                    2783   	add	sp,	#8 
                                 2784   
                                 2785   ;;	while(_flgI2CFin != 1){															//Wait for I2C commands to finish transfer
                                 2786   CLINEA 0000H 0000H 0538H 0001H 0001H
00:0070 02 CE                    2787   	bal	_$L174
                                 2788   
                                 2789   ;;	while(_flgI2CFin != 1){															//Wait for I2C commands to finish transfer
                                 2790   CLINEA 0000H 0000H 0538H 0002H 0051H
00:0072                          2791   _$L163 :
                                 2792   CBLOCK 223 4 1336
                                 2793   
                                 2794   ;;		main_clrWDT();
                                 2795   CLINEA 0000H 0001H 0539H 0003H 0010H
00:0072 01-F0'00-00'             2796   	bl	_main_clrWDT
                                 2797   CBLOCKEND 223 4 1338
                                 2798   
                                 2799   ;;	while(_flgI2CFin != 1){															//Wait for I2C commands to finish transfer
                                 2800   CLINEA 0000H 0000H 0538H 0001H 0001H
00:0076                          2801   _$L174 :
00:0076 10-90 00-00'             2802   	l	r0,	NEAR __flgI2CFin
00:007A 01 70                    2803   	cmp	r0,	#01h
00:007C FA C8                    2804   	bne	_$L163
                                 2805   
                                 2806   ;;	Mag_Zout = (Mag_Data[2]<<8)+(Mag_Data[3]);
                                 2807   CLINEA 0000H 0001H 053EH 0002H 002BH
00:007E 10-90 00-00'             2808   	l	r0,	NEAR _Mag_Data+02h
00:0082 00 01                    2809   	mov	r1,	#00h
00:0084 00-83                    2810   	mov	r3,	r0
00:0086 00 02                    2811   	mov	r2,	#00h
00:0088 10-90 00-00'             2812   	l	r0,	NEAR _Mag_Data+03h
00:008C 26-F0                    2813   	add	er0,	er2
00:008E 10-82                    2814   	mov	r2,	r1
00:0090 2F-83                    2815   	extbw	er2
00:0092 30-82                    2816   	mov	r2,	r3
00:0094 6E-F0                    2817   	push	xr0
00:0096 01-F0'00-00'             2818   	bl	__fildu8sw
00:009A 2E-F0                    2819   	pop	xr0
00:009C 13-90 00-00'             2820   	st	er0,	NEAR _Mag_Zout
00:00A0 13-92 00-00'             2821   	st	er2,	NEAR _Mag_Zout+02h
                                 2822   
                                 2823   ;;	Mag_Xout *= Mag_GainFactor;
                                 2824   CLINEA 0000H 0001H 0540H 0002H 001CH
00:00A4 10-90 00-00'             2825   	l	r0,	NEAR _Mag_Data+01h
00:00A8 00 01                    2826   	mov	r1,	#00h
00:00AA 10-92 00-00'             2827   	l	r2,	NEAR _Mag_Data
00:00AE 20-83                    2828   	mov	r3,	r2
00:00B0 00 02                    2829   	mov	r2,	#00h
00:00B2 26-F0                    2830   	add	er0,	er2
00:00B4 10-82                    2831   	mov	r2,	r1
00:00B6 2F-83                    2832   	extbw	er2
00:00B8 30-82                    2833   	mov	r2,	r3
00:00BA 6E-F0                    2834   	push	xr0
00:00BC 01-F0'00-00'             2835   	bl	__fildu8sw
00:00C0 12-90 00-00'             2836   	l	er0,	NEAR _Mag_GainFactor
00:00C4 12-92 00-00'             2837   	l	er2,	NEAR _Mag_GainFactor+02h
00:00C8 6E-F0                    2838   	push	xr0
00:00CA 01-F0'00-00'             2839   	bl	__fmulu8sw
00:00CE 04 E1                    2840   	add	sp,	#4 
00:00D0 2E-F0                    2841   	pop	xr0
00:00D2 13-90 00-00'             2842   	st	er0,	NEAR _Mag_Xout
00:00D6 13-92 00-00'             2843   	st	er2,	NEAR _Mag_Xout+02h
                                 2844   
                                 2845   ;;	Mag_Yout *= Mag_GainFactor;
                                 2846   CLINEA 0000H 0001H 0541H 0002H 001CH
00:00DA 10-90 00-00'             2847   	l	r0,	NEAR _Mag_Data+04h
00:00DE 00 01                    2848   	mov	r1,	#00h
00:00E0 00-83                    2849   	mov	r3,	r0
00:00E2 00 02                    2850   	mov	r2,	#00h
00:00E4 10-90 00-00'             2851   	l	r0,	NEAR _Mag_Data+05h
00:00E8 26-F0                    2852   	add	er0,	er2
00:00EA 10-82                    2853   	mov	r2,	r1
00:00EC 2F-83                    2854   	extbw	er2
00:00EE 30-82                    2855   	mov	r2,	r3
00:00F0 6E-F0                    2856   	push	xr0
00:00F2 01-F0'00-00'             2857   	bl	__fildu8sw
00:00F6 12-90 00-00'             2858   	l	er0,	NEAR _Mag_GainFactor
00:00FA 12-92 00-00'             2859   	l	er2,	NEAR _Mag_GainFactor+02h
00:00FE 6E-F0                    2860   	push	xr0
00:0100 01-F0'00-00'             2861   	bl	__fmulu8sw
00:0104 04 E1                    2862   	add	sp,	#4 
00:0106 2E-F0                    2863   	pop	xr0
00:0108 13-90 00-00'             2864   	st	er0,	NEAR _Mag_Yout
00:010C 13-92 00-00'             2865   	st	er2,	NEAR _Mag_Yout+02h
                                 2866   
                                 2867   ;;	if(Mag_Yout >= 0){
                                 2868   CLINEA 0000H 0001H 0543H 0002H 0013H
00:0110 6E-F0                    2869   	push	xr0
00:0112 00 E0                    2870   	mov	er0,	#0 
00:0114 00 E2                    2871   	mov	er2,	#0 
00:0116 6E-F0                    2872   	push	xr0
00:0118 01-F0'00-00'             2873   	bl	__fcmpu8sw
00:011C 08 E1                    2874   	add	sp,	#8 
00:011E 0B-A0                    2875   	mov	psw,	r0
00:0120 35 C1                    2876   	blt	_$L165
                                 2877   CBLOCK 223 5 1347
                                 2878   
                                 2879   ;;		Mag_Angle = 90 - (atan(Mag_Xout/Mag_Yout)) * (180/3.1415927);
                                 2880   CLINEA 0000H 0000H 0544H 0003H 003FH
00:0122 12-90 00-00'             2881   	l	er0,	NEAR _Mag_Xout
00:0126 12-92 00-00'             2882   	l	er2,	NEAR _Mag_Xout+02h
00:012A 6E-F0                    2883   	push	xr0
00:012C 12-90 00-00'             2884   	l	er0,	NEAR _Mag_Yout
00:0130 12-92 00-00'             2885   	l	er2,	NEAR _Mag_Yout+02h
00:0134 6E-F0                    2886   	push	xr0
00:0136 01-F0'00-00'             2887   	bl	__fdivu8sw
00:013A 01-F0'00-00'             2888   	bl	__ftodu8sw
00:013E E5-F0                    2889   	mov	er0,	fp
00:0140 F8 E0                    2890   	add	er0,	#-8
00:0142 01-F0'00-00'             2891   	bl	_atan
00:0146 08 E1                    2892   	add	sp,	#8 
00:0148 00 E0                    2893   	mov	er0,	#0 
00:014A 00 E2                    2894   	mov	er2,	#0 
00:014C 00 04                    2895   	mov	r4,	#00h
00:014E 80 05                    2896   	mov	r5,	#080h
00:0150 56 06                    2897   	mov	r6,	#056h
00:0152 40 07                    2898   	mov	r7,	#040h
00:0154 7E-F0                    2899   	push	qr0
00:0156 EB-F0 F8-FF              2900   	lea	-8[fp]
00:015A 36-90                    2901   	l	qr0,	[ea]
00:015C 7E-F0                    2902   	push	qr0
00:015E 4A 00                    2903   	mov	r0,	#04ah
00:0160 15 01                    2904   	mov	r1,	#015h
00:0162 4A 02                    2905   	mov	r2,	#04ah
00:0164 13 03                    2906   	mov	r3,	#013h
00:0166 DC 04                    2907   	mov	r4,	#0dch
00:0168 A5 05                    2908   	mov	r5,	#0a5h
00:016A 4C 06                    2909   	mov	r6,	#04ch
00:016C 40 07                    2910   	mov	r7,	#040h
00:016E 7E-F0                    2911   	push	qr0
00:0170 01-F0'00-00'             2912   	bl	__dmulu8sw
00:0174 08 E1                    2913   	add	sp,	#8 
00:0176 01-F0'00-00'             2914   	bl	__dsubu8sw
00:017A 08 E1                    2915   	add	sp,	#8 
00:017C 01-F0'00-00'             2916   	bl	__dtofu8sw
00:0180 04 E1                    2917   	add	sp,	#4 
00:0182 2E-F0                    2918   	pop	xr0
00:0184 13-90 00-00'             2919   	st	er0,	NEAR _Mag_Angle
00:0188 13-92 00-00'             2920   	st	er2,	NEAR _Mag_Angle+02h
                                 2921   CBLOCKEND 223 5 1349
                                 2922   
                                 2923   ;;	}
                                 2924   CLINEA 0000H 0000H 0545H 0002H 0002H
00:018C                          2925   _$L165 :
                                 2926   
                                 2927   ;;	if(Mag_Yout < 0){
                                 2928   CLINEA 0000H 0001H 0546H 0002H 0012H
00:018C 12-90 00-00'             2929   	l	er0,	NEAR _Mag_Yout
00:0190 12-92 00-00'             2930   	l	er2,	NEAR _Mag_Yout+02h
00:0194 6E-F0                    2931   	push	xr0
00:0196 00 E0                    2932   	mov	er0,	#0 
00:0198 00 E2                    2933   	mov	er2,	#0 
00:019A 6E-F0                    2934   	push	xr0
00:019C 01-F0'00-00'             2935   	bl	__fcmpu8sw
00:01A0 08 E1                    2936   	add	sp,	#8 
00:01A2 0B-A0                    2937   	mov	psw,	r0
00:01A4 35 C0                    2938   	bge	_$L167
                                 2939   CBLOCK 223 6 1350
                                 2940   
                                 2941   ;;		Mag_Angle = 270 - (atan(Mag_Xout/Mag_Yout)) * (180/3.1415927);
                                 2942   CLINEA 0000H 0000H 0547H 0003H 0040H
00:01A6 12-90 00-00'             2943   	l	er0,	NEAR _Mag_Xout
00:01AA 12-92 00-00'             2944   	l	er2,	NEAR _Mag_Xout+02h
00:01AE 6E-F0                    2945   	push	xr0
00:01B0 12-90 00-00'             2946   	l	er0,	NEAR _Mag_Yout
00:01B4 12-92 00-00'             2947   	l	er2,	NEAR _Mag_Yout+02h
00:01B8 6E-F0                    2948   	push	xr0
00:01BA 01-F0'00-00'             2949   	bl	__fdivu8sw
00:01BE 01-F0'00-00'             2950   	bl	__ftodu8sw
00:01C2 E5-F0                    2951   	mov	er0,	fp
00:01C4 F8 E0                    2952   	add	er0,	#-8
00:01C6 01-F0'00-00'             2953   	bl	_atan
00:01CA 08 E1                    2954   	add	sp,	#8 
00:01CC 00 E0                    2955   	mov	er0,	#0 
00:01CE 00 E2                    2956   	mov	er2,	#0 
00:01D0 00 04                    2957   	mov	r4,	#00h
00:01D2 E0 05                    2958   	mov	r5,	#0e0h
00:01D4 70 06                    2959   	mov	r6,	#070h
00:01D6 40 07                    2960   	mov	r7,	#040h
00:01D8 7E-F0                    2961   	push	qr0
00:01DA EB-F0 F8-FF              2962   	lea	-8[fp]
00:01DE 36-90                    2963   	l	qr0,	[ea]
00:01E0 7E-F0                    2964   	push	qr0
00:01E2 4A 00                    2965   	mov	r0,	#04ah
00:01E4 15 01                    2966   	mov	r1,	#015h
00:01E6 4A 02                    2967   	mov	r2,	#04ah
00:01E8 13 03                    2968   	mov	r3,	#013h
00:01EA DC 04                    2969   	mov	r4,	#0dch
00:01EC A5 05                    2970   	mov	r5,	#0a5h
00:01EE 4C 06                    2971   	mov	r6,	#04ch
00:01F0 40 07                    2972   	mov	r7,	#040h
00:01F2 7E-F0                    2973   	push	qr0
00:01F4 01-F0'00-00'             2974   	bl	__dmulu8sw
00:01F8 08 E1                    2975   	add	sp,	#8 
00:01FA 01-F0'00-00'             2976   	bl	__dsubu8sw
00:01FE 08 E1                    2977   	add	sp,	#8 
00:0200 01-F0'00-00'             2978   	bl	__dtofu8sw
00:0204 04 E1                    2979   	add	sp,	#4 
00:0206 2E-F0                    2980   	pop	xr0
00:0208 13-90 00-00'             2981   	st	er0,	NEAR _Mag_Angle
00:020C 13-92 00-00'             2982   	st	er2,	NEAR _Mag_Angle+02h
                                 2983   CBLOCKEND 223 6 1352
                                 2984   
                                 2985   ;;	}
                                 2986   CLINEA 0000H 0000H 0548H 0002H 0002H
00:0210                          2987   _$L167 :
                                 2988   
                                 2989   ;;	Mag_Angle -= 90;  //This will adjust and get the true 
                                 2990   CLINEA 0000H 0001H 054AH 0002H 0037H
00:0210 12-90 00-00'             2991   	l	er0,	NEAR _Mag_Angle
00:0214 12-92 00-00'             2992   	l	er2,	NEAR _Mag_Angle+02h
00:0218 6E-F0                    2993   	push	xr0
00:021A 00 E0                    2994   	mov	er0,	#0 
00:021C B4 02                    2995   	mov	r2,	#0b4h
00:021E C2 03                    2996   	mov	r3,	#0c2h
00:0220 6E-F0                    2997   	push	xr0
00:0222 01-F0'00-00'             2998   	bl	__faddu8sw
00:0226 04 E1                    2999   	add	sp,	#4 
00:0228 2E-F0                    3000   	pop	xr0
00:022A 13-90 00-00'             3001   	st	er0,	NEAR _Mag_Angle
00:022E 13-92 00-00'             3002   	st	er2,	NEAR _Mag_Angle+02h
                                 3003   
                                 3004   ;;	if(Mag_Angle >=360){
                                 3005   CLINEA 0000H 0001H 054BH 0002H 0015H
00:0232 6E-F0                    3006   	push	xr0
00:0234 00 E0                    3007   	mov	er0,	#0 
00:0236 B4 02                    3008   	mov	r2,	#0b4h
00:0238 43 03                    3009   	mov	r3,	#043h
00:023A 6E-F0                    3010   	push	xr0
00:023C 01-F0'00-00'             3011   	bl	__fcmpu8sw
00:0240 08 E1                    3012   	add	sp,	#8 
00:0242 0B-A0                    3013   	mov	psw,	r0
00:0244 11 C1                    3014   	blt	_$L169
                                 3015   CBLOCK 223 7 1355
                                 3016   
                                 3017   ;;		Mag_Angle -= 360;
                                 3018   CLINEA 0000H 0001H 054CH 0003H 0013H
00:0246 12-90 00-00'             3019   	l	er0,	NEAR _Mag_Angle
00:024A 12-92 00-00'             3020   	l	er2,	NEAR _Mag_Angle+02h
00:024E 6E-F0                    3021   	push	xr0
00:0250 00 E0                    3022   	mov	er0,	#0 
00:0252 B4 02                    3023   	mov	r2,	#0b4h
00:0254 C3 03                    3024   	mov	r3,	#0c3h
00:0256 6E-F0                    3025   	push	xr0
00:0258 01-F0'00-00'             3026   	bl	__faddu8sw
00:025C 04 E1                    3027   	add	sp,	#4 
00:025E 2E-F0                    3028   	pop	xr0
00:0260 13-90 00-00'             3029   	st	er0,	NEAR _Mag_Angle
00:0264 13-92 00-00'             3030   	st	er2,	NEAR _Mag_Angle+02h
                                 3031   CBLOCKEND 223 7 1357
                                 3032   
                                 3033   ;;	}
                                 3034   CLINEA 0000H 0000H 054DH 0002H 0002H
00:0268                          3035   _$L169 :
                                 3036   
                                 3037   ;;	if(Mag_Angle < 0){
                                 3038   CLINEA 0000H 0001H 054EH 0002H 0013H
00:0268 12-90 00-00'             3039   	l	er0,	NEAR _Mag_Angle
00:026C 12-92 00-00'             3040   	l	er2,	NEAR _Mag_Angle+02h
00:0270 6E-F0                    3041   	push	xr0
00:0272 00 E0                    3042   	mov	er0,	#0 
00:0274 00 E2                    3043   	mov	er2,	#0 
00:0276 6E-F0                    3044   	push	xr0
00:0278 01-F0'00-00'             3045   	bl	__fcmpu8sw
00:027C 08 E1                    3046   	add	sp,	#8 
00:027E 0B-A0                    3047   	mov	psw,	r0
00:0280 11 C0                    3048   	bge	_$L171
                                 3049   CBLOCK 223 8 1358
                                 3050   
                                 3051   ;;		Mag_Angle += 360;
                                 3052   CLINEA 0000H 0001H 054FH 0003H 0013H
00:0282 12-90 00-00'             3053   	l	er0,	NEAR _Mag_Angle
00:0286 12-92 00-00'             3054   	l	er2,	NEAR _Mag_Angle+02h
00:028A 6E-F0                    3055   	push	xr0
00:028C 00 E0                    3056   	mov	er0,	#0 
00:028E B4 02                    3057   	mov	r2,	#0b4h
00:0290 43 03                    3058   	mov	r3,	#043h
00:0292 6E-F0                    3059   	push	xr0
00:0294 01-F0'00-00'             3060   	bl	__faddu8sw
00:0298 04 E1                    3061   	add	sp,	#4 
00:029A 2E-F0                    3062   	pop	xr0
00:029C 13-90 00-00'             3063   	st	er0,	NEAR _Mag_Angle
00:02A0 13-92 00-00'             3064   	st	er2,	NEAR _Mag_Angle+02h
                                 3065   CBLOCKEND 223 8 1360
                                 3066   
                                 3067   ;;	}
                                 3068   CLINEA 0000H 0000H 0550H 0002H 0002H
00:02A4                          3069   _$L171 :
                                 3070   CBLOCKEND 223 2 1361
                                 3071   
                                 3072   ;;}
                                 3073   CLINEA 0000H 0001H 0551H 0001H 0001H
00:02A4 2E-F4                    3074   	pop	xr4
00:02A6 EA-A1                    3075   	mov	sp,	fp
00:02A8 1E-FE                    3076   	pop	fp
00:02AA 8E-F2                    3077   	pop	pc
                                 3078   CBLOCKEND 223 1 1361
                                 3079   CFUNCTIONEND 223
                                 3080   
                                 3081   
  --------------------------     3082   	rseg $$ClearVariables$main
                                 3083   CFUNCTION 224
                                 3084   
00:0000                          3085   _ClearVariables	:
                                 3086   CBLOCK 224 1 1363
                                 3087   
                                 3088   ;;void ClearVariables(void){
                                 3089   CLINEA 0000H 0001H 0553H 0001H 001AH
                                 3090   CBLOCK 224 2 1363
                                 3091   
                                 3092   ;;	Temp_out = 0;
                                 3093   CLINEA 0000H 0001H 0554H 0002H 000EH
00:0000 00 E0                    3094   	mov	er0,	#0 
00:0002 13-90 00-00'             3095   	st	er0,	NEAR _Temp_out
00:0006 13-90 00-00'             3096   	st	er0,	NEAR _Temp_out+02h
                                 3097   
                                 3098   ;;	Mag_Xout = 0;
                                 3099   CLINEA 0000H 0001H 0555H 0002H 000EH
00:000A 13-90 00-00'             3100   	st	er0,	NEAR _Mag_Xout
00:000E 13-90 00-00'             3101   	st	er0,	NEAR _Mag_Xout+02h
                                 3102   
                                 3103   ;;	Mag_Yout = 0;
                                 3104   CLINEA 0000H 0001H 0556H 0002H 000EH
00:0012 13-90 00-00'             3105   	st	er0,	NEAR _Mag_Yout
00:0016 13-90 00-00'             3106   	st	er0,	NEAR _Mag_Yout+02h
                                 3107   
                                 3108   ;;	Mag_Zout = 0;
                                 3109   CLINEA 0000H 0001H 0557H 0002H 000EH
00:001A 13-90 00-00'             3110   	st	er0,	NEAR _Mag_Zout
00:001E 13-90 00-00'             3111   	st	er0,	NEAR _Mag_Zout+02h
                                 3112   
                                 3113   ;;	Mag_Angle = 0;
                                 3114   CLINEA 0000H 0001H 0558H 0002H 000FH
00:0022 13-90 00-00'             3115   	st	er0,	NEAR _Mag_Angle
00:0026 13-90 00-00'             3116   	st	er0,	NEAR _Mag_Angle+02h
                                 3117   
                                 3118   ;;	Ping_timer = 0;
                                 3119   CLINEA 0000H 0001H 0559H 0002H 0010H
00:002A 13-90 00-00'             3120   	st	er0,	NEAR _Ping_timer
                                 3121   
                                 3122   ;;	Ping_out = 0;
                                 3123   CLINEA 0000H 0001H 055AH 0002H 000EH
00:002E 13-90 00-00'             3124   	st	er0,	NEAR _Ping_out
00:0032 13-90 00-00'             3125   	st	er0,	NEAR _Ping_out+02h
                                 3126   
                                 3127   ;;	Range_out = 0;
                                 3128   CLINEA 0000H 0001H 055BH 0002H 000FH
00:0036 13-90 00-00'             3129   	st	er0,	NEAR _Range_out
                                 3130   CBLOCKEND 224 2 1372
                                 3131   
                                 3132   ;;}
                                 3133   CLINEA 0000H 0001H 055CH 0001H 0001H
00:003A 1F-FE                    3134   	rt
                                 3135   CBLOCKEND 224 1 1372
                                 3136   CFUNCTIONEND 224
                                 3137   
                                 3138   
  --------------------------     3139   	rseg $$ReturnSensorData$main
                                 3140   CFUNCTION 225
                                 3141   
00:0000                          3142   _ReturnSensorData	:
                                 3143   CBLOCK 225 1 1374
                                 3144   
                                 3145   ;;void ReturnSensorData(void){
                                 3146   CLINEA 0000H 0001H 055EH 0001H 001CH
00:0000 CE-F8                    3147   	push	lr
                                 3148   CBLOCK 225 2 1374
                                 3149   CRET 0000H
                                 3150   CLOCAL 47H 0002H 0024H 0002H "i" 02H 00H 01H
                                 3151   
                                 3152   ;;	for(i = 0; i<150; i++)
                                 3153   CLINEA 0000H 0001H 0560H 0002H 0017H
00:0002 00 E0                    3154   	mov	er0,	#0 
00:0004                          3155   _$L179 :
                                 3156   CBLOCK 225 3 1377
                                 3157   
                                 3158   ;;		SensorReturn[i] = 0x20;
                                 3159   CLINEA 0000H 0001H 0562H 0003H 0019H
00:0004 20 02                    3160   	mov	r2,	#020h
00:0006 09-92 00-00'             3161   	st	r2,	NEAR _SensorReturn[er0]
                                 3162   CBLOCKEND 225 3 1379
                                 3163   
                                 3164   ;;	for(i = 0; i<150; i++)
                                 3165   CLINEA 0000H 0000H 0560H 0002H 0017H
00:000A 81 E0                    3166   	add	er0,	#1 
00:000C 96 70                    3167   	cmp	r0,	#096h
00:000E 00 51                    3168   	cmpc	r1,	#00h
00:0010 F9 C5                    3169   	blts	_$L179
                                 3170   
                                 3171   ;;	sprintf(SensorReturn, "%f,%f,%f,%f,%f,%f,%f,%u", Accel_Xout, Accel_Yout, Accel_Zout, Gyro_Xout, Gyro_Yout, Gyro_Zout, Mag_Angle,Range_out);
                                 3172   CLINEA 0000H 0001H 0565H 0002H 008CH
00:0012 12-90 00-00'             3173   	l	er0,	NEAR _Range_out
00:0016 5E-F0                    3174   	push	er0
00:0018 12-90 00-00'             3175   	l	er0,	NEAR _Mag_Angle
00:001C 12-92 00-00'             3176   	l	er2,	NEAR _Mag_Angle+02h
00:0020 6E-F0                    3177   	push	xr0
00:0022 FC E1                    3178   	add	sp,	#-4
00:0024 01-F0'00-00'             3179   	bl	__ftodu8sw
00:0028 12-90 00-00'             3180   	l	er0,	NEAR _Gyro_Zout
00:002C 12-92 00-00'             3181   	l	er2,	NEAR _Gyro_Zout+02h
00:0030 6E-F0                    3182   	push	xr0
00:0032 FC E1                    3183   	add	sp,	#-4
00:0034 01-F0'00-00'             3184   	bl	__ftodu8sw
00:0038 12-90 00-00'             3185   	l	er0,	NEAR _Gyro_Yout
00:003C 12-92 00-00'             3186   	l	er2,	NEAR _Gyro_Yout+02h
00:0040 6E-F0                    3187   	push	xr0
00:0042 FC E1                    3188   	add	sp,	#-4
00:0044 01-F0'00-00'             3189   	bl	__ftodu8sw
00:0048 12-90 00-00'             3190   	l	er0,	NEAR _Gyro_Xout
00:004C 12-92 00-00'             3191   	l	er2,	NEAR _Gyro_Xout+02h
00:0050 6E-F0                    3192   	push	xr0
00:0052 FC E1                    3193   	add	sp,	#-4
00:0054 01-F0'00-00'             3194   	bl	__ftodu8sw
00:0058 00'00                    3195   	mov	r0,	#BYTE1 OFFSET _Accel_Zout
00:005A 00'01                    3196   	mov	r1,	#BYTE2 OFFSET _Accel_Zout
00:005C 5E-F0                    3197   	push	er0
00:005E 00'00                    3198   	mov	r0,	#BYTE1 OFFSET _Accel_Yout
00:0060 00'01                    3199   	mov	r1,	#BYTE2 OFFSET _Accel_Yout
00:0062 5E-F0                    3200   	push	er0
00:0064 00'00                    3201   	mov	r0,	#BYTE1 OFFSET _Accel_Xout
00:0066 00'01                    3202   	mov	r1,	#BYTE2 OFFSET _Accel_Xout
00:0068 5E-F0                    3203   	push	er0
00:006A 00'00                    3204   	mov	r0,	#BYTE1 OFFSET $$S183
00:006C 00'01                    3205   	mov	r1,	#BYTE2 OFFSET $$S183
00:006E 5E-F0                    3206   	push	er0
00:0070 00'00                    3207   	mov	r0,	#BYTE1 OFFSET _SensorReturn
00:0072 00'01                    3208   	mov	r1,	#BYTE2 OFFSET _SensorReturn
00:0074 5E-F0                    3209   	push	er0
00:0076 01-F0'00-00'             3210   	bl	_sprintf_nn
00:007A 2C E1                    3211   	add	sp,	#44
                                 3212   
                                 3213   ;;	SensorReturn[148] = 0x0D;
                                 3214   CLINEA 0000H 0001H 0567H 0002H 001AH
00:007C 0D 00                    3215   	mov	r0,	#0dh
00:007E 11-90 00-00'             3216   	st	r0,	NEAR _SensorReturn+094h
                                 3217   
                                 3218   ;;	SensorReturn[149] = 0x0A;
                                 3219   CLINEA 0000H 0001H 0568H 0002H 001AH
00:0082 0A 00                    3220   	mov	r0,	#0ah
00:0084 11-90 00-00'             3221   	st	r0,	NEAR _SensorReturn+095h
                                 3222   
                                 3223   ;;	_flgUartFin = 0;
                                 3224   CLINEA 0000H 0001H 056BH 0002H 0011H
00:0088 00 00                    3225   	mov	r0,	#00h
00:008A 11-90 00-00'             3226   	st	r0,	NEAR __flgUartFin
                                 3227   
                                 3228   ;;	uart_stop();
                                 3229   CLINEA 0000H 0001H 056CH 0002H 000DH
00:008E 01-F0'00-00'             3230   	bl	_uart_stop
                                 3231   
                                 3232   ;;	uart_startSend(SensorReturn, 150, _funcUartFin);
                                 3233   CLINEA 0000H 0001H 056DH 0002H 0031H
00:0092 00'00                    3234   	mov	r0,	#BYTE1 OFFSET __funcUartFin
00:0094 00'01                    3235   	mov	r1,	#BYTE2 OFFSET __funcUartFin
00:0096 5E-F0                    3236   	push	er0
00:0098 96 02                    3237   	mov	r2,	#096h
00:009A 00 03                    3238   	mov	r3,	#00h
00:009C 00'00                    3239   	mov	r0,	#BYTE1 OFFSET _SensorReturn
00:009E 00'01                    3240   	mov	r1,	#BYTE2 OFFSET _SensorReturn
00:00A0 01-F0'00-00'             3241   	bl	_uart_startSend
00:00A4 02 E1                    3242   	add	sp,	#2 
                                 3243   
                                 3244   ;;	while(_flgUartFin != 1){
                                 3245   CLINEA 0000H 0000H 056EH 0001H 0001H
00:00A6 02 CE                    3246   	bal	_$L188
                                 3247   
                                 3248   ;;	while(_flgUartFin != 1){
                                 3249   CLINEA 0000H 0000H 056EH 0002H 0019H
00:00A8                          3250   _$L186 :
                                 3251   CBLOCK 225 4 1390
                                 3252   
                                 3253   ;;		main_clrWDT();
                                 3254   CLINEA 0000H 0001H 056FH 0003H 0010H
00:00A8 01-F0'00-00'             3255   	bl	_main_clrWDT
                                 3256   CBLOCKEND 225 4 1392
                                 3257   
                                 3258   ;;	while(_flgUartFin != 1){
                                 3259   CLINEA 0000H 0000H 056EH 0001H 0001H
00:00AC                          3260   _$L188 :
00:00AC 10-90 00-00'             3261   	l	r0,	NEAR __flgUartFin
00:00B0 01 70                    3262   	cmp	r0,	#01h
00:00B2 FA C8                    3263   	bne	_$L186
                                 3264   CBLOCKEND 225 2 1393
                                 3265   
                                 3266   ;;}
                                 3267   CLINEA 0000H 0001H 0571H 0001H 0001H
00:00B4 8E-F2                    3268   	pop	pc
                                 3269   CBLOCKEND 225 1 1393
                                 3270   CFUNCTIONEND 225
                                 3271   
                                 3272   
  --------------------------     3273   	rseg $$ReturnAccelData$main
                                 3274   CFUNCTION 226
                                 3275   
00:0000                          3276   _ReturnAccelData	:
                                 3277   CBLOCK 226 1 1395
                                 3278   
                                 3279   ;;void ReturnAccelData(void){
                                 3280   CLINEA 0000H 0001H 0573H 0001H 001BH
00:0000 CE-F8                    3281   	push	lr
                                 3282   CBLOCK 226 2 1395
                                 3283   CRET 0000H
                                 3284   CLOCAL 47H 0002H 0024H 0002H "i" 02H 00H 01H
                                 3285   
                                 3286   ;;	for(i = 0; i<150; i++)
                                 3287   CLINEA 0000H 0001H 0575H 0002H 0017H
00:0002 00 E0                    3288   	mov	er0,	#0 
00:0004                          3289   _$L192 :
                                 3290   CBLOCK 226 3 1398
                                 3291   
                                 3292   ;;		SensorReturn[i] = 0x20;
                                 3293   CLINEA 0000H 0001H 0577H 0003H 0019H
00:0004 20 02                    3294   	mov	r2,	#020h
00:0006 09-92 00-00'             3295   	st	r2,	NEAR _SensorReturn[er0]
                                 3296   CBLOCKEND 226 3 1400
                                 3297   
                                 3298   ;;	for(i = 0; i<150; i++)
                                 3299   CLINEA 0000H 0000H 0575H 0002H 0017H
00:000A 81 E0                    3300   	add	er0,	#1 
00:000C 96 70                    3301   	cmp	r0,	#096h
00:000E 00 51                    3302   	cmpc	r1,	#00h
00:0010 F9 C5                    3303   	blts	_$L192
                                 3304   
                                 3305   ;;	sprintf(SensorReturn, "%f,%f,%f", Accel_Xout, Accel_Yout, Accel_Zout);
                                 3306   CLINEA 0000H 0001H 057BH 0002H 0047H
00:0012 00'00                    3307   	mov	r0,	#BYTE1 OFFSET _Accel_Zout
00:0014 00'01                    3308   	mov	r1,	#BYTE2 OFFSET _Accel_Zout
00:0016 5E-F0                    3309   	push	er0
00:0018 00'00                    3310   	mov	r0,	#BYTE1 OFFSET _Accel_Yout
00:001A 00'01                    3311   	mov	r1,	#BYTE2 OFFSET _Accel_Yout
00:001C 5E-F0                    3312   	push	er0
00:001E 00'00                    3313   	mov	r0,	#BYTE1 OFFSET _Accel_Xout
00:0020 00'01                    3314   	mov	r1,	#BYTE2 OFFSET _Accel_Xout
00:0022 5E-F0                    3315   	push	er0
00:0024 00'00                    3316   	mov	r0,	#BYTE1 OFFSET $$S196
00:0026 00'01                    3317   	mov	r1,	#BYTE2 OFFSET $$S196
00:0028 5E-F0                    3318   	push	er0
00:002A 00'00                    3319   	mov	r0,	#BYTE1 OFFSET _SensorReturn
00:002C 00'01                    3320   	mov	r1,	#BYTE2 OFFSET _SensorReturn
00:002E 5E-F0                    3321   	push	er0
00:0030 01-F0'00-00'             3322   	bl	_sprintf_nn
00:0034 0A E1                    3323   	add	sp,	#10
                                 3324   
                                 3325   ;;	SensorReturn[148] = 0x0D;	//CR
                                 3326   CLINEA 0000H 0001H 057DH 0002H 001FH
00:0036 0D 00                    3327   	mov	r0,	#0dh
00:0038 11-90 00-00'             3328   	st	r0,	NEAR _SensorReturn+094h
                                 3329   
                                 3330   ;;	SensorReturn[149] = 0x0A;	//LF
                                 3331   CLINEA 0000H 0001H 057EH 0002H 001FH
00:003C 0A 00                    3332   	mov	r0,	#0ah
00:003E 11-90 00-00'             3333   	st	r0,	NEAR _SensorReturn+095h
                                 3334   
                                 3335   ;;	_flgUartFin = 0;
                                 3336   CLINEA 0000H 0001H 0581H 0002H 0011H
00:0042 00 00                    3337   	mov	r0,	#00h
00:0044 11-90 00-00'             3338   	st	r0,	NEAR __flgUartFin
                                 3339   
                                 3340   ;;	uart_stop();
                                 3341   CLINEA 0000H 0001H 0582H 0002H 000DH
00:0048 01-F0'00-00'             3342   	bl	_uart_stop
                                 3343   
                                 3344   ;;	uart_startSend(SensorReturn, 150, _funcUartFin);
                                 3345   CLINEA 0000H 0001H 0583H 0002H 0031H
00:004C 00'00                    3346   	mov	r0,	#BYTE1 OFFSET __funcUartFin
00:004E 00'01                    3347   	mov	r1,	#BYTE2 OFFSET __funcUartFin
00:0050 5E-F0                    3348   	push	er0
00:0052 96 02                    3349   	mov	r2,	#096h
00:0054 00 03                    3350   	mov	r3,	#00h
00:0056 00'00                    3351   	mov	r0,	#BYTE1 OFFSET _SensorReturn
00:0058 00'01                    3352   	mov	r1,	#BYTE2 OFFSET _SensorReturn
00:005A 01-F0'00-00'             3353   	bl	_uart_startSend
00:005E 02 E1                    3354   	add	sp,	#2 
                                 3355   
                                 3356   ;;	while(_flgUartFin != 1){
                                 3357   CLINEA 0000H 0000H 0584H 0001H 0001H
00:0060 02 CE                    3358   	bal	_$L201
                                 3359   
                                 3360   ;;	while(_flgUartFin != 1){
                                 3361   CLINEA 0000H 0000H 0584H 0002H 0019H
00:0062                          3362   _$L199 :
                                 3363   CBLOCK 226 4 1412
                                 3364   
                                 3365   ;;		main_clrWDT();
                                 3366   CLINEA 0000H 0001H 0585H 0003H 0010H
00:0062 01-F0'00-00'             3367   	bl	_main_clrWDT
                                 3368   CBLOCKEND 226 4 1414
                                 3369   
                                 3370   ;;	while(_flgUartFin != 1){
                                 3371   CLINEA 0000H 0000H 0584H 0001H 0001H
00:0066                          3372   _$L201 :
00:0066 10-90 00-00'             3373   	l	r0,	NEAR __flgUartFin
00:006A 01 70                    3374   	cmp	r0,	#01h
00:006C FA C8                    3375   	bne	_$L199
                                 3376   CBLOCKEND 226 2 1415
                                 3377   
                                 3378   ;;}
                                 3379   CLINEA 0000H 0001H 0587H 0001H 0001H
00:006E 8E-F2                    3380   	pop	pc
                                 3381   CBLOCKEND 226 1 1415
                                 3382   CFUNCTIONEND 226
                                 3383   
                                 3384   
  --------------------------     3385   	rseg $$ReturnMagData$main
                                 3386   CFUNCTION 227
                                 3387   
00:0000                          3388   _ReturnMagData	:
                                 3389   CBLOCK 227 1 1417
                                 3390   
                                 3391   ;;void ReturnMagData(void){
                                 3392   CLINEA 0000H 0001H 0589H 0001H 0019H
00:0000 CE-F8                    3393   	push	lr
                                 3394   CBLOCK 227 2 1417
                                 3395   CRET 0000H
                                 3396   CLOCAL 47H 0002H 0024H 0002H "i" 02H 00H 01H
                                 3397   
                                 3398   ;;	for(i = 0; i<150; i++)
                                 3399   CLINEA 0000H 0001H 058BH 0002H 0017H
00:0002 00 E0                    3400   	mov	er0,	#0 
00:0004                          3401   _$L205 :
                                 3402   CBLOCK 227 3 1420
                                 3403   
                                 3404   ;;		SensorReturn[i] = 0x20;
                                 3405   CLINEA 0000H 0001H 058DH 0003H 0019H
00:0004 20 02                    3406   	mov	r2,	#020h
00:0006 09-92 00-00'             3407   	st	r2,	NEAR _SensorReturn[er0]
                                 3408   CBLOCKEND 227 3 1422
                                 3409   
                                 3410   ;;	for(i = 0; i<150; i++)
                                 3411   CLINEA 0000H 0000H 058BH 0002H 0017H
00:000A 81 E0                    3412   	add	er0,	#1 
00:000C 96 70                    3413   	cmp	r0,	#096h
00:000E 00 51                    3414   	cmpc	r1,	#00h
00:0010 F9 C5                    3415   	blts	_$L205
                                 3416   
                                 3417   ;;	sprintf(SensorReturn, "%f", Mag_Angle);
                                 3418   CLINEA 0000H 0001H 058FH 0002H 0028H
00:0012 12-90 00-00'             3419   	l	er0,	NEAR _Mag_Angle
00:0016 12-92 00-00'             3420   	l	er2,	NEAR _Mag_Angle+02h
00:001A 6E-F0                    3421   	push	xr0
00:001C FC E1                    3422   	add	sp,	#-4
00:001E 01-F0'00-00'             3423   	bl	__ftodu8sw
00:0022 00'00                    3424   	mov	r0,	#BYTE1 OFFSET $$S209
00:0024 00'01                    3425   	mov	r1,	#BYTE2 OFFSET $$S209
00:0026 5E-F0                    3426   	push	er0
00:0028 00'00                    3427   	mov	r0,	#BYTE1 OFFSET _SensorReturn
00:002A 00'01                    3428   	mov	r1,	#BYTE2 OFFSET _SensorReturn
00:002C 5E-F0                    3429   	push	er0
00:002E 01-F0'00-00'             3430   	bl	_sprintf_nn
00:0032 0C E1                    3431   	add	sp,	#12
                                 3432   
                                 3433   ;;	SensorReturn[148] = 0x0D;
                                 3434   CLINEA 0000H 0001H 0591H 0002H 001AH
00:0034 0D 00                    3435   	mov	r0,	#0dh
00:0036 11-90 00-00'             3436   	st	r0,	NEAR _SensorReturn+094h
                                 3437   
                                 3438   ;;	SensorReturn[149] = 0x0A;
                                 3439   CLINEA 0000H 0001H 0592H 0002H 001AH
00:003A 0A 00                    3440   	mov	r0,	#0ah
00:003C 11-90 00-00'             3441   	st	r0,	NEAR _SensorReturn+095h
                                 3442   
                                 3443   ;;	_flgUartFin = 0;
                                 3444   CLINEA 0000H 0001H 0595H 0002H 0011H
00:0040 00 00                    3445   	mov	r0,	#00h
00:0042 11-90 00-00'             3446   	st	r0,	NEAR __flgUartFin
                                 3447   
                                 3448   ;;	uart_stop();
                                 3449   CLINEA 0000H 0001H 0596H 0002H 000DH
00:0046 01-F0'00-00'             3450   	bl	_uart_stop
                                 3451   
                                 3452   ;;	uart_startSend(SensorReturn, 150, _funcUartFin);
                                 3453   CLINEA 0000H 0001H 0597H 0002H 0031H
00:004A 00'00                    3454   	mov	r0,	#BYTE1 OFFSET __funcUartFin
00:004C 00'01                    3455   	mov	r1,	#BYTE2 OFFSET __funcUartFin
00:004E 5E-F0                    3456   	push	er0
00:0050 96 02                    3457   	mov	r2,	#096h
00:0052 00 03                    3458   	mov	r3,	#00h
00:0054 00'00                    3459   	mov	r0,	#BYTE1 OFFSET _SensorReturn
00:0056 00'01                    3460   	mov	r1,	#BYTE2 OFFSET _SensorReturn
00:0058 01-F0'00-00'             3461   	bl	_uart_startSend
00:005C 02 E1                    3462   	add	sp,	#2 
                                 3463   
                                 3464   ;;	while(_flgUartFin != 1){
                                 3465   CLINEA 0000H 0000H 0598H 0001H 0001H
00:005E 02 CE                    3466   	bal	_$L214
                                 3467   
                                 3468   ;;	while(_flgUartFin != 1){
                                 3469   CLINEA 0000H 0000H 0598H 0002H 0019H
00:0060                          3470   _$L212 :
                                 3471   CBLOCK 227 4 1432
                                 3472   
                                 3473   ;;		main_clrWDT();
                                 3474   CLINEA 0000H 0001H 0599H 0003H 0010H
00:0060 01-F0'00-00'             3475   	bl	_main_clrWDT
                                 3476   CBLOCKEND 227 4 1434
                                 3477   
                                 3478   ;;	while(_flgUartFin != 1){
                                 3479   CLINEA 0000H 0000H 0598H 0001H 0001H
00:0064                          3480   _$L214 :
00:0064 10-90 00-00'             3481   	l	r0,	NEAR __flgUartFin
00:0068 01 70                    3482   	cmp	r0,	#01h
00:006A FA C8                    3483   	bne	_$L212
                                 3484   CBLOCKEND 227 2 1435
                                 3485   
                                 3486   ;;}
                                 3487   CLINEA 0000H 0001H 059BH 0001H 0001H
00:006C 8E-F2                    3488   	pop	pc
                                 3489   CBLOCKEND 227 1 1435
                                 3490   CFUNCTIONEND 227
                                 3491   
                                 3492   
  --------------------------     3493   	rseg $$CalibrateMotors$main
                                 3494   CFUNCTION 228
                                 3495   
00:0000                          3496   _CalibrateMotors	:
                                 3497   CBLOCK 228 1 1443
                                 3498   
                                 3499   ;;void CalibrateMotors(void){
                                 3500   CLINEA 0000H 0001H 05A3H 0001H 001BH
                                 3501   CBLOCK 228 2 1443
                                 3502   CLOCAL 4BH 0002H 0000H 0002H "i" 02H 00H 01H
                                 3503   
                                 3504   ;;	PFRUN = 0;
                                 3505   CLINEA 0000H 0001H 05DFH 0002H 000BH
00:0000 82-A0 73-F9              3506   	rb	0f973h.0
                                 3507   
                                 3508   ;;	PERUN = 0;
                                 3509   CLINEA 0000H 0001H 05E0H 0002H 000BH
00:0004 82-A0 37-F9              3510   	rb	0f937h.0
                                 3511   
                                 3512   ;;	PDRUN = 0;
                                 3513   CLINEA 0000H 0001H 05E1H 0002H 000BH
00:0008 82-A0 27-F9              3514   	rb	0f927h.0
                                 3515   
                                 3516   ;;	PCRUN = 0;
                                 3517   CLINEA 0000H 0001H 05E2H 0002H 000BH
00:000C 82-A0 17-F9              3518   	rb	0f917h.0
                                 3519   
                                 3520   ;;	PWF0D = PWMSafeDuty; //Can't be running to change
                                 3521   CLINEA 0000H 0001H 05E4H 0002H 0032H
00:0010 12-90 00-00'             3522   	l	er0,	NEAR _PWMSafeDuty
00:0014 13-90 62-F9              3523   	st	er0,	0f962h
                                 3524   
                                 3525   ;;	PWED = PWMSafeDuty;
                                 3526   CLINEA 0000H 0001H 05E5H 0002H 0014H
00:0018 13-90 32-F9              3527   	st	er0,	0f932h
                                 3528   
                                 3529   ;;	PWDD = PWMSafeDuty;
                                 3530   CLINEA 0000H 0001H 05E6H 0002H 0014H
00:001C 13-90 22-F9              3531   	st	er0,	0f922h
                                 3532   
                                 3533   ;;	PWCD = PWMSafeDuty;
                                 3534   CLINEA 0000H 0001H 05E7H 0002H 0014H
00:0020 13-90 12-F9              3535   	st	er0,	0f912h
                                 3536   
                                 3537   ;;	PFRUN = 1;
                                 3538   CLINEA 0000H 0001H 05E9H 0002H 000BH
00:0024 80-A0 73-F9              3539   	sb	0f973h.0
                                 3540   
                                 3541   ;;	PERUN = 1;
                                 3542   CLINEA 0000H 0001H 05EAH 0002H 000BH
00:0028 80-A0 37-F9              3543   	sb	0f937h.0
                                 3544   
                                 3545   ;;	PDRUN = 1;
                                 3546   CLINEA 0000H 0001H 05EBH 0002H 000BH
00:002C 80-A0 27-F9              3547   	sb	0f927h.0
                                 3548   
                                 3549   ;;	PCRUN = 1;
                                 3550   CLINEA 0000H 0001H 05ECH 0002H 000BH
00:0030 80-A0 17-F9              3551   	sb	0f917h.0
                                 3552   
                                 3553   ;;	Mag_PIDCounter = 0;
                                 3554   CLINEA 0000H 0001H 05EEH 0002H 0014H
00:0034 00 E0                    3555   	mov	er0,	#0 
00:0036 13-90 00-00'             3556   	st	er0,	NEAR _Mag_PIDCounter
                                 3557   
                                 3558   ;;	CF_Gyro_Counter = 0;
                                 3559   CLINEA 0000H 0001H 05EFH 0002H 0015H
00:003A 13-90 00-00'             3560   	st	er0,	NEAR _CF_Gyro_Counter
00:003E 13-90 00-00'             3561   	st	er0,	NEAR _CF_Gyro_Counter+02h
                                 3562   
                                 3563   ;;	Accel_PID_XRollCounter_I = 0;
                                 3564   CLINEA 0000H 0001H 05F0H 0002H 001EH
00:0042 13-90 00-00'             3565   	st	er0,	NEAR _Accel_PID_XRollCounter_I
                                 3566   
                                 3567   ;;	Accel_PID_XRollCounter_D = 0;
                                 3568   CLINEA 0000H 0001H 05F1H 0002H 001EH
00:0046 13-90 00-00'             3569   	st	er0,	NEAR _Accel_PID_XRollCounter_D
                                 3570   
                                 3571   ;;	Accel_PID_YPitchCounter_I = 0;
                                 3572   CLINEA 0000H 0001H 05F2H 0002H 001FH
00:004A 13-90 00-00'             3573   	st	er0,	NEAR _Accel_PID_YPitchCounter_I
                                 3574   
                                 3575   ;;	Accel_PID_YPitchCounter_D = 0;
                                 3576   CLINEA 0000H 0001H 05F3H 0002H 001FH
00:004E 13-90 00-00'             3577   	st	er0,	NEAR _Accel_PID_YPitchCounter_D
                                 3578   
                                 3579   ;;	Range_PIDCounter = 0;
                                 3580   CLINEA 0000H 0001H 05F4H 0002H 0016H
00:0052 13-90 00-00'             3581   	st	er0,	NEAR _Range_PIDCounter
                                 3582   CBLOCKEND 228 2 1544
                                 3583   
                                 3584   ;;}
                                 3585   CLINEA 0000H 0001H 0608H 0001H 0001H
00:0056 1F-FE                    3586   	rt
                                 3587   CBLOCKEND 228 1 1544
                                 3588   CFUNCTIONEND 228
                                 3589   
                                 3590   
  --------------------------     3591   	rseg $$CalibrateGyro$main
                                 3592   CFUNCTION 229
                                 3593   
00:0000                          3594   _CalibrateGyro	:
                                 3595   CBLOCK 229 1 1547
                                 3596   
                                 3597   ;;void CalibrateGyro(void){
                                 3598   CLINEA 0000H 0001H 060BH 0001H 0019H
00:0000 CE-F8                    3599   	push	lr
00:0002 5E-F4                    3600   	push	er4
                                 3601   CBLOCK 229 2 1547
                                 3602   CRET 0002H
                                 3603   CLOCAL 47H 0002H 0026H 0002H "i" 02H 00H 01H
                                 3604   
                                 3605   ;;	for(i = 0; i<150; i++)
                                 3606   CLINEA 0000H 0001H 060FH 0002H 0017H
00:0004 00 E0                    3607   	mov	er0,	#0 
00:0006                          3608   _$L219 :
                                 3609   CBLOCK 229 3 1552
                                 3610   
                                 3611   ;;		SensorReturn[i] = 0x20;
                                 3612   CLINEA 0000H 0001H 0611H 0003H 0019H
00:0006 20 02                    3613   	mov	r2,	#020h
00:0008 09-92 00-00'             3614   	st	r2,	NEAR _SensorReturn[er0]
                                 3615   CBLOCKEND 229 3 1554
                                 3616   
                                 3617   ;;	for(i = 0; i<150; i++)
                                 3618   CLINEA 0000H 0000H 060FH 0002H 0017H
00:000C 81 E0                    3619   	add	er0,	#1 
00:000E 96 70                    3620   	cmp	r0,	#096h
00:0010 00 51                    3621   	cmpc	r1,	#00h
00:0012 F9 C5                    3622   	blts	_$L219
                                 3623   
                                 3624   ;;	sprintf(SensorReturn, "Gyro Calibration: Please Keep the Quad Flat and Return Any 2 chars to Start");
                                 3625   CLINEA 0000H 0001H 0613H 0002H 0066H
00:0014 00'00                    3626   	mov	r0,	#BYTE1 OFFSET $$S223
00:0016 00'01                    3627   	mov	r1,	#BYTE2 OFFSET $$S223
00:0018 5E-F0                    3628   	push	er0
00:001A 00'00                    3629   	mov	r0,	#BYTE1 OFFSET _SensorReturn
00:001C 00'01                    3630   	mov	r1,	#BYTE2 OFFSET _SensorReturn
00:001E 5E-F0                    3631   	push	er0
00:0020 01-F0'00-00'             3632   	bl	_sprintf_nn
00:0024 04 E1                    3633   	add	sp,	#4 
                                 3634   
                                 3635   ;;	SensorReturn[148] = 0x0D;
                                 3636   CLINEA 0000H 0001H 0615H 0002H 001AH
00:0026 0D 00                    3637   	mov	r0,	#0dh
00:0028 11-90 00-00'             3638   	st	r0,	NEAR _SensorReturn+094h
                                 3639   
                                 3640   ;;	SensorReturn[149] = 0x0A;
                                 3641   CLINEA 0000H 0001H 0616H 0002H 001AH
00:002C 0A 00                    3642   	mov	r0,	#0ah
00:002E 11-90 00-00'             3643   	st	r0,	NEAR _SensorReturn+095h
                                 3644   
                                 3645   ;;	_flgUartFin = 0;
                                 3646   CLINEA 0000H 0001H 0618H 0002H 0011H
00:0032 00 00                    3647   	mov	r0,	#00h
00:0034 11-90 00-00'             3648   	st	r0,	NEAR __flgUartFin
                                 3649   
                                 3650   ;;	uart_stop();
                                 3651   CLINEA 0000H 0001H 0619H 0002H 000DH
00:0038 01-F0'00-00'             3652   	bl	_uart_stop
                                 3653   
                                 3654   ;;	uart_startSend(SensorReturn, 150, _funcUartFin);
                                 3655   CLINEA 0000H 0001H 061AH 0002H 0031H
00:003C 00'00                    3656   	mov	r0,	#BYTE1 OFFSET __funcUartFin
00:003E 00'01                    3657   	mov	r1,	#BYTE2 OFFSET __funcUartFin
00:0040 5E-F0                    3658   	push	er0
00:0042 96 02                    3659   	mov	r2,	#096h
00:0044 00 03                    3660   	mov	r3,	#00h
00:0046 00'00                    3661   	mov	r0,	#BYTE1 OFFSET _SensorReturn
00:0048 00'01                    3662   	mov	r1,	#BYTE2 OFFSET _SensorReturn
00:004A 01-F0'00-00'             3663   	bl	_uart_startSend
00:004E 02 E1                    3664   	add	sp,	#2 
                                 3665   
                                 3666   ;;	while(_flgUartFin != 1){
                                 3667   CLINEA 0000H 0000H 061BH 0001H 0001H
00:0050 04 CE                    3668   	bal	_$L253
                                 3669   
                                 3670   ;;	while(_flgUartFin != 1){
                                 3671   CLINEA 0000H 0000H 061BH 0002H 0019H
00:0052                          3672   _$L226 :
                                 3673   CBLOCK 229 4 1563
                                 3674   
                                 3675   ;;		NOP1000();
                                 3676   CLINEA 0000H 0001H 061CH 0003H 000CH
00:0052 01-F0'00-00'             3677   	bl	_NOP1000
                                 3678   
                                 3679   ;;		main_clrWDT();
                                 3680   CLINEA 0000H 0001H 061DH 0003H 0010H
00:0056 01-F0'00-00'             3681   	bl	_main_clrWDT
                                 3682   CBLOCKEND 229 4 1566
                                 3683   
                                 3684   ;;	while(_flgUartFin != 1){
                                 3685   CLINEA 0000H 0000H 061BH 0001H 0001H
00:005A                          3686   _$L253 :
00:005A 10-90 00-00'             3687   	l	r0,	NEAR __flgUartFin
00:005E 01 70                    3688   	cmp	r0,	#01h
00:0060 F8 C8                    3689   	bne	_$L226
                                 3690   
                                 3691   ;;	_flgUartFin = 0;
                                 3692   CLINEA 0000H 0001H 0621H 0002H 0011H
00:0062 00 00                    3693   	mov	r0,	#00h
00:0064 11-90 00-00'             3694   	st	r0,	NEAR __flgUartFin
                                 3695   
                                 3696   ;;	uart_stop();
                                 3697   CLINEA 0000H 0001H 0622H 0002H 000DH
00:0068 01-F0'00-00'             3698   	bl	_uart_stop
                                 3699   
                                 3700   ;;	uart_startReceive(RecWorld, 2, _funcUartFin);
                                 3701   CLINEA 0000H 0001H 0623H 0002H 002EH
00:006C 00'00                    3702   	mov	r0,	#BYTE1 OFFSET __funcUartFin
00:006E 00'01                    3703   	mov	r1,	#BYTE2 OFFSET __funcUartFin
00:0070 5E-F0                    3704   	push	er0
00:0072 02 E2                    3705   	mov	er2,	#2 
00:0074 00'00                    3706   	mov	r0,	#BYTE1 OFFSET _RecWorld
00:0076 00'01                    3707   	mov	r1,	#BYTE2 OFFSET _RecWorld
00:0078 01-F0'00-00'             3708   	bl	_uart_startReceive
00:007C 02 E1                    3709   	add	sp,	#2 
                                 3710   
                                 3711   ;;	while(_flgUartFin != 1){
                                 3712   CLINEA 0000H 0000H 0624H 0001H 0001H
00:007E 02 CE                    3713   	bal	_$L254
                                 3714   
                                 3715   ;;	while(_flgUartFin != 1){
                                 3716   CLINEA 0000H 0000H 0624H 0002H 0019H
00:0080                          3717   _$L230 :
                                 3718   CBLOCK 229 5 1572
                                 3719   
                                 3720   ;;		main_clrWDT();
                                 3721   CLINEA 0000H 0001H 0625H 0003H 0010H
00:0080 01-F0'00-00'             3722   	bl	_main_clrWDT
                                 3723   CBLOCKEND 229 5 1574
                                 3724   
                                 3725   ;;	while(_flgUartFin != 1){
                                 3726   CLINEA 0000H 0000H 0624H 0001H 0001H
00:0084                          3727   _$L254 :
00:0084 10-90 00-00'             3728   	l	r0,	NEAR __flgUartFin
00:0088 01 70                    3729   	cmp	r0,	#01h
00:008A FA C8                    3730   	bne	_$L230
                                 3731   
                                 3732   ;;	i = 0;
                                 3733   CLINEA 0000H 0001H 0628H 0002H 0007H
00:008C 00 E4                    3734   	mov	er4,	#0 
                                 3735   
                                 3736   ;;	EPB3 = 1;					//Enable Accel/Gyro Interrupt Pin
                                 3737   CLINEA 0000H 0001H 062AH 0002H 0030H
00:008E F0-A0 11-F0              3738   	sb	0f011h.7
                                 3739   
                                 3740   ;;	while(i < 10){
                                 3741   CLINEA 0000H 0000H 062BH 0002H 000FH
00:0092                          3742   _$L234 :
                                 3743   CBLOCK 229 6 1579
                                 3744   
                                 3745   ;;		if(AccGyro_ReadFlag >= 1){		//Triggered by External Interrupt (flag set in AccelGyroDataReady_ISR)
                                 3746   CLINEA 0000H 0001H 062CH 0003H 0064H
00:0092 10-90 00-00'             3747   	l	r0,	NEAR _AccGyro_ReadFlag
00:0096 01 70                    3748   	cmp	r0,	#01h
00:0098 02 C0                    3749   	bge	_$M17
00:009A 00-F0'00-00'             3750   	b	_$L236
00:009E                          3751   _$M17 :
                                 3752   CBLOCK 229 7 1580
                                 3753   
                                 3754   ;;			_flgI2CFin = 0;																	//reset I2C completed Flag
                                 3755   CLINEA 0000H 0001H 0630H 0004H 003DH
00:009E 00 00                    3756   	mov	r0,	#00h
00:00A0 11-90 00-00'             3757   	st	r0,	NEAR __flgI2CFin
                                 3758   
                                 3759   ;;			i2c_stop();																		//Make sure I2C is not currently running
                                 3760   CLINEA 0000H 0001H 0631H 0004H 0048H
00:00A4 01-F0'00-00'             3761   	bl	_i2c_stop
                                 3762   
                                 3763   ;;			I20MD = 1;		//Switch to I2C Fast Operation (400kbps)
                                 3764   CLINEA 0000H 0001H 0632H 0004H 0037H
00:00A8 90-A0 A4-F2              3765   	sb	0f2a4h.1
                                 3766   
                                 3767   ;;			i2c_startReceive(MPU6050Address, &AccGyro_ReadData, 1, &AccGyro_Data, 14, (cbfI2c)_funcI2CFin);	//Begin I2C Receive Command
                                 3768   CLINEA 0000H 0001H 0633H 0004H 007EH
00:00AC 00'00                    3769   	mov	r0,	#BYTE1 OFFSET __funcI2CFin
00:00AE 00'01                    3770   	mov	r1,	#BYTE2 OFFSET __funcI2CFin
00:00B0 5E-F0                    3771   	push	er0
00:00B2 0E E0                    3772   	mov	er0,	#14
00:00B4 5E-F0                    3773   	push	er0
00:00B6 00'00                    3774   	mov	r0,	#BYTE1 OFFSET _AccGyro_Data
00:00B8 00'01                    3775   	mov	r1,	#BYTE2 OFFSET _AccGyro_Data
00:00BA 5E-F0                    3776   	push	er0
00:00BC 01 E0                    3777   	mov	er0,	#1 
00:00BE 5E-F0                    3778   	push	er0
00:00C0 00'02                    3779   	mov	r2,	#BYTE1 OFFSET _AccGyro_ReadData
00:00C2 00'03                    3780   	mov	r3,	#BYTE2 OFFSET _AccGyro_ReadData
00:00C4 10-90 00-00'             3781   	l	r0,	NEAR _MPU6050Address
00:00C8 01-F0'00-00'             3782   	bl	_i2c_startReceive
00:00CC 08 E1                    3783   	add	sp,	#8 
                                 3784   
                                 3785   ;;			while(_flgI2CFin != 1){															//Wait for I2C commands to finish transfer
                                 3786   CLINEA 0000H 0000H 0634H 0001H 0001H
00:00CE 02 CE                    3787   	bal	_$L255
                                 3788   
                                 3789   ;;			while(_flgI2CFin != 1){															//Wait for I2C commands to finish transfer
                                 3790   CLINEA 0000H 0000H 0634H 0004H 0053H
00:00D0                          3791   _$L240 :
                                 3792   CBLOCK 229 8 1588
                                 3793   
                                 3794   ;;				main_clrWDT();	
                                 3795   CLINEA 0000H 0001H 0635H 0005H 0013H
00:00D0 01-F0'00-00'             3796   	bl	_main_clrWDT
                                 3797   CBLOCKEND 229 8 1590
                                 3798   
                                 3799   ;;			while(_flgI2CFin != 1){															//Wait for I2C commands to finish transfer
                                 3800   CLINEA 0000H 0000H 0634H 0001H 0001H
00:00D4                          3801   _$L255 :
00:00D4 10-90 00-00'             3802   	l	r0,	NEAR __flgI2CFin
00:00D8 01 70                    3803   	cmp	r0,	#01h
00:00DA FA C8                    3804   	bne	_$L240
                                 3805   
                                 3806   ;;			Gyro_Xcal += (AccGyro_Data[8]<<8)+(AccGyro_Data[9]);
                                 3807   CLINEA 0000H 0001H 063AH 0004H 0037H
00:00DC 10-90 00-00'             3808   	l	r0,	NEAR _AccGyro_Data+08h
00:00E0 00 01                    3809   	mov	r1,	#00h
00:00E2 00-83                    3810   	mov	r3,	r0
00:00E4 00 02                    3811   	mov	r2,	#00h
00:00E6 10-90 00-00'             3812   	l	r0,	NEAR _AccGyro_Data+09h
00:00EA 26-F0                    3813   	add	er0,	er2
00:00EC 10-82                    3814   	mov	r2,	r1
00:00EE 2F-83                    3815   	extbw	er2
00:00F0 30-82                    3816   	mov	r2,	r3
00:00F2 6E-F0                    3817   	push	xr0
00:00F4 01-F0'00-00'             3818   	bl	__fildu8sw
00:00F8 12-90 00-00'             3819   	l	er0,	NEAR _Gyro_Xcal
00:00FC 12-92 00-00'             3820   	l	er2,	NEAR _Gyro_Xcal+02h
00:0100 6E-F0                    3821   	push	xr0
00:0102 01-F0'00-00'             3822   	bl	__faddu8sw
00:0106 04 E1                    3823   	add	sp,	#4 
00:0108 2E-F0                    3824   	pop	xr0
00:010A 13-90 00-00'             3825   	st	er0,	NEAR _Gyro_Xcal
00:010E 13-92 00-00'             3826   	st	er2,	NEAR _Gyro_Xcal+02h
                                 3827   
                                 3828   ;;			Gyro_Ycal += (AccGyro_Data[10]<<8)+(AccGyro_Data[11]);
                                 3829   CLINEA 0000H 0001H 063BH 0004H 0039H
00:0112 10-90 00-00'             3830   	l	r0,	NEAR _AccGyro_Data+0ah
00:0116 00 01                    3831   	mov	r1,	#00h
00:0118 00-83                    3832   	mov	r3,	r0
00:011A 00 02                    3833   	mov	r2,	#00h
00:011C 10-90 00-00'             3834   	l	r0,	NEAR _AccGyro_Data+0bh
00:0120 26-F0                    3835   	add	er0,	er2
00:0122 10-82                    3836   	mov	r2,	r1
00:0124 2F-83                    3837   	extbw	er2
00:0126 30-82                    3838   	mov	r2,	r3
00:0128 6E-F0                    3839   	push	xr0
00:012A 01-F0'00-00'             3840   	bl	__fildu8sw
00:012E 12-90 00-00'             3841   	l	er0,	NEAR _Gyro_Ycal
00:0132 12-92 00-00'             3842   	l	er2,	NEAR _Gyro_Ycal+02h
00:0136 6E-F0                    3843   	push	xr0
00:0138 01-F0'00-00'             3844   	bl	__faddu8sw
00:013C 04 E1                    3845   	add	sp,	#4 
00:013E 2E-F0                    3846   	pop	xr0
00:0140 13-90 00-00'             3847   	st	er0,	NEAR _Gyro_Ycal
00:0144 13-92 00-00'             3848   	st	er2,	NEAR _Gyro_Ycal+02h
                                 3849   
                                 3850   ;;			Gyro_Zcal += (AccGyro_Data[12]<<8)+(AccGyro_Data[13]);
                                 3851   CLINEA 0000H 0001H 063CH 0004H 0039H
00:0148 10-90 00-00'             3852   	l	r0,	NEAR _AccGyro_Data+0ch
00:014C 00 01                    3853   	mov	r1,	#00h
00:014E 00-83                    3854   	mov	r3,	r0
00:0150 00 02                    3855   	mov	r2,	#00h
00:0152 10-90 00-00'             3856   	l	r0,	NEAR _AccGyro_Data+0dh
00:0156 26-F0                    3857   	add	er0,	er2
00:0158 10-82                    3858   	mov	r2,	r1
00:015A 2F-83                    3859   	extbw	er2
00:015C 30-82                    3860   	mov	r2,	r3
00:015E 6E-F0                    3861   	push	xr0
00:0160 01-F0'00-00'             3862   	bl	__fildu8sw
00:0164 12-90 00-00'             3863   	l	er0,	NEAR _Gyro_Zcal
00:0168 12-92 00-00'             3864   	l	er2,	NEAR _Gyro_Zcal+02h
00:016C 6E-F0                    3865   	push	xr0
00:016E 01-F0'00-00'             3866   	bl	__faddu8sw
00:0172 04 E1                    3867   	add	sp,	#4 
00:0174 2E-F0                    3868   	pop	xr0
00:0176 13-90 00-00'             3869   	st	er0,	NEAR _Gyro_Zcal
00:017A 13-92 00-00'             3870   	st	er2,	NEAR _Gyro_Zcal+02h
                                 3871   
                                 3872   ;;			Accel_Xcal[0] += (AccGyro_Data[0]<<8)+(AccGyro_Data[1]);
                                 3873   CLINEA 0000H 0001H 063DH 0004H 003BH
00:017E 10-90 00-00'             3874   	l	r0,	NEAR _AccGyro_Data+01h
00:0182 00 01                    3875   	mov	r1,	#00h
00:0184 10-92 00-00'             3876   	l	r2,	NEAR _AccGyro_Data
00:0188 20-83                    3877   	mov	r3,	r2
00:018A 00 02                    3878   	mov	r2,	#00h
00:018C 26-F0                    3879   	add	er0,	er2
00:018E 10-82                    3880   	mov	r2,	r1
00:0190 2F-83                    3881   	extbw	er2
00:0192 30-82                    3882   	mov	r2,	r3
00:0194 6E-F0                    3883   	push	xr0
00:0196 01-F0'00-00'             3884   	bl	__fildu8sw
00:019A 12-90 00-00'             3885   	l	er0,	NEAR _Accel_Xcal
00:019E 12-92 00-00'             3886   	l	er2,	NEAR _Accel_Xcal+02h
00:01A2 6E-F0                    3887   	push	xr0
00:01A4 01-F0'00-00'             3888   	bl	__faddu8sw
00:01A8 04 E1                    3889   	add	sp,	#4 
00:01AA 2E-F0                    3890   	pop	xr0
00:01AC 13-90 00-00'             3891   	st	er0,	NEAR _Accel_Xcal
00:01B0 13-92 00-00'             3892   	st	er2,	NEAR _Accel_Xcal+02h
                                 3893   
                                 3894   ;;			Accel_Ycal[0] += (AccGyro_Data[2]<<8)+(AccGyro_Data[3]);
                                 3895   CLINEA 0000H 0001H 063EH 0004H 003BH
00:01B4 10-90 00-00'             3896   	l	r0,	NEAR _AccGyro_Data+02h
00:01B8 00 01                    3897   	mov	r1,	#00h
00:01BA 00-83                    3898   	mov	r3,	r0
00:01BC 00 02                    3899   	mov	r2,	#00h
00:01BE 10-90 00-00'             3900   	l	r0,	NEAR _AccGyro_Data+03h
00:01C2 26-F0                    3901   	add	er0,	er2
00:01C4 10-82                    3902   	mov	r2,	r1
00:01C6 2F-83                    3903   	extbw	er2
00:01C8 30-82                    3904   	mov	r2,	r3
00:01CA 6E-F0                    3905   	push	xr0
00:01CC 01-F0'00-00'             3906   	bl	__fildu8sw
00:01D0 12-90 00-00'             3907   	l	er0,	NEAR _Accel_Ycal
00:01D4 12-92 00-00'             3908   	l	er2,	NEAR _Accel_Ycal+02h
00:01D8 6E-F0                    3909   	push	xr0
00:01DA 01-F0'00-00'             3910   	bl	__faddu8sw
00:01DE 04 E1                    3911   	add	sp,	#4 
00:01E0 2E-F0                    3912   	pop	xr0
00:01E2 13-90 00-00'             3913   	st	er0,	NEAR _Accel_Ycal
00:01E6 13-92 00-00'             3914   	st	er2,	NEAR _Accel_Ycal+02h
                                 3915   
                                 3916   ;;			i++;
                                 3917   CLINEA 0000H 0000H 063FH 0004H 0007H
00:01EA 81 E4                    3918   	add	er4,	#1 
                                 3919   CBLOCKEND 229 7 1600
                                 3920   
                                 3921   ;;		}
                                 3922   CLINEA 0000H 0000H 0640H 0003H 0003H
00:01EC                          3923   _$L236 :
                                 3924   CBLOCKEND 229 6 1601
                                 3925   
                                 3926   ;;	while(i < 10){
                                 3927   CLINEA 0000H 0000H 062BH 0000H 0000H
00:01EC 0A 74                    3928   	cmp	r4,	#0ah
00:01EE 00 55                    3929   	cmpc	r5,	#00h
00:01F0 02 C4                    3930   	bges	_$M18
00:01F2 00-F0'00-00'             3931   	b	_$L234
00:01F6                          3932   _$M18 :
                                 3933   
                                 3934   ;;	Gyro_Xcal /= 10;
                                 3935   CLINEA 0000H 0001H 0642H 0002H 0011H
00:01F6 12-90 00-00'             3936   	l	er0,	NEAR _Gyro_Xcal
00:01FA 12-92 00-00'             3937   	l	er2,	NEAR _Gyro_Xcal+02h
00:01FE 6E-F0                    3938   	push	xr0
00:0200 00 E0                    3939   	mov	er0,	#0 
00:0202 20 02                    3940   	mov	r2,	#020h
00:0204 41 03                    3941   	mov	r3,	#041h
00:0206 6E-F0                    3942   	push	xr0
00:0208 01-F0'00-00'             3943   	bl	__fdivu8sw
00:020C 04 E1                    3944   	add	sp,	#4 
00:020E 2E-F0                    3945   	pop	xr0
00:0210 13-90 00-00'             3946   	st	er0,	NEAR _Gyro_Xcal
00:0214 13-92 00-00'             3947   	st	er2,	NEAR _Gyro_Xcal+02h
                                 3948   
                                 3949   ;;	Gyro_Ycal /= 10;
                                 3950   CLINEA 0000H 0001H 0643H 0002H 0011H
00:0218 12-90 00-00'             3951   	l	er0,	NEAR _Gyro_Ycal
00:021C 12-92 00-00'             3952   	l	er2,	NEAR _Gyro_Ycal+02h
00:0220 6E-F0                    3953   	push	xr0
00:0222 00 E0                    3954   	mov	er0,	#0 
00:0224 20 02                    3955   	mov	r2,	#020h
00:0226 41 03                    3956   	mov	r3,	#041h
00:0228 6E-F0                    3957   	push	xr0
00:022A 01-F0'00-00'             3958   	bl	__fdivu8sw
00:022E 04 E1                    3959   	add	sp,	#4 
00:0230 2E-F0                    3960   	pop	xr0
00:0232 13-90 00-00'             3961   	st	er0,	NEAR _Gyro_Ycal
00:0236 13-92 00-00'             3962   	st	er2,	NEAR _Gyro_Ycal+02h
                                 3963   
                                 3964   ;;	Gyro_Zcal /= 10;
                                 3965   CLINEA 0000H 0001H 0644H 0002H 0011H
00:023A 12-90 00-00'             3966   	l	er0,	NEAR _Gyro_Zcal
00:023E 12-92 00-00'             3967   	l	er2,	NEAR _Gyro_Zcal+02h
00:0242 6E-F0                    3968   	push	xr0
00:0244 00 E0                    3969   	mov	er0,	#0 
00:0246 20 02                    3970   	mov	r2,	#020h
00:0248 41 03                    3971   	mov	r3,	#041h
00:024A 6E-F0                    3972   	push	xr0
00:024C 01-F0'00-00'             3973   	bl	__fdivu8sw
00:0250 04 E1                    3974   	add	sp,	#4 
00:0252 2E-F0                    3975   	pop	xr0
00:0254 13-90 00-00'             3976   	st	er0,	NEAR _Gyro_Zcal
00:0258 13-92 00-00'             3977   	st	er2,	NEAR _Gyro_Zcal+02h
                                 3978   
                                 3979   ;;	Accel_Xcal[0] /= 10;
                                 3980   CLINEA 0000H 0001H 0645H 0002H 0015H
00:025C 12-90 00-00'             3981   	l	er0,	NEAR _Accel_Xcal
00:0260 12-92 00-00'             3982   	l	er2,	NEAR _Accel_Xcal+02h
00:0264 6E-F0                    3983   	push	xr0
00:0266 00 E0                    3984   	mov	er0,	#0 
00:0268 20 02                    3985   	mov	r2,	#020h
00:026A 41 03                    3986   	mov	r3,	#041h
00:026C 6E-F0                    3987   	push	xr0
00:026E 01-F0'00-00'             3988   	bl	__fdivu8sw
00:0272 04 E1                    3989   	add	sp,	#4 
00:0274 2E-F0                    3990   	pop	xr0
00:0276 13-90 00-00'             3991   	st	er0,	NEAR _Accel_Xcal
00:027A 13-92 00-00'             3992   	st	er2,	NEAR _Accel_Xcal+02h
                                 3993   
                                 3994   ;;	Accel_Ycal[0] /= 10;
                                 3995   CLINEA 0000H 0001H 0646H 0002H 0015H
00:027E 12-90 00-00'             3996   	l	er0,	NEAR _Accel_Ycal
00:0282 12-92 00-00'             3997   	l	er2,	NEAR _Accel_Ycal+02h
00:0286 6E-F0                    3998   	push	xr0
00:0288 00 E0                    3999   	mov	er0,	#0 
00:028A 20 02                    4000   	mov	r2,	#020h
00:028C 41 03                    4001   	mov	r3,	#041h
00:028E 6E-F0                    4002   	push	xr0
00:0290 01-F0'00-00'             4003   	bl	__fdivu8sw
00:0294 04 E1                    4004   	add	sp,	#4 
00:0296 2E-F0                    4005   	pop	xr0
00:0298 13-90 00-00'             4006   	st	er0,	NEAR _Accel_Ycal
00:029C 13-92 00-00'             4007   	st	er2,	NEAR _Accel_Ycal+02h
                                 4008   
                                 4009   ;;	EPB3 = 0;					//Enable Accel/Gyro Interrupt Pin
                                 4010   CLINEA 0000H 0001H 0647H 0002H 0030H
00:02A0 F2-A0 11-F0              4011   	rb	0f011h.7
                                 4012   
                                 4013   ;;	for(i = 0; i<150; i++)
                                 4014   CLINEA 0000H 0001H 0661H 0002H 0017H
00:02A4 00 E0                    4015   	mov	er0,	#0 
00:02A6                          4016   _$L244 :
                                 4017   CBLOCK 229 9 1634
                                 4018   
                                 4019   ;;		SensorReturn[i] = 0x20;
                                 4020   CLINEA 0000H 0001H 0663H 0003H 0019H
00:02A6 20 02                    4021   	mov	r2,	#020h
00:02A8 09-92 00-00'             4022   	st	r2,	NEAR _SensorReturn[er0]
                                 4023   CBLOCKEND 229 9 1636
                                 4024   
                                 4025   ;;	for(i = 0; i<150; i++)
                                 4026   CLINEA 0000H 0000H 0661H 0002H 0017H
00:02AC 81 E0                    4027   	add	er0,	#1 
00:02AE 96 70                    4028   	cmp	r0,	#096h
00:02B0 00 51                    4029   	cmpc	r1,	#00h
00:02B2 F9 C5                    4030   	blts	_$L244
                                 4031   
                                 4032   ;;	sprintf(SensorReturn, "Gyro Calibration Complete!");
                                 4033   CLINEA 0000H 0001H 0665H 0002H 0035H
00:02B4 00'00                    4034   	mov	r0,	#BYTE1 OFFSET $$S248
00:02B6 00'01                    4035   	mov	r1,	#BYTE2 OFFSET $$S248
00:02B8 5E-F0                    4036   	push	er0
00:02BA 00'00                    4037   	mov	r0,	#BYTE1 OFFSET _SensorReturn
00:02BC 00'01                    4038   	mov	r1,	#BYTE2 OFFSET _SensorReturn
00:02BE 5E-F0                    4039   	push	er0
00:02C0 01-F0'00-00'             4040   	bl	_sprintf_nn
00:02C4 04 E1                    4041   	add	sp,	#4 
                                 4042   
                                 4043   ;;	SensorReturn[148] = 0x0D;
                                 4044   CLINEA 0000H 0001H 0666H 0002H 001AH
00:02C6 0D 00                    4045   	mov	r0,	#0dh
00:02C8 11-90 00-00'             4046   	st	r0,	NEAR _SensorReturn+094h
                                 4047   
                                 4048   ;;	SensorReturn[149] = 0x0A;
                                 4049   CLINEA 0000H 0001H 0667H 0002H 001AH
00:02CC 0A 00                    4050   	mov	r0,	#0ah
00:02CE 11-90 00-00'             4051   	st	r0,	NEAR _SensorReturn+095h
                                 4052   
                                 4053   ;;	_flgUartFin = 0;
                                 4054   CLINEA 0000H 0001H 0669H 0002H 0011H
00:02D2 00 00                    4055   	mov	r0,	#00h
00:02D4 11-90 00-00'             4056   	st	r0,	NEAR __flgUartFin
                                 4057   
                                 4058   ;;	uart_stop();
                                 4059   CLINEA 0000H 0001H 066AH 0002H 000DH
00:02D8 01-F0'00-00'             4060   	bl	_uart_stop
                                 4061   
                                 4062   ;;	uart_startSend(SensorReturn, 150, _funcUartFin);
                                 4063   CLINEA 0000H 0001H 066BH 0002H 0031H
00:02DC 00'00                    4064   	mov	r0,	#BYTE1 OFFSET __funcUartFin
00:02DE 00'01                    4065   	mov	r1,	#BYTE2 OFFSET __funcUartFin
00:02E0 5E-F0                    4066   	push	er0
00:02E2 96 02                    4067   	mov	r2,	#096h
00:02E4 00 03                    4068   	mov	r3,	#00h
00:02E6 00'00                    4069   	mov	r0,	#BYTE1 OFFSET _SensorReturn
00:02E8 00'01                    4070   	mov	r1,	#BYTE2 OFFSET _SensorReturn
00:02EA 01-F0'00-00'             4071   	bl	_uart_startSend
00:02EE 02 E1                    4072   	add	sp,	#2 
                                 4073   
                                 4074   ;;	while(_flgUartFin != 1){
                                 4075   CLINEA 0000H 0000H 066CH 0001H 0001H
00:02F0 04 CE                    4076   	bal	_$L256
                                 4077   
                                 4078   ;;	while(_flgUartFin != 1){
                                 4079   CLINEA 0000H 0000H 066CH 0002H 0019H
00:02F2                          4080   _$L251 :
                                 4081   CBLOCK 229 10 1644
                                 4082   
                                 4083   ;;		NOP1000();
                                 4084   CLINEA 0000H 0001H 066DH 0003H 000CH
00:02F2 01-F0'00-00'             4085   	bl	_NOP1000
                                 4086   
                                 4087   ;;		main_clrWDT();
                                 4088   CLINEA 0000H 0001H 066EH 0003H 0010H
00:02F6 01-F0'00-00'             4089   	bl	_main_clrWDT
                                 4090   CBLOCKEND 229 10 1647
                                 4091   
                                 4092   ;;	while(_flgUartFin != 1){
                                 4093   CLINEA 0000H 0000H 066CH 0001H 0001H
00:02FA                          4094   _$L256 :
00:02FA 10-90 00-00'             4095   	l	r0,	NEAR __flgUartFin
00:02FE 01 70                    4096   	cmp	r0,	#01h
00:0300 F8 C8                    4097   	bne	_$L251
                                 4098   CBLOCKEND 229 2 1648
                                 4099   
                                 4100   ;;}
                                 4101   CLINEA 0000H 0001H 0670H 0001H 0001H
00:0302 1E-F4                    4102   	pop	er4
00:0304 8E-F2                    4103   	pop	pc
                                 4104   CBLOCKEND 229 1 1648
                                 4105   CFUNCTIONEND 229
                                 4106   
                                 4107   
  --------------------------     4108   	rseg $$CalibrateAccel$main
                                 4109   CFUNCTION 230
                                 4110   
00:0000                          4111   _CalibrateAccel	:
                                 4112   CBLOCK 230 1 1650
                                 4113   
                                 4114   ;;void CalibrateAccel(void){
                                 4115   CLINEA 0000H 0001H 0672H 0001H 001AH
00:0000 CE-F8                    4116   	push	lr
00:0002 5E-F8                    4117   	push	er8
                                 4118   CBLOCK 230 2 1650
                                 4119   CRET 0002H
                                 4120   CLOCAL 47H 0002H 0028H 0002H "i" 02H 00H 01H
                                 4121   
                                 4122   ;;	for(i = 0; i<150; i++)
                                 4123   CLINEA 0000H 0001H 0676H 0002H 0017H
00:0004 00 E0                    4124   	mov	er0,	#0 
00:0006                          4125   _$L260 :
                                 4126   CBLOCK 230 3 1655
                                 4127   
                                 4128   ;;		SensorReturn[i] = 0x20;
                                 4129   CLINEA 0000H 0001H 0678H 0003H 0019H
00:0006 20 02                    4130   	mov	r2,	#020h
00:0008 09-92 00-00'             4131   	st	r2,	NEAR _SensorReturn[er0]
                                 4132   CBLOCKEND 230 3 1657
                                 4133   
                                 4134   ;;	for(i = 0; i<150; i++)
                                 4135   CLINEA 0000H 0000H 0676H 0002H 0017H
00:000C 81 E0                    4136   	add	er0,	#1 
00:000E 96 70                    4137   	cmp	r0,	#096h
00:0010 00 51                    4138   	cmpc	r1,	#00h
00:0012 F9 C5                    4139   	blts	_$L260
                                 4140   
                                 4141   ;;	sprintf(SensorReturn, "Accel Calibration: Keep Quad Flat! Return any 2 chars to Start");
                                 4142   CLINEA 0000H 0001H 067AH 0002H 0059H
00:0014 00'00                    4143   	mov	r0,	#BYTE1 OFFSET $$S264
00:0016 00'01                    4144   	mov	r1,	#BYTE2 OFFSET $$S264
00:0018 5E-F0                    4145   	push	er0
00:001A 00'00                    4146   	mov	r0,	#BYTE1 OFFSET _SensorReturn
00:001C 00'01                    4147   	mov	r1,	#BYTE2 OFFSET _SensorReturn
00:001E 5E-F0                    4148   	push	er0
00:0020 01-F0'00-00'             4149   	bl	_sprintf_nn
00:0024 04 E1                    4150   	add	sp,	#4 
                                 4151   
                                 4152   ;;	SensorReturn[148] = 0x0D;
                                 4153   CLINEA 0000H 0001H 067BH 0002H 001AH
00:0026 0D 00                    4154   	mov	r0,	#0dh
00:0028 11-90 00-00'             4155   	st	r0,	NEAR _SensorReturn+094h
                                 4156   
                                 4157   ;;	SensorReturn[149] = 0x0A;
                                 4158   CLINEA 0000H 0001H 067CH 0002H 001AH
00:002C 0A 00                    4159   	mov	r0,	#0ah
00:002E 11-90 00-00'             4160   	st	r0,	NEAR _SensorReturn+095h
                                 4161   
                                 4162   ;;	_flgUartFin = 0;
                                 4163   CLINEA 0000H 0001H 067EH 0002H 0011H
00:0032 00 00                    4164   	mov	r0,	#00h
00:0034 11-90 00-00'             4165   	st	r0,	NEAR __flgUartFin
                                 4166   
                                 4167   ;;	uart_stop();
                                 4168   CLINEA 0000H 0001H 067FH 0002H 000DH
00:0038 01-F0'00-00'             4169   	bl	_uart_stop
                                 4170   
                                 4171   ;;	uart_startSend(SensorReturn, 150, _funcUartFin);
                                 4172   CLINEA 0000H 0001H 0680H 0002H 0031H
00:003C 00'00                    4173   	mov	r0,	#BYTE1 OFFSET __funcUartFin
00:003E 00'01                    4174   	mov	r1,	#BYTE2 OFFSET __funcUartFin
00:0040 5E-F0                    4175   	push	er0
00:0042 96 02                    4176   	mov	r2,	#096h
00:0044 00 03                    4177   	mov	r3,	#00h
00:0046 00'00                    4178   	mov	r0,	#BYTE1 OFFSET _SensorReturn
00:0048 00'01                    4179   	mov	r1,	#BYTE2 OFFSET _SensorReturn
00:004A 01-F0'00-00'             4180   	bl	_uart_startSend
00:004E 02 E1                    4181   	add	sp,	#2 
                                 4182   
                                 4183   ;;	while(_flgUartFin != 1){
                                 4184   CLINEA 0000H 0000H 0681H 0001H 0001H
00:0050 04 CE                    4185   	bal	_$L350
                                 4186   
                                 4187   ;;	while(_flgUartFin != 1){
                                 4188   CLINEA 0000H 0000H 0681H 0002H 0019H
00:0052                          4189   _$L267 :
                                 4190   CBLOCK 230 4 1665
                                 4191   
                                 4192   ;;		NOP1000();
                                 4193   CLINEA 0000H 0001H 0682H 0003H 000CH
00:0052 01-F0'00-00'             4194   	bl	_NOP1000
                                 4195   
                                 4196   ;;		main_clrWDT();
                                 4197   CLINEA 0000H 0001H 0683H 0003H 0010H
00:0056 01-F0'00-00'             4198   	bl	_main_clrWDT
                                 4199   CBLOCKEND 230 4 1668
                                 4200   
                                 4201   ;;	while(_flgUartFin != 1){
                                 4202   CLINEA 0000H 0000H 0681H 0001H 0001H
00:005A                          4203   _$L350 :
00:005A 10-90 00-00'             4204   	l	r0,	NEAR __flgUartFin
00:005E 01 70                    4205   	cmp	r0,	#01h
00:0060 F8 C8                    4206   	bne	_$L267
                                 4207   
                                 4208   ;;	_flgUartFin = 0;
                                 4209   CLINEA 0000H 0001H 0686H 0002H 0011H
00:0062 00 00                    4210   	mov	r0,	#00h
00:0064 11-90 00-00'             4211   	st	r0,	NEAR __flgUartFin
                                 4212   
                                 4213   ;;	uart_stop();
                                 4214   CLINEA 0000H 0001H 0687H 0002H 000DH
00:0068 01-F0'00-00'             4215   	bl	_uart_stop
                                 4216   
                                 4217   ;;	uart_startReceive(RecWorld, 2, _funcUartFin);
                                 4218   CLINEA 0000H 0001H 0688H 0002H 002EH
00:006C 00'00                    4219   	mov	r0,	#BYTE1 OFFSET __funcUartFin
00:006E 00'01                    4220   	mov	r1,	#BYTE2 OFFSET __funcUartFin
00:0070 5E-F0                    4221   	push	er0
00:0072 02 E2                    4222   	mov	er2,	#2 
00:0074 00'00                    4223   	mov	r0,	#BYTE1 OFFSET _RecWorld
00:0076 00'01                    4224   	mov	r1,	#BYTE2 OFFSET _RecWorld
00:0078 01-F0'00-00'             4225   	bl	_uart_startReceive
00:007C 02 E1                    4226   	add	sp,	#2 
                                 4227   
                                 4228   ;;	while(_flgUartFin != 1){
                                 4229   CLINEA 0000H 0000H 0689H 0001H 0001H
00:007E 02 CE                    4230   	bal	_$L351
                                 4231   
                                 4232   ;;	while(_flgUartFin != 1){
                                 4233   CLINEA 0000H 0000H 0689H 0002H 0019H
00:0080                          4234   _$L271 :
                                 4235   CBLOCK 230 5 1673
                                 4236   
                                 4237   ;;		main_clrWDT();
                                 4238   CLINEA 0000H 0001H 068AH 0003H 0010H
00:0080 01-F0'00-00'             4239   	bl	_main_clrWDT
                                 4240   CBLOCKEND 230 5 1675
                                 4241   
                                 4242   ;;	while(_flgUartFin != 1){
                                 4243   CLINEA 0000H 0000H 0689H 0001H 0001H
00:0084                          4244   _$L351 :
                                 4245   
                                 4246   ;;	while(_flgUartFin != 1){
                                 4247   CLINEA 0000H 0000H 0689H 000DH 0011H
00:0084 10-90 00-00'             4248   	l	r0,	NEAR __flgUartFin
00:0088 01 70                    4249   	cmp	r0,	#01h
00:008A FA C8                    4250   	bne	_$L271
                                 4251   
                                 4252   ;;	for(i = 0; i<10; i++){
                                 4253   CLINEA 0000H 0001H 068DH 0006H 000BH
00:008C 00 E8                    4254   	mov	er8,	#0 
                                 4255   
                                 4256   ;;	for(i = 0; i<10; i++){
                                 4257   CLINEA 0000H 0000H 068DH 0013H 0015H
00:008E                          4258   _$L275 :
                                 4259   CBLOCK 230 6 1677
                                 4260   
                                 4261   ;;		_flgI2CFin = 0;																	//reset I2C completed Flag
                                 4262   CLINEA 0000H 0001H 0691H 0003H 003CH
00:008E 00 00                    4263   	mov	r0,	#00h
00:0090 11-90 00-00'             4264   	st	r0,	NEAR __flgI2CFin
                                 4265   
                                 4266   ;;		i2c_stop();																		//Make sure I2C is not currently running
                                 4267   CLINEA 0000H 0001H 0692H 0003H 0047H
00:0094 01-F0'00-00'             4268   	bl	_i2c_stop
                                 4269   
                                 4270   ;;		I20MD = 1;		//Switch to I2C Fast Operation (400kbps)
                                 4271   CLINEA 0000H 0001H 0693H 0003H 0036H
00:0098 90-A0 A4-F2              4272   	sb	0f2a4h.1
                                 4273   
                                 4274   ;;		i2c_startReceive(MPU6050Address, &AccGyro_ReadData, 1, &AccGyro_Data, 14, (cbfI2c)_funcI2CFin);	//Begin I2C Receive Command
                                 4275   CLINEA 0000H 0001H 0694H 0003H 007DH
00:009C 00'00                    4276   	mov	r0,	#BYTE1 OFFSET __funcI2CFin
00:009E 00'01                    4277   	mov	r1,	#BYTE2 OFFSET __funcI2CFin
00:00A0 5E-F0                    4278   	push	er0
00:00A2 0E E0                    4279   	mov	er0,	#14
00:00A4 5E-F0                    4280   	push	er0
00:00A6 00'00                    4281   	mov	r0,	#BYTE1 OFFSET _AccGyro_Data
00:00A8 00'01                    4282   	mov	r1,	#BYTE2 OFFSET _AccGyro_Data
00:00AA 5E-F0                    4283   	push	er0
00:00AC 01 E0                    4284   	mov	er0,	#1 
00:00AE 5E-F0                    4285   	push	er0
00:00B0 00'02                    4286   	mov	r2,	#BYTE1 OFFSET _AccGyro_ReadData
00:00B2 00'03                    4287   	mov	r3,	#BYTE2 OFFSET _AccGyro_ReadData
00:00B4 10-90 00-00'             4288   	l	r0,	NEAR _MPU6050Address
00:00B8 01-F0'00-00'             4289   	bl	_i2c_startReceive
00:00BC 08 E1                    4290   	add	sp,	#8 
                                 4291   
                                 4292   ;;		while(_flgI2CFin != 1){															//Wait for I2C commands to finish transfer
                                 4293   CLINEA 0000H 0000H 0695H 0001H 0001H
00:00BE 02 CE                    4294   	bal	_$L352
                                 4295   
                                 4296   ;;		while(_flgI2CFin != 1){															//Wait for I2C commands to finish transfer
                                 4297   CLINEA 0000H 0000H 0695H 0003H 0052H
00:00C0                          4298   _$L281 :
                                 4299   CBLOCK 230 7 1685
                                 4300   
                                 4301   ;;			main_clrWDT();	
                                 4302   CLINEA 0000H 0001H 0696H 0004H 0012H
00:00C0 01-F0'00-00'             4303   	bl	_main_clrWDT
                                 4304   CBLOCKEND 230 7 1687
                                 4305   
                                 4306   ;;		while(_flgI2CFin != 1){															//Wait for I2C commands to finish transfer
                                 4307   CLINEA 0000H 0000H 0695H 0001H 0001H
00:00C4                          4308   _$L352 :
                                 4309   
                                 4310   ;;		while(_flgI2CFin != 1){															//Wait for I2C commands to finish transfer
                                 4311   CLINEA 0000H 0000H 0695H 000DH 0011H
00:00C4 10-90 00-00'             4312   	l	r0,	NEAR __flgI2CFin
00:00C8 01 70                    4313   	cmp	r0,	#01h
00:00CA FA C8                    4314   	bne	_$L281
                                 4315   
                                 4316   ;;		Accel_Xcal[1] += (AccGyro_Data[0]<<8)+(AccGyro_Data[1]);
                                 4317   CLINEA 0000H 0001H 069CH 0003H 003AH
00:00CC 10-90 00-00'             4318   	l	r0,	NEAR _AccGyro_Data+01h
00:00D0 00 01                    4319   	mov	r1,	#00h
00:00D2 10-92 00-00'             4320   	l	r2,	NEAR _AccGyro_Data
00:00D6 20-83                    4321   	mov	r3,	r2
00:00D8 00 02                    4322   	mov	r2,	#00h
00:00DA 26-F0                    4323   	add	er0,	er2
00:00DC 10-82                    4324   	mov	r2,	r1
00:00DE 2F-83                    4325   	extbw	er2
00:00E0 30-82                    4326   	mov	r2,	r3
00:00E2 6E-F0                    4327   	push	xr0
00:00E4 01-F0'00-00'             4328   	bl	__fildu8sw
00:00E8 2E-F0                    4329   	pop	xr0
00:00EA 6E-F0                    4330   	push	xr0
00:00EC 12-90 00-00'             4331   	l	er0,	NEAR _Accel_Xcal+04h
00:00F0 12-92 00-00'             4332   	l	er2,	NEAR _Accel_Xcal+06h
00:00F4 6E-F0                    4333   	push	xr0
00:00F6 01-F0'00-00'             4334   	bl	__faddu8sw
00:00FA 04 E1                    4335   	add	sp,	#4 
00:00FC 2E-F0                    4336   	pop	xr0
00:00FE 13-90 00-00'             4337   	st	er0,	NEAR _Accel_Xcal+04h
00:0102 13-92 00-00'             4338   	st	er2,	NEAR _Accel_Xcal+06h
                                 4339   
                                 4340   ;;		Accel_Ycal[1] += (AccGyro_Data[2]<<8)+(AccGyro_Data[3]);
                                 4341   CLINEA 0000H 0001H 069DH 0003H 003AH
00:0106 10-90 00-00'             4342   	l	r0,	NEAR _AccGyro_Data+02h
00:010A 00 01                    4343   	mov	r1,	#00h
00:010C 00-83                    4344   	mov	r3,	r0
00:010E 00 02                    4345   	mov	r2,	#00h
00:0110 10-90 00-00'             4346   	l	r0,	NEAR _AccGyro_Data+03h
00:0114 26-F0                    4347   	add	er0,	er2
00:0116 10-82                    4348   	mov	r2,	r1
00:0118 2F-83                    4349   	extbw	er2
00:011A 30-82                    4350   	mov	r2,	r3
00:011C 6E-F0                    4351   	push	xr0
00:011E 01-F0'00-00'             4352   	bl	__fildu8sw
00:0122 2E-F0                    4353   	pop	xr0
00:0124 6E-F0                    4354   	push	xr0
00:0126 12-90 00-00'             4355   	l	er0,	NEAR _Accel_Ycal+04h
00:012A 12-92 00-00'             4356   	l	er2,	NEAR _Accel_Ycal+06h
00:012E 6E-F0                    4357   	push	xr0
00:0130 01-F0'00-00'             4358   	bl	__faddu8sw
00:0134 04 E1                    4359   	add	sp,	#4 
00:0136 2E-F0                    4360   	pop	xr0
00:0138 13-90 00-00'             4361   	st	er0,	NEAR _Accel_Ycal+04h
00:013C 13-92 00-00'             4362   	st	er2,	NEAR _Accel_Ycal+06h
                                 4363   CBLOCKEND 230 6 1694
                                 4364   
                                 4365   ;;	for(i = 0; i<10; i++){
                                 4366   CLINEA 0000H 0000H 068DH 0013H 0015H
00:0140 81 E8                    4367   	add	er8,	#1 
                                 4368   
                                 4369   ;;	for(i = 0; i<10; i++){
                                 4370   CLINEA 0000H 0000H 068DH 000DH 0011H
00:0142 0A 78                    4371   	cmp	r8,	#0ah
00:0144 00 59                    4372   	cmpc	r9,	#00h
00:0146 02 C4                    4373   	bges	_$M20
00:0148 00-F0'00-00'             4374   	b	_$L275
00:014C                          4375   _$M20 :
                                 4376   
                                 4377   ;;	Accel_Xcal[1] /= 10;
                                 4378   CLINEA 0000H 0001H 069FH 0002H 0015H
00:014C 12-90 00-00'             4379   	l	er0,	NEAR _Accel_Xcal+04h
00:0150 12-92 00-00'             4380   	l	er2,	NEAR _Accel_Xcal+06h
00:0154 6E-F0                    4381   	push	xr0
00:0156 00 E0                    4382   	mov	er0,	#0 
00:0158 20 02                    4383   	mov	r2,	#020h
00:015A 41 03                    4384   	mov	r3,	#041h
00:015C 6E-F0                    4385   	push	xr0
00:015E 01-F0'00-00'             4386   	bl	__fdivu8sw
00:0162 04 E1                    4387   	add	sp,	#4 
00:0164 2E-F0                    4388   	pop	xr0
00:0166 13-90 00-00'             4389   	st	er0,	NEAR _Accel_Xcal+04h
00:016A 13-92 00-00'             4390   	st	er2,	NEAR _Accel_Xcal+06h
                                 4391   
                                 4392   ;;	Accel_Ycal[1] /= 10;
                                 4393   CLINEA 0000H 0001H 06A0H 0002H 0015H
00:016E 12-90 00-00'             4394   	l	er0,	NEAR _Accel_Ycal+04h
00:0172 12-92 00-00'             4395   	l	er2,	NEAR _Accel_Ycal+06h
00:0176 6E-F0                    4396   	push	xr0
00:0178 00 E0                    4397   	mov	er0,	#0 
00:017A 20 02                    4398   	mov	r2,	#020h
00:017C 41 03                    4399   	mov	r3,	#041h
00:017E 6E-F0                    4400   	push	xr0
00:0180 01-F0'00-00'             4401   	bl	__fdivu8sw
00:0184 04 E1                    4402   	add	sp,	#4 
00:0186 2E-F0                    4403   	pop	xr0
00:0188 13-90 00-00'             4404   	st	er0,	NEAR _Accel_Ycal+04h
00:018C 13-92 00-00'             4405   	st	er2,	NEAR _Accel_Ycal+06h
                                 4406   
                                 4407   ;;	for(i = 0; i<150; i++)
                                 4408   CLINEA 0000H 0001H 06A2H 0002H 0017H
00:0190 00 E0                    4409   	mov	er0,	#0 
00:0192                          4410   _$L285 :
                                 4411   CBLOCK 230 8 1699
                                 4412   
                                 4413   ;;		SensorReturn[i] = 0x20;
                                 4414   CLINEA 0000H 0001H 06A4H 0003H 0019H
00:0192 20 02                    4415   	mov	r2,	#020h
00:0194 09-92 00-00'             4416   	st	r2,	NEAR _SensorReturn[er0]
                                 4417   CBLOCKEND 230 8 1701
                                 4418   
                                 4419   ;;	for(i = 0; i<150; i++)
                                 4420   CLINEA 0000H 0000H 06A2H 0002H 0017H
00:0198 81 E0                    4421   	add	er0,	#1 
                                 4422   
                                 4423   ;;	for(i = 0; i<150; i++)
                                 4424   CLINEA 0000H 0000H 06A2H 000DH 0012H
00:019A 96 70                    4425   	cmp	r0,	#096h
00:019C 00 51                    4426   	cmpc	r1,	#00h
00:019E F9 C5                    4427   	blts	_$L285
                                 4428   
                                 4429   ;;	for(i = 0; i<150; i++)
                                 4430   CLINEA 0000H 0001H 06A8H 0006H 000BH
00:01A0 00 E0                    4431   	mov	er0,	#0 
                                 4432   
                                 4433   ;;	for(i = 0; i<150; i++)
                                 4434   CLINEA 0000H 0000H 06A8H 0014H 0016H
00:01A2                          4435   _$L291 :
                                 4436   CBLOCK 230 9 1705
                                 4437   
                                 4438   ;;		SensorReturn[i] = 0x20;
                                 4439   CLINEA 0000H 0001H 06AAH 0003H 0019H
00:01A2 20 02                    4440   	mov	r2,	#020h
00:01A4 09-92 00-00'             4441   	st	r2,	NEAR _SensorReturn[er0]
                                 4442   CBLOCKEND 230 9 1707
                                 4443   
                                 4444   ;;	for(i = 0; i<150; i++)
                                 4445   CLINEA 0000H 0000H 06A8H 0014H 0016H
00:01A8 81 E0                    4446   	add	er0,	#1 
                                 4447   
                                 4448   ;;	for(i = 0; i<150; i++)
                                 4449   CLINEA 0000H 0000H 06A8H 000DH 0012H
00:01AA 96 70                    4450   	cmp	r0,	#096h
00:01AC 00 51                    4451   	cmpc	r1,	#00h
00:01AE F9 C5                    4452   	blts	_$L291
                                 4453   
                                 4454   ;;	sprintf(SensorReturn, "Accel Calibration: Tilt the Quad 90deg in the ROLL Direction! Return any 2 chars to Start");
                                 4455   CLINEA 0000H 0001H 06ACH 0002H 0074H
00:01B0 00'00                    4456   	mov	r0,	#BYTE1 OFFSET $$S295
00:01B2 00'01                    4457   	mov	r1,	#BYTE2 OFFSET $$S295
00:01B4 5E-F0                    4458   	push	er0
00:01B6 00'00                    4459   	mov	r0,	#BYTE1 OFFSET _SensorReturn
00:01B8 00'01                    4460   	mov	r1,	#BYTE2 OFFSET _SensorReturn
00:01BA 5E-F0                    4461   	push	er0
00:01BC 01-F0'00-00'             4462   	bl	_sprintf_nn
00:01C0 04 E1                    4463   	add	sp,	#4 
                                 4464   
                                 4465   ;;	SensorReturn[148] = 0x0D;
                                 4466   CLINEA 0000H 0001H 06ADH 0002H 001AH
00:01C2 0D 00                    4467   	mov	r0,	#0dh
00:01C4 11-90 00-00'             4468   	st	r0,	NEAR _SensorReturn+094h
                                 4469   
                                 4470   ;;	SensorReturn[149] = 0x0A;
                                 4471   CLINEA 0000H 0001H 06AEH 0002H 001AH
00:01C8 0A 00                    4472   	mov	r0,	#0ah
00:01CA 11-90 00-00'             4473   	st	r0,	NEAR _SensorReturn+095h
                                 4474   
                                 4475   ;;	_flgUartFin = 0;
                                 4476   CLINEA 0000H 0001H 06B0H 0002H 0011H
00:01CE 00 00                    4477   	mov	r0,	#00h
00:01D0 11-90 00-00'             4478   	st	r0,	NEAR __flgUartFin
                                 4479   
                                 4480   ;;	uart_stop();
                                 4481   CLINEA 0000H 0001H 06B1H 0002H 000DH
00:01D4 01-F0'00-00'             4482   	bl	_uart_stop
                                 4483   
                                 4484   ;;	uart_startSend(SensorReturn, 150, _funcUartFin);
                                 4485   CLINEA 0000H 0001H 06B2H 0002H 0031H
00:01D8 00'00                    4486   	mov	r0,	#BYTE1 OFFSET __funcUartFin
00:01DA 00'01                    4487   	mov	r1,	#BYTE2 OFFSET __funcUartFin
00:01DC 5E-F0                    4488   	push	er0
00:01DE 96 02                    4489   	mov	r2,	#096h
00:01E0 00 03                    4490   	mov	r3,	#00h
00:01E2 00'00                    4491   	mov	r0,	#BYTE1 OFFSET _SensorReturn
00:01E4 00'01                    4492   	mov	r1,	#BYTE2 OFFSET _SensorReturn
00:01E6 01-F0'00-00'             4493   	bl	_uart_startSend
00:01EA 02 E1                    4494   	add	sp,	#2 
                                 4495   
                                 4496   ;;	while(_flgUartFin != 1){
                                 4497   CLINEA 0000H 0000H 06B3H 0001H 0001H
00:01EC 04 CE                    4498   	bal	_$L353
                                 4499   
                                 4500   ;;	while(_flgUartFin != 1){
                                 4501   CLINEA 0000H 0000H 06B3H 0002H 0019H
00:01EE                          4502   _$L298 :
                                 4503   CBLOCK 230 10 1715
                                 4504   
                                 4505   ;;		NOP1000();
                                 4506   CLINEA 0000H 0001H 06B4H 0003H 000CH
00:01EE 01-F0'00-00'             4507   	bl	_NOP1000
                                 4508   
                                 4509   ;;		main_clrWDT();
                                 4510   CLINEA 0000H 0001H 06B5H 0003H 0010H
00:01F2 01-F0'00-00'             4511   	bl	_main_clrWDT
                                 4512   CBLOCKEND 230 10 1718
                                 4513   
                                 4514   ;;	while(_flgUartFin != 1){
                                 4515   CLINEA 0000H 0000H 06B3H 0001H 0001H
00:01F6                          4516   _$L353 :
                                 4517   
                                 4518   ;;	while(_flgUartFin != 1){
                                 4519   CLINEA 0000H 0000H 06B3H 000DH 0012H
00:01F6 10-90 00-00'             4520   	l	r0,	NEAR __flgUartFin
00:01FA 01 70                    4521   	cmp	r0,	#01h
00:01FC F8 C8                    4522   	bne	_$L298
                                 4523   
                                 4524   ;;	_flgUartFin = 0;
                                 4525   CLINEA 0000H 0001H 06B8H 0002H 0011H
00:01FE 00 00                    4526   	mov	r0,	#00h
00:0200 11-90 00-00'             4527   	st	r0,	NEAR __flgUartFin
                                 4528   
                                 4529   ;;	uart_stop();
                                 4530   CLINEA 0000H 0001H 06B9H 0002H 000DH
00:0204 01-F0'00-00'             4531   	bl	_uart_stop
                                 4532   
                                 4533   ;;	uart_startReceive(RecWorld, 2, _funcUartFin);
                                 4534   CLINEA 0000H 0001H 06BAH 0002H 002EH
00:0208 00'00                    4535   	mov	r0,	#BYTE1 OFFSET __funcUartFin
00:020A 00'01                    4536   	mov	r1,	#BYTE2 OFFSET __funcUartFin
00:020C 5E-F0                    4537   	push	er0
00:020E 02 E2                    4538   	mov	er2,	#2 
00:0210 00'00                    4539   	mov	r0,	#BYTE1 OFFSET _RecWorld
00:0212 00'01                    4540   	mov	r1,	#BYTE2 OFFSET _RecWorld
00:0214 01-F0'00-00'             4541   	bl	_uart_startReceive
00:0218 02 E1                    4542   	add	sp,	#2 
                                 4543   
                                 4544   ;;	while(_flgUartFin != 1){
                                 4545   CLINEA 0000H 0000H 06BBH 0001H 0001H
00:021A 02 CE                    4546   	bal	_$L354
                                 4547   
                                 4548   ;;	while(_flgUartFin != 1){
                                 4549   CLINEA 0000H 0000H 06BBH 0002H 0019H
00:021C                          4550   _$L302 :
                                 4551   CBLOCK 230 11 1723
                                 4552   
                                 4553   ;;		main_clrWDT();
                                 4554   CLINEA 0000H 0001H 06BCH 0003H 0010H
00:021C 01-F0'00-00'             4555   	bl	_main_clrWDT
                                 4556   CBLOCKEND 230 11 1725
                                 4557   
                                 4558   ;;	while(_flgUartFin != 1){
                                 4559   CLINEA 0000H 0000H 06BBH 0001H 0001H
00:0220                          4560   _$L354 :
                                 4561   
                                 4562   ;;	while(_flgUartFin != 1){
                                 4563   CLINEA 0000H 0000H 06BBH 000DH 0011H
00:0220 10-90 00-00'             4564   	l	r0,	NEAR __flgUartFin
00:0224 01 70                    4565   	cmp	r0,	#01h
00:0226 FA C8                    4566   	bne	_$L302
                                 4567   
                                 4568   ;;	for(i = 0; i<10; i++){
                                 4569   CLINEA 0000H 0001H 06BFH 0006H 000BH
00:0228 00 E8                    4570   	mov	er8,	#0 
                                 4571   
                                 4572   ;;	for(i = 0; i<10; i++){
                                 4573   CLINEA 0000H 0000H 06BFH 0013H 0015H
00:022A                          4574   _$L306 :
                                 4575   CBLOCK 230 12 1727
                                 4576   
                                 4577   ;;		_flgI2CFin = 0;																	//reset I2C completed Flag
                                 4578   CLINEA 0000H 0001H 06C3H 0003H 003CH
00:022A 00 00                    4579   	mov	r0,	#00h
00:022C 11-90 00-00'             4580   	st	r0,	NEAR __flgI2CFin
                                 4581   
                                 4582   ;;		i2c_stop();																		//Make sure I2C is not currently running
                                 4583   CLINEA 0000H 0001H 06C4H 0003H 0047H
00:0230 01-F0'00-00'             4584   	bl	_i2c_stop
                                 4585   
                                 4586   ;;		I20MD = 1;		//Switch to I2C Fast Operation (400kbps)
                                 4587   CLINEA 0000H 0001H 06C5H 0003H 0036H
00:0234 90-A0 A4-F2              4588   	sb	0f2a4h.1
                                 4589   
                                 4590   ;;		i2c_startReceive(MPU6050Address, &AccGyro_ReadData, 1, &AccGyro_Data, 14, (cbfI2c)_funcI2CFin);	//Begin I2C Receive Command
                                 4591   CLINEA 0000H 0001H 06C6H 0003H 007DH
00:0238 00'00                    4592   	mov	r0,	#BYTE1 OFFSET __funcI2CFin
00:023A 00'01                    4593   	mov	r1,	#BYTE2 OFFSET __funcI2CFin
00:023C 5E-F0                    4594   	push	er0
00:023E 0E E0                    4595   	mov	er0,	#14
00:0240 5E-F0                    4596   	push	er0
00:0242 00'00                    4597   	mov	r0,	#BYTE1 OFFSET _AccGyro_Data
00:0244 00'01                    4598   	mov	r1,	#BYTE2 OFFSET _AccGyro_Data
00:0246 5E-F0                    4599   	push	er0
00:0248 01 E0                    4600   	mov	er0,	#1 
00:024A 5E-F0                    4601   	push	er0
00:024C 00'02                    4602   	mov	r2,	#BYTE1 OFFSET _AccGyro_ReadData
00:024E 00'03                    4603   	mov	r3,	#BYTE2 OFFSET _AccGyro_ReadData
00:0250 10-90 00-00'             4604   	l	r0,	NEAR _MPU6050Address
00:0254 01-F0'00-00'             4605   	bl	_i2c_startReceive
00:0258 08 E1                    4606   	add	sp,	#8 
                                 4607   
                                 4608   ;;		while(_flgI2CFin != 1){															//Wait for I2C commands to finish transfer
                                 4609   CLINEA 0000H 0000H 06C7H 0001H 0001H
00:025A 02 CE                    4610   	bal	_$L355
                                 4611   
                                 4612   ;;		while(_flgI2CFin != 1){															//Wait for I2C commands to finish transfer
                                 4613   CLINEA 0000H 0000H 06C7H 0003H 0052H
00:025C                          4614   _$L312 :
                                 4615   CBLOCK 230 13 1735
                                 4616   
                                 4617   ;;			main_clrWDT();	
                                 4618   CLINEA 0000H 0001H 06C8H 0004H 0012H
00:025C 01-F0'00-00'             4619   	bl	_main_clrWDT
                                 4620   CBLOCKEND 230 13 1737
                                 4621   
                                 4622   ;;		while(_flgI2CFin != 1){															//Wait for I2C commands to finish transfer
                                 4623   CLINEA 0000H 0000H 06C7H 0001H 0001H
00:0260                          4624   _$L355 :
                                 4625   
                                 4626   ;;		while(_flgI2CFin != 1){															//Wait for I2C commands to finish transfer
                                 4627   CLINEA 0000H 0000H 06C7H 000DH 0011H
00:0260 10-90 00-00'             4628   	l	r0,	NEAR __flgI2CFin
00:0264 01 70                    4629   	cmp	r0,	#01h
00:0266 FA C8                    4630   	bne	_$L312
                                 4631   
                                 4632   ;;		Accel_Zcal[1] += (AccGyro_Data[4]<<8)+(AccGyro_Data[5]);
                                 4633   CLINEA 0000H 0001H 06CEH 0003H 003AH
00:0268 10-90 00-00'             4634   	l	r0,	NEAR _AccGyro_Data+04h
00:026C 00 01                    4635   	mov	r1,	#00h
00:026E 00-83                    4636   	mov	r3,	r0
00:0270 00 02                    4637   	mov	r2,	#00h
00:0272 10-90 00-00'             4638   	l	r0,	NEAR _AccGyro_Data+05h
00:0276 26-F0                    4639   	add	er0,	er2
00:0278 10-82                    4640   	mov	r2,	r1
00:027A 2F-83                    4641   	extbw	er2
00:027C 30-82                    4642   	mov	r2,	r3
00:027E 6E-F0                    4643   	push	xr0
00:0280 01-F0'00-00'             4644   	bl	__fildu8sw
00:0284 2E-F0                    4645   	pop	xr0
00:0286 6E-F0                    4646   	push	xr0
00:0288 12-90 00-00'             4647   	l	er0,	NEAR _Accel_Zcal+04h
00:028C 12-92 00-00'             4648   	l	er2,	NEAR _Accel_Zcal+06h
00:0290 6E-F0                    4649   	push	xr0
00:0292 01-F0'00-00'             4650   	bl	__faddu8sw
00:0296 04 E1                    4651   	add	sp,	#4 
00:0298 2E-F0                    4652   	pop	xr0
00:029A 13-90 00-00'             4653   	st	er0,	NEAR _Accel_Zcal+04h
00:029E 13-92 00-00'             4654   	st	er2,	NEAR _Accel_Zcal+06h
                                 4655   
                                 4656   ;;		Accel_Ycal[2] += (AccGyro_Data[2]<<8)+(AccGyro_Data[3]);
                                 4657   CLINEA 0000H 0001H 06CFH 0003H 003AH
00:02A2 10-90 00-00'             4658   	l	r0,	NEAR _AccGyro_Data+02h
00:02A6 00 01                    4659   	mov	r1,	#00h
00:02A8 00-83                    4660   	mov	r3,	r0
00:02AA 00 02                    4661   	mov	r2,	#00h
00:02AC 10-90 00-00'             4662   	l	r0,	NEAR _AccGyro_Data+03h
00:02B0 26-F0                    4663   	add	er0,	er2
00:02B2 10-82                    4664   	mov	r2,	r1
00:02B4 2F-83                    4665   	extbw	er2
00:02B6 30-82                    4666   	mov	r2,	r3
00:02B8 6E-F0                    4667   	push	xr0
00:02BA 01-F0'00-00'             4668   	bl	__fildu8sw
00:02BE 2E-F0                    4669   	pop	xr0
00:02C0 6E-F0                    4670   	push	xr0
00:02C2 12-90 00-00'             4671   	l	er0,	NEAR _Accel_Ycal+08h
00:02C6 12-92 00-00'             4672   	l	er2,	NEAR _Accel_Ycal+0ah
00:02CA 6E-F0                    4673   	push	xr0
00:02CC 01-F0'00-00'             4674   	bl	__faddu8sw
00:02D0 04 E1                    4675   	add	sp,	#4 
00:02D2 2E-F0                    4676   	pop	xr0
00:02D4 13-90 00-00'             4677   	st	er0,	NEAR _Accel_Ycal+08h
00:02D8 13-92 00-00'             4678   	st	er2,	NEAR _Accel_Ycal+0ah
                                 4679   CBLOCKEND 230 12 1744
                                 4680   
                                 4681   ;;	for(i = 0; i<10; i++){
                                 4682   CLINEA 0000H 0000H 06BFH 0013H 0015H
00:02DC 81 E8                    4683   	add	er8,	#1 
                                 4684   
                                 4685   ;;	for(i = 0; i<10; i++){
                                 4686   CLINEA 0000H 0000H 06BFH 000DH 0011H
00:02DE 0A 78                    4687   	cmp	r8,	#0ah
00:02E0 00 59                    4688   	cmpc	r9,	#00h
00:02E2 02 C4                    4689   	bges	_$M21
00:02E4 00-F0'00-00'             4690   	b	_$L306
00:02E8                          4691   _$M21 :
                                 4692   
                                 4693   ;;	Accel_Zcal[1] /= 10;
                                 4694   CLINEA 0000H 0001H 06D1H 0002H 0015H
00:02E8 12-90 00-00'             4695   	l	er0,	NEAR _Accel_Zcal+04h
00:02EC 12-92 00-00'             4696   	l	er2,	NEAR _Accel_Zcal+06h
00:02F0 6E-F0                    4697   	push	xr0
00:02F2 00 E0                    4698   	mov	er0,	#0 
00:02F4 20 02                    4699   	mov	r2,	#020h
00:02F6 41 03                    4700   	mov	r3,	#041h
00:02F8 6E-F0                    4701   	push	xr0
00:02FA 01-F0'00-00'             4702   	bl	__fdivu8sw
00:02FE 04 E1                    4703   	add	sp,	#4 
00:0300 2E-F0                    4704   	pop	xr0
00:0302 13-90 00-00'             4705   	st	er0,	NEAR _Accel_Zcal+04h
00:0306 13-92 00-00'             4706   	st	er2,	NEAR _Accel_Zcal+06h
                                 4707   
                                 4708   ;;	Accel_Ycal[2] /= 10;
                                 4709   CLINEA 0000H 0001H 06D2H 0002H 0015H
00:030A 12-90 00-00'             4710   	l	er0,	NEAR _Accel_Ycal+08h
00:030E 12-92 00-00'             4711   	l	er2,	NEAR _Accel_Ycal+0ah
00:0312 6E-F0                    4712   	push	xr0
00:0314 00 E0                    4713   	mov	er0,	#0 
00:0316 20 02                    4714   	mov	r2,	#020h
00:0318 41 03                    4715   	mov	r3,	#041h
00:031A 6E-F0                    4716   	push	xr0
00:031C 01-F0'00-00'             4717   	bl	__fdivu8sw
00:0320 04 E1                    4718   	add	sp,	#4 
00:0322 2E-F0                    4719   	pop	xr0
00:0324 13-90 00-00'             4720   	st	er0,	NEAR _Accel_Ycal+08h
00:0328 13-92 00-00'             4721   	st	er2,	NEAR _Accel_Ycal+0ah
                                 4722   
                                 4723   ;;	for(i = 0; i<150; i++)
                                 4724   CLINEA 0000H 0001H 06D5H 0002H 0017H
00:032C 00 E0                    4725   	mov	er0,	#0 
00:032E                          4726   _$L316 :
                                 4727   CBLOCK 230 14 1750
                                 4728   
                                 4729   ;;		SensorReturn[i] = 0x20;
                                 4730   CLINEA 0000H 0001H 06D7H 0003H 0019H
00:032E 20 02                    4731   	mov	r2,	#020h
00:0330 09-92 00-00'             4732   	st	r2,	NEAR _SensorReturn[er0]
                                 4733   CBLOCKEND 230 14 1752
                                 4734   
                                 4735   ;;	for(i = 0; i<150; i++)
                                 4736   CLINEA 0000H 0000H 06D5H 0002H 0017H
00:0334 81 E0                    4737   	add	er0,	#1 
                                 4738   
                                 4739   ;;	for(i = 0; i<150; i++)
                                 4740   CLINEA 0000H 0000H 06D5H 000DH 0011H
00:0336 96 70                    4741   	cmp	r0,	#096h
00:0338 00 51                    4742   	cmpc	r1,	#00h
00:033A F9 C5                    4743   	blts	_$L316
                                 4744   
                                 4745   ;;	sprintf(SensorReturn, "Accel Calibration: Tilt the Quad 90deg in the PITCH direction! Return any 2 chars to Start");
                                 4746   CLINEA 0000H 0001H 06D9H 0002H 0075H
00:033C 00'00                    4747   	mov	r0,	#BYTE1 OFFSET $$S320
00:033E 00'01                    4748   	mov	r1,	#BYTE2 OFFSET $$S320
00:0340 5E-F0                    4749   	push	er0
00:0342 00'00                    4750   	mov	r0,	#BYTE1 OFFSET _SensorReturn
00:0344 00'01                    4751   	mov	r1,	#BYTE2 OFFSET _SensorReturn
00:0346 5E-F0                    4752   	push	er0
00:0348 01-F0'00-00'             4753   	bl	_sprintf_nn
00:034C 04 E1                    4754   	add	sp,	#4 
                                 4755   
                                 4756   ;;	SensorReturn[148] = 0x0D;
                                 4757   CLINEA 0000H 0001H 06DAH 0002H 001AH
00:034E 0D 00                    4758   	mov	r0,	#0dh
00:0350 11-90 00-00'             4759   	st	r0,	NEAR _SensorReturn+094h
                                 4760   
                                 4761   ;;	SensorReturn[149] = 0x0A;
                                 4762   CLINEA 0000H 0001H 06DBH 0002H 001AH
00:0354 0A 00                    4763   	mov	r0,	#0ah
00:0356 11-90 00-00'             4764   	st	r0,	NEAR _SensorReturn+095h
                                 4765   
                                 4766   ;;	_flgUartFin = 0;
                                 4767   CLINEA 0000H 0001H 06DDH 0002H 0011H
00:035A 00 00                    4768   	mov	r0,	#00h
00:035C 11-90 00-00'             4769   	st	r0,	NEAR __flgUartFin
                                 4770   
                                 4771   ;;	uart_stop();
                                 4772   CLINEA 0000H 0001H 06DEH 0002H 000DH
00:0360 01-F0'00-00'             4773   	bl	_uart_stop
                                 4774   
                                 4775   ;;	uart_startSend(SensorReturn, 150, _funcUartFin);
                                 4776   CLINEA 0000H 0001H 06DFH 0002H 0031H
00:0364 00'00                    4777   	mov	r0,	#BYTE1 OFFSET __funcUartFin
00:0366 00'01                    4778   	mov	r1,	#BYTE2 OFFSET __funcUartFin
00:0368 5E-F0                    4779   	push	er0
00:036A 96 02                    4780   	mov	r2,	#096h
00:036C 00 03                    4781   	mov	r3,	#00h
00:036E 00'00                    4782   	mov	r0,	#BYTE1 OFFSET _SensorReturn
00:0370 00'01                    4783   	mov	r1,	#BYTE2 OFFSET _SensorReturn
00:0372 01-F0'00-00'             4784   	bl	_uart_startSend
00:0376 02 E1                    4785   	add	sp,	#2 
                                 4786   
                                 4787   ;;	while(_flgUartFin != 1){
                                 4788   CLINEA 0000H 0000H 06E0H 0001H 0001H
00:0378 04 CE                    4789   	bal	_$L356
                                 4790   
                                 4791   ;;	while(_flgUartFin != 1){
                                 4792   CLINEA 0000H 0000H 06E0H 0002H 0019H
00:037A                          4793   _$L323 :
                                 4794   CBLOCK 230 15 1760
                                 4795   
                                 4796   ;;		NOP1000();
                                 4797   CLINEA 0000H 0001H 06E1H 0003H 000CH
00:037A 01-F0'00-00'             4798   	bl	_NOP1000
                                 4799   
                                 4800   ;;		main_clrWDT();
                                 4801   CLINEA 0000H 0001H 06E2H 0003H 0010H
00:037E 01-F0'00-00'             4802   	bl	_main_clrWDT
                                 4803   CBLOCKEND 230 15 1763
                                 4804   
                                 4805   ;;	while(_flgUartFin != 1){
                                 4806   CLINEA 0000H 0000H 06E0H 0001H 0001H
00:0382                          4807   _$L356 :
                                 4808   
                                 4809   ;;	while(_flgUartFin != 1){
                                 4810   CLINEA 0000H 0000H 06E0H 000DH 0011H
00:0382 10-90 00-00'             4811   	l	r0,	NEAR __flgUartFin
00:0386 01 70                    4812   	cmp	r0,	#01h
00:0388 F8 C8                    4813   	bne	_$L323
                                 4814   
                                 4815   ;;	_flgUartFin = 0;
                                 4816   CLINEA 0000H 0001H 06E5H 0002H 0011H
00:038A 00 00                    4817   	mov	r0,	#00h
00:038C 11-90 00-00'             4818   	st	r0,	NEAR __flgUartFin
                                 4819   
                                 4820   ;;	uart_stop();
                                 4821   CLINEA 0000H 0001H 06E6H 0002H 000DH
00:0390 01-F0'00-00'             4822   	bl	_uart_stop
                                 4823   
                                 4824   ;;	uart_startReceive(RecWorld, 2, _funcUartFin);
                                 4825   CLINEA 0000H 0001H 06E7H 0002H 002EH
00:0394 00'00                    4826   	mov	r0,	#BYTE1 OFFSET __funcUartFin
00:0396 00'01                    4827   	mov	r1,	#BYTE2 OFFSET __funcUartFin
00:0398 5E-F0                    4828   	push	er0
00:039A 02 E2                    4829   	mov	er2,	#2 
00:039C 00'00                    4830   	mov	r0,	#BYTE1 OFFSET _RecWorld
00:039E 00'01                    4831   	mov	r1,	#BYTE2 OFFSET _RecWorld
00:03A0 01-F0'00-00'             4832   	bl	_uart_startReceive
00:03A4 02 E1                    4833   	add	sp,	#2 
                                 4834   
                                 4835   ;;	while(_flgUartFin != 1){
                                 4836   CLINEA 0000H 0000H 06E8H 0001H 0001H
00:03A6 02 CE                    4837   	bal	_$L357
                                 4838   
                                 4839   ;;	while(_flgUartFin != 1){
                                 4840   CLINEA 0000H 0000H 06E8H 0002H 0019H
00:03A8                          4841   _$L327 :
                                 4842   CBLOCK 230 16 1768
                                 4843   
                                 4844   ;;		main_clrWDT();
                                 4845   CLINEA 0000H 0001H 06E9H 0003H 0010H
00:03A8 01-F0'00-00'             4846   	bl	_main_clrWDT
                                 4847   CBLOCKEND 230 16 1770
                                 4848   
                                 4849   ;;	while(_flgUartFin != 1){
                                 4850   CLINEA 0000H 0000H 06E8H 0001H 0001H
00:03AC                          4851   _$L357 :
                                 4852   
                                 4853   ;;	while(_flgUartFin != 1){
                                 4854   CLINEA 0000H 0000H 06E8H 000DH 0011H
00:03AC 10-90 00-00'             4855   	l	r0,	NEAR __flgUartFin
00:03B0 01 70                    4856   	cmp	r0,	#01h
00:03B2 FA C8                    4857   	bne	_$L327
                                 4858   
                                 4859   ;;	for(i = 0; i<10; i++){
                                 4860   CLINEA 0000H 0001H 06ECH 0006H 000BH
00:03B4 00 E8                    4861   	mov	er8,	#0 
                                 4862   
                                 4863   ;;	for(i = 0; i<10; i++){
                                 4864   CLINEA 0000H 0000H 06ECH 0013H 0015H
00:03B6                          4865   _$L331 :
                                 4866   CBLOCK 230 17 1772
                                 4867   
                                 4868   ;;		_flgI2CFin = 0;																	//reset I2C completed Flag
                                 4869   CLINEA 0000H 0001H 06F0H 0003H 003CH
00:03B6 00 00                    4870   	mov	r0,	#00h
00:03B8 11-90 00-00'             4871   	st	r0,	NEAR __flgI2CFin
                                 4872   
                                 4873   ;;		i2c_stop();																		//Make sure I2C is not currently running
                                 4874   CLINEA 0000H 0001H 06F1H 0003H 0047H
00:03BC 01-F0'00-00'             4875   	bl	_i2c_stop
                                 4876   
                                 4877   ;;		I20MD = 1;		//Switch to I2C Fast Operation (400kbps)
                                 4878   CLINEA 0000H 0001H 06F2H 0003H 0036H
00:03C0 90-A0 A4-F2              4879   	sb	0f2a4h.1
                                 4880   
                                 4881   ;;		i2c_startReceive(MPU6050Address, &AccGyro_ReadData, 1, &AccGyro_Data, 14, (cbfI2c)_funcI2CFin);	//Begin I2C Receive Command
                                 4882   CLINEA 0000H 0001H 06F3H 0003H 007DH
00:03C4 00'00                    4883   	mov	r0,	#BYTE1 OFFSET __funcI2CFin
00:03C6 00'01                    4884   	mov	r1,	#BYTE2 OFFSET __funcI2CFin
00:03C8 5E-F0                    4885   	push	er0
00:03CA 0E E0                    4886   	mov	er0,	#14
00:03CC 5E-F0                    4887   	push	er0
00:03CE 00'00                    4888   	mov	r0,	#BYTE1 OFFSET _AccGyro_Data
00:03D0 00'01                    4889   	mov	r1,	#BYTE2 OFFSET _AccGyro_Data
00:03D2 5E-F0                    4890   	push	er0
00:03D4 01 E0                    4891   	mov	er0,	#1 
00:03D6 5E-F0                    4892   	push	er0
00:03D8 00'02                    4893   	mov	r2,	#BYTE1 OFFSET _AccGyro_ReadData
00:03DA 00'03                    4894   	mov	r3,	#BYTE2 OFFSET _AccGyro_ReadData
00:03DC 10-90 00-00'             4895   	l	r0,	NEAR _MPU6050Address
00:03E0 01-F0'00-00'             4896   	bl	_i2c_startReceive
00:03E4 08 E1                    4897   	add	sp,	#8 
                                 4898   
                                 4899   ;;		while(_flgI2CFin != 1){															//Wait for I2C commands to finish transfer
                                 4900   CLINEA 0000H 0000H 06F4H 0001H 0001H
00:03E6 02 CE                    4901   	bal	_$L358
                                 4902   
                                 4903   ;;		while(_flgI2CFin != 1){															//Wait for I2C commands to finish transfer
                                 4904   CLINEA 0000H 0000H 06F4H 0003H 0052H
00:03E8                          4905   _$L337 :
                                 4906   CBLOCK 230 18 1780
                                 4907   
                                 4908   ;;			main_clrWDT();	
                                 4909   CLINEA 0000H 0001H 06F5H 0004H 0012H
00:03E8 01-F0'00-00'             4910   	bl	_main_clrWDT
                                 4911   CBLOCKEND 230 18 1782
                                 4912   
                                 4913   ;;		while(_flgI2CFin != 1){															//Wait for I2C commands to finish transfer
                                 4914   CLINEA 0000H 0000H 06F4H 0001H 0001H
00:03EC                          4915   _$L358 :
                                 4916   
                                 4917   ;;		while(_flgI2CFin != 1){															//Wait for I2C commands to finish transfer
                                 4918   CLINEA 0000H 0000H 06F4H 000DH 0011H
00:03EC 10-90 00-00'             4919   	l	r0,	NEAR __flgI2CFin
00:03F0 01 70                    4920   	cmp	r0,	#01h
00:03F2 FA C8                    4921   	bne	_$L337
                                 4922   
                                 4923   ;;		Accel_Zcal[2] += (AccGyro_Data[4]<<8)+(AccGyro_Data[5]);
                                 4924   CLINEA 0000H 0001H 06FBH 0003H 003AH
00:03F4 10-90 00-00'             4925   	l	r0,	NEAR _AccGyro_Data+04h
00:03F8 00 01                    4926   	mov	r1,	#00h
00:03FA 00-83                    4927   	mov	r3,	r0
00:03FC 00 02                    4928   	mov	r2,	#00h
00:03FE 10-90 00-00'             4929   	l	r0,	NEAR _AccGyro_Data+05h
00:0402 26-F0                    4930   	add	er0,	er2
00:0404 10-82                    4931   	mov	r2,	r1
00:0406 2F-83                    4932   	extbw	er2
00:0408 30-82                    4933   	mov	r2,	r3
00:040A 6E-F0                    4934   	push	xr0
00:040C 01-F0'00-00'             4935   	bl	__fildu8sw
00:0410 2E-F0                    4936   	pop	xr0
00:0412 6E-F0                    4937   	push	xr0
00:0414 12-90 00-00'             4938   	l	er0,	NEAR _Accel_Zcal+08h
00:0418 12-92 00-00'             4939   	l	er2,	NEAR _Accel_Zcal+0ah
00:041C 6E-F0                    4940   	push	xr0
00:041E 01-F0'00-00'             4941   	bl	__faddu8sw
00:0422 04 E1                    4942   	add	sp,	#4 
00:0424 2E-F0                    4943   	pop	xr0
00:0426 13-90 00-00'             4944   	st	er0,	NEAR _Accel_Zcal+08h
00:042A 13-92 00-00'             4945   	st	er2,	NEAR _Accel_Zcal+0ah
                                 4946   
                                 4947   ;;		Accel_Xcal[2] += (AccGyro_Data[0]<<8)+(AccGyro_Data[1]);
                                 4948   CLINEA 0000H 0001H 06FCH 0003H 003AH
00:042E 10-90 00-00'             4949   	l	r0,	NEAR _AccGyro_Data+01h
00:0432 00 01                    4950   	mov	r1,	#00h
00:0434 10-92 00-00'             4951   	l	r2,	NEAR _AccGyro_Data
00:0438 20-83                    4952   	mov	r3,	r2
00:043A 00 02                    4953   	mov	r2,	#00h
00:043C 26-F0                    4954   	add	er0,	er2
00:043E 10-82                    4955   	mov	r2,	r1
00:0440 2F-83                    4956   	extbw	er2
00:0442 30-82                    4957   	mov	r2,	r3
00:0444 6E-F0                    4958   	push	xr0
00:0446 01-F0'00-00'             4959   	bl	__fildu8sw
00:044A 2E-F0                    4960   	pop	xr0
00:044C 6E-F0                    4961   	push	xr0
00:044E 12-90 00-00'             4962   	l	er0,	NEAR _Accel_Xcal+08h
00:0452 12-92 00-00'             4963   	l	er2,	NEAR _Accel_Xcal+0ah
00:0456 6E-F0                    4964   	push	xr0
00:0458 01-F0'00-00'             4965   	bl	__faddu8sw
00:045C 04 E1                    4966   	add	sp,	#4 
00:045E 2E-F0                    4967   	pop	xr0
00:0460 13-90 00-00'             4968   	st	er0,	NEAR _Accel_Xcal+08h
00:0464 13-92 00-00'             4969   	st	er2,	NEAR _Accel_Xcal+0ah
                                 4970   CBLOCKEND 230 17 1789
                                 4971   
                                 4972   ;;	for(i = 0; i<10; i++){
                                 4973   CLINEA 0000H 0000H 06ECH 0013H 0015H
00:0468 81 E8                    4974   	add	er8,	#1 
                                 4975   
                                 4976   ;;	for(i = 0; i<10; i++){
                                 4977   CLINEA 0000H 0000H 06ECH 000DH 0011H
00:046A 0A 78                    4978   	cmp	r8,	#0ah
00:046C 00 59                    4979   	cmpc	r9,	#00h
00:046E 02 C4                    4980   	bges	_$M22
00:0470 00-F0'00-00'             4981   	b	_$L331
00:0474                          4982   _$M22 :
                                 4983   
                                 4984   ;;	Accel_Zcal[2] /= 10;
                                 4985   CLINEA 0000H 0001H 06FEH 0002H 0015H
00:0474 12-90 00-00'             4986   	l	er0,	NEAR _Accel_Zcal+08h
00:0478 12-92 00-00'             4987   	l	er2,	NEAR _Accel_Zcal+0ah
00:047C 6E-F0                    4988   	push	xr0
00:047E 00 E0                    4989   	mov	er0,	#0 
00:0480 20 02                    4990   	mov	r2,	#020h
00:0482 41 03                    4991   	mov	r3,	#041h
00:0484 6E-F0                    4992   	push	xr0
00:0486 01-F0'00-00'             4993   	bl	__fdivu8sw
00:048A 04 E1                    4994   	add	sp,	#4 
00:048C 2E-F0                    4995   	pop	xr0
00:048E 13-90 00-00'             4996   	st	er0,	NEAR _Accel_Zcal+08h
00:0492 13-92 00-00'             4997   	st	er2,	NEAR _Accel_Zcal+0ah
                                 4998   
                                 4999   ;;	Accel_Xcal[2] /= 10;
                                 5000   CLINEA 0000H 0001H 06FFH 0002H 0015H
00:0496 12-90 00-00'             5001   	l	er0,	NEAR _Accel_Xcal+08h
00:049A 12-92 00-00'             5002   	l	er2,	NEAR _Accel_Xcal+0ah
00:049E 6E-F0                    5003   	push	xr0
00:04A0 00 E0                    5004   	mov	er0,	#0 
00:04A2 20 02                    5005   	mov	r2,	#020h
00:04A4 41 03                    5006   	mov	r3,	#041h
00:04A6 6E-F0                    5007   	push	xr0
00:04A8 01-F0'00-00'             5008   	bl	__fdivu8sw
00:04AC 04 E1                    5009   	add	sp,	#4 
00:04AE 2E-F0                    5010   	pop	xr0
00:04B0 13-90 00-00'             5011   	st	er0,	NEAR _Accel_Xcal+08h
00:04B4 13-92 00-00'             5012   	st	er2,	NEAR _Accel_Xcal+0ah
                                 5013   
                                 5014   ;;	Accel_Xcal[0] = (Accel_Xcal[1]+Accel_Xcal[2])/2;
                                 5015   CLINEA 0000H 0001H 0702H 0002H 0031H
00:04B8 12-90 00-00'             5016   	l	er0,	NEAR _Accel_Xcal+04h
00:04BC 12-92 00-00'             5017   	l	er2,	NEAR _Accel_Xcal+06h
00:04C0 6E-F0                    5018   	push	xr0
00:04C2 12-90 00-00'             5019   	l	er0,	NEAR _Accel_Xcal+08h
00:04C6 12-92 00-00'             5020   	l	er2,	NEAR _Accel_Xcal+0ah
00:04CA 6E-F0                    5021   	push	xr0
00:04CC 01-F0'00-00'             5022   	bl	__faddu8sw
00:04D0 04 E1                    5023   	add	sp,	#4 
00:04D2 00 E0                    5024   	mov	er0,	#0 
00:04D4 00 02                    5025   	mov	r2,	#00h
00:04D6 40 03                    5026   	mov	r3,	#040h
00:04D8 6E-F0                    5027   	push	xr0
00:04DA 01-F0'00-00'             5028   	bl	__fdivu8sw
00:04DE 04 E1                    5029   	add	sp,	#4 
00:04E0 2E-F0                    5030   	pop	xr0
00:04E2 13-90 00-00'             5031   	st	er0,	NEAR _Accel_Xcal
00:04E6 13-92 00-00'             5032   	st	er2,	NEAR _Accel_Xcal+02h
                                 5033   
                                 5034   ;;	Accel_Ycal[0] = (Accel_Ycal[1]+Accel_Ycal[2])/2;
                                 5035   CLINEA 0000H 0001H 0703H 0002H 0031H
00:04EA 12-90 00-00'             5036   	l	er0,	NEAR _Accel_Ycal+04h
00:04EE 12-92 00-00'             5037   	l	er2,	NEAR _Accel_Ycal+06h
00:04F2 6E-F0                    5038   	push	xr0
00:04F4 12-90 00-00'             5039   	l	er0,	NEAR _Accel_Ycal+08h
00:04F8 12-92 00-00'             5040   	l	er2,	NEAR _Accel_Ycal+0ah
00:04FC 6E-F0                    5041   	push	xr0
00:04FE 01-F0'00-00'             5042   	bl	__faddu8sw
00:0502 04 E1                    5043   	add	sp,	#4 
00:0504 00 E0                    5044   	mov	er0,	#0 
00:0506 00 02                    5045   	mov	r2,	#00h
00:0508 40 03                    5046   	mov	r3,	#040h
00:050A 6E-F0                    5047   	push	xr0
00:050C 01-F0'00-00'             5048   	bl	__fdivu8sw
00:0510 04 E1                    5049   	add	sp,	#4 
00:0512 2E-F0                    5050   	pop	xr0
00:0514 13-90 00-00'             5051   	st	er0,	NEAR _Accel_Ycal
00:0518 13-92 00-00'             5052   	st	er2,	NEAR _Accel_Ycal+02h
                                 5053   
                                 5054   ;;	Accel_Zcal[0] = (Accel_Zcal[1]+Accel_Zcal[2])/2;
                                 5055   CLINEA 0000H 0001H 0704H 0002H 0031H
00:051C 12-90 00-00'             5056   	l	er0,	NEAR _Accel_Zcal+04h
00:0520 12-92 00-00'             5057   	l	er2,	NEAR _Accel_Zcal+06h
00:0524 6E-F0                    5058   	push	xr0
00:0526 12-90 00-00'             5059   	l	er0,	NEAR _Accel_Zcal+08h
00:052A 12-92 00-00'             5060   	l	er2,	NEAR _Accel_Zcal+0ah
00:052E 6E-F0                    5061   	push	xr0
00:0530 01-F0'00-00'             5062   	bl	__faddu8sw
00:0534 04 E1                    5063   	add	sp,	#4 
00:0536 00 E0                    5064   	mov	er0,	#0 
00:0538 00 02                    5065   	mov	r2,	#00h
00:053A 40 03                    5066   	mov	r3,	#040h
00:053C 6E-F0                    5067   	push	xr0
00:053E 01-F0'00-00'             5068   	bl	__fdivu8sw
00:0542 04 E1                    5069   	add	sp,	#4 
00:0544 2E-F0                    5070   	pop	xr0
00:0546 13-90 00-00'             5071   	st	er0,	NEAR _Accel_Zcal
00:054A 13-92 00-00'             5072   	st	er2,	NEAR _Accel_Zcal+02h
                                 5073   
                                 5074   ;;	for(i = 0; i<150; i++)
                                 5075   CLINEA 0000H 0001H 0707H 0002H 0017H
00:054E 00 E0                    5076   	mov	er0,	#0 
00:0550                          5077   _$L341 :
                                 5078   CBLOCK 230 19 1800
                                 5079   
                                 5080   ;;		SensorReturn[i] = 0x20;
                                 5081   CLINEA 0000H 0001H 0709H 0003H 0019H
00:0550 20 02                    5082   	mov	r2,	#020h
00:0552 09-92 00-00'             5083   	st	r2,	NEAR _SensorReturn[er0]
                                 5084   CBLOCKEND 230 19 1802
                                 5085   
                                 5086   ;;	for(i = 0; i<150; i++)
                                 5087   CLINEA 0000H 0000H 0707H 0002H 0017H
00:0556 81 E0                    5088   	add	er0,	#1 
                                 5089   
                                 5090   ;;	for(i = 0; i<150; i++)
                                 5091   CLINEA 0000H 0000H 0707H 000DH 0011H
00:0558 96 70                    5092   	cmp	r0,	#096h
00:055A 00 51                    5093   	cmpc	r1,	#00h
00:055C F9 C5                    5094   	blts	_$L341
                                 5095   
                                 5096   ;;	sprintf(SensorReturn, "Accel Calibration Complete!");
                                 5097   CLINEA 0000H 0001H 070BH 0002H 0036H
00:055E 00'00                    5098   	mov	r0,	#BYTE1 OFFSET $$S345
00:0560 00'01                    5099   	mov	r1,	#BYTE2 OFFSET $$S345
00:0562 5E-F0                    5100   	push	er0
00:0564 00'00                    5101   	mov	r0,	#BYTE1 OFFSET _SensorReturn
00:0566 00'01                    5102   	mov	r1,	#BYTE2 OFFSET _SensorReturn
00:0568 5E-F0                    5103   	push	er0
00:056A 01-F0'00-00'             5104   	bl	_sprintf_nn
00:056E 04 E1                    5105   	add	sp,	#4 
                                 5106   
                                 5107   ;;	SensorReturn[148] = 0x0D;
                                 5108   CLINEA 0000H 0001H 070CH 0002H 001AH
00:0570 0D 00                    5109   	mov	r0,	#0dh
00:0572 11-90 00-00'             5110   	st	r0,	NEAR _SensorReturn+094h
                                 5111   
                                 5112   ;;	SensorReturn[149] = 0x0A;
                                 5113   CLINEA 0000H 0001H 070DH 0002H 001AH
00:0576 0A 00                    5114   	mov	r0,	#0ah
00:0578 11-90 00-00'             5115   	st	r0,	NEAR _SensorReturn+095h
                                 5116   
                                 5117   ;;	_flgUartFin = 0;
                                 5118   CLINEA 0000H 0001H 070FH 0002H 0011H
00:057C 00 00                    5119   	mov	r0,	#00h
00:057E 11-90 00-00'             5120   	st	r0,	NEAR __flgUartFin
                                 5121   
                                 5122   ;;	uart_stop();
                                 5123   CLINEA 0000H 0001H 0710H 0002H 000DH
00:0582 01-F0'00-00'             5124   	bl	_uart_stop
                                 5125   
                                 5126   ;;	uart_startSend(SensorReturn, 150, _funcUartFin);
                                 5127   CLINEA 0000H 0001H 0711H 0002H 0031H
00:0586 00'00                    5128   	mov	r0,	#BYTE1 OFFSET __funcUartFin
00:0588 00'01                    5129   	mov	r1,	#BYTE2 OFFSET __funcUartFin
00:058A 5E-F0                    5130   	push	er0
00:058C 96 02                    5131   	mov	r2,	#096h
00:058E 00 03                    5132   	mov	r3,	#00h
00:0590 00'00                    5133   	mov	r0,	#BYTE1 OFFSET _SensorReturn
00:0592 00'01                    5134   	mov	r1,	#BYTE2 OFFSET _SensorReturn
00:0594 01-F0'00-00'             5135   	bl	_uart_startSend
00:0598 02 E1                    5136   	add	sp,	#2 
                                 5137   
                                 5138   ;;	while(_flgUartFin != 1){
                                 5139   CLINEA 0000H 0000H 0712H 0001H 0001H
00:059A 04 CE                    5140   	bal	_$L359
                                 5141   
                                 5142   ;;	while(_flgUartFin != 1){
                                 5143   CLINEA 0000H 0000H 0712H 0002H 0019H
00:059C                          5144   _$L348 :
                                 5145   CBLOCK 230 20 1810
                                 5146   
                                 5147   ;;		NOP1000();
                                 5148   CLINEA 0000H 0001H 0713H 0003H 000CH
00:059C 01-F0'00-00'             5149   	bl	_NOP1000
                                 5150   
                                 5151   ;;		main_clrWDT();
                                 5152   CLINEA 0000H 0001H 0714H 0003H 0010H
00:05A0 01-F0'00-00'             5153   	bl	_main_clrWDT
                                 5154   CBLOCKEND 230 20 1813
                                 5155   
                                 5156   ;;	while(_flgUartFin != 1){
                                 5157   CLINEA 0000H 0000H 0712H 0001H 0001H
00:05A4                          5158   _$L359 :
                                 5159   
                                 5160   ;;	while(_flgUartFin != 1){
                                 5161   CLINEA 0000H 0000H 0712H 000DH 0011H
00:05A4 10-90 00-00'             5162   	l	r0,	NEAR __flgUartFin
00:05A8 01 70                    5163   	cmp	r0,	#01h
00:05AA F8 C8                    5164   	bne	_$L348
                                 5165   CBLOCKEND 230 2 1814
                                 5166   
                                 5167   ;;}
                                 5168   CLINEA 0000H 0001H 0716H 0001H 0001H
00:05AC 1E-F8                    5169   	pop	er8
00:05AE 8E-F2                    5170   	pop	pc
                                 5171   CBLOCKEND 230 1 1814
                                 5172   CFUNCTIONEND 230
                                 5173   
                                 5174   
  --------------------------     5175   	rseg $$SerialOutCoefficients$main
                                 5176   CFUNCTION 231
                                 5177   
00:0000                          5178   _SerialOutCoefficients	:
                                 5179   CBLOCK 231 1 1818
                                 5180   
                                 5181   ;;{
                                 5182   CLINEA 0000H 0001H 071AH 0001H 0001H
00:0000 CE-F8                    5183   	push	lr
                                 5184   CBLOCK 231 2 1818
                                 5185   CRET 0000H
                                 5186   CLOCAL 47H 0002H 0024H 0002H "j" 02H 00H 01H
                                 5187   
                                 5188   ;;		for(j = 0; j<150; j++)
                                 5189   CLINEA 0000H 0001H 071DH 0003H 0018H
00:0002 00 E0                    5190   	mov	er0,	#0 
00:0004                          5191   _$L363 :
                                 5192   CBLOCK 231 3 1822
                                 5193   
                                 5194   ;;			SensorReturn[j] = 0x20;
                                 5195   CLINEA 0000H 0001H 071FH 0004H 001AH
00:0004 20 02                    5196   	mov	r2,	#020h
00:0006 09-92 00-00'             5197   	st	r2,	NEAR _SensorReturn[er0]
                                 5198   CBLOCKEND 231 3 1824
                                 5199   
                                 5200   ;;		for(j = 0; j<150; j++)
                                 5201   CLINEA 0000H 0000H 071DH 0003H 0018H
00:000A 81 E0                    5202   	add	er0,	#1 
                                 5203   
                                 5204   ;;		for(j = 0; j<150; j++)
                                 5205   CLINEA 0000H 0000H 071DH 000DH 0011H
00:000C 96 70                    5206   	cmp	r0,	#096h
00:000E 00 51                    5207   	cmpc	r1,	#00h
00:0010 F9 C5                    5208   	blts	_$L363
                                 5209   
                                 5210   ;;		sprintf(SensorReturn, "Current Settings: kp=%f,ki=%f,kd=%f,a1=%f,a2=%f,Pb=%u,Db=%u", Accel_PID_XRoll_kp, Accel_PID_XRoll_ki, Accel_PID_XRoll_kd, CF_HPF, CF_LPF,Accel_PID_PBounds_Var_Pos,Accel_PID_DBounds_Var_Pos);
                                 5211   CLINEA 0000H 0001H 0722H 0003H 00D7H
00:0012 12-90 00-00'             5212   	l	er0,	NEAR _Accel_PID_DBounds_Var_Pos
00:0016 5E-F0                    5213   	push	er0
00:0018 12-90 00-00'             5214   	l	er0,	NEAR _Accel_PID_PBounds_Var_Pos
00:001C 5E-F0                    5215   	push	er0
00:001E 12-90 00-00'             5216   	l	er0,	NEAR _CF_LPF
00:0022 12-92 00-00'             5217   	l	er2,	NEAR _CF_LPF+02h
00:0026 6E-F0                    5218   	push	xr0
00:0028 FC E1                    5219   	add	sp,	#-4
00:002A 01-F0'00-00'             5220   	bl	__ftodu8sw
00:002E 12-90 00-00'             5221   	l	er0,	NEAR _CF_HPF
00:0032 12-92 00-00'             5222   	l	er2,	NEAR _CF_HPF+02h
00:0036 6E-F0                    5223   	push	xr0
00:0038 FC E1                    5224   	add	sp,	#-4
00:003A 01-F0'00-00'             5225   	bl	__ftodu8sw
00:003E 12-90 00-00'             5226   	l	er0,	NEAR _Accel_PID_XRoll_kd
00:0042 12-92 00-00'             5227   	l	er2,	NEAR _Accel_PID_XRoll_kd+02h
00:0046 6E-F0                    5228   	push	xr0
00:0048 FC E1                    5229   	add	sp,	#-4
00:004A 01-F0'00-00'             5230   	bl	__ftodu8sw
00:004E 12-90 00-00'             5231   	l	er0,	NEAR _Accel_PID_XRoll_ki
00:0052 12-92 00-00'             5232   	l	er2,	NEAR _Accel_PID_XRoll_ki+02h
00:0056 6E-F0                    5233   	push	xr0
00:0058 FC E1                    5234   	add	sp,	#-4
00:005A 01-F0'00-00'             5235   	bl	__ftodu8sw
00:005E 12-90 00-00'             5236   	l	er0,	NEAR _Accel_PID_XRoll_kp
00:0062 12-92 00-00'             5237   	l	er2,	NEAR _Accel_PID_XRoll_kp+02h
00:0066 6E-F0                    5238   	push	xr0
00:0068 FC E1                    5239   	add	sp,	#-4
00:006A 01-F0'00-00'             5240   	bl	__ftodu8sw
00:006E 00'00                    5241   	mov	r0,	#BYTE1 OFFSET $$S367
00:0070 00'01                    5242   	mov	r1,	#BYTE2 OFFSET $$S367
00:0072 5E-F0                    5243   	push	er0
00:0074 00'00                    5244   	mov	r0,	#BYTE1 OFFSET _SensorReturn
00:0076 00'01                    5245   	mov	r1,	#BYTE2 OFFSET _SensorReturn
00:0078 5E-F0                    5246   	push	er0
00:007A 01-F0'00-00'             5247   	bl	_sprintf_nn
00:007E 30 E1                    5248   	add	sp,	#48
                                 5249   
                                 5250   ;;		SensorReturn[148] = 0x0D;	//CR
                                 5251   CLINEA 0000H 0001H 0724H 0003H 0020H
00:0080 0D 00                    5252   	mov	r0,	#0dh
00:0082 11-90 00-00'             5253   	st	r0,	NEAR _SensorReturn+094h
                                 5254   
                                 5255   ;;		SensorReturn[149] = 0x0A;	//LF
                                 5256   CLINEA 0000H 0001H 0725H 0003H 0020H
00:0086 0A 00                    5257   	mov	r0,	#0ah
00:0088 11-90 00-00'             5258   	st	r0,	NEAR _SensorReturn+095h
                                 5259   
                                 5260   ;;		_flgUartFin = 0;
                                 5261   CLINEA 0000H 0001H 0728H 0003H 0012H
00:008C 00 00                    5262   	mov	r0,	#00h
00:008E 11-90 00-00'             5263   	st	r0,	NEAR __flgUartFin
                                 5264   
                                 5265   ;;		uart_stop();
                                 5266   CLINEA 0000H 0001H 0729H 0003H 000EH
00:0092 01-F0'00-00'             5267   	bl	_uart_stop
                                 5268   
                                 5269   ;;		uart_startSend(SensorReturn, 150, _funcUartFin);
                                 5270   CLINEA 0000H 0001H 072AH 0003H 0032H
00:0096 00'00                    5271   	mov	r0,	#BYTE1 OFFSET __funcUartFin
00:0098 00'01                    5272   	mov	r1,	#BYTE2 OFFSET __funcUartFin
00:009A 5E-F0                    5273   	push	er0
00:009C 96 02                    5274   	mov	r2,	#096h
00:009E 00 03                    5275   	mov	r3,	#00h
00:00A0 00'00                    5276   	mov	r0,	#BYTE1 OFFSET _SensorReturn
00:00A2 00'01                    5277   	mov	r1,	#BYTE2 OFFSET _SensorReturn
00:00A4 01-F0'00-00'             5278   	bl	_uart_startSend
00:00A8 02 E1                    5279   	add	sp,	#2 
                                 5280   
                                 5281   ;;		while(_flgUartFin != 1){
                                 5282   CLINEA 0000H 0000H 072BH 0001H 0001H
00:00AA 02 CE                    5283   	bal	_$L372
                                 5284   
                                 5285   ;;		while(_flgUartFin != 1){
                                 5286   CLINEA 0000H 0000H 072BH 0003H 001AH
00:00AC                          5287   _$L370 :
                                 5288   CBLOCK 231 4 1835
                                 5289   
                                 5290   ;;			main_clrWDT();
                                 5291   CLINEA 0000H 0001H 072CH 0004H 0011H
00:00AC 01-F0'00-00'             5292   	bl	_main_clrWDT
                                 5293   CBLOCKEND 231 4 1837
                                 5294   
                                 5295   ;;		while(_flgUartFin != 1){
                                 5296   CLINEA 0000H 0000H 072BH 0001H 0001H
00:00B0                          5297   _$L372 :
                                 5298   
                                 5299   ;;		while(_flgUartFin != 1){
                                 5300   CLINEA 0000H 0000H 072BH 000DH 0011H
00:00B0 10-90 00-00'             5301   	l	r0,	NEAR __flgUartFin
00:00B4 01 70                    5302   	cmp	r0,	#01h
00:00B6 FA C8                    5303   	bne	_$L370
                                 5304   CBLOCKEND 231 2 1838
                                 5305   
                                 5306   ;;}
                                 5307   CLINEA 0000H 0001H 072EH 0001H 0001H
00:00B8 8E-F2                    5308   	pop	pc
                                 5309   CBLOCKEND 231 1 1838
                                 5310   CFUNCTIONEND 231
                                 5311   
                                 5312   
  --------------------------     5313   	rseg $$UARTTunePID$main
                                 5314   CFUNCTION 232
                                 5315   
00:0000                          5316   _UARTTunePID	:
                                 5317   CBLOCK 232 1 1842
                                 5318   
                                 5319   ;;{
                                 5320   CLINEA 0000H 0001H 0732H 0001H 0001H
00:0000 CE-F8                    5321   	push	lr
                                 5322   CBLOCK 232 2 1842
                                 5323   CRET 0000H
                                 5324   CLOCAL 47H 0002H 0024H 0002H "k" 02H 00H 01H
                                 5325   CLOCAL 4BH 0002H 0000H 0002H "i" 02H 00H 01H
                                 5326   CLOCAL 4BH 0002H 0000H 0002H "j" 02H 00H 01H
                                 5327   
                                 5328   ;;		for (k=0;k<7;k++)
                                 5329   CLINEA 0000H 0001H 0739H 0008H 000BH
00:0002 00 E0                    5330   	mov	er0,	#0 
                                 5331   
                                 5332   ;;		for (k=0;k<7;k++)
                                 5333   CLINEA 0000H 0000H 0739H 0010H 0012H
00:0004                          5334   _$L377 :
                                 5335   CBLOCK 232 3 1850
                                 5336   
                                 5337   ;;			RecWorld[k] = 0;	//ie: to set ki to 1.5 =>send ki1.50000
                                 5338   CLINEA 0000H 0001H 073BH 0004H 003BH
00:0004 00 02                    5339   	mov	r2,	#00h
00:0006 09-92 00-00'             5340   	st	r2,	NEAR _RecWorld[er0]
                                 5341   CBLOCKEND 232 3 1852
                                 5342   
                                 5343   ;;		for (k=0;k<7;k++)
                                 5344   CLINEA 0000H 0000H 0739H 0010H 0012H
00:000A 81 E0                    5345   	add	er0,	#1 
                                 5346   
                                 5347   ;;		for (k=0;k<7;k++)
                                 5348   CLINEA 0000H 0000H 0739H 000CH 000FH
00:000C 07 70                    5349   	cmp	r0,	#07h
00:000E 00 51                    5350   	cmpc	r1,	#00h
00:0010 F9 C5                    5351   	blts	_$L377
                                 5352   
                                 5353   ;;		ETM8 = 0; //Turn OFF TIMER8/9 ISR for this function...
                                 5354   CLINEA 0000H 0001H 073EH 0003H 0038H
00:0012 A2-A0 13-F0              5355   	rb	0f013h.2
                                 5356   
                                 5357   ;;		ETM9 = 0; //Turn OFF TIMER8/9 ISR for this function...
                                 5358   CLINEA 0000H 0001H 073FH 0003H 0038H
00:0016 B2-A0 13-F0              5359   	rb	0f013h.3
                                 5360   
                                 5361   ;;		_flgUartFin = 0;
                                 5362   CLINEA 0000H 0001H 0742H 0003H 0012H
00:001A 00 00                    5363   	mov	r0,	#00h
00:001C 11-90 00-00'             5364   	st	r0,	NEAR __flgUartFin
                                 5365   
                                 5366   ;;		uart_stop();
                                 5367   CLINEA 0000H 0001H 0743H 0003H 000EH
00:0020 01-F0'00-00'             5368   	bl	_uart_stop
                                 5369   
                                 5370   ;;		uart_startReceive(RecWorld, 8, _funcUartFin);
                                 5371   CLINEA 0000H 0001H 0744H 0003H 002FH
00:0024 00'00                    5372   	mov	r0,	#BYTE1 OFFSET __funcUartFin
00:0026 00'01                    5373   	mov	r1,	#BYTE2 OFFSET __funcUartFin
00:0028 5E-F0                    5374   	push	er0
00:002A 08 E2                    5375   	mov	er2,	#8 
00:002C 00'00                    5376   	mov	r0,	#BYTE1 OFFSET _RecWorld
00:002E 00'01                    5377   	mov	r1,	#BYTE2 OFFSET _RecWorld
00:0030 01-F0'00-00'             5378   	bl	_uart_startReceive
00:0034 02 E1                    5379   	add	sp,	#2 
                                 5380   
                                 5381   ;;		while(_flgUartFin != 1){
                                 5382   CLINEA 0000H 0000H 0745H 0001H 0001H
00:0036 02 CE                    5383   	bal	_$L428
                                 5384   
                                 5385   ;;		while(_flgUartFin != 1){
                                 5386   CLINEA 0000H 0000H 0745H 0003H 001AH
00:0038                          5387   _$L383 :
                                 5388   CBLOCK 232 4 1861
                                 5389   
                                 5390   ;;			main_clrWDT();
                                 5391   CLINEA 0000H 0001H 0746H 0004H 0011H
00:0038 01-F0'00-00'             5392   	bl	_main_clrWDT
                                 5393   CBLOCKEND 232 4 1863
                                 5394   
                                 5395   ;;		while(_flgUartFin != 1){
                                 5396   CLINEA 0000H 0000H 0745H 0001H 0001H
00:003C                          5397   _$L428 :
                                 5398   
                                 5399   ;;		while(_flgUartFin != 1){
                                 5400   CLINEA 0000H 0000H 0745H 000CH 000FH
00:003C 10-90 00-00'             5401   	l	r0,	NEAR __flgUartFin
00:0040 01 70                    5402   	cmp	r0,	#01h
00:0042 FA C8                    5403   	bne	_$L383
                                 5404   
                                 5405   ;;		if(RecWorld[0] == 0x70){		//if RECWORLD == "pi"
                                 5406   CLINEA 0000H 0001H 0775H 0003H 0031H
00:0044 10-90 00-00'             5407   	l	r0,	NEAR _RecWorld
00:0048 70 70                    5408   	cmp	r0,	#070h
00:004A 02 C9                    5409   	beq	_$M25
00:004C 00-F0'00-00'             5410   	b	_$L387
00:0050                          5411   _$M25 :
                                 5412   CBLOCK 232 5 1909
                                 5413   
                                 5414   ;;			if(RecWorld[1] == 0x69){
                                 5415   CLINEA 0000H 0001H 0776H 0004H 001BH
00:0050 10-90 00-00'             5416   	l	r0,	NEAR _RecWorld+01h
00:0054 69 70                    5417   	cmp	r0,	#069h
00:0056 02 C9                    5418   	beq	_$M26
00:0058 00-F0'00-00'             5419   	b	_$L387
00:005C                          5420   _$M26 :
                                 5421   CBLOCK 232 6 1910
                                 5422   
                                 5423   ;;				NewVar_Str[0] = RecWorld[2];
                                 5424   CLINEA 0000H 0001H 0777H 0005H 0020H
00:005C 10-90 00-00'             5425   	l	r0,	NEAR _RecWorld+02h
00:0060 11-90 00-00'             5426   	st	r0,	NEAR _NewVar_Str
                                 5427   
                                 5428   ;;				NewVar_Str[1] = RecWorld[3];
                                 5429   CLINEA 0000H 0001H 0778H 0005H 0020H
00:0064 10-90 00-00'             5430   	l	r0,	NEAR _RecWorld+03h
00:0068 11-90 00-00'             5431   	st	r0,	NEAR _NewVar_Str+01h
                                 5432   
                                 5433   ;;				NewVar_Str[2] = RecWorld[4];
                                 5434   CLINEA 0000H 0001H 0779H 0005H 0020H
00:006C 10-90 00-00'             5435   	l	r0,	NEAR _RecWorld+04h
00:0070 11-90 00-00'             5436   	st	r0,	NEAR _NewVar_Str+02h
                                 5437   
                                 5438   ;;				NewVar_Str[3] = RecWorld[5];
                                 5439   CLINEA 0000H 0001H 077AH 0005H 0020H
00:0074 10-90 00-00'             5440   	l	r0,	NEAR _RecWorld+05h
00:0078 11-90 00-00'             5441   	st	r0,	NEAR _NewVar_Str+03h
                                 5442   
                                 5443   ;;				NewVar_Str[4] = RecWorld[6];
                                 5444   CLINEA 0000H 0001H 077BH 0005H 0020H
00:007C 10-90 00-00'             5445   	l	r0,	NEAR _RecWorld+06h
00:0080 11-90 00-00'             5446   	st	r0,	NEAR _NewVar_Str+04h
                                 5447   
                                 5448   ;;				NewVar_Str[5] = RecWorld[7];
                                 5449   CLINEA 0000H 0001H 077CH 0005H 0020H
00:0084 10-90 00-00'             5450   	l	r0,	NEAR _RecWorld+07h
00:0088 11-90 00-00'             5451   	st	r0,	NEAR _NewVar_Str+05h
                                 5452   
                                 5453   ;;				sscanf(NewVar_Str, "%f", &NewVar);
                                 5454   CLINEA 0000H 0001H 077DH 0005H 0026H
00:008C 00'00                    5455   	mov	r0,	#BYTE1 OFFSET _NewVar
00:008E 00'01                    5456   	mov	r1,	#BYTE2 OFFSET _NewVar
00:0090 5E-F0                    5457   	push	er0
00:0092 00'00                    5458   	mov	r0,	#BYTE1 OFFSET $$S209
00:0094 00'01                    5459   	mov	r1,	#BYTE2 OFFSET $$S209
00:0096 5E-F0                    5460   	push	er0
00:0098 00'00                    5461   	mov	r0,	#BYTE1 OFFSET _NewVar_Str
00:009A 00'01                    5462   	mov	r1,	#BYTE2 OFFSET _NewVar_Str
00:009C 5E-F0                    5463   	push	er0
00:009E 01-F0'00-00'             5464   	bl	_sscanf_nn
00:00A2 06 E1                    5465   	add	sp,	#6 
                                 5466   
                                 5467   ;;				Accel_PID_XRoll_kp = NewVar;
                                 5468   CLINEA 0000H 0001H 077EH 0005H 0020H
00:00A4 12-90 00-00'             5469   	l	er0,	NEAR _NewVar
00:00A8 12-92 00-00'             5470   	l	er2,	NEAR _NewVar+02h
00:00AC 13-90 00-00'             5471   	st	er0,	NEAR _Accel_PID_XRoll_kp
00:00B0 13-92 00-00'             5472   	st	er2,	NEAR _Accel_PID_XRoll_kp+02h
                                 5473   
                                 5474   ;;				Accel_PID_YPitch_kp = NewVar;
                                 5475   CLINEA 0000H 0001H 077FH 0005H 0021H
00:00B4 13-90 00-00'             5476   	st	er0,	NEAR _Accel_PID_YPitch_kp
00:00B8 13-92 00-00'             5477   	st	er2,	NEAR _Accel_PID_YPitch_kp+02h
                                 5478   
                                 5479   ;;				Accel_PID_XRoll_ki = NewVar/2;
                                 5480   CLINEA 0000H 0001H 0780H 0005H 0022H
00:00BC 6E-F0                    5481   	push	xr0
00:00BE 00 E0                    5482   	mov	er0,	#0 
00:00C0 00 02                    5483   	mov	r2,	#00h
00:00C2 40 03                    5484   	mov	r3,	#040h
00:00C4 6E-F0                    5485   	push	xr0
00:00C6 01-F0'00-00'             5486   	bl	__fdivu8sw
00:00CA 04 E1                    5487   	add	sp,	#4 
00:00CC 2E-F0                    5488   	pop	xr0
00:00CE 13-90 00-00'             5489   	st	er0,	NEAR _Accel_PID_XRoll_ki
00:00D2 13-92 00-00'             5490   	st	er2,	NEAR _Accel_PID_XRoll_ki+02h
                                 5491   
                                 5492   ;;				Accel_PID_YPitch_ki = NewVar/2;
                                 5493   CLINEA 0000H 0001H 0781H 0005H 0023H
00:00D6 12-90 00-00'             5494   	l	er0,	NEAR _NewVar
00:00DA 12-92 00-00'             5495   	l	er2,	NEAR _NewVar+02h
00:00DE 6E-F0                    5496   	push	xr0
00:00E0 00 E0                    5497   	mov	er0,	#0 
00:00E2 00 02                    5498   	mov	r2,	#00h
00:00E4 40 03                    5499   	mov	r3,	#040h
00:00E6 6E-F0                    5500   	push	xr0
00:00E8 01-F0'00-00'             5501   	bl	__fdivu8sw
00:00EC 04 E1                    5502   	add	sp,	#4 
00:00EE 2E-F0                    5503   	pop	xr0
00:00F0 13-90 00-00'             5504   	st	er0,	NEAR _Accel_PID_YPitch_ki
00:00F4 13-92 00-00'             5505   	st	er2,	NEAR _Accel_PID_YPitch_ki+02h
                                 5506   CBLOCKEND 232 6 1922
                                 5507   
                                 5508   ;;			}
                                 5509   CLINEA 0000H 0000H 0782H 0004H 0004H
00:00F8                          5510   _$L387 :
                                 5511   CBLOCKEND 232 5 1923
                                 5512   
                                 5513   ;;		if(RecWorld[0] == 0x70){		//if RECWORLD == "pb"
                                 5514   CLINEA 0000H 0001H 0785H 0003H 0031H
00:00F8 10-90 00-00'             5515   	l	r0,	NEAR _RecWorld
00:00FC 70 70                    5516   	cmp	r0,	#070h
00:00FE 02 C9                    5517   	beq	_$M27
00:0100 00-F0'00-00'             5518   	b	_$L391
00:0104                          5519   _$M27 :
                                 5520   CBLOCK 232 7 1925
                                 5521   
                                 5522   ;;			if(RecWorld[1] == 0x62){
                                 5523   CLINEA 0000H 0001H 0786H 0004H 001BH
00:0104 10-90 00-00'             5524   	l	r0,	NEAR _RecWorld+01h
00:0108 62 70                    5525   	cmp	r0,	#062h
00:010A 3F C8                    5526   	bne	_$L391
                                 5527   CBLOCK 232 8 1926
                                 5528   
                                 5529   ;;				NewVar_Str[0] = RecWorld[2];
                                 5530   CLINEA 0000H 0001H 0787H 0005H 0020H
00:010C 10-90 00-00'             5531   	l	r0,	NEAR _RecWorld+02h
00:0110 11-90 00-00'             5532   	st	r0,	NEAR _NewVar_Str
                                 5533   
                                 5534   ;;				NewVar_Str[1] = RecWorld[3];
                                 5535   CLINEA 0000H 0001H 0788H 0005H 0020H
00:0114 10-90 00-00'             5536   	l	r0,	NEAR _RecWorld+03h
00:0118 11-90 00-00'             5537   	st	r0,	NEAR _NewVar_Str+01h
                                 5538   
                                 5539   ;;				NewVar_Str[2] = RecWorld[4];
                                 5540   CLINEA 0000H 0001H 0789H 0005H 0020H
00:011C 10-90 00-00'             5541   	l	r0,	NEAR _RecWorld+04h
00:0120 11-90 00-00'             5542   	st	r0,	NEAR _NewVar_Str+02h
                                 5543   
                                 5544   ;;				NewVar_Str[3] = RecWorld[5];
                                 5545   CLINEA 0000H 0001H 078AH 0005H 0020H
00:0124 10-90 00-00'             5546   	l	r0,	NEAR _RecWorld+05h
00:0128 11-90 00-00'             5547   	st	r0,	NEAR _NewVar_Str+03h
                                 5548   
                                 5549   ;;				NewVar_Str[4] = RecWorld[6];
                                 5550   CLINEA 0000H 0001H 078BH 0005H 0020H
00:012C 10-90 00-00'             5551   	l	r0,	NEAR _RecWorld+06h
00:0130 11-90 00-00'             5552   	st	r0,	NEAR _NewVar_Str+04h
                                 5553   
                                 5554   ;;				NewVar_Str[5] = RecWorld[7];
                                 5555   CLINEA 0000H 0001H 078CH 0005H 0020H
00:0134 10-90 00-00'             5556   	l	r0,	NEAR _RecWorld+07h
00:0138 11-90 00-00'             5557   	st	r0,	NEAR _NewVar_Str+05h
                                 5558   
                                 5559   ;;				sscanf(NewVar_Str, "%f", &NewVar);
                                 5560   CLINEA 0000H 0001H 078DH 0005H 0026H
00:013C 00'00                    5561   	mov	r0,	#BYTE1 OFFSET _NewVar
00:013E 00'01                    5562   	mov	r1,	#BYTE2 OFFSET _NewVar
00:0140 5E-F0                    5563   	push	er0
00:0142 00'00                    5564   	mov	r0,	#BYTE1 OFFSET $$S209
00:0144 00'01                    5565   	mov	r1,	#BYTE2 OFFSET $$S209
00:0146 5E-F0                    5566   	push	er0
00:0148 00'00                    5567   	mov	r0,	#BYTE1 OFFSET _NewVar_Str
00:014A 00'01                    5568   	mov	r1,	#BYTE2 OFFSET _NewVar_Str
00:014C 5E-F0                    5569   	push	er0
00:014E 01-F0'00-00'             5570   	bl	_sscanf_nn
00:0152 06 E1                    5571   	add	sp,	#6 
                                 5572   
                                 5573   ;;				Accel_PID_PBounds_Var_Pos = NewVar;
                                 5574   CLINEA 0000H 0001H 078EH 0005H 0027H
00:0154 12-90 00-00'             5575   	l	er0,	NEAR _NewVar
00:0158 12-92 00-00'             5576   	l	er2,	NEAR _NewVar+02h
00:015C 6E-F0                    5577   	push	xr0
00:015E 01-F0'00-00'             5578   	bl	__ftolu8sw
00:0162 1E-F0                    5579   	pop	er0
00:0164 02 E1                    5580   	add	sp,	#2 
00:0166 13-90 00-00'             5581   	st	er0,	NEAR _Accel_PID_PBounds_Var_Pos
                                 5582   
                                 5583   ;;				Accel_PID_PBounds_Var_Neg = -1* NewVar;
                                 5584   CLINEA 0000H 0001H 078FH 0005H 002BH
00:016A 12-90 00-00'             5585   	l	er0,	NEAR _NewVar
00:016E 6E-F0                    5586   	push	xr0
00:0170 00 E0                    5587   	mov	er0,	#0 
00:0172 80 02                    5588   	mov	r2,	#080h
00:0174 BF 03                    5589   	mov	r3,	#0bfh
00:0176 6E-F0                    5590   	push	xr0
00:0178 01-F0'00-00'             5591   	bl	__fmulu8sw
00:017C 04 E1                    5592   	add	sp,	#4 
00:017E 01-F0'00-00'             5593   	bl	__ftolu8sw
00:0182 1E-F0                    5594   	pop	er0
00:0184 02 E1                    5595   	add	sp,	#2 
00:0186 13-90 00-00'             5596   	st	er0,	NEAR _Accel_PID_PBounds_Var_Neg
                                 5597   CBLOCKEND 232 8 1937
                                 5598   
                                 5599   ;;			}
                                 5600   CLINEA 0000H 0000H 0791H 0004H 0004H
00:018A                          5601   _$L391 :
                                 5602   CBLOCKEND 232 7 1938
                                 5603   
                                 5604   ;;		if(RecWorld[0] == 0x64){			//if RECWORLD == "db"
                                 5605   CLINEA 0000H 0001H 0794H 0003H 0032H
00:018A 10-90 00-00'             5606   	l	r0,	NEAR _RecWorld
00:018E 64 70                    5607   	cmp	r0,	#064h
00:0190 02 C9                    5608   	beq	_$M28
00:0192 00-F0'00-00'             5609   	b	_$L395
00:0196                          5610   _$M28 :
                                 5611   CBLOCK 232 9 1940
                                 5612   
                                 5613   ;;			if(RecWorld[1] == 0x62){
                                 5614   CLINEA 0000H 0001H 0795H 0004H 001BH
00:0196 10-90 00-00'             5615   	l	r0,	NEAR _RecWorld+01h
00:019A 62 70                    5616   	cmp	r0,	#062h
00:019C 3F C8                    5617   	bne	_$L395
                                 5618   CBLOCK 232 10 1941
                                 5619   
                                 5620   ;;				NewVar_Str[0] = RecWorld[2];
                                 5621   CLINEA 0000H 0001H 0796H 0005H 0020H
00:019E 10-90 00-00'             5622   	l	r0,	NEAR _RecWorld+02h
00:01A2 11-90 00-00'             5623   	st	r0,	NEAR _NewVar_Str
                                 5624   
                                 5625   ;;				NewVar_Str[1] = RecWorld[3];
                                 5626   CLINEA 0000H 0001H 0797H 0005H 0020H
00:01A6 10-90 00-00'             5627   	l	r0,	NEAR _RecWorld+03h
00:01AA 11-90 00-00'             5628   	st	r0,	NEAR _NewVar_Str+01h
                                 5629   
                                 5630   ;;				NewVar_Str[2] = RecWorld[4];
                                 5631   CLINEA 0000H 0001H 0798H 0005H 0020H
00:01AE 10-90 00-00'             5632   	l	r0,	NEAR _RecWorld+04h
00:01B2 11-90 00-00'             5633   	st	r0,	NEAR _NewVar_Str+02h
                                 5634   
                                 5635   ;;				NewVar_Str[3] = RecWorld[5];
                                 5636   CLINEA 0000H 0001H 0799H 0005H 0020H
00:01B6 10-90 00-00'             5637   	l	r0,	NEAR _RecWorld+05h
00:01BA 11-90 00-00'             5638   	st	r0,	NEAR _NewVar_Str+03h
                                 5639   
                                 5640   ;;				NewVar_Str[4] = RecWorld[6];
                                 5641   CLINEA 0000H 0001H 079AH 0005H 0020H
00:01BE 10-90 00-00'             5642   	l	r0,	NEAR _RecWorld+06h
00:01C2 11-90 00-00'             5643   	st	r0,	NEAR _NewVar_Str+04h
                                 5644   
                                 5645   ;;				NewVar_Str[5] = RecWorld[7];
                                 5646   CLINEA 0000H 0001H 079BH 0005H 0020H
00:01C6 10-90 00-00'             5647   	l	r0,	NEAR _RecWorld+07h
00:01CA 11-90 00-00'             5648   	st	r0,	NEAR _NewVar_Str+05h
                                 5649   
                                 5650   ;;				sscanf(NewVar_Str, "%f", &NewVar);
                                 5651   CLINEA 0000H 0001H 079CH 0005H 0026H
00:01CE 00'00                    5652   	mov	r0,	#BYTE1 OFFSET _NewVar
00:01D0 00'01                    5653   	mov	r1,	#BYTE2 OFFSET _NewVar
00:01D2 5E-F0                    5654   	push	er0
00:01D4 00'00                    5655   	mov	r0,	#BYTE1 OFFSET $$S209
00:01D6 00'01                    5656   	mov	r1,	#BYTE2 OFFSET $$S209
00:01D8 5E-F0                    5657   	push	er0
00:01DA 00'00                    5658   	mov	r0,	#BYTE1 OFFSET _NewVar_Str
00:01DC 00'01                    5659   	mov	r1,	#BYTE2 OFFSET _NewVar_Str
00:01DE 5E-F0                    5660   	push	er0
00:01E0 01-F0'00-00'             5661   	bl	_sscanf_nn
00:01E4 06 E1                    5662   	add	sp,	#6 
                                 5663   
                                 5664   ;;				Accel_PID_DBounds_Var_Pos = NewVar;
                                 5665   CLINEA 0000H 0001H 079DH 0005H 0027H
00:01E6 12-90 00-00'             5666   	l	er0,	NEAR _NewVar
00:01EA 12-92 00-00'             5667   	l	er2,	NEAR _NewVar+02h
00:01EE 6E-F0                    5668   	push	xr0
00:01F0 01-F0'00-00'             5669   	bl	__ftolu8sw
00:01F4 1E-F0                    5670   	pop	er0
00:01F6 02 E1                    5671   	add	sp,	#2 
00:01F8 13-90 00-00'             5672   	st	er0,	NEAR _Accel_PID_DBounds_Var_Pos
                                 5673   
                                 5674   ;;				Accel_PID_DBounds_Var_Neg = -1 * NewVar;
                                 5675   CLINEA 0000H 0001H 079EH 0005H 002CH
00:01FC 12-90 00-00'             5676   	l	er0,	NEAR _NewVar
00:0200 6E-F0                    5677   	push	xr0
00:0202 00 E0                    5678   	mov	er0,	#0 
00:0204 80 02                    5679   	mov	r2,	#080h
00:0206 BF 03                    5680   	mov	r3,	#0bfh
00:0208 6E-F0                    5681   	push	xr0
00:020A 01-F0'00-00'             5682   	bl	__fmulu8sw
00:020E 04 E1                    5683   	add	sp,	#4 
00:0210 01-F0'00-00'             5684   	bl	__ftolu8sw
00:0214 1E-F0                    5685   	pop	er0
00:0216 02 E1                    5686   	add	sp,	#2 
00:0218 13-90 00-00'             5687   	st	er0,	NEAR _Accel_PID_DBounds_Var_Neg
                                 5688   CBLOCKEND 232 10 1952
                                 5689   
                                 5690   ;;			}
                                 5691   CLINEA 0000H 0000H 07A0H 0004H 0004H
00:021C                          5692   _$L395 :
                                 5693   CBLOCKEND 232 9 1953
                                 5694   
                                 5695   ;;		if(RecWorld[0] == 0x6B){			//if RECWORLD == "kp"
                                 5696   CLINEA 0000H 0001H 07A3H 0003H 0032H
00:021C 10-90 00-00'             5697   	l	r0,	NEAR _RecWorld
00:0220 6B 70                    5698   	cmp	r0,	#06bh
00:0222 34 C8                    5699   	bne	_$L399
                                 5700   CBLOCK 232 11 1955
                                 5701   
                                 5702   ;;			if(RecWorld[1] == 0x70){
                                 5703   CLINEA 0000H 0001H 07A4H 0004H 001BH
00:0224 10-90 00-00'             5704   	l	r0,	NEAR _RecWorld+01h
00:0228 70 70                    5705   	cmp	r0,	#070h
00:022A 30 C8                    5706   	bne	_$L399
                                 5707   CBLOCK 232 12 1956
                                 5708   
                                 5709   ;;				NewVar_Str[0] = RecWorld[2];
                                 5710   CLINEA 0000H 0001H 07A5H 0005H 0020H
00:022C 10-90 00-00'             5711   	l	r0,	NEAR _RecWorld+02h
00:0230 11-90 00-00'             5712   	st	r0,	NEAR _NewVar_Str
                                 5713   
                                 5714   ;;				NewVar_Str[1] = RecWorld[3];
                                 5715   CLINEA 0000H 0001H 07A6H 0005H 0020H
00:0234 10-90 00-00'             5716   	l	r0,	NEAR _RecWorld+03h
00:0238 11-90 00-00'             5717   	st	r0,	NEAR _NewVar_Str+01h
                                 5718   
                                 5719   ;;				NewVar_Str[2] = RecWorld[4];
                                 5720   CLINEA 0000H 0001H 07A7H 0005H 0020H
00:023C 10-90 00-00'             5721   	l	r0,	NEAR _RecWorld+04h
00:0240 11-90 00-00'             5722   	st	r0,	NEAR _NewVar_Str+02h
                                 5723   
                                 5724   ;;				NewVar_Str[3] = RecWorld[5];
                                 5725   CLINEA 0000H 0001H 07A8H 0005H 0020H
00:0244 10-90 00-00'             5726   	l	r0,	NEAR _RecWorld+05h
00:0248 11-90 00-00'             5727   	st	r0,	NEAR _NewVar_Str+03h
                                 5728   
                                 5729   ;;				NewVar_Str[4] = RecWorld[6];
                                 5730   CLINEA 0000H 0001H 07A9H 0005H 0020H
00:024C 10-90 00-00'             5731   	l	r0,	NEAR _RecWorld+06h
00:0250 11-90 00-00'             5732   	st	r0,	NEAR _NewVar_Str+04h
                                 5733   
                                 5734   ;;				NewVar_Str[5] = RecWorld[7];
                                 5735   CLINEA 0000H 0001H 07AAH 0005H 0020H
00:0254 10-90 00-00'             5736   	l	r0,	NEAR _RecWorld+07h
00:0258 11-90 00-00'             5737   	st	r0,	NEAR _NewVar_Str+05h
                                 5738   
                                 5739   ;;				sscanf(NewVar_Str, "%f", &NewVar);
                                 5740   CLINEA 0000H 0001H 07ABH 0005H 0026H
00:025C 00'00                    5741   	mov	r0,	#BYTE1 OFFSET _NewVar
00:025E 00'01                    5742   	mov	r1,	#BYTE2 OFFSET _NewVar
00:0260 5E-F0                    5743   	push	er0
00:0262 00'00                    5744   	mov	r0,	#BYTE1 OFFSET $$S209
00:0264 00'01                    5745   	mov	r1,	#BYTE2 OFFSET $$S209
00:0266 5E-F0                    5746   	push	er0
00:0268 00'00                    5747   	mov	r0,	#BYTE1 OFFSET _NewVar_Str
00:026A 00'01                    5748   	mov	r1,	#BYTE2 OFFSET _NewVar_Str
00:026C 5E-F0                    5749   	push	er0
00:026E 01-F0'00-00'             5750   	bl	_sscanf_nn
00:0272 06 E1                    5751   	add	sp,	#6 
                                 5752   
                                 5753   ;;				Accel_PID_XRoll_kp = NewVar;
                                 5754   CLINEA 0000H 0001H 07ACH 0005H 0020H
00:0274 12-90 00-00'             5755   	l	er0,	NEAR _NewVar
00:0278 12-92 00-00'             5756   	l	er2,	NEAR _NewVar+02h
00:027C 13-90 00-00'             5757   	st	er0,	NEAR _Accel_PID_XRoll_kp
00:0280 13-92 00-00'             5758   	st	er2,	NEAR _Accel_PID_XRoll_kp+02h
                                 5759   
                                 5760   ;;				Accel_PID_YPitch_kp = NewVar;
                                 5761   CLINEA 0000H 0001H 07ADH 0005H 0021H
00:0284 13-90 00-00'             5762   	st	er0,	NEAR _Accel_PID_YPitch_kp
00:0288 13-92 00-00'             5763   	st	er2,	NEAR _Accel_PID_YPitch_kp+02h
                                 5764   CBLOCKEND 232 12 1966
                                 5765   
                                 5766   ;;			}
                                 5767   CLINEA 0000H 0000H 07AEH 0004H 0004H
00:028C                          5768   _$L399 :
                                 5769   CBLOCKEND 232 11 1967
                                 5770   
                                 5771   ;;		if(RecWorld[0] == 0x6B){			//if RECWORLD == "ki"
                                 5772   CLINEA 0000H 0001H 07B1H 0003H 0032H
00:028C 10-90 00-00'             5773   	l	r0,	NEAR _RecWorld
00:0290 6B 70                    5774   	cmp	r0,	#06bh
00:0292 34 C8                    5775   	bne	_$L403
                                 5776   CBLOCK 232 13 1969
                                 5777   
                                 5778   ;;			if(RecWorld[1] == 0x69){
                                 5779   CLINEA 0000H 0001H 07B2H 0004H 001BH
00:0294 10-90 00-00'             5780   	l	r0,	NEAR _RecWorld+01h
00:0298 69 70                    5781   	cmp	r0,	#069h
00:029A 30 C8                    5782   	bne	_$L403
                                 5783   CBLOCK 232 14 1970
                                 5784   
                                 5785   ;;				NewVar_Str[0] = RecWorld[2];
                                 5786   CLINEA 0000H 0001H 07B3H 0005H 0020H
00:029C 10-90 00-00'             5787   	l	r0,	NEAR _RecWorld+02h
00:02A0 11-90 00-00'             5788   	st	r0,	NEAR _NewVar_Str
                                 5789   
                                 5790   ;;				NewVar_Str[1] = RecWorld[3];
                                 5791   CLINEA 0000H 0001H 07B4H 0005H 0020H
00:02A4 10-90 00-00'             5792   	l	r0,	NEAR _RecWorld+03h
00:02A8 11-90 00-00'             5793   	st	r0,	NEAR _NewVar_Str+01h
                                 5794   
                                 5795   ;;				NewVar_Str[2] = RecWorld[4];
                                 5796   CLINEA 0000H 0001H 07B5H 0005H 0020H
00:02AC 10-90 00-00'             5797   	l	r0,	NEAR _RecWorld+04h
00:02B0 11-90 00-00'             5798   	st	r0,	NEAR _NewVar_Str+02h
                                 5799   
                                 5800   ;;				NewVar_Str[3] = RecWorld[5];
                                 5801   CLINEA 0000H 0001H 07B6H 0005H 0020H
00:02B4 10-90 00-00'             5802   	l	r0,	NEAR _RecWorld+05h
00:02B8 11-90 00-00'             5803   	st	r0,	NEAR _NewVar_Str+03h
                                 5804   
                                 5805   ;;				NewVar_Str[4] = RecWorld[6];
                                 5806   CLINEA 0000H 0001H 07B7H 0005H 0020H
00:02BC 10-90 00-00'             5807   	l	r0,	NEAR _RecWorld+06h
00:02C0 11-90 00-00'             5808   	st	r0,	NEAR _NewVar_Str+04h
                                 5809   
                                 5810   ;;				NewVar_Str[5] = RecWorld[7];
                                 5811   CLINEA 0000H 0001H 07B8H 0005H 0020H
00:02C4 10-90 00-00'             5812   	l	r0,	NEAR _RecWorld+07h
00:02C8 11-90 00-00'             5813   	st	r0,	NEAR _NewVar_Str+05h
                                 5814   
                                 5815   ;;				sscanf(NewVar_Str, "%f", &NewVar);
                                 5816   CLINEA 0000H 0001H 07B9H 0005H 0026H
00:02CC 00'00                    5817   	mov	r0,	#BYTE1 OFFSET _NewVar
00:02CE 00'01                    5818   	mov	r1,	#BYTE2 OFFSET _NewVar
00:02D0 5E-F0                    5819   	push	er0
00:02D2 00'00                    5820   	mov	r0,	#BYTE1 OFFSET $$S209
00:02D4 00'01                    5821   	mov	r1,	#BYTE2 OFFSET $$S209
00:02D6 5E-F0                    5822   	push	er0
00:02D8 00'00                    5823   	mov	r0,	#BYTE1 OFFSET _NewVar_Str
00:02DA 00'01                    5824   	mov	r1,	#BYTE2 OFFSET _NewVar_Str
00:02DC 5E-F0                    5825   	push	er0
00:02DE 01-F0'00-00'             5826   	bl	_sscanf_nn
00:02E2 06 E1                    5827   	add	sp,	#6 
                                 5828   
                                 5829   ;;				Accel_PID_XRoll_ki = NewVar;
                                 5830   CLINEA 0000H 0001H 07BAH 0005H 0020H
00:02E4 12-90 00-00'             5831   	l	er0,	NEAR _NewVar
00:02E8 12-92 00-00'             5832   	l	er2,	NEAR _NewVar+02h
00:02EC 13-90 00-00'             5833   	st	er0,	NEAR _Accel_PID_XRoll_ki
00:02F0 13-92 00-00'             5834   	st	er2,	NEAR _Accel_PID_XRoll_ki+02h
                                 5835   
                                 5836   ;;				Accel_PID_YPitch_ki = NewVar;
                                 5837   CLINEA 0000H 0001H 07BBH 0005H 0021H
00:02F4 13-90 00-00'             5838   	st	er0,	NEAR _Accel_PID_YPitch_ki
00:02F8 13-92 00-00'             5839   	st	er2,	NEAR _Accel_PID_YPitch_ki+02h
                                 5840   CBLOCKEND 232 14 1980
                                 5841   
                                 5842   ;;			}
                                 5843   CLINEA 0000H 0000H 07BCH 0004H 0004H
00:02FC                          5844   _$L403 :
                                 5845   CBLOCKEND 232 13 1981
                                 5846   
                                 5847   ;;		if(RecWorld[0] == 0x6B){			//if RECWORLD == "kd"
                                 5848   CLINEA 0000H 0001H 07BFH 0003H 0032H
00:02FC 10-90 00-00'             5849   	l	r0,	NEAR _RecWorld
00:0300 6B 70                    5850   	cmp	r0,	#06bh
00:0302 34 C8                    5851   	bne	_$L407
                                 5852   CBLOCK 232 15 1983
                                 5853   
                                 5854   ;;			if(RecWorld[1] == 0x64){
                                 5855   CLINEA 0000H 0001H 07C0H 0004H 001BH
00:0304 10-90 00-00'             5856   	l	r0,	NEAR _RecWorld+01h
00:0308 64 70                    5857   	cmp	r0,	#064h
00:030A 30 C8                    5858   	bne	_$L407
                                 5859   CBLOCK 232 16 1984
                                 5860   
                                 5861   ;;				NewVar_Str[0] = RecWorld[2];
                                 5862   CLINEA 0000H 0001H 07C1H 0005H 0020H
00:030C 10-90 00-00'             5863   	l	r0,	NEAR _RecWorld+02h
00:0310 11-90 00-00'             5864   	st	r0,	NEAR _NewVar_Str
                                 5865   
                                 5866   ;;				NewVar_Str[1] = RecWorld[3];
                                 5867   CLINEA 0000H 0001H 07C2H 0005H 0020H
00:0314 10-90 00-00'             5868   	l	r0,	NEAR _RecWorld+03h
00:0318 11-90 00-00'             5869   	st	r0,	NEAR _NewVar_Str+01h
                                 5870   
                                 5871   ;;				NewVar_Str[2] = RecWorld[4];
                                 5872   CLINEA 0000H 0001H 07C3H 0005H 0020H
00:031C 10-90 00-00'             5873   	l	r0,	NEAR _RecWorld+04h
00:0320 11-90 00-00'             5874   	st	r0,	NEAR _NewVar_Str+02h
                                 5875   
                                 5876   ;;				NewVar_Str[3] = RecWorld[5];
                                 5877   CLINEA 0000H 0001H 07C4H 0005H 0020H
00:0324 10-90 00-00'             5878   	l	r0,	NEAR _RecWorld+05h
00:0328 11-90 00-00'             5879   	st	r0,	NEAR _NewVar_Str+03h
                                 5880   
                                 5881   ;;				NewVar_Str[4] = RecWorld[6];
                                 5882   CLINEA 0000H 0001H 07C5H 0005H 0020H
00:032C 10-90 00-00'             5883   	l	r0,	NEAR _RecWorld+06h
00:0330 11-90 00-00'             5884   	st	r0,	NEAR _NewVar_Str+04h
                                 5885   
                                 5886   ;;				NewVar_Str[5] = RecWorld[7];
                                 5887   CLINEA 0000H 0001H 07C6H 0005H 0020H
00:0334 10-90 00-00'             5888   	l	r0,	NEAR _RecWorld+07h
00:0338 11-90 00-00'             5889   	st	r0,	NEAR _NewVar_Str+05h
                                 5890   
                                 5891   ;;				sscanf(NewVar_Str, "%f", &NewVar);
                                 5892   CLINEA 0000H 0001H 07C7H 0005H 0026H
00:033C 00'00                    5893   	mov	r0,	#BYTE1 OFFSET _NewVar
00:033E 00'01                    5894   	mov	r1,	#BYTE2 OFFSET _NewVar
00:0340 5E-F0                    5895   	push	er0
00:0342 00'00                    5896   	mov	r0,	#BYTE1 OFFSET $$S209
00:0344 00'01                    5897   	mov	r1,	#BYTE2 OFFSET $$S209
00:0346 5E-F0                    5898   	push	er0
00:0348 00'00                    5899   	mov	r0,	#BYTE1 OFFSET _NewVar_Str
00:034A 00'01                    5900   	mov	r1,	#BYTE2 OFFSET _NewVar_Str
00:034C 5E-F0                    5901   	push	er0
00:034E 01-F0'00-00'             5902   	bl	_sscanf_nn
00:0352 06 E1                    5903   	add	sp,	#6 
                                 5904   
                                 5905   ;;				Accel_PID_XRoll_kd = NewVar;
                                 5906   CLINEA 0000H 0001H 07C8H 0005H 0020H
00:0354 12-90 00-00'             5907   	l	er0,	NEAR _NewVar
00:0358 12-92 00-00'             5908   	l	er2,	NEAR _NewVar+02h
00:035C 13-90 00-00'             5909   	st	er0,	NEAR _Accel_PID_XRoll_kd
00:0360 13-92 00-00'             5910   	st	er2,	NEAR _Accel_PID_XRoll_kd+02h
                                 5911   
                                 5912   ;;				Accel_PID_YPitch_kd = NewVar;
                                 5913   CLINEA 0000H 0001H 07C9H 0005H 0021H
00:0364 13-90 00-00'             5914   	st	er0,	NEAR _Accel_PID_YPitch_kd
00:0368 13-92 00-00'             5915   	st	er2,	NEAR _Accel_PID_YPitch_kd+02h
                                 5916   CBLOCKEND 232 16 1994
                                 5917   
                                 5918   ;;			}
                                 5919   CLINEA 0000H 0000H 07CAH 0004H 0004H
00:036C                          5920   _$L407 :
                                 5921   CBLOCKEND 232 15 1995
                                 5922   
                                 5923   ;;		if(RecWorld[0] == 0x61){			//if RECWORLD == "a1"
                                 5924   CLINEA 0000H 0001H 07CDH 0003H 0032H
00:036C 10-90 00-00'             5925   	l	r0,	NEAR _RecWorld
00:0370 61 70                    5926   	cmp	r0,	#061h
00:0372 02 C9                    5927   	beq	_$M29
00:0374 00-F0'00-00'             5928   	b	_$L411
00:0378                          5929   _$M29 :
                                 5930   CBLOCK 232 17 1997
                                 5931   
                                 5932   ;;			if(RecWorld[1] == 0x31){
                                 5933   CLINEA 0000H 0001H 07CEH 0004H 001BH
00:0378 10-90 00-00'             5934   	l	r0,	NEAR _RecWorld+01h
00:037C 31 70                    5935   	cmp	r0,	#031h
00:037E 3D C8                    5936   	bne	_$L411
                                 5937   CBLOCK 232 18 1998
                                 5938   
                                 5939   ;;				NewVar_Str[0] = RecWorld[2];
                                 5940   CLINEA 0000H 0001H 07CFH 0005H 0020H
00:0380 10-90 00-00'             5941   	l	r0,	NEAR _RecWorld+02h
00:0384 11-90 00-00'             5942   	st	r0,	NEAR _NewVar_Str
                                 5943   
                                 5944   ;;				NewVar_Str[1] = RecWorld[3];
                                 5945   CLINEA 0000H 0001H 07D0H 0005H 0020H
00:0388 10-90 00-00'             5946   	l	r0,	NEAR _RecWorld+03h
00:038C 11-90 00-00'             5947   	st	r0,	NEAR _NewVar_Str+01h
                                 5948   
                                 5949   ;;				NewVar_Str[2] = RecWorld[4];
                                 5950   CLINEA 0000H 0001H 07D1H 0005H 0020H
00:0390 10-90 00-00'             5951   	l	r0,	NEAR _RecWorld+04h
00:0394 11-90 00-00'             5952   	st	r0,	NEAR _NewVar_Str+02h
                                 5953   
                                 5954   ;;				NewVar_Str[3] = RecWorld[5];
                                 5955   CLINEA 0000H 0001H 07D2H 0005H 0020H
00:0398 10-90 00-00'             5956   	l	r0,	NEAR _RecWorld+05h
00:039C 11-90 00-00'             5957   	st	r0,	NEAR _NewVar_Str+03h
                                 5958   
                                 5959   ;;				NewVar_Str[4] = RecWorld[6];
                                 5960   CLINEA 0000H 0001H 07D3H 0005H 0020H
00:03A0 10-90 00-00'             5961   	l	r0,	NEAR _RecWorld+06h
00:03A4 11-90 00-00'             5962   	st	r0,	NEAR _NewVar_Str+04h
                                 5963   
                                 5964   ;;				NewVar_Str[5] = RecWorld[7];
                                 5965   CLINEA 0000H 0001H 07D4H 0005H 0020H
00:03A8 10-90 00-00'             5966   	l	r0,	NEAR _RecWorld+07h
00:03AC 11-90 00-00'             5967   	st	r0,	NEAR _NewVar_Str+05h
                                 5968   
                                 5969   ;;				sscanf(NewVar_Str, "%f", &NewVar);
                                 5970   CLINEA 0000H 0001H 07D5H 0005H 0026H
00:03B0 00'00                    5971   	mov	r0,	#BYTE1 OFFSET _NewVar
00:03B2 00'01                    5972   	mov	r1,	#BYTE2 OFFSET _NewVar
00:03B4 5E-F0                    5973   	push	er0
00:03B6 00'00                    5974   	mov	r0,	#BYTE1 OFFSET $$S209
00:03B8 00'01                    5975   	mov	r1,	#BYTE2 OFFSET $$S209
00:03BA 5E-F0                    5976   	push	er0
00:03BC 00'00                    5977   	mov	r0,	#BYTE1 OFFSET _NewVar_Str
00:03BE 00'01                    5978   	mov	r1,	#BYTE2 OFFSET _NewVar_Str
00:03C0 5E-F0                    5979   	push	er0
00:03C2 01-F0'00-00'             5980   	bl	_sscanf_nn
00:03C6 06 E1                    5981   	add	sp,	#6 
                                 5982   
                                 5983   ;;				CF_HPF = NewVar;
                                 5984   CLINEA 0000H 0001H 07D6H 0005H 0014H
00:03C8 12-90 00-00'             5985   	l	er0,	NEAR _NewVar
00:03CC 12-92 00-00'             5986   	l	er2,	NEAR _NewVar+02h
00:03D0 13-90 00-00'             5987   	st	er0,	NEAR _CF_HPF
00:03D4 13-92 00-00'             5988   	st	er2,	NEAR _CF_HPF+02h
                                 5989   
                                 5990   ;;				CF_LPF = 1-NewVar;
                                 5991   CLINEA 0000H 0001H 07D7H 0005H 0016H
00:03D8 00 E0                    5992   	mov	er0,	#0 
00:03DA 80 02                    5993   	mov	r2,	#080h
00:03DC 3F 03                    5994   	mov	r3,	#03fh
00:03DE 6E-F0                    5995   	push	xr0
00:03E0 12-90 00-00'             5996   	l	er0,	NEAR _NewVar
00:03E4 12-92 00-00'             5997   	l	er2,	NEAR _NewVar+02h
00:03E8 6E-F0                    5998   	push	xr0
00:03EA 01-F0'00-00'             5999   	bl	__fsubu8sw
00:03EE 04 E1                    6000   	add	sp,	#4 
00:03F0 2E-F0                    6001   	pop	xr0
00:03F2 13-90 00-00'             6002   	st	er0,	NEAR _CF_LPF
00:03F6 13-92 00-00'             6003   	st	er2,	NEAR _CF_LPF+02h
                                 6004   CBLOCKEND 232 18 2008
                                 6005   
                                 6006   ;;			}
                                 6007   CLINEA 0000H 0000H 07D8H 0004H 0004H
00:03FA                          6008   _$L411 :
                                 6009   CBLOCKEND 232 17 2009
                                 6010   
                                 6011   ;;		if(RecWorld[0] == 0x61){			//if RECWORLD == "a2"
                                 6012   CLINEA 0000H 0001H 07DBH 0003H 0032H
00:03FA 10-90 00-00'             6013   	l	r0,	NEAR _RecWorld
00:03FE 61 70                    6014   	cmp	r0,	#061h
00:0400 02 C9                    6015   	beq	_$M30
00:0402 00-F0'00-00'             6016   	b	_$L415
00:0406                          6017   _$M30 :
                                 6018   CBLOCK 232 19 2011
                                 6019   
                                 6020   ;;			if(RecWorld[1] == 0x32){
                                 6021   CLINEA 0000H 0001H 07DCH 0004H 001BH
00:0406 10-90 00-00'             6022   	l	r0,	NEAR _RecWorld+01h
00:040A 32 70                    6023   	cmp	r0,	#032h
00:040C 3D C8                    6024   	bne	_$L415
                                 6025   CBLOCK 232 20 2012
                                 6026   
                                 6027   ;;				NewVar_Str[0] = RecWorld[2];
                                 6028   CLINEA 0000H 0001H 07DDH 0005H 0020H
00:040E 10-90 00-00'             6029   	l	r0,	NEAR _RecWorld+02h
00:0412 11-90 00-00'             6030   	st	r0,	NEAR _NewVar_Str
                                 6031   
                                 6032   ;;				NewVar_Str[1] = RecWorld[3];
                                 6033   CLINEA 0000H 0001H 07DEH 0005H 0020H
00:0416 10-90 00-00'             6034   	l	r0,	NEAR _RecWorld+03h
00:041A 11-90 00-00'             6035   	st	r0,	NEAR _NewVar_Str+01h
                                 6036   
                                 6037   ;;				NewVar_Str[2] = RecWorld[4];
                                 6038   CLINEA 0000H 0001H 07DFH 0005H 0020H
00:041E 10-90 00-00'             6039   	l	r0,	NEAR _RecWorld+04h
00:0422 11-90 00-00'             6040   	st	r0,	NEAR _NewVar_Str+02h
                                 6041   
                                 6042   ;;				NewVar_Str[3] = RecWorld[5];
                                 6043   CLINEA 0000H 0001H 07E0H 0005H 0020H
00:0426 10-90 00-00'             6044   	l	r0,	NEAR _RecWorld+05h
00:042A 11-90 00-00'             6045   	st	r0,	NEAR _NewVar_Str+03h
                                 6046   
                                 6047   ;;				NewVar_Str[4] = RecWorld[6];
                                 6048   CLINEA 0000H 0001H 07E1H 0005H 0020H
00:042E 10-90 00-00'             6049   	l	r0,	NEAR _RecWorld+06h
00:0432 11-90 00-00'             6050   	st	r0,	NEAR _NewVar_Str+04h
                                 6051   
                                 6052   ;;				NewVar_Str[5] = RecWorld[7];
                                 6053   CLINEA 0000H 0001H 07E2H 0005H 0020H
00:0436 10-90 00-00'             6054   	l	r0,	NEAR _RecWorld+07h
00:043A 11-90 00-00'             6055   	st	r0,	NEAR _NewVar_Str+05h
                                 6056   
                                 6057   ;;				sscanf(NewVar_Str, "%f", &NewVar);
                                 6058   CLINEA 0000H 0001H 07E3H 0005H 0026H
00:043E 00'00                    6059   	mov	r0,	#BYTE1 OFFSET _NewVar
00:0440 00'01                    6060   	mov	r1,	#BYTE2 OFFSET _NewVar
00:0442 5E-F0                    6061   	push	er0
00:0444 00'00                    6062   	mov	r0,	#BYTE1 OFFSET $$S209
00:0446 00'01                    6063   	mov	r1,	#BYTE2 OFFSET $$S209
00:0448 5E-F0                    6064   	push	er0
00:044A 00'00                    6065   	mov	r0,	#BYTE1 OFFSET _NewVar_Str
00:044C 00'01                    6066   	mov	r1,	#BYTE2 OFFSET _NewVar_Str
00:044E 5E-F0                    6067   	push	er0
00:0450 01-F0'00-00'             6068   	bl	_sscanf_nn
00:0454 06 E1                    6069   	add	sp,	#6 
                                 6070   
                                 6071   ;;				CF_HPF = 1-NewVar;
                                 6072   CLINEA 0000H 0001H 07E4H 0005H 0016H
00:0456 00 E0                    6073   	mov	er0,	#0 
00:0458 80 02                    6074   	mov	r2,	#080h
00:045A 3F 03                    6075   	mov	r3,	#03fh
00:045C 6E-F0                    6076   	push	xr0
00:045E 12-90 00-00'             6077   	l	er0,	NEAR _NewVar
00:0462 12-92 00-00'             6078   	l	er2,	NEAR _NewVar+02h
00:0466 6E-F0                    6079   	push	xr0
00:0468 01-F0'00-00'             6080   	bl	__fsubu8sw
00:046C 04 E1                    6081   	add	sp,	#4 
00:046E 2E-F0                    6082   	pop	xr0
00:0470 13-90 00-00'             6083   	st	er0,	NEAR _CF_HPF
00:0474 13-92 00-00'             6084   	st	er2,	NEAR _CF_HPF+02h
                                 6085   
                                 6086   ;;				CF_LPF = NewVar;
                                 6087   CLINEA 0000H 0001H 07E5H 0005H 0014H
00:0478 12-90 00-00'             6088   	l	er0,	NEAR _NewVar
00:047C 12-92 00-00'             6089   	l	er2,	NEAR _NewVar+02h
00:0480 13-90 00-00'             6090   	st	er0,	NEAR _CF_LPF
00:0484 13-92 00-00'             6091   	st	er2,	NEAR _CF_LPF+02h
                                 6092   CBLOCKEND 232 20 2022
                                 6093   
                                 6094   ;;			}
                                 6095   CLINEA 0000H 0000H 07E6H 0004H 0004H
00:0488                          6096   _$L415 :
                                 6097   CBLOCKEND 232 19 2023
                                 6098   
                                 6099   ;;		for(k = 0; k<150; k++)
                                 6100   CLINEA 0000H 0001H 07E9H 0007H 000CH
00:0488 00 E0                    6101   	mov	er0,	#0 
                                 6102   
                                 6103   ;;		for(k = 0; k<150; k++)
                                 6104   CLINEA 0000H 0000H 07E9H 0015H 0017H
00:048A                          6105   _$L419 :
                                 6106   CBLOCK 232 21 2026
                                 6107   
                                 6108   ;;			SensorReturn[k] = 0x20;
                                 6109   CLINEA 0000H 0001H 07EBH 0004H 001AH
00:048A 20 02                    6110   	mov	r2,	#020h
00:048C 09-92 00-00'             6111   	st	r2,	NEAR _SensorReturn[er0]
                                 6112   CBLOCKEND 232 21 2028
                                 6113   
                                 6114   ;;		for(k = 0; k<150; k++)
                                 6115   CLINEA 0000H 0000H 07E9H 0015H 0017H
00:0490 81 E0                    6116   	add	er0,	#1 
                                 6117   
                                 6118   ;;		for(k = 0; k<150; k++)
                                 6119   CLINEA 0000H 0000H 07E9H 000EH 0013H
00:0492 96 70                    6120   	cmp	r0,	#096h
00:0494 00 51                    6121   	cmpc	r1,	#00h
00:0496 F9 C5                    6122   	blts	_$L419
                                 6123   
                                 6124   ;;		sprintf(SensorReturn, "    New Settings: kp=%f,ki=%f,kd=%f,a1=%f,a2=%f,Pb=%u,Db=%u", Accel_PID_XRoll_kp, Accel_PID_XRoll_ki, Accel_PID_XRoll_kd, CF_HPF, CF_LPF,Accel_PID_PBounds_Var_Pos,Accel_PID_DBounds_Var_Pos);
                                 6125   CLINEA 0000H 0001H 07EEH 0003H 00D7H
00:0498 12-90 00-00'             6126   	l	er0,	NEAR _Accel_PID_DBounds_Var_Pos
00:049C 5E-F0                    6127   	push	er0
00:049E 12-90 00-00'             6128   	l	er0,	NEAR _Accel_PID_PBounds_Var_Pos
00:04A2 5E-F0                    6129   	push	er0
00:04A4 12-90 00-00'             6130   	l	er0,	NEAR _CF_LPF
00:04A8 12-92 00-00'             6131   	l	er2,	NEAR _CF_LPF+02h
00:04AC 6E-F0                    6132   	push	xr0
00:04AE FC E1                    6133   	add	sp,	#-4
00:04B0 01-F0'00-00'             6134   	bl	__ftodu8sw
00:04B4 12-90 00-00'             6135   	l	er0,	NEAR _CF_HPF
00:04B8 12-92 00-00'             6136   	l	er2,	NEAR _CF_HPF+02h
00:04BC 6E-F0                    6137   	push	xr0
00:04BE FC E1                    6138   	add	sp,	#-4
00:04C0 01-F0'00-00'             6139   	bl	__ftodu8sw
00:04C4 12-90 00-00'             6140   	l	er0,	NEAR _Accel_PID_XRoll_kd
00:04C8 12-92 00-00'             6141   	l	er2,	NEAR _Accel_PID_XRoll_kd+02h
00:04CC 6E-F0                    6142   	push	xr0
00:04CE FC E1                    6143   	add	sp,	#-4
00:04D0 01-F0'00-00'             6144   	bl	__ftodu8sw
00:04D4 12-90 00-00'             6145   	l	er0,	NEAR _Accel_PID_XRoll_ki
00:04D8 12-92 00-00'             6146   	l	er2,	NEAR _Accel_PID_XRoll_ki+02h
00:04DC 6E-F0                    6147   	push	xr0
00:04DE FC E1                    6148   	add	sp,	#-4
00:04E0 01-F0'00-00'             6149   	bl	__ftodu8sw
00:04E4 12-90 00-00'             6150   	l	er0,	NEAR _Accel_PID_XRoll_kp
00:04E8 12-92 00-00'             6151   	l	er2,	NEAR _Accel_PID_XRoll_kp+02h
00:04EC 6E-F0                    6152   	push	xr0
00:04EE FC E1                    6153   	add	sp,	#-4
00:04F0 01-F0'00-00'             6154   	bl	__ftodu8sw
00:04F4 00'00                    6155   	mov	r0,	#BYTE1 OFFSET $$S423
00:04F6 00'01                    6156   	mov	r1,	#BYTE2 OFFSET $$S423
00:04F8 5E-F0                    6157   	push	er0
00:04FA 00'00                    6158   	mov	r0,	#BYTE1 OFFSET _SensorReturn
00:04FC 00'01                    6159   	mov	r1,	#BYTE2 OFFSET _SensorReturn
00:04FE 5E-F0                    6160   	push	er0
00:0500 01-F0'00-00'             6161   	bl	_sprintf_nn
00:0504 30 E1                    6162   	add	sp,	#48
                                 6163   
                                 6164   ;;		SensorReturn[148] = 0x0D;	//CR
                                 6165   CLINEA 0000H 0001H 07F0H 0003H 0020H
00:0506 0D 00                    6166   	mov	r0,	#0dh
00:0508 11-90 00-00'             6167   	st	r0,	NEAR _SensorReturn+094h
                                 6168   
                                 6169   ;;		SensorReturn[149] = 0x0A;	//LF
                                 6170   CLINEA 0000H 0001H 07F1H 0003H 0020H
00:050C 0A 00                    6171   	mov	r0,	#0ah
00:050E 11-90 00-00'             6172   	st	r0,	NEAR _SensorReturn+095h
                                 6173   
                                 6174   ;;		_flgUartFin = 0;
                                 6175   CLINEA 0000H 0001H 07F4H 0003H 0012H
00:0512 00 00                    6176   	mov	r0,	#00h
00:0514 11-90 00-00'             6177   	st	r0,	NEAR __flgUartFin
                                 6178   
                                 6179   ;;		uart_stop();
                                 6180   CLINEA 0000H 0001H 07F5H 0003H 000EH
00:0518 01-F0'00-00'             6181   	bl	_uart_stop
                                 6182   
                                 6183   ;;		uart_startSend(SensorReturn, 150, _funcUartFin);
                                 6184   CLINEA 0000H 0001H 07F6H 0003H 0032H
00:051C 00'00                    6185   	mov	r0,	#BYTE1 OFFSET __funcUartFin
00:051E 00'01                    6186   	mov	r1,	#BYTE2 OFFSET __funcUartFin
00:0520 5E-F0                    6187   	push	er0
00:0522 96 02                    6188   	mov	r2,	#096h
00:0524 00 03                    6189   	mov	r3,	#00h
00:0526 00'00                    6190   	mov	r0,	#BYTE1 OFFSET _SensorReturn
00:0528 00'01                    6191   	mov	r1,	#BYTE2 OFFSET _SensorReturn
00:052A 01-F0'00-00'             6192   	bl	_uart_startSend
00:052E 02 E1                    6193   	add	sp,	#2 
                                 6194   
                                 6195   ;;		while(_flgUartFin != 1){
                                 6196   CLINEA 0000H 0000H 07F7H 0001H 0001H
00:0530 02 CE                    6197   	bal	_$L429
                                 6198   
                                 6199   ;;		while(_flgUartFin != 1){
                                 6200   CLINEA 0000H 0000H 07F7H 0003H 001AH
00:0532                          6201   _$L426 :
                                 6202   CBLOCK 232 22 2039
                                 6203   
                                 6204   ;;			main_clrWDT();
                                 6205   CLINEA 0000H 0001H 07F8H 0004H 0011H
00:0532 01-F0'00-00'             6206   	bl	_main_clrWDT
                                 6207   CBLOCKEND 232 22 2041
                                 6208   
                                 6209   ;;		while(_flgUartFin != 1){
                                 6210   CLINEA 0000H 0000H 07F7H 0001H 0001H
00:0536                          6211   _$L429 :
                                 6212   
                                 6213   ;;		while(_flgUartFin != 1){
                                 6214   CLINEA 0000H 0000H 07F7H 000EH 0013H
00:0536 10-90 00-00'             6215   	l	r0,	NEAR __flgUartFin
00:053A 01 70                    6216   	cmp	r0,	#01h
00:053C FA C8                    6217   	bne	_$L426
                                 6218   
                                 6219   ;;		ETM8 = 1;	//Turn TIMER8/9 ISR Back ON
                                 6220   CLINEA 0000H 0001H 07FBH 0003H 0027H
00:053E A0-A0 13-F0              6221   	sb	0f013h.2
                                 6222   
                                 6223   ;;		ETM9 = 1;	//Turn TIMER8/9 ISR Back ON		
                                 6224   CLINEA 0000H 0001H 07FCH 0003H 0029H
00:0542 B0-A0 13-F0              6225   	sb	0f013h.3
                                 6226   CBLOCKEND 232 2 2045
                                 6227   
                                 6228   ;;}
                                 6229   CLINEA 0000H 0001H 07FDH 0001H 0001H
00:0546 8E-F2                    6230   	pop	pc
                                 6231   CBLOCKEND 232 1 2045
                                 6232   CFUNCTIONEND 232
                                 6233   
                                 6234   
  --------------------------     6235   	rseg $$SoftStart$main
                                 6236   CFUNCTION 233
                                 6237   
00:0000                          6238   _SoftStart	:
                                 6239   CBLOCK 233 1 2049
                                 6240   
                                 6241   ;;{
                                 6242   CLINEA 0000H 0001H 0801H 0001H 0001H
00:0000 CE-F8                    6243   	push	lr
                                 6244   CBLOCK 233 2 2049
                                 6245   CRET 0000H
                                 6246   
                                 6247   ;;	PWED += PWMtoRPMOffset_Mot2;	
                                 6248   CLINEA 0000H 0001H 0805H 0002H 001EH
00:0002 12-90 32-F9              6249   	l	er0,	0f932h
00:0006 12-92 00-00'             6250   	l	er2,	NEAR _PWMtoRPMOffset_Mot2
00:000A 26-F0                    6251   	add	er0,	er2
00:000C 13-90 32-F9              6252   	st	er0,	0f932h
                                 6253   
                                 6254   ;;	PWDD += PWMtoRPMOffset_Mot3;	
                                 6255   CLINEA 0000H 0001H 0806H 0002H 001EH
00:0010 12-90 22-F9              6256   	l	er0,	0f922h
00:0014 12-92 00-00'             6257   	l	er2,	NEAR _PWMtoRPMOffset_Mot3
00:0018 26-F0                    6258   	add	er0,	er2
00:001A 13-90 22-F9              6259   	st	er0,	0f922h
                                 6260   
                                 6261   ;;	PWCD += PWMtoRPMOffset_Mot4;
                                 6262   CLINEA 0000H 0001H 0807H 0002H 001DH
00:001E 12-90 12-F9              6263   	l	er0,	0f912h
00:0022 12-92 00-00'             6264   	l	er2,	NEAR _PWMtoRPMOffset_Mot4
00:0026 26-F0                    6265   	add	er0,	er2
00:0028 13-90 12-F9              6266   	st	er0,	0f912h
                                 6267   
                                 6268   ;;	while(PWF0D < PWMIdleDutyRun){
                                 6269   CLINEA 0000H 0001H 0808H 0002H 001FH
00:002C 27 CE                    6270   	bal	_$L431
00:002E                          6271   _$L433 :
                                 6272   CBLOCK 233 3 2056
                                 6273   
                                 6274   ;;		NOPms(50);
                                 6275   CLINEA 0000H 0001H 0809H 0003H 000CH
00:002E 32 E0                    6276   	mov	er0,	#50
00:0030 01-F0'00-00'             6277   	bl	_NOPms
                                 6278   
                                 6279   ;;		PFRUN = 0;	//Turn OFF PWM
                                 6280   CLINEA 0000H 0001H 080AH 0003H 001BH
00:0034 82-A0 73-F9              6281   	rb	0f973h.0
                                 6282   
                                 6283   ;;		PERUN = 0;
                                 6284   CLINEA 0000H 0001H 080BH 0003H 000CH
00:0038 82-A0 37-F9              6285   	rb	0f937h.0
                                 6286   
                                 6287   ;;		PDRUN = 0;
                                 6288   CLINEA 0000H 0001H 080CH 0003H 000CH
00:003C 82-A0 27-F9              6289   	rb	0f927h.0
                                 6290   
                                 6291   ;;		PCRUN = 0;
                                 6292   CLINEA 0000H 0001H 080DH 0003H 000CH
00:0040 82-A0 17-F9              6293   	rb	0f917h.0
                                 6294   
                                 6295   ;;		PWF0D += 1; 		//Can't be running to change (Only this variable)
                                 6296   CLINEA 0000H 0001H 080EH 0003H 0041H
00:0044 12-90 62-F9              6297   	l	er0,	0f962h
00:0048 81 E0                    6298   	add	er0,	#1 
00:004A 13-90 62-F9              6299   	st	er0,	0f962h
                                 6300   
                                 6301   ;;		PWED += 1;	
                                 6302   CLINEA 0000H 0001H 080FH 0003H 000DH
00:004E 12-90 32-F9              6303   	l	er0,	0f932h
00:0052 81 E0                    6304   	add	er0,	#1 
00:0054 13-90 32-F9              6305   	st	er0,	0f932h
                                 6306   
                                 6307   ;;		PWDD += 1;	
                                 6308   CLINEA 0000H 0001H 0810H 0003H 000DH
00:0058 12-90 22-F9              6309   	l	er0,	0f922h
00:005C 81 E0                    6310   	add	er0,	#1 
00:005E 13-90 22-F9              6311   	st	er0,	0f922h
                                 6312   
                                 6313   ;;		PWCD += 1;
                                 6314   CLINEA 0000H 0001H 0811H 0003H 000CH
00:0062 12-90 12-F9              6315   	l	er0,	0f912h
00:0066 81 E0                    6316   	add	er0,	#1 
00:0068 13-90 12-F9              6317   	st	er0,	0f912h
                                 6318   
                                 6319   ;;		PFRUN = 1;	//Turn ON PWM
                                 6320   CLINEA 0000H 0001H 0813H 0003H 001AH
00:006C 80-A0 73-F9              6321   	sb	0f973h.0
                                 6322   
                                 6323   ;;		PERUN = 1;
                                 6324   CLINEA 0000H 0001H 0814H 0003H 000CH
00:0070 80-A0 37-F9              6325   	sb	0f937h.0
                                 6326   
                                 6327   ;;		PDRUN = 1;
                                 6328   CLINEA 0000H 0001H 0815H 0003H 000CH
00:0074 80-A0 27-F9              6329   	sb	0f927h.0
                                 6330   
                                 6331   ;;		PCRUN = 1;
                                 6332   CLINEA 0000H 0001H 0816H 0003H 000CH
00:0078 80-A0 17-F9              6333   	sb	0f917h.0
                                 6334   CBLOCKEND 233 3 2071
                                 6335   
                                 6336   ;;	}
                                 6337   CLINEA 0000H 0000H 0817H 0002H 0002H
00:007C                          6338   _$L431 :
                                 6339   
                                 6340   ;;	while(PWF0D < PWMIdleDutyRun){
                                 6341   CLINEA 0000H 0000H 0808H 000EH 0013H
00:007C 12-90 62-F9              6342   	l	er0,	0f962h
00:0080 12-92 00-00'             6343   	l	er2,	NEAR _PWMIdleDutyRun
00:0084 27-F0                    6344   	cmp	er0,	er2
00:0086 D3 C1                    6345   	blt	_$L433
                                 6346   
                                 6347   ;;	while(PrePIDCount < 10){
                                 6348   CLINEA 0000H 0000H 0818H 0001H 0001H
00:0088 24 CE                    6349   	bal	_$L445
                                 6350   
                                 6351   ;;	while(PrePIDCount < 10){
                                 6352   CLINEA 0000H 0000H 0818H 0002H 0019H
00:008A                          6353   _$L437 :
                                 6354   CBLOCK 233 4 2072
                                 6355   
                                 6356   ;;		if(AccGyro_ReadFlag >= 1){		//Triggered by External Interrupt (flag set in AccelGyroDataReady_ISR)
                                 6357   CLINEA 0000H 0001H 0819H 0003H 0064H
00:008A 10-90 00-00'             6358   	l	r0,	NEAR _AccGyro_ReadFlag
00:008E 01 70                    6359   	cmp	r0,	#01h
00:0090 05 C1                    6360   	blt	_$L439
                                 6361   CBLOCK 233 5 2073
                                 6362   
                                 6363   ;;			Get_AccGyroData();
                                 6364   CLINEA 0000H 0001H 081BH 0004H 0015H
00:0092 01-F0'00-00'             6365   	bl	_Get_AccGyroData
                                 6366   
                                 6367   ;;			AccGyro_ReadFlag = 0;
                                 6368   CLINEA 0000H 0001H 081DH 0004H 0018H
00:0096 00 00                    6369   	mov	r0,	#00h
00:0098 11-90 00-00'             6370   	st	r0,	NEAR _AccGyro_ReadFlag
                                 6371   CBLOCKEND 233 5 2078
                                 6372   
                                 6373   ;;		}
                                 6374   CLINEA 0000H 0000H 081EH 0003H 0003H
00:009C                          6375   _$L439 :
                                 6376   
                                 6377   ;;		if(AccGyro_CF_FlagCounter > 0){	//This Value is incremented after Get_AccGyroData(); is called
                                 6378   CLINEA 0000H 0001H 081FH 0003H 0060H
00:009C 10-90 00-00'             6379   	l	r0,	NEAR _AccGyro_CF_FlagCounter
00:00A0 00 70                    6380   	cmp	r0,	#00h
00:00A2 05 C3                    6381   	ble	_$L441
                                 6382   CBLOCK 233 6 2079
                                 6383   
                                 6384   ;;			Run_AccGyroCF();
                                 6385   CLINEA 0000H 0001H 0821H 0004H 0013H
00:00A4 01-F0'00-00'             6386   	bl	_Run_AccGyroCF
                                 6387   
                                 6388   ;;			AccGyro_CF_FlagCounter--;	//Decremented because this value is not a static 1/0... number shows number of items in buffer that have not gone though the CF yet
                                 6389   CLINEA 0000H 0000H 0823H 0004H 00A0H
00:00A8 0C-F0 00-00'             6390   	lea	OFFSET _AccGyro_CF_FlagCounter
00:00AC 3F-FE                    6391   	dec	[ea]
                                 6392   CBLOCKEND 233 6 2084
                                 6393   
                                 6394   ;;		}
                                 6395   CLINEA 0000H 0000H 0824H 0003H 0003H
00:00AE                          6396   _$L441 :
                                 6397   
                                 6398   ;;		if(Accel_PID_GoCounter>= 1){		//This increments in the Run_AccGyroCF()... I don't know if this is the best trigger.. but for now, it works.  Calls GetAccGyroData and AccGyroCF once within the routine.
                                 6399   CLINEA 0000H 0001H 0825H 0003H 00CAH
00:00AE 10-90 00-00'             6400   	l	r0,	NEAR _Accel_PID_GoCounter
00:00B2 01 70                    6401   	cmp	r0,	#01h
00:00B4 0C C1                    6402   	blt	_$L443
                                 6403   CBLOCK 233 7 2085
                                 6404   
                                 6405   ;;			AccelSensorControlPID_P(); 		
                                 6406   CLINEA 0000H 0001H 0827H 0004H 0020H
00:00B6 01-F0'00-00'             6407   	bl	_AccelSensorControlPID_P
                                 6408   
                                 6409   ;;			AccelSensorControlPID_I(); 		
                                 6410   CLINEA 0000H 0001H 0828H 0004H 0020H
00:00BA 01-F0'00-00'             6411   	bl	_AccelSensorControlPID_I
                                 6412   
                                 6413   ;;			AccelSensorControlPID_D(); 		
                                 6414   CLINEA 0000H 0001H 0829H 0004H 0020H
00:00BE 01-F0'00-00'             6415   	bl	_AccelSensorControlPID_D
                                 6416   
                                 6417   ;;			Accel_PID_GoCounter = 0;
                                 6418   CLINEA 0000H 0001H 082BH 0004H 001BH
00:00C2 00 00                    6419   	mov	r0,	#00h
00:00C4 11-90 00-00'             6420   	st	r0,	NEAR _Accel_PID_GoCounter
                                 6421   
                                 6422   ;;			PrePIDCount++;			//Comment this out to always loop (i.e.: no shut-down...)
                                 6423   CLINEA 0000H 0000H 082CH 0004H 004DH
00:00C8 0C-F0 00-00'             6424   	lea	OFFSET _PrePIDCount
00:00CC 2F-FE                    6425   	inc	[ea]
                                 6426   CBLOCKEND 233 7 2093
                                 6427   
                                 6428   ;;		}
                                 6429   CLINEA 0000H 0000H 082DH 0003H 0003H
00:00CE                          6430   _$L443 :
                                 6431   
                                 6432   ;;		main_clrWDT();
                                 6433   CLINEA 0000H 0001H 082EH 0003H 0010H
00:00CE 01-F0'00-00'             6434   	bl	_main_clrWDT
                                 6435   CBLOCKEND 233 4 2095
                                 6436   
                                 6437   ;;	while(PrePIDCount < 10){
                                 6438   CLINEA 0000H 0000H 0818H 0001H 0001H
00:00D2                          6439   _$L445 :
                                 6440   
                                 6441   ;;	while(PrePIDCount < 10){
                                 6442   CLINEA 0000H 0000H 0818H 000EH 0013H
00:00D2 10-90 00-00'             6443   	l	r0,	NEAR _PrePIDCount
00:00D6 0A 70                    6444   	cmp	r0,	#0ah
00:00D8 D8 C1                    6445   	blt	_$L437
                                 6446   
                                 6447   ;;	Accel_PID_XRollErrSum = 0;
                                 6448   CLINEA 0000H 0001H 0830H 0002H 001BH
00:00DA 00 E0                    6449   	mov	er0,	#0 
00:00DC 13-90 00-00'             6450   	st	er0,	NEAR _Accel_PID_XRollErrSum
00:00E0 13-90 00-00'             6451   	st	er0,	NEAR _Accel_PID_XRollErrSum+02h
                                 6452   
                                 6453   ;;	Accel_PID_YPitchErrSum = 0;	
                                 6454   CLINEA 0000H 0001H 0831H 0002H 001DH
00:00E4 13-90 00-00'             6455   	st	er0,	NEAR _Accel_PID_YPitchErrSum
00:00E8 13-90 00-00'             6456   	st	er0,	NEAR _Accel_PID_YPitchErrSum+02h
                                 6457   CBLOCKEND 233 2 2099
                                 6458   
                                 6459   ;;}
                                 6460   CLINEA 0000H 0001H 0833H 0001H 0001H
00:00EC 8E-F2                    6461   	pop	pc
                                 6462   CBLOCKEND 233 1 2099
                                 6463   CFUNCTIONEND 233
                                 6464   
                                 6465   
  --------------------------     6466   	rseg $$RampUpMotorTest$main
                                 6467   CFUNCTION 234
                                 6468   
00:0000                          6469   _RampUpMotorTest	:
                                 6470   CBLOCK 234 1 2104
                                 6471   
                                 6472   ;;void RampUpMotorTest(void){
                                 6473   CLINEA 0000H 0001H 0838H 0001H 001BH
                                 6474   CBLOCK 234 2 2104
                                 6475   
                                 6476   ;;	if(PWMCounter < PWMSensorResPerInc){
                                 6477   CLINEA 0000H 0001H 0839H 0002H 0025H
00:0000 10-90 00-00'             6478   	l	r0,	NEAR _PWMCounter
00:0004 10-91 00-00'             6479   	l	r1,	NEAR _PWMSensorResPerInc
00:0008 17-80                    6480   	cmp	r0,	r1
00:000A 04 C0                    6481   	bge	_$L447
                                 6482   CBLOCK 234 3 2105
                                 6483   
                                 6484   ;;		PWMCounter++;
                                 6485   CLINEA 0000H 0000H 083AH 0003H 000FH
00:000C 01 10                    6486   	add	r0,	#01h
00:000E 11-90 00-00'             6487   	st	r0,	NEAR _PWMCounter
                                 6488   CBLOCKEND 234 3 2107
                                 6489   
                                 6490   ;;	else{
                                 6491   CLINEA 0000H 0001H 083CH 0002H 0006H
00:0012 1F-FE                    6492   	rt
00:0014                          6493   _$L447 :
                                 6494   CBLOCK 234 4 2108
                                 6495   
                                 6496   ;;		if(PWED < PWMUpperDutyLimitCalib){
                                 6497   CLINEA 0000H 0001H 083DH 0003H 0024H
00:0014 12-90 32-F9              6498   	l	er0,	0f932h
00:0018 12-92 00-00'             6499   	l	er2,	NEAR _PWMUpperDutyLimitCalib
00:001C 27-F0                    6500   	cmp	er0,	er2
00:001E 02 C1                    6501   	blt	_$M33
00:0020 00-F0'00-00'             6502   	b	_$L456
00:0024                          6503   _$M33 :
                                 6504   CBLOCK 234 5 2109
                                 6505   
                                 6506   ;;			if(PWMflag == 0){
                                 6507   CLINEA 0000H 0001H 083EH 0004H 0014H
00:0024 10-90 00-00'             6508   	l	r0,	NEAR _PWMflag
00:0028 26 C8                    6509   	bne	_$L452
                                 6510   CBLOCK 234 6 2110
                                 6511   
                                 6512   ;;				PFRUN = 0;	//Turn OFF PWM
                                 6513   CLINEA 0000H 0001H 083FH 0005H 001DH
00:002A 82-A0 73-F9              6514   	rb	0f973h.0
                                 6515   
                                 6516   ;;				PERUN = 0;
                                 6517   CLINEA 0000H 0001H 0840H 0005H 000EH
00:002E 82-A0 37-F9              6518   	rb	0f937h.0
                                 6519   
                                 6520   ;;				PDRUN = 0;
                                 6521   CLINEA 0000H 0001H 0841H 0005H 000EH
00:0032 82-A0 27-F9              6522   	rb	0f927h.0
                                 6523   
                                 6524   ;;				PCRUN = 0;
                                 6525   CLINEA 0000H 0001H 0842H 0005H 000EH
00:0036 82-A0 17-F9              6526   	rb	0f917h.0
                                 6527   
                                 6528   ;;				PWF0D += MotorStep; //Can't be running to change (Only this variable)
                                 6529   CLINEA 0000H 0001H 0843H 0005H 0049H
00:003A 12-90 62-F9              6530   	l	er0,	0f962h
00:003E 12-92 00-00'             6531   	l	er2,	NEAR _MotorStep
00:0042 26-F0                    6532   	add	er0,	er2
00:0044 13-90 62-F9              6533   	st	er0,	0f962h
                                 6534   
                                 6535   ;;				PWED += MotorStep;
                                 6536   CLINEA 0000H 0001H 0844H 0005H 0016H
00:0048 12-90 32-F9              6537   	l	er0,	0f932h
00:004C 26-F0                    6538   	add	er0,	er2
00:004E 13-90 32-F9              6539   	st	er0,	0f932h
                                 6540   
                                 6541   ;;				PWDD += MotorStep;
                                 6542   CLINEA 0000H 0001H 0845H 0005H 0016H
00:0052 12-90 22-F9              6543   	l	er0,	0f922h
00:0056 26-F0                    6544   	add	er0,	er2
00:0058 13-90 22-F9              6545   	st	er0,	0f922h
                                 6546   
                                 6547   ;;				PWCD += MotorStep;
                                 6548   CLINEA 0000H 0001H 0846H 0005H 0016H
00:005C 12-90 12-F9              6549   	l	er0,	0f912h
00:0060 26-F0                    6550   	add	er0,	er2
00:0062 13-90 12-F9              6551   	st	er0,	0f912h
                                 6552   
                                 6553   ;;				PFRUN = 1;	//Turn ON PWM
                                 6554   CLINEA 0000H 0001H 0847H 0005H 001CH
00:0066 80-A0 73-F9              6555   	sb	0f973h.0
                                 6556   
                                 6557   ;;				PERUN = 1;
                                 6558   CLINEA 0000H 0001H 0848H 0005H 000EH
00:006A 80-A0 37-F9              6559   	sb	0f937h.0
                                 6560   
                                 6561   ;;				PDRUN = 1;
                                 6562   CLINEA 0000H 0001H 0849H 0005H 000EH
00:006E 80-A0 27-F9              6563   	sb	0f927h.0
                                 6564   
                                 6565   ;;				PCRUN = 1;
                                 6566   CLINEA 0000H 0001H 084AH 0005H 000EH
00:0072 80-A0 17-F9              6567   	sb	0f917h.0
                                 6568   CBLOCKEND 234 6 2123
                                 6569   
                                 6570   ;;			}
                                 6571   CLINEA 0000H 0000H 084BH 0004H 0004H
00:0076                          6572   _$L452 :
                                 6573   
                                 6574   ;;			if(PWMflag == 1){
                                 6575   CLINEA 0000H 0001H 084CH 0004H 0014H
00:0076 10-90 00-00'             6576   	l	r0,	NEAR _PWMflag
00:007A 01 70                    6577   	cmp	r0,	#01h
00:007C 33 C8                    6578   	bne	_$L456
                                 6579   CBLOCK 234 7 2124
                                 6580   
                                 6581   ;;				PFRUN = 0;	//Turn OFF PWM
                                 6582   CLINEA 0000H 0001H 084DH 0005H 001DH
00:007E 82-A0 73-F9              6583   	rb	0f973h.0
                                 6584   
                                 6585   ;;				PERUN = 0;
                                 6586   CLINEA 0000H 0001H 084EH 0005H 000EH
00:0082 82-A0 37-F9              6587   	rb	0f937h.0
                                 6588   
                                 6589   ;;				PDRUN = 0;
                                 6590   CLINEA 0000H 0001H 084FH 0005H 000EH
00:0086 82-A0 27-F9              6591   	rb	0f927h.0
                                 6592   
                                 6593   ;;				PCRUN = 0;
                                 6594   CLINEA 0000H 0001H 0850H 0005H 000EH
00:008A 82-A0 17-F9              6595   	rb	0f917h.0
                                 6596   
                                 6597   ;;				PWF0D -= MotorStep; //Can't be running to change (Only this variable)
                                 6598   CLINEA 0000H 0001H 0851H 0005H 0049H
00:008E 12-90 62-F9              6599   	l	er0,	0f962h
00:0092 12-92 00-00'             6600   	l	er2,	NEAR _MotorStep
00:0096 28-80                    6601   	sub	r0,	r2
00:0098 39-81                    6602   	subc	r1,	r3
00:009A 13-90 62-F9              6603   	st	er0,	0f962h
                                 6604   
                                 6605   ;;				PWED -= MotorStep;
                                 6606   CLINEA 0000H 0001H 0852H 0005H 0016H
00:009E 12-90 32-F9              6607   	l	er0,	0f932h
00:00A2 28-80                    6608   	sub	r0,	r2
00:00A4 39-81                    6609   	subc	r1,	r3
00:00A6 13-90 32-F9              6610   	st	er0,	0f932h
                                 6611   
                                 6612   ;;				PWDD -= MotorStep;
                                 6613   CLINEA 0000H 0001H 0853H 0005H 0016H
00:00AA 12-90 22-F9              6614   	l	er0,	0f922h
00:00AE 28-80                    6615   	sub	r0,	r2
00:00B0 39-81                    6616   	subc	r1,	r3
00:00B2 13-90 22-F9              6617   	st	er0,	0f922h
                                 6618   
                                 6619   ;;				PWCD -= MotorStep;
                                 6620   CLINEA 0000H 0001H 0854H 0005H 0016H
00:00B6 12-90 12-F9              6621   	l	er0,	0f912h
00:00BA 28-80                    6622   	sub	r0,	r2
00:00BC 39-81                    6623   	subc	r1,	r3
00:00BE 13-90 12-F9              6624   	st	er0,	0f912h
                                 6625   
                                 6626   ;;				PFRUN = 1;	//Turn ON PWM
                                 6627   CLINEA 0000H 0001H 0855H 0005H 001CH
00:00C2 80-A0 73-F9              6628   	sb	0f973h.0
                                 6629   
                                 6630   ;;				PERUN = 1;
                                 6631   CLINEA 0000H 0001H 0856H 0005H 000EH
00:00C6 80-A0 37-F9              6632   	sb	0f937h.0
                                 6633   
                                 6634   ;;				PDRUN = 1;
                                 6635   CLINEA 0000H 0001H 0857H 0005H 000EH
00:00CA 80-A0 27-F9              6636   	sb	0f927h.0
                                 6637   
                                 6638   ;;				PCRUN = 1;
                                 6639   CLINEA 0000H 0001H 0858H 0005H 000EH
00:00CE 80-A0 17-F9              6640   	sb	0f917h.0
                                 6641   
                                 6642   ;;				if(PWED <= PWMSafeDuty){
                                 6643   CLINEA 0000H 0001H 0859H 0005H 001CH
00:00D2 12-90 32-F9              6644   	l	er0,	0f932h
00:00D6 12-92 00-00'             6645   	l	er2,	NEAR _PWMSafeDuty
00:00DA 27-F0                    6646   	cmp	er0,	er2
00:00DC 03 C2                    6647   	bgt	_$L456
                                 6648   CBLOCK 234 8 2137
                                 6649   
                                 6650   ;;					PWMflag = 2;
                                 6651   CLINEA 0000H 0001H 085AH 0006H 0011H
00:00DE 02 00                    6652   	mov	r0,	#02h
00:00E0 11-90 00-00'             6653   	st	r0,	NEAR _PWMflag
                                 6654   CBLOCKEND 234 8 2139
                                 6655   
                                 6656   ;;				}
                                 6657   CLINEA 0000H 0000H 085BH 0005H 0005H
00:00E4                          6658   _$L456 :
                                 6659   CBLOCKEND 234 7 2140
                                 6660   CBLOCKEND 234 5 2141
                                 6661   
                                 6662   ;;		if(PWED >= PWMUpperDutyLimitCalib){
                                 6663   CLINEA 0000H 0001H 085EH 0003H 0025H
00:00E4 12-90 32-F9              6664   	l	er0,	0f932h
00:00E8 12-92 00-00'             6665   	l	er2,	NEAR _PWMUpperDutyLimitCalib
00:00EC 27-F0                    6666   	cmp	er0,	er2
00:00EE 2D C1                    6667   	blt	_$L458
                                 6668   CBLOCK 234 9 2142
                                 6669   
                                 6670   ;;			PFRUN = 0;	//Turn OFF PWM
                                 6671   CLINEA 0000H 0001H 085FH 0004H 001CH
00:00F0 82-A0 73-F9              6672   	rb	0f973h.0
                                 6673   
                                 6674   ;;			PERUN = 0;
                                 6675   CLINEA 0000H 0001H 0860H 0004H 000DH
00:00F4 82-A0 37-F9              6676   	rb	0f937h.0
                                 6677   
                                 6678   ;;			PDRUN = 0;
                                 6679   CLINEA 0000H 0001H 0861H 0004H 000DH
00:00F8 82-A0 27-F9              6680   	rb	0f927h.0
                                 6681   
                                 6682   ;;			PCRUN = 0;
                                 6683   CLINEA 0000H 0001H 0862H 0004H 000DH
00:00FC 82-A0 17-F9              6684   	rb	0f917h.0
                                 6685   
                                 6686   ;;			PWF0D -= MotorStep; //Can't be running to change (Only this variable)
                                 6687   CLINEA 0000H 0001H 0863H 0004H 0048H
00:0100 12-90 62-F9              6688   	l	er0,	0f962h
00:0104 12-92 00-00'             6689   	l	er2,	NEAR _MotorStep
00:0108 28-80                    6690   	sub	r0,	r2
00:010A 39-81                    6691   	subc	r1,	r3
00:010C 13-90 62-F9              6692   	st	er0,	0f962h
                                 6693   
                                 6694   ;;			PWED -= MotorStep;
                                 6695   CLINEA 0000H 0001H 0864H 0004H 0015H
00:0110 12-90 32-F9              6696   	l	er0,	0f932h
00:0114 28-80                    6697   	sub	r0,	r2
00:0116 39-81                    6698   	subc	r1,	r3
00:0118 13-90 32-F9              6699   	st	er0,	0f932h
                                 6700   
                                 6701   ;;			PWDD -= MotorStep;
                                 6702   CLINEA 0000H 0001H 0865H 0004H 0015H
00:011C 12-90 22-F9              6703   	l	er0,	0f922h
00:0120 28-80                    6704   	sub	r0,	r2
00:0122 39-81                    6705   	subc	r1,	r3
00:0124 13-90 22-F9              6706   	st	er0,	0f922h
                                 6707   
                                 6708   ;;			PWCD -= MotorStep;
                                 6709   CLINEA 0000H 0001H 0866H 0004H 0015H
00:0128 12-90 12-F9              6710   	l	er0,	0f912h
00:012C 28-80                    6711   	sub	r0,	r2
00:012E 39-81                    6712   	subc	r1,	r3
00:0130 13-90 12-F9              6713   	st	er0,	0f912h
                                 6714   
                                 6715   ;;			PWMflag = 1;
                                 6716   CLINEA 0000H 0001H 0867H 0004H 000FH
00:0134 01 00                    6717   	mov	r0,	#01h
00:0136 11-90 00-00'             6718   	st	r0,	NEAR _PWMflag
                                 6719   
                                 6720   ;;			PFRUN = 1;	//Turn ON PWM
                                 6721   CLINEA 0000H 0001H 0868H 0004H 001BH
00:013A 80-A0 73-F9              6722   	sb	0f973h.0
                                 6723   
                                 6724   ;;			PERUN = 1;
                                 6725   CLINEA 0000H 0001H 0869H 0004H 000DH
00:013E 80-A0 37-F9              6726   	sb	0f937h.0
                                 6727   
                                 6728   ;;			PDRUN = 1;
                                 6729   CLINEA 0000H 0001H 086AH 0004H 000DH
00:0142 80-A0 27-F9              6730   	sb	0f927h.0
                                 6731   
                                 6732   ;;			PCRUN = 1;
                                 6733   CLINEA 0000H 0001H 086BH 0004H 000DH
00:0146 80-A0 17-F9              6734   	sb	0f917h.0
                                 6735   CBLOCKEND 234 9 2156
                                 6736   
                                 6737   ;;		}
                                 6738   CLINEA 0000H 0000H 086CH 0003H 0003H
00:014A                          6739   _$L458 :
                                 6740   
                                 6741   ;;		PWMCounter = 0;
                                 6742   CLINEA 0000H 0001H 086DH 0003H 0011H
00:014A 00 00                    6743   	mov	r0,	#00h
00:014C 11-90 00-00'             6744   	st	r0,	NEAR _PWMCounter
                                 6745   CBLOCKEND 234 4 2158
                                 6746   
                                 6747   ;;	}
                                 6748   CLINEA 0000H 0000H 086EH 0002H 0002H
                                 6749   CBLOCKEND 234 2 2159
                                 6750   
                                 6751   ;;}
                                 6752   CLINEA 0000H 0001H 086FH 0001H 0001H
00:0150 1F-FE                    6753   	rt
                                 6754   CBLOCKEND 234 1 2159
                                 6755   CFUNCTIONEND 234
                                 6756   
                                 6757   
  --------------------------     6758   	rseg $$DistanceSensorControl$main
                                 6759   CFUNCTION 235
                                 6760   
00:0000                          6761   _DistanceSensorControl	:
                                 6762   CBLOCK 235 1 2160
                                 6763   
                                 6764   ;;void DistanceSensorControl(void){
                                 6765   CLINEA 0000H 0001H 0870H 0001H 0021H
00:0000 CE-F8                    6766   	push	lr
                                 6767   CBLOCK 235 2 2160
                                 6768   CRET 0000H
                                 6769   
                                 6770   ;;	if((Range_out < Range_ZHiThres)||(Range_out > Range_Ceiling)){	//65 = 4Ft Level, 240 accounts for sensor error when too close to ground.
                                 6771   CLINEA 0000H 0001H 0871H 0002H 0089H
00:0002 12-90 00-00'             6772   	l	er0,	NEAR _Range_out
00:0006 00 E2                    6773   	mov	er2,	#0 
00:0008 6E-F0                    6774   	push	xr0
00:000A 01-F0'00-00'             6775   	bl	__fuldu8sw
00:000E 12-90 00-00'             6776   	l	er0,	NEAR _Range_ZHiThres
00:0012 12-92 00-00'             6777   	l	er2,	NEAR _Range_ZHiThres+02h
00:0016 6E-F0                    6778   	push	xr0
00:0018 01-F0'00-00'             6779   	bl	__fcmpu8sw
00:001C 08 E1                    6780   	add	sp,	#8 
00:001E 0B-A0                    6781   	mov	psw,	r0
00:0020 10 C1                    6782   	blt	_$L462
00:0022 12-90 00-00'             6783   	l	er0,	NEAR _Range_out
00:0026 00 E2                    6784   	mov	er2,	#0 
00:0028 6E-F0                    6785   	push	xr0
00:002A 01-F0'00-00'             6786   	bl	__fuldu8sw
00:002E 12-90 00-00'             6787   	l	er0,	NEAR _Range_Ceiling
00:0032 12-92 00-00'             6788   	l	er2,	NEAR _Range_Ceiling+02h
00:0036 6E-F0                    6789   	push	xr0
00:0038 01-F0'00-00'             6790   	bl	__fcmpu8sw
00:003C 08 E1                    6791   	add	sp,	#8 
00:003E 0B-A0                    6792   	mov	psw,	r0
00:0040 26 C3                    6793   	ble	_$L461
00:0042                          6794   _$L462 :
                                 6795   CBLOCK 235 3 2161
                                 6796   
                                 6797   ;;		PFRUN = 0;	//Turn OFF PWM
                                 6798   CLINEA 0000H 0001H 0872H 0003H 001BH
00:0042 82-A0 73-F9              6799   	rb	0f973h.0
                                 6800   
                                 6801   ;;		PERUN = 0;
                                 6802   CLINEA 0000H 0001H 0873H 0003H 000CH
00:0046 82-A0 37-F9              6803   	rb	0f937h.0
                                 6804   
                                 6805   ;;		PDRUN = 0;
                                 6806   CLINEA 0000H 0001H 0874H 0003H 000CH
00:004A 82-A0 27-F9              6807   	rb	0f927h.0
                                 6808   
                                 6809   ;;		PCRUN = 0;
                                 6810   CLINEA 0000H 0001H 0875H 0003H 000CH
00:004E 82-A0 17-F9              6811   	rb	0f917h.0
                                 6812   
                                 6813   ;;		PWF0D += MotorStep; //Can't be running to change (Only this variable)
                                 6814   CLINEA 0000H 0001H 0876H 0003H 0047H
00:0052 12-90 62-F9              6815   	l	er0,	0f962h
00:0056 12-92 00-00'             6816   	l	er2,	NEAR _MotorStep
00:005A 26-F0                    6817   	add	er0,	er2
00:005C 13-90 62-F9              6818   	st	er0,	0f962h
                                 6819   
                                 6820   ;;		PWED += MotorStep;
                                 6821   CLINEA 0000H 0001H 0877H 0003H 0014H
00:0060 12-90 32-F9              6822   	l	er0,	0f932h
00:0064 26-F0                    6823   	add	er0,	er2
00:0066 13-90 32-F9              6824   	st	er0,	0f932h
                                 6825   
                                 6826   ;;		PWDD += MotorStep;
                                 6827   CLINEA 0000H 0001H 0878H 0003H 0014H
00:006A 12-90 22-F9              6828   	l	er0,	0f922h
00:006E 26-F0                    6829   	add	er0,	er2
00:0070 13-90 22-F9              6830   	st	er0,	0f922h
                                 6831   
                                 6832   ;;		PWCD += MotorStep;
                                 6833   CLINEA 0000H 0001H 0879H 0003H 0014H
00:0074 12-90 12-F9              6834   	l	er0,	0f912h
00:0078 26-F0                    6835   	add	er0,	er2
00:007A 13-90 12-F9              6836   	st	er0,	0f912h
                                 6837   
                                 6838   ;;		PFRUN = 1;	//Turn ON PWM
                                 6839   CLINEA 0000H 0001H 087AH 0003H 001AH
00:007E 80-A0 73-F9              6840   	sb	0f973h.0
                                 6841   
                                 6842   ;;		PERUN = 1;
                                 6843   CLINEA 0000H 0001H 087BH 0003H 000CH
00:0082 80-A0 37-F9              6844   	sb	0f937h.0
                                 6845   
                                 6846   ;;		PDRUN = 1;
                                 6847   CLINEA 0000H 0001H 087CH 0003H 000CH
00:0086 80-A0 27-F9              6848   	sb	0f927h.0
                                 6849   
                                 6850   ;;		PCRUN = 1;
                                 6851   CLINEA 0000H 0001H 087DH 0003H 000CH
00:008A 80-A0 17-F9              6852   	sb	0f917h.0
                                 6853   CBLOCKEND 235 3 2174
                                 6854   
                                 6855   ;;	}			
                                 6856   CLINEA 0000H 0000H 087EH 0002H 0005H
00:008E                          6857   _$L461 :
                                 6858   
                                 6859   ;;	if(Range_out > 75){	//4Ft Level
                                 6860   CLINEA 0000H 0001H 087FH 0002H 0020H
00:008E 12-90 00-00'             6861   	l	er0,	NEAR _Range_out
00:0092 4B 70                    6862   	cmp	r0,	#04bh
00:0094 00 51                    6863   	cmpc	r1,	#00h
00:0096 2A C3                    6864   	ble	_$L468
                                 6865   CBLOCK 235 4 2175
                                 6866   
                                 6867   ;;		PFRUN = 0;	//Turn OFF PWM
                                 6868   CLINEA 0000H 0001H 0880H 0003H 001BH
00:0098 82-A0 73-F9              6869   	rb	0f973h.0
                                 6870   
                                 6871   ;;		PERUN = 0;
                                 6872   CLINEA 0000H 0001H 0881H 0003H 000CH
00:009C 82-A0 37-F9              6873   	rb	0f937h.0
                                 6874   
                                 6875   ;;		PDRUN = 0;
                                 6876   CLINEA 0000H 0001H 0882H 0003H 000CH
00:00A0 82-A0 27-F9              6877   	rb	0f927h.0
                                 6878   
                                 6879   ;;		PCRUN = 0;
                                 6880   CLINEA 0000H 0001H 0883H 0003H 000CH
00:00A4 82-A0 17-F9              6881   	rb	0f917h.0
                                 6882   
                                 6883   ;;		PWF0D -= MotorStep; //Can't be running to change (Only this variable)
                                 6884   CLINEA 0000H 0001H 0884H 0003H 0047H
00:00A8 12-90 62-F9              6885   	l	er0,	0f962h
00:00AC 12-92 00-00'             6886   	l	er2,	NEAR _MotorStep
00:00B0 28-80                    6887   	sub	r0,	r2
00:00B2 39-81                    6888   	subc	r1,	r3
00:00B4 13-90 62-F9              6889   	st	er0,	0f962h
                                 6890   
                                 6891   ;;		PWED -= MotorStep;
                                 6892   CLINEA 0000H 0001H 0885H 0003H 0014H
00:00B8 12-90 32-F9              6893   	l	er0,	0f932h
00:00BC 28-80                    6894   	sub	r0,	r2
00:00BE 39-81                    6895   	subc	r1,	r3
00:00C0 13-90 32-F9              6896   	st	er0,	0f932h
                                 6897   
                                 6898   ;;		PWDD -= MotorStep;
                                 6899   CLINEA 0000H 0001H 0886H 0003H 0014H
00:00C4 12-90 22-F9              6900   	l	er0,	0f922h
00:00C8 28-80                    6901   	sub	r0,	r2
00:00CA 39-81                    6902   	subc	r1,	r3
00:00CC 13-90 22-F9              6903   	st	er0,	0f922h
                                 6904   
                                 6905   ;;		PWCD -= MotorStep;
                                 6906   CLINEA 0000H 0001H 0887H 0003H 0014H
00:00D0 12-90 12-F9              6907   	l	er0,	0f912h
00:00D4 28-80                    6908   	sub	r0,	r2
00:00D6 39-81                    6909   	subc	r1,	r3
00:00D8 13-90 12-F9              6910   	st	er0,	0f912h
                                 6911   
                                 6912   ;;		PFRUN = 1;	//Turn ON PWM
                                 6913   CLINEA 0000H 0001H 0888H 0003H 001AH
00:00DC 80-A0 73-F9              6914   	sb	0f973h.0
                                 6915   
                                 6916   ;;		PERUN = 1;
                                 6917   CLINEA 0000H 0001H 0889H 0003H 000CH
00:00E0 80-A0 37-F9              6918   	sb	0f937h.0
                                 6919   
                                 6920   ;;		PDRUN = 1;
                                 6921   CLINEA 0000H 0001H 088AH 0003H 000CH
00:00E4 80-A0 27-F9              6922   	sb	0f927h.0
                                 6923   
                                 6924   ;;		PCRUN = 1;
                                 6925   CLINEA 0000H 0001H 088BH 0003H 000CH
00:00E8 80-A0 17-F9              6926   	sb	0f917h.0
                                 6927   CBLOCKEND 235 4 2188
                                 6928   
                                 6929   ;;	}
                                 6930   CLINEA 0000H 0000H 088CH 0002H 0002H
00:00EC                          6931   _$L468 :
                                 6932   CBLOCKEND 235 2 2232
                                 6933   
                                 6934   ;;}
                                 6935   CLINEA 0000H 0001H 08B8H 0001H 0001H
00:00EC 8E-F2                    6936   	pop	pc
                                 6937   CBLOCKEND 235 1 2232
                                 6938   CFUNCTIONEND 235
                                 6939   
                                 6940   
  --------------------------     6941   	rseg $$MagSensorControl$main
                                 6942   CFUNCTION 236
                                 6943   
00:0000                          6944   _MagSensorControl	:
                                 6945   CBLOCK 236 1 2295
                                 6946   
                                 6947   ;;void MagSensorControl(void){
                                 6948   CLINEA 0000H 0001H 08F7H 0001H 001CH
00:0000 CE-F8                    6949   	push	lr
                                 6950   CBLOCK 236 2 2295
                                 6951   CRET 0000H
                                 6952   
                                 6953   ;;	if((Mag_Angle > Mag_CWThres)&&(Mag_Angle < Mag_OpposingPole)){
                                 6954   CLINEA 0000H 0001H 08F8H 0002H 003FH
00:0002 12-90 00-00'             6955   	l	er0,	NEAR _Mag_Angle
00:0006 12-92 00-00'             6956   	l	er2,	NEAR _Mag_Angle+02h
00:000A 6E-F0                    6957   	push	xr0
00:000C 12-90 00-00'             6958   	l	er0,	NEAR _Mag_CWThres
00:0010 12-92 00-00'             6959   	l	er2,	NEAR _Mag_CWThres+02h
00:0014 6E-F0                    6960   	push	xr0
00:0016 01-F0'00-00'             6961   	bl	__fcmpu8sw
00:001A 08 E1                    6962   	add	sp,	#8 
00:001C 0B-A0                    6963   	mov	psw,	r0
00:001E 37 C3                    6964   	ble	_$L471
00:0020 12-90 00-00'             6965   	l	er0,	NEAR _Mag_Angle
00:0024 12-92 00-00'             6966   	l	er2,	NEAR _Mag_Angle+02h
00:0028 6E-F0                    6967   	push	xr0
00:002A 12-90 00-00'             6968   	l	er0,	NEAR _Mag_OpposingPole
00:002E 12-92 00-00'             6969   	l	er2,	NEAR _Mag_OpposingPole+02h
00:0032 6E-F0                    6970   	push	xr0
00:0034 01-F0'00-00'             6971   	bl	__fcmpu8sw
00:0038 08 E1                    6972   	add	sp,	#8 
00:003A 0B-A0                    6973   	mov	psw,	r0
00:003C 28 C0                    6974   	bge	_$L471
                                 6975   CBLOCK 236 3 2296
                                 6976   
                                 6977   ;;		PFRUN = 0;	//Turn OFF PWM
                                 6978   CLINEA 0000H 0001H 08F9H 0003H 001BH
00:003E 82-A0 73-F9              6979   	rb	0f973h.0
                                 6980   
                                 6981   ;;		PERUN = 0;
                                 6982   CLINEA 0000H 0001H 08FAH 0003H 000CH
00:0042 82-A0 37-F9              6983   	rb	0f937h.0
                                 6984   
                                 6985   ;;		PDRUN = 0;
                                 6986   CLINEA 0000H 0001H 08FBH 0003H 000CH
00:0046 82-A0 27-F9              6987   	rb	0f927h.0
                                 6988   
                                 6989   ;;		PCRUN = 0;
                                 6990   CLINEA 0000H 0001H 08FCH 0003H 000CH
00:004A 82-A0 17-F9              6991   	rb	0f917h.0
                                 6992   
                                 6993   ;;		PWF0D += Mag_MotorStep; //Can't be running to change (Only this variable)
                                 6994   CLINEA 0000H 0001H 08FDH 0003H 004BH
00:004E 12-90 62-F9              6995   	l	er0,	0f962h
00:0052 12-92 00-00'             6996   	l	er2,	NEAR _Mag_MotorStep
00:0056 26-F0                    6997   	add	er0,	er2
00:0058 13-90 62-F9              6998   	st	er0,	0f962h
                                 6999   
                                 7000   ;;		PWED -= Mag_MotorStep;
                                 7001   CLINEA 0000H 0001H 08FEH 0003H 0018H
00:005C 12-90 32-F9              7002   	l	er0,	0f932h
00:0060 28-80                    7003   	sub	r0,	r2
00:0062 39-81                    7004   	subc	r1,	r3
00:0064 13-90 32-F9              7005   	st	er0,	0f932h
                                 7006   
                                 7007   ;;		PWDD -= Mag_MotorStep;
                                 7008   CLINEA 0000H 0001H 08FFH 0003H 0018H
00:0068 12-90 22-F9              7009   	l	er0,	0f922h
00:006C 28-80                    7010   	sub	r0,	r2
00:006E 39-81                    7011   	subc	r1,	r3
00:0070 13-90 22-F9              7012   	st	er0,	0f922h
                                 7013   
                                 7014   ;;		PWCD += Mag_MotorStep;
                                 7015   CLINEA 0000H 0001H 0900H 0003H 0018H
00:0074 12-90 12-F9              7016   	l	er0,	0f912h
00:0078 26-F0                    7017   	add	er0,	er2
00:007A 13-90 12-F9              7018   	st	er0,	0f912h
                                 7019   
                                 7020   ;;		PFRUN = 1;	//Turn ON PWM
                                 7021   CLINEA 0000H 0001H 0901H 0003H 001AH
00:007E 80-A0 73-F9              7022   	sb	0f973h.0
                                 7023   
                                 7024   ;;		PERUN = 1;
                                 7025   CLINEA 0000H 0001H 0902H 0003H 000CH
00:0082 80-A0 37-F9              7026   	sb	0f937h.0
                                 7027   
                                 7028   ;;		PDRUN = 1;
                                 7029   CLINEA 0000H 0001H 0903H 0003H 000CH
00:0086 80-A0 27-F9              7030   	sb	0f927h.0
                                 7031   
                                 7032   ;;		PCRUN = 1;
                                 7033   CLINEA 0000H 0001H 0904H 0003H 000CH
00:008A 80-A0 17-F9              7034   	sb	0f917h.0
                                 7035   CBLOCKEND 236 3 2309
                                 7036   
                                 7037   ;;	}
                                 7038   CLINEA 0000H 0000H 0905H 0002H 0002H
00:008E                          7039   _$L471 :
                                 7040   
                                 7041   ;;	if((Mag_Angle < Mag_CCWThres)&&(Mag_Angle > Mag_OpposingPole)){
                                 7042   CLINEA 0000H 0001H 0906H 0002H 0040H
00:008E 12-90 00-00'             7043   	l	er0,	NEAR _Mag_Angle
00:0092 12-92 00-00'             7044   	l	er2,	NEAR _Mag_Angle+02h
00:0096 6E-F0                    7045   	push	xr0
00:0098 12-90 00-00'             7046   	l	er0,	NEAR _Mag_CCWThres
00:009C 12-92 00-00'             7047   	l	er2,	NEAR _Mag_CCWThres+02h
00:00A0 6E-F0                    7048   	push	xr0
00:00A2 01-F0'00-00'             7049   	bl	__fcmpu8sw
00:00A6 08 E1                    7050   	add	sp,	#8 
00:00A8 0B-A0                    7051   	mov	psw,	r0
00:00AA 37 C0                    7052   	bge	_$L478
00:00AC 12-90 00-00'             7053   	l	er0,	NEAR _Mag_Angle
00:00B0 12-92 00-00'             7054   	l	er2,	NEAR _Mag_Angle+02h
00:00B4 6E-F0                    7055   	push	xr0
00:00B6 12-90 00-00'             7056   	l	er0,	NEAR _Mag_OpposingPole
00:00BA 12-92 00-00'             7057   	l	er2,	NEAR _Mag_OpposingPole+02h
00:00BE 6E-F0                    7058   	push	xr0
00:00C0 01-F0'00-00'             7059   	bl	__fcmpu8sw
00:00C4 08 E1                    7060   	add	sp,	#8 
00:00C6 0B-A0                    7061   	mov	psw,	r0
00:00C8 28 C3                    7062   	ble	_$L478
                                 7063   CBLOCK 236 4 2310
                                 7064   
                                 7065   ;;		PFRUN = 0;	//Turn OFF PWM
                                 7066   CLINEA 0000H 0001H 0907H 0003H 001BH
00:00CA 82-A0 73-F9              7067   	rb	0f973h.0
                                 7068   
                                 7069   ;;		PERUN = 0;
                                 7070   CLINEA 0000H 0001H 0908H 0003H 000CH
00:00CE 82-A0 37-F9              7071   	rb	0f937h.0
                                 7072   
                                 7073   ;;		PDRUN = 0;
                                 7074   CLINEA 0000H 0001H 0909H 0003H 000CH
00:00D2 82-A0 27-F9              7075   	rb	0f927h.0
                                 7076   
                                 7077   ;;		PCRUN = 0;
                                 7078   CLINEA 0000H 0001H 090AH 0003H 000CH
00:00D6 82-A0 17-F9              7079   	rb	0f917h.0
                                 7080   
                                 7081   ;;		PWF0D -= Mag_MotorStep; //Can't be running to change (Only this variable)
                                 7082   CLINEA 0000H 0001H 090BH 0003H 004BH
00:00DA 12-90 62-F9              7083   	l	er0,	0f962h
00:00DE 12-92 00-00'             7084   	l	er2,	NEAR _Mag_MotorStep
00:00E2 28-80                    7085   	sub	r0,	r2
00:00E4 39-81                    7086   	subc	r1,	r3
00:00E6 13-90 62-F9              7087   	st	er0,	0f962h
                                 7088   
                                 7089   ;;		PWED += Mag_MotorStep;
                                 7090   CLINEA 0000H 0001H 090CH 0003H 0018H
00:00EA 12-90 32-F9              7091   	l	er0,	0f932h
00:00EE 26-F0                    7092   	add	er0,	er2
00:00F0 13-90 32-F9              7093   	st	er0,	0f932h
                                 7094   
                                 7095   ;;		PWDD += Mag_MotorStep;
                                 7096   CLINEA 0000H 0001H 090DH 0003H 0018H
00:00F4 12-90 22-F9              7097   	l	er0,	0f922h
00:00F8 26-F0                    7098   	add	er0,	er2
00:00FA 13-90 22-F9              7099   	st	er0,	0f922h
                                 7100   
                                 7101   ;;		PWCD -= Mag_MotorStep;
                                 7102   CLINEA 0000H 0001H 090EH 0003H 0018H
00:00FE 12-90 12-F9              7103   	l	er0,	0f912h
00:0102 28-80                    7104   	sub	r0,	r2
00:0104 39-81                    7105   	subc	r1,	r3
00:0106 13-90 12-F9              7106   	st	er0,	0f912h
                                 7107   
                                 7108   ;;		PFRUN = 1;	//Turn ON PWM
                                 7109   CLINEA 0000H 0001H 090FH 0003H 001AH
00:010A 80-A0 73-F9              7110   	sb	0f973h.0
                                 7111   
                                 7112   ;;		PERUN = 1;
                                 7113   CLINEA 0000H 0001H 0910H 0003H 000CH
00:010E 80-A0 37-F9              7114   	sb	0f937h.0
                                 7115   
                                 7116   ;;		PDRUN = 1;
                                 7117   CLINEA 0000H 0001H 0911H 0003H 000CH
00:0112 80-A0 27-F9              7118   	sb	0f927h.0
                                 7119   
                                 7120   ;;		PCRUN = 1;
                                 7121   CLINEA 0000H 0001H 0912H 0003H 000CH
00:0116 80-A0 17-F9              7122   	sb	0f917h.0
                                 7123   CBLOCKEND 236 4 2323
                                 7124   
                                 7125   ;;	}
                                 7126   CLINEA 0000H 0000H 0913H 0002H 0002H
00:011A                          7127   _$L478 :
                                 7128   CBLOCKEND 236 2 2324
                                 7129   
                                 7130   ;;}
                                 7131   CLINEA 0000H 0001H 0914H 0001H 0001H
00:011A 8E-F2                    7132   	pop	pc
                                 7133   CBLOCKEND 236 1 2324
                                 7134   CFUNCTIONEND 236
                                 7135   
                                 7136   
  --------------------------     7137   	rseg $$MagSensorControlPID$main
                                 7138   CFUNCTION 237
                                 7139   
00:0000                          7140   _MagSensorControlPID	:
                                 7141   CBLOCK 237 1 2326
                                 7142   
                                 7143   ;;void MagSensorControlPID(void){
                                 7144   CLINEA 0000H 0001H 0916H 0001H 001FH
00:0000 CE-F8                    7145   	push	lr
00:0002 6E-F4                    7146   	push	xr4
                                 7147   CBLOCK 237 2 2326
                                 7148   CRET 0004H
                                 7149   CLOCAL 47H 0002H 0024H 0002H "i" 02H 00H 01H
                                 7150   
                                 7151   ;;	if(Mag_PIDSetpoint > 180){
                                 7152   CLINEA 0000H 0001H 091BH 0002H 001BH
00:0004 12-90 00-00'             7153   	l	er0,	NEAR _Mag_PIDSetpoint
00:0008 12-92 00-00'             7154   	l	er2,	NEAR _Mag_PIDSetpoint+02h
00:000C 6E-F0                    7155   	push	xr0
00:000E 00 E0                    7156   	mov	er0,	#0 
00:0010 34 02                    7157   	mov	r2,	#034h
00:0012 43 03                    7158   	mov	r3,	#043h
00:0014 6E-F0                    7159   	push	xr0
00:0016 01-F0'00-00'             7160   	bl	__fcmpu8sw
00:001A 08 E1                    7161   	add	sp,	#8 
00:001C 0B-A0                    7162   	mov	psw,	r0
00:001E 3C C3                    7163   	ble	_$L486
                                 7164   CBLOCK 237 3 2331
                                 7165   
                                 7166   ;;		Mag_PIDCorrectionFactor = 360-Mag_PIDSetpoint;
                                 7167   CLINEA 0000H 0001H 091CH 0003H 0030H
00:0020 00 E0                    7168   	mov	er0,	#0 
00:0022 B4 02                    7169   	mov	r2,	#0b4h
00:0024 43 03                    7170   	mov	r3,	#043h
00:0026 6E-F0                    7171   	push	xr0
00:0028 12-90 00-00'             7172   	l	er0,	NEAR _Mag_PIDSetpoint
00:002C 12-92 00-00'             7173   	l	er2,	NEAR _Mag_PIDSetpoint+02h
00:0030 6E-F0                    7174   	push	xr0
00:0032 01-F0'00-00'             7175   	bl	__fsubu8sw
00:0036 04 E1                    7176   	add	sp,	#4 
00:0038 2E-F0                    7177   	pop	xr0
00:003A 13-90 00-00'             7178   	st	er0,	NEAR _Mag_PIDCorrectionFactor
00:003E 13-92 00-00'             7179   	st	er2,	NEAR _Mag_PIDCorrectionFactor+02h
                                 7180   
                                 7181   ;;		Mag_PIDAngleScaled = Mag_Angle + Mag_PIDCorrectionFactor;
                                 7182   CLINEA 0000H 0001H 091DH 0003H 003BH
00:0042 6E-F0                    7183   	push	xr0
00:0044 12-90 00-00'             7184   	l	er0,	NEAR _Mag_Angle
00:0048 12-92 00-00'             7185   	l	er2,	NEAR _Mag_Angle+02h
00:004C 6E-F0                    7186   	push	xr0
00:004E 01-F0'00-00'             7187   	bl	__faddu8sw
00:0052 04 E1                    7188   	add	sp,	#4 
00:0054 2E-F0                    7189   	pop	xr0
00:0056 13-90 00-00'             7190   	st	er0,	NEAR _Mag_PIDAngleScaled
00:005A 13-92 00-00'             7191   	st	er2,	NEAR _Mag_PIDAngleScaled+02h
                                 7192   
                                 7193   ;;		if(Mag_PIDAngleScaled > 180){
                                 7194   CLINEA 0000H 0001H 091EH 0003H 001FH
00:005E 6E-F0                    7195   	push	xr0
00:0060 00 E0                    7196   	mov	er0,	#0 
00:0062 34 02                    7197   	mov	r2,	#034h
00:0064 43 03                    7198   	mov	r3,	#043h
00:0066 6E-F0                    7199   	push	xr0
00:0068 01-F0'00-00'             7200   	bl	__fcmpu8sw
00:006C 08 E1                    7201   	add	sp,	#8 
00:006E 0B-A0                    7202   	mov	psw,	r0
00:0070 0E C3                    7203   	ble	_$L488
                                 7204   CBLOCK 237 4 2334
                                 7205   
                                 7206   ;;			Mag_PIDError = Mag_PIDAngleScaled - 360;
                                 7207   CLINEA 0000H 0001H 091FH 0004H 002BH
00:0072 12-90 00-00'             7208   	l	er0,	NEAR _Mag_PIDAngleScaled
00:0076 12-92 00-00'             7209   	l	er2,	NEAR _Mag_PIDAngleScaled+02h
00:007A 6E-F0                    7210   	push	xr0
00:007C 00 E0                    7211   	mov	er0,	#0 
00:007E B4 02                    7212   	mov	r2,	#0b4h
00:0080 C3 03                    7213   	mov	r3,	#0c3h
00:0082 6E-F0                    7214   	push	xr0
00:0084 01-F0'00-00'             7215   	bl	__faddu8sw
00:0088 04 E1                    7216   	add	sp,	#4 
00:008A 2E-F0                    7217   	pop	xr0
                                 7218   CBLOCKEND 237 4 2337
                                 7219   
                                 7220   ;;		else{
                                 7221   CLINEA 0000H 0001H 0922H 0003H 0007H
00:008C 04 CE                    7222   	bal	_$L490
00:008E                          7223   _$L488 :
                                 7224   CBLOCK 237 5 2338
                                 7225   
                                 7226   ;;			Mag_PIDError= Mag_PIDAngleScaled;
                                 7227   CLINEA 0000H 0001H 0923H 0004H 0024H
00:008E 12-90 00-00'             7228   	l	er0,	NEAR _Mag_PIDAngleScaled
00:0092 12-92 00-00'             7229   	l	er2,	NEAR _Mag_PIDAngleScaled+02h
                                 7230   CBLOCKEND 237 5 2340
                                 7231   
                                 7232   ;;		}
                                 7233   CLINEA 0000H 0000H 0924H 0003H 0003H
00:0096                          7234   _$L490 :
                                 7235   
                                 7236   ;;	else{
                                 7237   CLINEA 0000H 0001H 0926H 0002H 0006H
00:0096 36 CE                    7238   	bal	_$L494
00:0098                          7239   _$L486 :
                                 7240   CBLOCK 237 6 2342
                                 7241   
                                 7242   ;;		Mag_PIDCorrectionFactor = Mag_PIDSetpoint;					
                                 7243   CLINEA 0000H 0001H 0927H 0003H 0031H
00:0098 12-90 00-00'             7244   	l	er0,	NEAR _Mag_PIDSetpoint
00:009C 12-92 00-00'             7245   	l	er2,	NEAR _Mag_PIDSetpoint+02h
00:00A0 13-90 00-00'             7246   	st	er0,	NEAR _Mag_PIDCorrectionFactor
00:00A4 13-92 00-00'             7247   	st	er2,	NEAR _Mag_PIDCorrectionFactor+02h
                                 7248   
                                 7249   ;;		Mag_PIDAngleScaled = Mag_Angle - Mag_PIDCorrectionFactor;
                                 7250   CLINEA 0000H 0001H 0929H 0003H 003BH
00:00A8 12-90 00-00'             7251   	l	er0,	NEAR _Mag_Angle
00:00AC 12-92 00-00'             7252   	l	er2,	NEAR _Mag_Angle+02h
00:00B0 6E-F0                    7253   	push	xr0
00:00B2 12-90 00-00'             7254   	l	er0,	NEAR _Mag_PIDSetpoint
00:00B6 12-92 00-00'             7255   	l	er2,	NEAR _Mag_PIDSetpoint+02h
00:00BA 6E-F0                    7256   	push	xr0
00:00BC 01-F0'00-00'             7257   	bl	__fsubu8sw
00:00C0 04 E1                    7258   	add	sp,	#4 
00:00C2 2E-F0                    7259   	pop	xr0
00:00C4 13-90 00-00'             7260   	st	er0,	NEAR _Mag_PIDAngleScaled
00:00C8 13-92 00-00'             7261   	st	er2,	NEAR _Mag_PIDAngleScaled+02h
                                 7262   
                                 7263   ;;		if(Mag_PIDAngleScaled > 180){
                                 7264   CLINEA 0000H 0001H 092AH 0003H 001FH
00:00CC 6E-F0                    7265   	push	xr0
00:00CE 00 E0                    7266   	mov	er0,	#0 
00:00D0 34 02                    7267   	mov	r2,	#034h
00:00D2 43 03                    7268   	mov	r3,	#043h
00:00D4 6E-F0                    7269   	push	xr0
00:00D6 01-F0'00-00'             7270   	bl	__fcmpu8sw
00:00DA 08 E1                    7271   	add	sp,	#8 
00:00DC 0B-A0                    7272   	mov	psw,	r0
00:00DE 0E C3                    7273   	ble	_$L492
                                 7274   CBLOCK 237 7 2346
                                 7275   
                                 7276   ;;			Mag_PIDError = Mag_PIDAngleScaled - 360;
                                 7277   CLINEA 0000H 0001H 092BH 0004H 002BH
00:00E0 12-90 00-00'             7278   	l	er0,	NEAR _Mag_PIDAngleScaled
00:00E4 12-92 00-00'             7279   	l	er2,	NEAR _Mag_PIDAngleScaled+02h
00:00E8 6E-F0                    7280   	push	xr0
00:00EA 00 E0                    7281   	mov	er0,	#0 
00:00EC B4 02                    7282   	mov	r2,	#0b4h
00:00EE C3 03                    7283   	mov	r3,	#0c3h
00:00F0 6E-F0                    7284   	push	xr0
00:00F2 01-F0'00-00'             7285   	bl	__faddu8sw
00:00F6 04 E1                    7286   	add	sp,	#4 
00:00F8 2E-F0                    7287   	pop	xr0
                                 7288   CBLOCKEND 237 7 2349
                                 7289   
                                 7290   ;;		else{
                                 7291   CLINEA 0000H 0001H 092EH 0003H 0007H
00:00FA 04 CE                    7292   	bal	_$L494
00:00FC                          7293   _$L492 :
                                 7294   CBLOCK 237 8 2350
                                 7295   
                                 7296   ;;			Mag_PIDError = Mag_PIDAngleScaled;
                                 7297   CLINEA 0000H 0001H 092FH 0004H 0025H
00:00FC 12-90 00-00'             7298   	l	er0,	NEAR _Mag_PIDAngleScaled
00:0100 12-92 00-00'             7299   	l	er2,	NEAR _Mag_PIDAngleScaled+02h
                                 7300   CBLOCKEND 237 8 2352
                                 7301   
                                 7302   ;;		}
                                 7303   CLINEA 0000H 0000H 0930H 0003H 0003H
00:0104                          7304   _$L494 :
00:0104 13-90 00-00'             7305   	st	er0,	NEAR _Mag_PIDError
00:0108 13-92 00-00'             7306   	st	er2,	NEAR _Mag_PIDError+02h
                                 7307   CBLOCKEND 237 6 2353
                                 7308   
                                 7309   ;;	Mag_PIDError *= -1;
                                 7310   CLINEA 0000H 0001H 0932H 0002H 0014H
00:010C 6E-F0                    7311   	push	xr0
00:010E 00 E0                    7312   	mov	er0,	#0 
00:0110 80 02                    7313   	mov	r2,	#080h
00:0112 BF 03                    7314   	mov	r3,	#0bfh
00:0114 6E-F0                    7315   	push	xr0
00:0116 01-F0'00-00'             7316   	bl	__fmulu8sw
00:011A 04 E1                    7317   	add	sp,	#4 
00:011C 2E-F0                    7318   	pop	xr0
00:011E 13-90 00-00'             7319   	st	er0,	NEAR _Mag_PIDError
00:0122 13-92 00-00'             7320   	st	er2,	NEAR _Mag_PIDError+02h
                                 7321   
                                 7322   ;;	Mag_PIDCurrentCount = Mag_PIDCounter * .001;		//Timer in Seconds (.007 used to convert 128Hz TBC to seconds)
                                 7323   CLINEA 0000H 0001H 0938H 0002H 006DH
00:0126 12-90 00-00'             7324   	l	er0,	NEAR _Mag_PIDCounter
00:012A 00 E2                    7325   	mov	er2,	#0 
00:012C 6E-F0                    7326   	push	xr0
00:012E FC E1                    7327   	add	sp,	#-4
00:0130 01-F0'00-00'             7328   	bl	__dildu8sw
00:0134 FC 00                    7329   	mov	r0,	#0fch
00:0136 A9 01                    7330   	mov	r1,	#0a9h
00:0138 F1 02                    7331   	mov	r2,	#0f1h
00:013A D2 03                    7332   	mov	r3,	#0d2h
00:013C 4D 04                    7333   	mov	r4,	#04dh
00:013E 62 05                    7334   	mov	r5,	#062h
00:0140 50 06                    7335   	mov	r6,	#050h
00:0142 3F 07                    7336   	mov	r7,	#03fh
00:0144 7E-F0                    7337   	push	qr0
00:0146 01-F0'00-00'             7338   	bl	__dmulu8sw
00:014A 08 E1                    7339   	add	sp,	#8 
00:014C 01-F0'00-00'             7340   	bl	__dtofu8sw
00:0150 04 E1                    7341   	add	sp,	#4 
00:0152 2E-F0                    7342   	pop	xr0
00:0154 13-90 00-00'             7343   	st	er0,	NEAR _Mag_PIDCurrentCount
00:0158 13-92 00-00'             7344   	st	er2,	NEAR _Mag_PIDCurrentCount+02h
                                 7345   
                                 7346   ;;	Mag_PIDCounter = 0;
                                 7347   CLINEA 0000H 0001H 0939H 0002H 0014H
00:015C 00 E0                    7348   	mov	er0,	#0 
00:015E 13-90 00-00'             7349   	st	er0,	NEAR _Mag_PIDCounter
                                 7350   
                                 7351   ;;	Mag_PIDErrSum += (Mag_PIDError * Mag_PIDCurrentCount);
                                 7352   CLINEA 0000H 0001H 093CH 0002H 0037H
00:0162 12-90 00-00'             7353   	l	er0,	NEAR _Mag_PIDCurrentCount
00:0166 6E-F0                    7354   	push	xr0
00:0168 12-90 00-00'             7355   	l	er0,	NEAR _Mag_PIDError
00:016C 12-92 00-00'             7356   	l	er2,	NEAR _Mag_PIDError+02h
00:0170 6E-F0                    7357   	push	xr0
00:0172 01-F0'00-00'             7358   	bl	__fmulu8sw
00:0176 04 E1                    7359   	add	sp,	#4 
00:0178 12-90 00-00'             7360   	l	er0,	NEAR _Mag_PIDErrSum
00:017C 12-92 00-00'             7361   	l	er2,	NEAR _Mag_PIDErrSum+02h
00:0180 6E-F0                    7362   	push	xr0
00:0182 01-F0'00-00'             7363   	bl	__faddu8sw
00:0186 04 E1                    7364   	add	sp,	#4 
00:0188 2E-F0                    7365   	pop	xr0
00:018A 13-90 00-00'             7366   	st	er0,	NEAR _Mag_PIDErrSum
00:018E 13-92 00-00'             7367   	st	er2,	NEAR _Mag_PIDErrSum+02h
                                 7368   
                                 7369   ;;	Mag_PIDdErr	/= Mag_PIDCurrentCount;
                                 7370   CLINEA 0000H 0001H 0940H 0002H 0024H
00:0192 12-90 00-00'             7371   	l	er0,	NEAR _Mag_PIDError
00:0196 12-92 00-00'             7372   	l	er2,	NEAR _Mag_PIDError+02h
00:019A 6E-F0                    7373   	push	xr0
00:019C 12-90 00-00'             7374   	l	er0,	NEAR _Mag_PIDErrPrev
00:01A0 12-92 00-00'             7375   	l	er2,	NEAR _Mag_PIDErrPrev+02h
00:01A4 6E-F0                    7376   	push	xr0
00:01A6 01-F0'00-00'             7377   	bl	__fsubu8sw
00:01AA 04 E1                    7378   	add	sp,	#4 
00:01AC 12-90 00-00'             7379   	l	er0,	NEAR _Mag_PIDCurrentCount
00:01B0 12-92 00-00'             7380   	l	er2,	NEAR _Mag_PIDCurrentCount+02h
00:01B4 6E-F0                    7381   	push	xr0
00:01B6 01-F0'00-00'             7382   	bl	__fdivu8sw
00:01BA 04 E1                    7383   	add	sp,	#4 
00:01BC 2E-F0                    7384   	pop	xr0
00:01BE 13-90 00-00'             7385   	st	er0,	NEAR _Mag_PIDdErr
00:01C2 13-92 00-00'             7386   	st	er2,	NEAR _Mag_PIDdErr+02h
                                 7387   
                                 7388   ;;	Mag_PIDErrPrev = Mag_PIDError;
                                 7389   CLINEA 0000H 0001H 0941H 0002H 001FH
00:01C6 12-90 00-00'             7390   	l	er0,	NEAR _Mag_PIDError
00:01CA 12-92 00-00'             7391   	l	er2,	NEAR _Mag_PIDError+02h
00:01CE 13-90 00-00'             7392   	st	er0,	NEAR _Mag_PIDErrPrev
00:01D2 13-92 00-00'             7393   	st	er2,	NEAR _Mag_PIDErrPrev+02h
                                 7394   
                                 7395   ;;	Mag_PIDOutput = (Mag_PID_kp*Mag_PIDError) + (Mag_PID_ki*Mag_PIDErrSum) + (Mag_PID_kd*Mag_PIDdErr);
                                 7396   CLINEA 0000H 0001H 0944H 0002H 0063H
00:01D6 6E-F0                    7397   	push	xr0
00:01D8 12-90 00-00'             7398   	l	er0,	NEAR _Mag_PID_kp
00:01DC 12-92 00-00'             7399   	l	er2,	NEAR _Mag_PID_kp+02h
00:01E0 6E-F0                    7400   	push	xr0
00:01E2 01-F0'00-00'             7401   	bl	__fmulu8sw
00:01E6 04 E1                    7402   	add	sp,	#4 
00:01E8 2E-F0                    7403   	pop	xr0
00:01EA 12-94 00-00'             7404   	l	er4,	NEAR _Mag_PIDErrSum
00:01EE 12-96 00-00'             7405   	l	er6,	NEAR _Mag_PIDErrSum+02h
00:01F2 6E-F4                    7406   	push	xr4
00:01F4 12-94 00-00'             7407   	l	er4,	NEAR _Mag_PID_ki
00:01F8 12-96 00-00'             7408   	l	er6,	NEAR _Mag_PID_ki+02h
00:01FC 6E-F4                    7409   	push	xr4
00:01FE 01-F0'00-00'             7410   	bl	__fmulu8sw
00:0202 04 E1                    7411   	add	sp,	#4 
00:0204 2E-F4                    7412   	pop	xr4
00:0206 6E-F0                    7413   	push	xr0
00:0208 6E-F4                    7414   	push	xr4
00:020A 01-F0'00-00'             7415   	bl	__faddu8sw
00:020E 04 E1                    7416   	add	sp,	#4 
00:0210 2E-F0                    7417   	pop	xr0
00:0212 12-94 00-00'             7418   	l	er4,	NEAR _Mag_PID_kd
00:0216 12-96 00-00'             7419   	l	er6,	NEAR _Mag_PID_kd+02h
00:021A 6E-F4                    7420   	push	xr4
00:021C 12-94 00-00'             7421   	l	er4,	NEAR _Mag_PIDdErr
00:0220 12-96 00-00'             7422   	l	er6,	NEAR _Mag_PIDdErr+02h
00:0224 6E-F4                    7423   	push	xr4
00:0226 01-F0'00-00'             7424   	bl	__fmulu8sw
00:022A 04 E1                    7425   	add	sp,	#4 
00:022C 2E-F4                    7426   	pop	xr4
00:022E 6E-F0                    7427   	push	xr0
00:0230 6E-F4                    7428   	push	xr4
00:0232 01-F0'00-00'             7429   	bl	__faddu8sw
00:0236 04 E1                    7430   	add	sp,	#4 
00:0238 2E-F0                    7431   	pop	xr0
00:023A 13-90 00-00'             7432   	st	er0,	NEAR _Mag_PIDOutput
00:023E 13-92 00-00'             7433   	st	er2,	NEAR _Mag_PIDOutput+02h
                                 7434   
                                 7435   ;;	PFRUN = 0;	//Turn OFF PWM
                                 7436   CLINEA 0000H 0001H 0948H 0002H 001AH
00:0242 82-A0 73-F9              7437   	rb	0f973h.0
                                 7438   
                                 7439   ;;	PERUN = 0;
                                 7440   CLINEA 0000H 0001H 0949H 0002H 000BH
00:0246 82-A0 37-F9              7441   	rb	0f937h.0
                                 7442   
                                 7443   ;;	PDRUN = 0;
                                 7444   CLINEA 0000H 0001H 094AH 0002H 000BH
00:024A 82-A0 27-F9              7445   	rb	0f927h.0
                                 7446   
                                 7447   ;;	PCRUN = 0;
                                 7448   CLINEA 0000H 0001H 094BH 0002H 000BH
00:024E 82-A0 17-F9              7449   	rb	0f917h.0
                                 7450   
                                 7451   ;;	PWF0D -= Mag_PIDOutput; 		//Can't be running to change (Only this variable)
                                 7452   CLINEA 0000H 0001H 094DH 0002H 004CH
00:0252 12-90 62-F9              7453   	l	er0,	0f962h
00:0256 00 E2                    7454   	mov	er2,	#0 
00:0258 6E-F0                    7455   	push	xr0
00:025A 01-F0'00-00'             7456   	bl	__fuldu8sw
00:025E 12-90 00-00'             7457   	l	er0,	NEAR _Mag_PIDOutput
00:0262 12-92 00-00'             7458   	l	er2,	NEAR _Mag_PIDOutput+02h
00:0266 6E-F0                    7459   	push	xr0
00:0268 01-F0'00-00'             7460   	bl	__fsubu8sw
00:026C 04 E1                    7461   	add	sp,	#4 
00:026E 01-F0'00-00'             7462   	bl	__ftolu8sw
00:0272 1E-F0                    7463   	pop	er0
00:0274 02 E1                    7464   	add	sp,	#2 
00:0276 13-90 62-F9              7465   	st	er0,	0f962h
                                 7466   
                                 7467   ;;	PWED += Mag_PIDOutput;	//CCW motor, spin to move CW
                                 7468   CLINEA 0000H 0001H 094EH 0002H 0034H
00:027A 12-90 32-F9              7469   	l	er0,	0f932h
00:027E 00 E2                    7470   	mov	er2,	#0 
00:0280 6E-F0                    7471   	push	xr0
00:0282 01-F0'00-00'             7472   	bl	__fuldu8sw
00:0286 12-90 00-00'             7473   	l	er0,	NEAR _Mag_PIDOutput
00:028A 12-92 00-00'             7474   	l	er2,	NEAR _Mag_PIDOutput+02h
00:028E 6E-F0                    7475   	push	xr0
00:0290 01-F0'00-00'             7476   	bl	__faddu8sw
00:0294 04 E1                    7477   	add	sp,	#4 
00:0296 01-F0'00-00'             7478   	bl	__ftolu8sw
00:029A 1E-F0                    7479   	pop	er0
00:029C 02 E1                    7480   	add	sp,	#2 
00:029E 13-90 32-F9              7481   	st	er0,	0f932h
                                 7482   
                                 7483   ;;	PWDD += Mag_PIDOutput;	//CCW motor, spin to move CW
                                 7484   CLINEA 0000H 0001H 094FH 0002H 0034H
00:02A2 12-90 22-F9              7485   	l	er0,	0f922h
00:02A6 00 E2                    7486   	mov	er2,	#0 
00:02A8 6E-F0                    7487   	push	xr0
00:02AA 01-F0'00-00'             7488   	bl	__fuldu8sw
00:02AE 12-90 00-00'             7489   	l	er0,	NEAR _Mag_PIDOutput
00:02B2 12-92 00-00'             7490   	l	er2,	NEAR _Mag_PIDOutput+02h
00:02B6 6E-F0                    7491   	push	xr0
00:02B8 01-F0'00-00'             7492   	bl	__faddu8sw
00:02BC 04 E1                    7493   	add	sp,	#4 
00:02BE 01-F0'00-00'             7494   	bl	__ftolu8sw
00:02C2 1E-F0                    7495   	pop	er0
00:02C4 02 E1                    7496   	add	sp,	#2 
00:02C6 13-90 22-F9              7497   	st	er0,	0f922h
                                 7498   
                                 7499   ;;	PWCD -= Mag_PIDOutput;
                                 7500   CLINEA 0000H 0001H 0950H 0002H 0017H
00:02CA 12-90 12-F9              7501   	l	er0,	0f912h
00:02CE 00 E2                    7502   	mov	er2,	#0 
00:02D0 6E-F0                    7503   	push	xr0
00:02D2 01-F0'00-00'             7504   	bl	__fuldu8sw
00:02D6 12-90 00-00'             7505   	l	er0,	NEAR _Mag_PIDOutput
00:02DA 12-92 00-00'             7506   	l	er2,	NEAR _Mag_PIDOutput+02h
00:02DE 6E-F0                    7507   	push	xr0
00:02E0 01-F0'00-00'             7508   	bl	__fsubu8sw
00:02E4 04 E1                    7509   	add	sp,	#4 
00:02E6 01-F0'00-00'             7510   	bl	__ftolu8sw
00:02EA 1E-F0                    7511   	pop	er0
00:02EC 02 E1                    7512   	add	sp,	#2 
00:02EE 13-90 12-F9              7513   	st	er0,	0f912h
                                 7514   
                                 7515   ;;	CheckSafetyLimit();
                                 7516   CLINEA 0000H 0001H 0951H 0002H 0014H
00:02F2 01-F0'00-00'             7517   	bl	_CheckSafetyLimit
                                 7518   CBLOCKEND 237 3 2412
                                 7519   
                                 7520   ;;	PFRUN = 1;	//Turn ON PWM
                                 7521   CLINEA 0000H 0001H 0952H 0002H 0019H
00:02F6 80-A0 73-F9              7522   	sb	0f973h.0
                                 7523   
                                 7524   ;;	PERUN = 1;
                                 7525   CLINEA 0000H 0001H 0953H 0002H 000BH
00:02FA 80-A0 37-F9              7526   	sb	0f937h.0
                                 7527   
                                 7528   ;;	PDRUN = 1;
                                 7529   CLINEA 0000H 0001H 0954H 0002H 000BH
00:02FE 80-A0 27-F9              7530   	sb	0f927h.0
                                 7531   
                                 7532   ;;	PCRUN = 1;
                                 7533   CLINEA 0000H 0001H 0955H 0002H 000BH
00:0302 80-A0 17-F9              7534   	sb	0f917h.0
                                 7535   
                                 7536   ;;	for(i = 0; i<150; i++)
                                 7537   CLINEA 0000H 0001H 0959H 0002H 0017H
00:0306 00 E0                    7538   	mov	er0,	#0 
00:0308                          7539   _$L497 :
                                 7540   CBLOCK 237 9 2394
                                 7541   
                                 7542   ;;		SensorReturn[i] = 0x20;
                                 7543   CLINEA 0000H 0001H 095BH 0003H 0019H
00:0308 20 02                    7544   	mov	r2,	#020h
00:030A 09-92 00-00'             7545   	st	r2,	NEAR _SensorReturn[er0]
                                 7546   CBLOCKEND 237 9 2396
                                 7547   
                                 7548   ;;	for(i = 0; i<150; i++)
                                 7549   CLINEA 0000H 0000H 0959H 0002H 0017H
00:030E 81 E0                    7550   	add	er0,	#1 
                                 7551   
                                 7552   ;;	for(i = 0; i<150; i++)
                                 7553   CLINEA 0000H 0000H 0959H 000EH 0013H
00:0310 96 70                    7554   	cmp	r0,	#096h
00:0312 00 51                    7555   	cmpc	r1,	#00h
00:0314 F9 C5                    7556   	blts	_$L497
                                 7557   
                                 7558   ;;	sprintf(SensorReturn, "%f,%f,%f,%f", Mag_Angle, Mag_PIDOutput, Mag_PID_kd, Mag_PID_kp);
                                 7559   CLINEA 0000H 0001H 095FH 0002H 0058H
00:0316 12-90 00-00'             7560   	l	er0,	NEAR _Mag_PID_kp
00:031A 12-92 00-00'             7561   	l	er2,	NEAR _Mag_PID_kp+02h
00:031E 6E-F0                    7562   	push	xr0
00:0320 FC E1                    7563   	add	sp,	#-4
00:0322 01-F0'00-00'             7564   	bl	__ftodu8sw
00:0326 12-90 00-00'             7565   	l	er0,	NEAR _Mag_PID_kd
00:032A 12-92 00-00'             7566   	l	er2,	NEAR _Mag_PID_kd+02h
00:032E 6E-F0                    7567   	push	xr0
00:0330 FC E1                    7568   	add	sp,	#-4
00:0332 01-F0'00-00'             7569   	bl	__ftodu8sw
00:0336 12-90 00-00'             7570   	l	er0,	NEAR _Mag_PIDOutput
00:033A 12-92 00-00'             7571   	l	er2,	NEAR _Mag_PIDOutput+02h
00:033E 6E-F0                    7572   	push	xr0
00:0340 FC E1                    7573   	add	sp,	#-4
00:0342 01-F0'00-00'             7574   	bl	__ftodu8sw
00:0346 12-90 00-00'             7575   	l	er0,	NEAR _Mag_Angle
00:034A 12-92 00-00'             7576   	l	er2,	NEAR _Mag_Angle+02h
00:034E 6E-F0                    7577   	push	xr0
00:0350 FC E1                    7578   	add	sp,	#-4
00:0352 01-F0'00-00'             7579   	bl	__ftodu8sw
00:0356 00'00                    7580   	mov	r0,	#BYTE1 OFFSET $$S501
00:0358 00'01                    7581   	mov	r1,	#BYTE2 OFFSET $$S501
00:035A 5E-F0                    7582   	push	er0
00:035C 00'00                    7583   	mov	r0,	#BYTE1 OFFSET _SensorReturn
00:035E 00'01                    7584   	mov	r1,	#BYTE2 OFFSET _SensorReturn
00:0360 5E-F0                    7585   	push	er0
00:0362 01-F0'00-00'             7586   	bl	_sprintf_nn
00:0366 24 E1                    7587   	add	sp,	#36
                                 7588   
                                 7589   ;;	SensorReturn[148] = 0x0D;
                                 7590   CLINEA 0000H 0001H 0961H 0002H 001AH
00:0368 0D 00                    7591   	mov	r0,	#0dh
00:036A 11-90 00-00'             7592   	st	r0,	NEAR _SensorReturn+094h
                                 7593   
                                 7594   ;;	SensorReturn[149] = 0x0A;
                                 7595   CLINEA 0000H 0001H 0962H 0002H 001AH
00:036E 0A 00                    7596   	mov	r0,	#0ah
00:0370 11-90 00-00'             7597   	st	r0,	NEAR _SensorReturn+095h
                                 7598   
                                 7599   ;;	_flgUartFin = 0;
                                 7600   CLINEA 0000H 0001H 0965H 0002H 0011H
00:0374 00 00                    7601   	mov	r0,	#00h
00:0376 11-90 00-00'             7602   	st	r0,	NEAR __flgUartFin
                                 7603   
                                 7604   ;;	uart_stop();
                                 7605   CLINEA 0000H 0001H 0966H 0002H 000DH
00:037A 01-F0'00-00'             7606   	bl	_uart_stop
                                 7607   
                                 7608   ;;	uart_startSend(SensorReturn, 150, _funcUartFin);
                                 7609   CLINEA 0000H 0001H 0967H 0002H 0031H
00:037E 00'00                    7610   	mov	r0,	#BYTE1 OFFSET __funcUartFin
00:0380 00'01                    7611   	mov	r1,	#BYTE2 OFFSET __funcUartFin
00:0382 5E-F0                    7612   	push	er0
00:0384 96 02                    7613   	mov	r2,	#096h
00:0386 00 03                    7614   	mov	r3,	#00h
00:0388 00'00                    7615   	mov	r0,	#BYTE1 OFFSET _SensorReturn
00:038A 00'01                    7616   	mov	r1,	#BYTE2 OFFSET _SensorReturn
00:038C 01-F0'00-00'             7617   	bl	_uart_startSend
00:0390 02 E1                    7618   	add	sp,	#2 
                                 7619   
                                 7620   ;;	while(_flgUartFin != 1){
                                 7621   CLINEA 0000H 0000H 0968H 0001H 0001H
00:0392 04 CE                    7622   	bal	_$L506
                                 7623   
                                 7624   ;;	while(_flgUartFin != 1){
                                 7625   CLINEA 0000H 0000H 0968H 0002H 0019H
00:0394                          7626   _$L504 :
                                 7627   CBLOCK 237 10 2408
                                 7628   
                                 7629   ;;		NOP1000();
                                 7630   CLINEA 0000H 0001H 0969H 0003H 000CH
00:0394 01-F0'00-00'             7631   	bl	_NOP1000
                                 7632   
                                 7633   ;;		main_clrWDT();
                                 7634   CLINEA 0000H 0001H 096AH 0003H 0010H
00:0398 01-F0'00-00'             7635   	bl	_main_clrWDT
                                 7636   CBLOCKEND 237 10 2411
                                 7637   
                                 7638   ;;	while(_flgUartFin != 1){
                                 7639   CLINEA 0000H 0000H 0968H 0001H 0001H
00:039C                          7640   _$L506 :
                                 7641   
                                 7642   ;;	while(_flgUartFin != 1){
                                 7643   CLINEA 0000H 0000H 0968H 000EH 0013H
00:039C 10-90 00-00'             7644   	l	r0,	NEAR __flgUartFin
00:03A0 01 70                    7645   	cmp	r0,	#01h
00:03A2 F8 C8                    7646   	bne	_$L504
                                 7647   CBLOCKEND 237 2 2412
                                 7648   
                                 7649   ;;}
                                 7650   CLINEA 0000H 0001H 096CH 0001H 0001H
00:03A4 2E-F4                    7651   	pop	xr4
00:03A6 8E-F2                    7652   	pop	pc
                                 7653   CBLOCKEND 237 1 2412
                                 7654   CFUNCTIONEND 237
                                 7655   
                                 7656   
  --------------------------     7657   	rseg $$AccelSensorControlPID_P$main
                                 7658   CFUNCTION 238
                                 7659   
00:0000                          7660   _AccelSensorControlPID_P	:
                                 7661   CBLOCK 238 1 2414
                                 7662   
                                 7663   ;;void AccelSensorControlPID_P(void){
                                 7664   CLINEA 0000H 0001H 096EH 0001H 0023H
00:0000 CE-F8                    7665   	push	lr
00:0002 6E-F4                    7666   	push	xr4
                                 7667   CBLOCK 238 2 2414
                                 7668   CRET 0004H
                                 7669   CLOCAL 4BH 0002H 0000H 0002H "i" 02H 00H 01H
                                 7670   CSLOCAL 43H 0004H 0003H 0002H "Accel_PID_XRollOutput" 02H 00H 03H
                                 7671   CSLOCAL 43H 0004H 0004H 0002H "Accel_PID_YPitchOutput" 02H 00H 03H
                                 7672   
                                 7673   ;;		Accel_PID_XRollError = -CF_XRoll;	//Setpoint - Error (in this case setpoint is 0)
                                 7674   CLINEA 0000H 0001H 0983H 0003H 0053H
00:0004 12-90 00-00'             7675   	l	er0,	NEAR _CF_XRoll
00:0008 12-92 00-00'             7676   	l	er2,	NEAR _CF_XRoll+02h
00:000C 6E-F0                    7677   	push	xr0
00:000E 01-F0'00-00'             7678   	bl	__fnegu8sw
00:0012 2E-F0                    7679   	pop	xr0
00:0014 13-90 00-00'             7680   	st	er0,	NEAR _Accel_PID_XRollError
00:0018 13-92 00-00'             7681   	st	er2,	NEAR _Accel_PID_XRollError+02h
                                 7682   
                                 7683   ;;		testP = Accel_PID_XRollOutput;
                                 7684   CLINEA 0000H 0001H 098DH 0003H 0020H
00:001C 6E-F0                    7685   	push	xr0
00:001E 12-90 00-00'             7686   	l	er0,	NEAR _Accel_PID_XRoll_kp
00:0022 12-92 00-00'             7687   	l	er2,	NEAR _Accel_PID_XRoll_kp+02h
00:0026 6E-F0                    7688   	push	xr0
00:0028 01-F0'00-00'             7689   	bl	__fmulu8sw
00:002C 04 E1                    7690   	add	sp,	#4 
00:002E 2E-F0                    7691   	pop	xr0
00:0030 6E-F0                    7692   	push	xr0
00:0032 01-F0'00-00'             7693   	bl	__ftolu8sw
00:0036 1E-F4                    7694   	pop	er4
00:0038 02 E1                    7695   	add	sp,	#2 
00:003A 13-94 00-00'             7696   	st	er4,	NEAR _testP
                                 7697   
                                 7698   ;;		Accel_PID_XRollOutput += (Accel_PID_XRoll_ki*Accel_PID_XRollErrSum);
                                 7699   CLINEA 0000H 0001H 098EH 0003H 0046H
00:003E 12-94 00-00'             7700   	l	er4,	NEAR _Accel_PID_XRollErrSum
00:0042 12-96 00-00'             7701   	l	er6,	NEAR _Accel_PID_XRollErrSum+02h
00:0046 6E-F4                    7702   	push	xr4
00:0048 12-94 00-00'             7703   	l	er4,	NEAR _Accel_PID_XRoll_ki
00:004C 12-96 00-00'             7704   	l	er6,	NEAR _Accel_PID_XRoll_ki+02h
00:0050 6E-F4                    7705   	push	xr4
00:0052 01-F0'00-00'             7706   	bl	__fmulu8sw
00:0056 04 E1                    7707   	add	sp,	#4 
00:0058 2E-F4                    7708   	pop	xr4
00:005A 6E-F0                    7709   	push	xr0
00:005C 6E-F4                    7710   	push	xr4
00:005E 01-F0'00-00'             7711   	bl	__faddu8sw
00:0062 04 E1                    7712   	add	sp,	#4 
00:0064 2E-F0                    7713   	pop	xr0
00:0066 13-90 00-00'             7714   	st	er0,	NEAR _$ST3
00:006A 13-92 00-00'             7715   	st	er2,	NEAR _$ST3+02h
                                 7716   
                                 7717   ;;		Accel_PID_YPitchError = -CF_YPitch;		//Setpoint - Error (in this case setpoint is 0)
                                 7718   CLINEA 0000H 0001H 0993H 0003H 0056H
00:006E 12-90 00-00'             7719   	l	er0,	NEAR _CF_YPitch
00:0072 12-92 00-00'             7720   	l	er2,	NEAR _CF_YPitch+02h
00:0076 6E-F0                    7721   	push	xr0
00:0078 01-F0'00-00'             7722   	bl	__fnegu8sw
00:007C 2E-F0                    7723   	pop	xr0
00:007E 13-90 00-00'             7724   	st	er0,	NEAR _Accel_PID_YPitchError
00:0082 13-92 00-00'             7725   	st	er2,	NEAR _Accel_PID_YPitchError+02h
                                 7726   
                                 7727   ;;		Accel_PID_YPitchOutput = (Accel_PID_YPitch_kp*Accel_PID_YPitchError) + (Accel_PID_YPitch_ki*Accel_PID_YPitchErrSum);
                                 7728   CLINEA 0000H 0001H 099EH 0003H 0076H
00:0086 6E-F0                    7729   	push	xr0
00:0088 12-90 00-00'             7730   	l	er0,	NEAR _Accel_PID_YPitch_kp
00:008C 12-92 00-00'             7731   	l	er2,	NEAR _Accel_PID_YPitch_kp+02h
00:0090 6E-F0                    7732   	push	xr0
00:0092 01-F0'00-00'             7733   	bl	__fmulu8sw
00:0096 04 E1                    7734   	add	sp,	#4 
00:0098 2E-F0                    7735   	pop	xr0
00:009A 12-94 00-00'             7736   	l	er4,	NEAR _Accel_PID_YPitchErrSum
00:009E 12-96 00-00'             7737   	l	er6,	NEAR _Accel_PID_YPitchErrSum+02h
00:00A2 6E-F4                    7738   	push	xr4
00:00A4 12-94 00-00'             7739   	l	er4,	NEAR _Accel_PID_YPitch_ki
00:00A8 12-96 00-00'             7740   	l	er6,	NEAR _Accel_PID_YPitch_ki+02h
00:00AC 6E-F4                    7741   	push	xr4
00:00AE 01-F0'00-00'             7742   	bl	__fmulu8sw
00:00B2 04 E1                    7743   	add	sp,	#4 
00:00B4 2E-F4                    7744   	pop	xr4
00:00B6 6E-F0                    7745   	push	xr0
00:00B8 6E-F4                    7746   	push	xr4
00:00BA 01-F0'00-00'             7747   	bl	__faddu8sw
00:00BE 04 E1                    7748   	add	sp,	#4 
00:00C0 2E-F0                    7749   	pop	xr0
00:00C2 13-90 00-00'             7750   	st	er0,	NEAR _$ST4
00:00C6 13-92 00-00'             7751   	st	er2,	NEAR _$ST4+02h
                                 7752   
                                 7753   ;;		if(PrePIDCount >= 10){
                                 7754   CLINEA 0000H 0001H 09A0H 0003H 0018H
00:00CA 10-90 00-00'             7755   	l	r0,	NEAR _PrePIDCount
00:00CE 0A 70                    7756   	cmp	r0,	#0ah
00:00D0 02 C0                    7757   	bge	_$M38
00:00D2 00-F0'00-00'             7758   	b	_$L515
00:00D6                          7759   _$M38 :
                                 7760   CBLOCK 238 3 2464
                                 7761   
                                 7762   ;;			if(Accel_PID_XRollError > 0){
                                 7763   CLINEA 0000H 0001H 09A1H 0004H 0020H
00:00D6 12-90 00-00'             7764   	l	er0,	NEAR _Accel_PID_XRollError
00:00DA 12-92 00-00'             7765   	l	er2,	NEAR _Accel_PID_XRollError+02h
00:00DE 6E-F0                    7766   	push	xr0
00:00E0 00 E0                    7767   	mov	er0,	#0 
00:00E2 00 E2                    7768   	mov	er2,	#0 
00:00E4 6E-F0                    7769   	push	xr0
00:00E6 01-F0'00-00'             7770   	bl	__fcmpu8sw
00:00EA 08 E1                    7771   	add	sp,	#8 
00:00EC 0B-A0                    7772   	mov	psw,	r0
00:00EE 2B C3                    7773   	ble	_$L510
                                 7774   CBLOCK 238 4 2465
                                 7775   
                                 7776   ;;				PERUN = 0;
                                 7777   CLINEA 0000H 0001H 09A3H 0005H 000EH
00:00F0 82-A0 37-F9              7778   	rb	0f937h.0
                                 7779   
                                 7780   ;;				PDRUN = 0;
                                 7781   CLINEA 0000H 0001H 09A4H 0005H 000EH
00:00F4 82-A0 27-F9              7782   	rb	0f927h.0
                                 7783   
                                 7784   ;;				PWED = PWMIdleDutyRun + Accel_PID_XRollOutput + PWMtoRPMOffset_Mot2;	
                                 7785   CLINEA 0000H 0001H 09A7H 0005H 0049H
00:00F8 12-90 00-00'             7786   	l	er0,	NEAR _PWMIdleDutyRun
00:00FC 00 E2                    7787   	mov	er2,	#0 
00:00FE 6E-F0                    7788   	push	xr0
00:0100 01-F0'00-00'             7789   	bl	__fuldu8sw
00:0104 12-90 00-00'             7790   	l	er0,	NEAR _$ST3
00:0108 12-92 00-00'             7791   	l	er2,	NEAR _$ST3+02h
00:010C 6E-F0                    7792   	push	xr0
00:010E 01-F0'00-00'             7793   	bl	__faddu8sw
00:0112 04 E1                    7794   	add	sp,	#4 
00:0114 2E-F4                    7795   	pop	xr4
00:0116 12-90 00-00'             7796   	l	er0,	NEAR _PWMtoRPMOffset_Mot2
00:011A 00 E2                    7797   	mov	er2,	#0 
00:011C 6E-F0                    7798   	push	xr0
00:011E 01-F0'00-00'             7799   	bl	__fuldu8sw
00:0122 2E-F0                    7800   	pop	xr0
00:0124 7E-F0                    7801   	push	qr0
00:0126 01-F0'00-00'             7802   	bl	__faddu8sw
00:012A 04 E1                    7803   	add	sp,	#4 
00:012C 01-F0'00-00'             7804   	bl	__ftolu8sw
00:0130 1E-F0                    7805   	pop	er0
00:0132 02 E1                    7806   	add	sp,	#2 
00:0134 13-90 32-F9              7807   	st	er0,	0f932h
                                 7808   
                                 7809   ;;				PWDD = PWMIdleDutyRun;
                                 7810   CLINEA 0000H 0001H 09AAH 0005H 001AH
00:0138 12-90 00-00'             7811   	l	er0,	NEAR _PWMIdleDutyRun
00:013C 13-90 22-F9              7812   	st	er0,	0f922h
                                 7813   
                                 7814   ;;				CheckSafetyLimit();
                                 7815   CLINEA 0000H 0001H 09ABH 0005H 0017H
00:0140 01-F0'00-00'             7816   	bl	_CheckSafetyLimit
                                 7817   
                                 7818   ;;				PDRUN = 1;
                                 7819   CLINEA 0000H 0001H 09AEH 0005H 000EH
                                 7820   CBLOCKEND 238 4 2480
                                 7821   
                                 7822   ;;			else{
                                 7823   CLINEA 0000H 0001H 09B1H 0004H 0008H
00:0144 28 CE                    7824   	bal	_$L512
00:0146                          7825   _$L510 :
                                 7826   CBLOCK 238 5 2481
                                 7827   
                                 7828   ;;				PERUN = 0;
                                 7829   CLINEA 0000H 0001H 09B3H 0005H 000EH
00:0146 82-A0 37-F9              7830   	rb	0f937h.0
                                 7831   
                                 7832   ;;				PDRUN = 0;
                                 7833   CLINEA 0000H 0001H 09B4H 0005H 000EH
00:014A 82-A0 27-F9              7834   	rb	0f927h.0
                                 7835   
                                 7836   ;;				PWED = PWMIdleDutyRun;	
                                 7837   CLINEA 0000H 0001H 09B7H 0005H 001BH
00:014E 12-90 00-00'             7838   	l	er0,	NEAR _PWMIdleDutyRun
00:0152 13-90 32-F9              7839   	st	er0,	0f932h
                                 7840   
                                 7841   ;;				PWDD = PWMIdleDutyRun - Accel_PID_XRollOutput + PWMtoRPMOffset_Mot4;
                                 7842   CLINEA 0000H 0001H 09B9H 0005H 0048H
00:0156 00 E2                    7843   	mov	er2,	#0 
00:0158 6E-F0                    7844   	push	xr0
00:015A 01-F0'00-00'             7845   	bl	__fuldu8sw
00:015E 12-90 00-00'             7846   	l	er0,	NEAR _$ST3
00:0162 12-92 00-00'             7847   	l	er2,	NEAR _$ST3+02h
00:0166 6E-F0                    7848   	push	xr0
00:0168 01-F0'00-00'             7849   	bl	__fsubu8sw
00:016C 04 E1                    7850   	add	sp,	#4 
00:016E 2E-F4                    7851   	pop	xr4
00:0170 12-90 00-00'             7852   	l	er0,	NEAR _PWMtoRPMOffset_Mot4
00:0174 00 E2                    7853   	mov	er2,	#0 
00:0176 6E-F0                    7854   	push	xr0
00:0178 01-F0'00-00'             7855   	bl	__fuldu8sw
00:017C 2E-F0                    7856   	pop	xr0
00:017E 7E-F0                    7857   	push	qr0
00:0180 01-F0'00-00'             7858   	bl	__faddu8sw
00:0184 04 E1                    7859   	add	sp,	#4 
00:0186 01-F0'00-00'             7860   	bl	__ftolu8sw
00:018A 1E-F0                    7861   	pop	er0
00:018C 02 E1                    7862   	add	sp,	#2 
00:018E 13-90 22-F9              7863   	st	er0,	0f922h
                                 7864   
                                 7865   ;;				CheckSafetyLimit();
                                 7866   CLINEA 0000H 0001H 09BAH 0005H 0017H
00:0192 01-F0'00-00'             7867   	bl	_CheckSafetyLimit
                                 7868   
                                 7869   ;;				PDRUN = 1;
                                 7870   CLINEA 0000H 0001H 09BDH 0005H 000EH
                                 7871   CBLOCKEND 238 5 2495
                                 7872   
                                 7873   ;;			}
                                 7874   CLINEA 0000H 0000H 09BFH 0004H 0004H
00:0196                          7875   _$L512 :
00:0196 80-A0 37-F9              7876   	sb	0f937h.0
00:019A 80-A0 27-F9              7877   	sb	0f927h.0
                                 7878   
                                 7879   ;;			if(Accel_PID_YPitchError > 0){
                                 7880   CLINEA 0000H 0001H 09C0H 0004H 0021H
00:019E 12-90 00-00'             7881   	l	er0,	NEAR _Accel_PID_YPitchError
00:01A2 12-92 00-00'             7882   	l	er2,	NEAR _Accel_PID_YPitchError+02h
00:01A6 6E-F0                    7883   	push	xr0
00:01A8 00 E0                    7884   	mov	er0,	#0 
00:01AA 00 E2                    7885   	mov	er2,	#0 
00:01AC 6E-F0                    7886   	push	xr0
00:01AE 01-F0'00-00'             7887   	bl	__fcmpu8sw
00:01B2 08 E1                    7888   	add	sp,	#8 
00:01B4 0B-A0                    7889   	mov	psw,	r0
00:01B6 23 C3                    7890   	ble	_$L513
                                 7891   CBLOCK 238 6 2496
                                 7892   
                                 7893   ;;				PFRUN = 0;	//Turn OFF PWM
                                 7894   CLINEA 0000H 0001H 09C1H 0005H 001DH
00:01B8 82-A0 73-F9              7895   	rb	0f973h.0
                                 7896   
                                 7897   ;;				PCRUN = 0;
                                 7898   CLINEA 0000H 0001H 09C4H 0005H 000EH
00:01BC 82-A0 17-F9              7899   	rb	0f917h.0
                                 7900   
                                 7901   ;;				PWF0D = PWMIdleDutyRun + Accel_PID_YPitchOutput; 		//Can't be running to change (Only this variable)
                                 7902   CLINEA 0000H 0001H 09C5H 0005H 0068H
00:01C0 12-90 00-00'             7903   	l	er0,	NEAR _PWMIdleDutyRun
00:01C4 00 E2                    7904   	mov	er2,	#0 
00:01C6 6E-F0                    7905   	push	xr0
00:01C8 01-F0'00-00'             7906   	bl	__fuldu8sw
00:01CC 12-90 00-00'             7907   	l	er0,	NEAR _$ST4
00:01D0 12-92 00-00'             7908   	l	er2,	NEAR _$ST4+02h
00:01D4 6E-F0                    7909   	push	xr0
00:01D6 01-F0'00-00'             7910   	bl	__faddu8sw
00:01DA 04 E1                    7911   	add	sp,	#4 
00:01DC 01-F0'00-00'             7912   	bl	__ftolu8sw
00:01E0 1E-F0                    7913   	pop	er0
00:01E2 02 E1                    7914   	add	sp,	#2 
00:01E4 13-90 62-F9              7915   	st	er0,	0f962h
                                 7916   
                                 7917   ;;				PWCD = PWMIdleDutyRun;	
                                 7918   CLINEA 0000H 0001H 09C7H 0005H 001BH
00:01E8 12-90 00-00'             7919   	l	er0,	NEAR _PWMIdleDutyRun
00:01EC 13-90 12-F9              7920   	st	er0,	0f912h
                                 7921   
                                 7922   ;;				CheckSafetyLimit();
                                 7923   CLINEA 0000H 0001H 09C9H 0005H 0017H
00:01F0 01-F0'00-00'             7924   	bl	_CheckSafetyLimit
                                 7925   
                                 7926   ;;				PFRUN = 1;	//Turn ON PWM
                                 7927   CLINEA 0000H 0001H 09CAH 0005H 001CH
00:01F4 80-A0 73-F9              7928   	sb	0f973h.0
                                 7929   
                                 7930   ;;				PCRUN = 1;
                                 7931   CLINEA 0000H 0001H 09CDH 0005H 000EH
00:01F8 80-A0 17-F9              7932   	sb	0f917h.0
                                 7933   CBLOCKEND 238 6 2510
                                 7934   
                                 7935   ;;			else{
                                 7936   CLINEA 0000H 0001H 09CFH 0004H 0008H
00:01FC 2C CE                    7937   	bal	_$L515
00:01FE                          7938   _$L513 :
                                 7939   CBLOCK 238 7 2511
                                 7940   
                                 7941   ;;				PFRUN = 0;	//Turn OFF PWM
                                 7942   CLINEA 0000H 0001H 09D0H 0005H 001DH
00:01FE 82-A0 73-F9              7943   	rb	0f973h.0
                                 7944   
                                 7945   ;;				PCRUN = 0;
                                 7946   CLINEA 0000H 0001H 09D3H 0005H 000EH
00:0202 82-A0 17-F9              7947   	rb	0f917h.0
                                 7948   
                                 7949   ;;				PWF0D = PWMIdleDutyRun; 		//Can't be running to change (Only this variable)
                                 7950   CLINEA 0000H 0001H 09D4H 0005H 004FH
00:0206 12-90 00-00'             7951   	l	er0,	NEAR _PWMIdleDutyRun
00:020A 13-90 62-F9              7952   	st	er0,	0f962h
                                 7953   
                                 7954   ;;				PWCD = PWMIdleDutyRun - Accel_PID_YPitchOutput + PWMtoRPMOffset_Mot3;	
                                 7955   CLINEA 0000H 0001H 09D6H 0005H 004AH
00:020E 00 E2                    7956   	mov	er2,	#0 
00:0210 6E-F0                    7957   	push	xr0
00:0212 01-F0'00-00'             7958   	bl	__fuldu8sw
00:0216 12-90 00-00'             7959   	l	er0,	NEAR _$ST4
00:021A 12-92 00-00'             7960   	l	er2,	NEAR _$ST4+02h
00:021E 6E-F0                    7961   	push	xr0
00:0220 01-F0'00-00'             7962   	bl	__fsubu8sw
00:0224 04 E1                    7963   	add	sp,	#4 
00:0226 2E-F4                    7964   	pop	xr4
00:0228 12-90 00-00'             7965   	l	er0,	NEAR _PWMtoRPMOffset_Mot3
00:022C 00 E2                    7966   	mov	er2,	#0 
00:022E 6E-F0                    7967   	push	xr0
00:0230 01-F0'00-00'             7968   	bl	__fuldu8sw
00:0234 2E-F0                    7969   	pop	xr0
00:0236 7E-F0                    7970   	push	qr0
00:0238 01-F0'00-00'             7971   	bl	__faddu8sw
00:023C 04 E1                    7972   	add	sp,	#4 
00:023E 01-F0'00-00'             7973   	bl	__ftolu8sw
00:0242 1E-F0                    7974   	pop	er0
00:0244 02 E1                    7975   	add	sp,	#2 
00:0246 13-90 12-F9              7976   	st	er0,	0f912h
                                 7977   
                                 7978   ;;				CheckSafetyLimit();
                                 7979   CLINEA 0000H 0001H 09D8H 0005H 0017H
00:024A 01-F0'00-00'             7980   	bl	_CheckSafetyLimit
                                 7981   
                                 7982   ;;				PFRUN = 1;	//Turn ON PWM
                                 7983   CLINEA 0000H 0001H 09D9H 0005H 001CH
00:024E 80-A0 73-F9              7984   	sb	0f973h.0
                                 7985   
                                 7986   ;;				PCRUN = 1;
                                 7987   CLINEA 0000H 0001H 09DCH 0005H 000EH
00:0252 80-A0 17-F9              7988   	sb	0f917h.0
                                 7989   CBLOCKEND 238 7 2525
                                 7990   
                                 7991   ;;			}
                                 7992   CLINEA 0000H 0000H 09DDH 0004H 0004H
00:0256                          7993   _$L515 :
                                 7994   CBLOCKEND 238 3 2526
                                 7995   CBLOCKEND 238 2 2555
                                 7996   
                                 7997   ;;}
                                 7998   CLINEA 0000H 0001H 09FBH 0001H 0001H
00:0256 2E-F4                    7999   	pop	xr4
00:0258 8E-F2                    8000   	pop	pc
                                 8001   CBLOCKEND 238 1 2555
                                 8002   CFUNCTIONEND 238
                                 8003   
                                 8004   
  --------------------------     8005   	rseg $$AccelSensorControlPID_I$main
                                 8006   CFUNCTION 239
                                 8007   
00:0000                          8008   _AccelSensorControlPID_I	:
                                 8009   CBLOCK 239 1 2557
                                 8010   
                                 8011   ;;void AccelSensorControlPID_I(void){
                                 8012   CLINEA 0000H 0001H 09FDH 0001H 0023H
00:0000 CE-F8                    8013   	push	lr
00:0002 6E-F4                    8014   	push	xr4
                                 8015   CBLOCK 239 2 2557
                                 8016   CRET 0004H
                                 8017   CLOCAL 4BH 0002H 0000H 0002H "i" 02H 00H 01H
                                 8018   CSLOCAL 43H 0004H 0005H 0002H "Accel_PID_XRollCurrentCount" 02H 00H 03H
                                 8019   CSLOCAL 43H 0004H 0006H 0002H "Accel_PID_XRollOutput" 02H 00H 03H
                                 8020   CSLOCAL 43H 0004H 0007H 0002H "Accel_PID_YPitchCurrentCount" 02H 00H 03H
                                 8021   CSLOCAL 43H 0004H 0008H 0002H "Accel_PID_YPitchOutput" 02H 00H 03H
                                 8022   
                                 8023   ;;		Accel_PID_XRollCurrentCount = Accel_PID_XRollCounter_I * .001;	//Timer in Seconds
                                 8024   CLINEA 0000H 0001H 0A12H 0003H 0053H
00:0004 12-90 00-00'             8025   	l	er0,	NEAR _Accel_PID_XRollCounter_I
00:0008 00 E2                    8026   	mov	er2,	#0 
00:000A 6E-F0                    8027   	push	xr0
00:000C FC E1                    8028   	add	sp,	#-4
00:000E 01-F0'00-00'             8029   	bl	__dildu8sw
00:0012 FC 00                    8030   	mov	r0,	#0fch
00:0014 A9 01                    8031   	mov	r1,	#0a9h
00:0016 F1 02                    8032   	mov	r2,	#0f1h
00:0018 D2 03                    8033   	mov	r3,	#0d2h
00:001A 4D 04                    8034   	mov	r4,	#04dh
00:001C 62 05                    8035   	mov	r5,	#062h
00:001E 50 06                    8036   	mov	r6,	#050h
00:0020 3F 07                    8037   	mov	r7,	#03fh
00:0022 7E-F0                    8038   	push	qr0
00:0024 01-F0'00-00'             8039   	bl	__dmulu8sw
00:0028 08 E1                    8040   	add	sp,	#8 
00:002A 01-F0'00-00'             8041   	bl	__dtofu8sw
00:002E 04 E1                    8042   	add	sp,	#4 
00:0030 2E-F0                    8043   	pop	xr0
00:0032 13-90 00-00'             8044   	st	er0,	NEAR _$ST5
00:0036 13-92 00-00'             8045   	st	er2,	NEAR _$ST5+02h
                                 8046   
                                 8047   ;;		Accel_PID_XRollCounter_I = 0;
                                 8048   CLINEA 0000H 0001H 0A13H 0003H 001FH
00:003A 00 E0                    8049   	mov	er0,	#0 
00:003C 13-90 00-00'             8050   	st	er0,	NEAR _Accel_PID_XRollCounter_I
                                 8051   
                                 8052   ;;		Accel_PID_XRollErrSum += (Accel_PID_XRollError * Accel_PID_XRollCurrentCount);
                                 8053   CLINEA 0000H 0001H 0A16H 0003H 0050H
00:0040 12-90 00-00'             8054   	l	er0,	NEAR _$ST5
00:0044 6E-F0                    8055   	push	xr0
00:0046 12-90 00-00'             8056   	l	er0,	NEAR _Accel_PID_XRollError
00:004A 12-92 00-00'             8057   	l	er2,	NEAR _Accel_PID_XRollError+02h
00:004E 6E-F0                    8058   	push	xr0
00:0050 01-F0'00-00'             8059   	bl	__fmulu8sw
00:0054 04 E1                    8060   	add	sp,	#4 
00:0056 12-90 00-00'             8061   	l	er0,	NEAR _Accel_PID_XRollErrSum
00:005A 12-92 00-00'             8062   	l	er2,	NEAR _Accel_PID_XRollErrSum+02h
00:005E 6E-F0                    8063   	push	xr0
00:0060 01-F0'00-00'             8064   	bl	__faddu8sw
00:0064 04 E1                    8065   	add	sp,	#4 
00:0066 2E-F0                    8066   	pop	xr0
00:0068 13-90 00-00'             8067   	st	er0,	NEAR _Accel_PID_XRollErrSum
00:006C 13-92 00-00'             8068   	st	er2,	NEAR _Accel_PID_XRollErrSum+02h
                                 8069   
                                 8070   ;;		testI = (Accel_PID_XRoll_ki*Accel_PID_XRollErrSum);
                                 8071   CLINEA 0000H 0001H 0A1AH 0003H 0035H
00:0070 6E-F0                    8072   	push	xr0
00:0072 12-90 00-00'             8073   	l	er0,	NEAR _Accel_PID_XRoll_ki
00:0076 12-92 00-00'             8074   	l	er2,	NEAR _Accel_PID_XRoll_ki+02h
00:007A 6E-F0                    8075   	push	xr0
00:007C 01-F0'00-00'             8076   	bl	__fmulu8sw
00:0080 04 E1                    8077   	add	sp,	#4 
00:0082 01-F0'00-00'             8078   	bl	__ftolu8sw
00:0086 1E-F0                    8079   	pop	er0
00:0088 02 E1                    8080   	add	sp,	#2 
00:008A 13-90 00-00'             8081   	st	er0,	NEAR _testI
                                 8082   
                                 8083   ;;		Accel_PID_XRollOutput += testI;
                                 8084   CLINEA 0000H 0001H 0A1BH 0003H 0021H
00:008E 12-94 00-00'             8085   	l	er4,	NEAR _Accel_PID_XRollError
00:0092 12-96 00-00'             8086   	l	er6,	NEAR _Accel_PID_XRollError+02h
00:0096 6E-F4                    8087   	push	xr4
00:0098 12-94 00-00'             8088   	l	er4,	NEAR _Accel_PID_XRoll_kp
00:009C 12-96 00-00'             8089   	l	er6,	NEAR _Accel_PID_XRoll_kp+02h
00:00A0 6E-F4                    8090   	push	xr4
00:00A2 01-F0'00-00'             8091   	bl	__fmulu8sw
00:00A6 04 E1                    8092   	add	sp,	#4 
00:00A8 2E-F4                    8093   	pop	xr4
00:00AA 10-82                    8094   	mov	r2,	r1
00:00AC 2F-83                    8095   	extbw	er2
00:00AE 30-82                    8096   	mov	r2,	r3
00:00B0 6E-F0                    8097   	push	xr0
00:00B2 01-F0'00-00'             8098   	bl	__fildu8sw
00:00B6 2E-F0                    8099   	pop	xr0
00:00B8 7E-F0                    8100   	push	qr0
00:00BA 01-F0'00-00'             8101   	bl	__faddu8sw
00:00BE 04 E1                    8102   	add	sp,	#4 
00:00C0 2E-F0                    8103   	pop	xr0
00:00C2 13-90 00-00'             8104   	st	er0,	NEAR _$ST6
00:00C6 13-92 00-00'             8105   	st	er2,	NEAR _$ST6+02h
                                 8106   
                                 8107   ;;		Accel_PID_YPitchCurrentCount = Accel_PID_YPitchCounter_I * .001;		//Timer in Seconds
                                 8108   CLINEA 0000H 0001H 0A20H 0003H 0056H
00:00CA 12-90 00-00'             8109   	l	er0,	NEAR _Accel_PID_YPitchCounter_I
00:00CE 00 E2                    8110   	mov	er2,	#0 
00:00D0 6E-F0                    8111   	push	xr0
00:00D2 FC E1                    8112   	add	sp,	#-4
00:00D4 01-F0'00-00'             8113   	bl	__dildu8sw
00:00D8 FC 00                    8114   	mov	r0,	#0fch
00:00DA A9 01                    8115   	mov	r1,	#0a9h
00:00DC F1 02                    8116   	mov	r2,	#0f1h
00:00DE D2 03                    8117   	mov	r3,	#0d2h
00:00E0 4D 04                    8118   	mov	r4,	#04dh
00:00E2 62 05                    8119   	mov	r5,	#062h
00:00E4 50 06                    8120   	mov	r6,	#050h
00:00E6 3F 07                    8121   	mov	r7,	#03fh
00:00E8 7E-F0                    8122   	push	qr0
00:00EA 01-F0'00-00'             8123   	bl	__dmulu8sw
00:00EE 08 E1                    8124   	add	sp,	#8 
00:00F0 01-F0'00-00'             8125   	bl	__dtofu8sw
00:00F4 04 E1                    8126   	add	sp,	#4 
00:00F6 2E-F0                    8127   	pop	xr0
00:00F8 13-90 00-00'             8128   	st	er0,	NEAR _$ST7
00:00FC 13-92 00-00'             8129   	st	er2,	NEAR _$ST7+02h
                                 8130   
                                 8131   ;;		Accel_PID_YPitchCounter_I = 0;
                                 8132   CLINEA 0000H 0001H 0A21H 0003H 0020H
00:0100 00 E0                    8133   	mov	er0,	#0 
00:0102 13-90 00-00'             8134   	st	er0,	NEAR _Accel_PID_YPitchCounter_I
                                 8135   
                                 8136   ;;		Accel_PID_YPitchErrSum += (Accel_PID_YPitchError * Accel_PID_YPitchCurrentCount);
                                 8137   CLINEA 0000H 0001H 0A25H 0003H 0053H
00:0106 12-90 00-00'             8138   	l	er0,	NEAR _$ST7
00:010A 6E-F0                    8139   	push	xr0
00:010C 12-90 00-00'             8140   	l	er0,	NEAR _Accel_PID_YPitchError
00:0110 12-92 00-00'             8141   	l	er2,	NEAR _Accel_PID_YPitchError+02h
00:0114 6E-F0                    8142   	push	xr0
00:0116 01-F0'00-00'             8143   	bl	__fmulu8sw
00:011A 04 E1                    8144   	add	sp,	#4 
00:011C 12-90 00-00'             8145   	l	er0,	NEAR _Accel_PID_YPitchErrSum
00:0120 12-92 00-00'             8146   	l	er2,	NEAR _Accel_PID_YPitchErrSum+02h
00:0124 6E-F0                    8147   	push	xr0
00:0126 01-F0'00-00'             8148   	bl	__faddu8sw
00:012A 04 E1                    8149   	add	sp,	#4 
00:012C 2E-F0                    8150   	pop	xr0
00:012E 13-90 00-00'             8151   	st	er0,	NEAR _Accel_PID_YPitchErrSum
00:0132 13-92 00-00'             8152   	st	er2,	NEAR _Accel_PID_YPitchErrSum+02h
                                 8153   
                                 8154   ;;		Accel_PID_YPitchOutput = (Accel_PID_YPitch_kp*Accel_PID_YPitchError) + (Accel_PID_YPitch_ki*Accel_PID_YPitchErrSum);
                                 8155   CLINEA 0000H 0001H 0A29H 0003H 0076H
00:0136 12-90 00-00'             8156   	l	er0,	NEAR _Accel_PID_YPitchError
00:013A 12-92 00-00'             8157   	l	er2,	NEAR _Accel_PID_YPitchError+02h
00:013E 6E-F0                    8158   	push	xr0
00:0140 12-90 00-00'             8159   	l	er0,	NEAR _Accel_PID_YPitch_kp
00:0144 12-92 00-00'             8160   	l	er2,	NEAR _Accel_PID_YPitch_kp+02h
00:0148 6E-F0                    8161   	push	xr0
00:014A 01-F0'00-00'             8162   	bl	__fmulu8sw
00:014E 04 E1                    8163   	add	sp,	#4 
00:0150 2E-F0                    8164   	pop	xr0
00:0152 12-94 00-00'             8165   	l	er4,	NEAR _Accel_PID_YPitchErrSum
00:0156 12-96 00-00'             8166   	l	er6,	NEAR _Accel_PID_YPitchErrSum+02h
00:015A 6E-F4                    8167   	push	xr4
00:015C 12-94 00-00'             8168   	l	er4,	NEAR _Accel_PID_YPitch_ki
00:0160 12-96 00-00'             8169   	l	er6,	NEAR _Accel_PID_YPitch_ki+02h
00:0164 6E-F4                    8170   	push	xr4
00:0166 01-F0'00-00'             8171   	bl	__fmulu8sw
00:016A 04 E1                    8172   	add	sp,	#4 
00:016C 2E-F4                    8173   	pop	xr4
00:016E 6E-F0                    8174   	push	xr0
00:0170 6E-F4                    8175   	push	xr4
00:0172 01-F0'00-00'             8176   	bl	__faddu8sw
00:0176 04 E1                    8177   	add	sp,	#4 
00:0178 2E-F0                    8178   	pop	xr0
00:017A 13-90 00-00'             8179   	st	er0,	NEAR _$ST8
00:017E 13-92 00-00'             8180   	st	er2,	NEAR _$ST8+02h
                                 8181   
                                 8182   ;;		if(PrePIDCount >= 10){
                                 8183   CLINEA 0000H 0001H 0A2BH 0003H 0018H
00:0182 10-90 00-00'             8184   	l	r0,	NEAR _PrePIDCount
00:0186 0A 70                    8185   	cmp	r0,	#0ah
00:0188 02 C0                    8186   	bge	_$M40
00:018A 00-F0'00-00'             8187   	b	_$L524
00:018E                          8188   _$M40 :
                                 8189   CBLOCK 239 3 2603
                                 8190   
                                 8191   ;;			if(Accel_PID_XRollError > 0){
                                 8192   CLINEA 0000H 0001H 0A2CH 0004H 0020H
00:018E 12-90 00-00'             8193   	l	er0,	NEAR _Accel_PID_XRollError
00:0192 12-92 00-00'             8194   	l	er2,	NEAR _Accel_PID_XRollError+02h
00:0196 6E-F0                    8195   	push	xr0
00:0198 00 E0                    8196   	mov	er0,	#0 
00:019A 00 E2                    8197   	mov	er2,	#0 
00:019C 6E-F0                    8198   	push	xr0
00:019E 01-F0'00-00'             8199   	bl	__fcmpu8sw
00:01A2 08 E1                    8200   	add	sp,	#8 
00:01A4 0B-A0                    8201   	mov	psw,	r0
00:01A6 2B C3                    8202   	ble	_$L519
                                 8203   CBLOCK 239 4 2604
                                 8204   
                                 8205   ;;				PERUN = 0;
                                 8206   CLINEA 0000H 0001H 0A2EH 0005H 000EH
00:01A8 82-A0 37-F9              8207   	rb	0f937h.0
                                 8208   
                                 8209   ;;				PDRUN = 0;
                                 8210   CLINEA 0000H 0001H 0A2FH 0005H 000EH
00:01AC 82-A0 27-F9              8211   	rb	0f927h.0
                                 8212   
                                 8213   ;;				PWED = PWMIdleDutyRun + Accel_PID_XRollOutput + PWMtoRPMOffset_Mot2;	
                                 8214   CLINEA 0000H 0001H 0A32H 0005H 0049H
00:01B0 12-90 00-00'             8215   	l	er0,	NEAR _PWMIdleDutyRun
00:01B4 00 E2                    8216   	mov	er2,	#0 
00:01B6 6E-F0                    8217   	push	xr0
00:01B8 01-F0'00-00'             8218   	bl	__fuldu8sw
00:01BC 12-90 00-00'             8219   	l	er0,	NEAR _$ST6
00:01C0 12-92 00-00'             8220   	l	er2,	NEAR _$ST6+02h
00:01C4 6E-F0                    8221   	push	xr0
00:01C6 01-F0'00-00'             8222   	bl	__faddu8sw
00:01CA 04 E1                    8223   	add	sp,	#4 
00:01CC 2E-F4                    8224   	pop	xr4
00:01CE 12-90 00-00'             8225   	l	er0,	NEAR _PWMtoRPMOffset_Mot2
00:01D2 00 E2                    8226   	mov	er2,	#0 
00:01D4 6E-F0                    8227   	push	xr0
00:01D6 01-F0'00-00'             8228   	bl	__fuldu8sw
00:01DA 2E-F0                    8229   	pop	xr0
00:01DC 7E-F0                    8230   	push	qr0
00:01DE 01-F0'00-00'             8231   	bl	__faddu8sw
00:01E2 04 E1                    8232   	add	sp,	#4 
00:01E4 01-F0'00-00'             8233   	bl	__ftolu8sw
00:01E8 1E-F0                    8234   	pop	er0
00:01EA 02 E1                    8235   	add	sp,	#2 
00:01EC 13-90 32-F9              8236   	st	er0,	0f932h
                                 8237   
                                 8238   ;;				PWDD = PWMIdleDutyRun;
                                 8239   CLINEA 0000H 0001H 0A35H 0005H 001AH
00:01F0 12-90 00-00'             8240   	l	er0,	NEAR _PWMIdleDutyRun
00:01F4 13-90 22-F9              8241   	st	er0,	0f922h
                                 8242   
                                 8243   ;;				CheckSafetyLimit();
                                 8244   CLINEA 0000H 0001H 0A36H 0005H 0017H
00:01F8 01-F0'00-00'             8245   	bl	_CheckSafetyLimit
                                 8246   
                                 8247   ;;				PDRUN = 1;
                                 8248   CLINEA 0000H 0001H 0A39H 0005H 000EH
                                 8249   CBLOCKEND 239 4 2619
                                 8250   
                                 8251   ;;			else{
                                 8252   CLINEA 0000H 0001H 0A3CH 0004H 0008H
00:01FC 28 CE                    8253   	bal	_$L521
00:01FE                          8254   _$L519 :
                                 8255   CBLOCK 239 5 2620
                                 8256   
                                 8257   ;;				PERUN = 0;
                                 8258   CLINEA 0000H 0001H 0A3EH 0005H 000EH
00:01FE 82-A0 37-F9              8259   	rb	0f937h.0
                                 8260   
                                 8261   ;;				PDRUN = 0;
                                 8262   CLINEA 0000H 0001H 0A3FH 0005H 000EH
00:0202 82-A0 27-F9              8263   	rb	0f927h.0
                                 8264   
                                 8265   ;;				PWED = PWMIdleDutyRun;	
                                 8266   CLINEA 0000H 0001H 0A42H 0005H 001BH
00:0206 12-90 00-00'             8267   	l	er0,	NEAR _PWMIdleDutyRun
00:020A 13-90 32-F9              8268   	st	er0,	0f932h
                                 8269   
                                 8270   ;;				PWDD = PWMIdleDutyRun - Accel_PID_XRollOutput + PWMtoRPMOffset_Mot4;
                                 8271   CLINEA 0000H 0001H 0A44H 0005H 0048H
00:020E 00 E2                    8272   	mov	er2,	#0 
00:0210 6E-F0                    8273   	push	xr0
00:0212 01-F0'00-00'             8274   	bl	__fuldu8sw
00:0216 12-90 00-00'             8275   	l	er0,	NEAR _$ST6
00:021A 12-92 00-00'             8276   	l	er2,	NEAR _$ST6+02h
00:021E 6E-F0                    8277   	push	xr0
00:0220 01-F0'00-00'             8278   	bl	__fsubu8sw
00:0224 04 E1                    8279   	add	sp,	#4 
00:0226 2E-F4                    8280   	pop	xr4
00:0228 12-90 00-00'             8281   	l	er0,	NEAR _PWMtoRPMOffset_Mot4
00:022C 00 E2                    8282   	mov	er2,	#0 
00:022E 6E-F0                    8283   	push	xr0
00:0230 01-F0'00-00'             8284   	bl	__fuldu8sw
00:0234 2E-F0                    8285   	pop	xr0
00:0236 7E-F0                    8286   	push	qr0
00:0238 01-F0'00-00'             8287   	bl	__faddu8sw
00:023C 04 E1                    8288   	add	sp,	#4 
00:023E 01-F0'00-00'             8289   	bl	__ftolu8sw
00:0242 1E-F0                    8290   	pop	er0
00:0244 02 E1                    8291   	add	sp,	#2 
00:0246 13-90 22-F9              8292   	st	er0,	0f922h
                                 8293   
                                 8294   ;;				CheckSafetyLimit();
                                 8295   CLINEA 0000H 0001H 0A45H 0005H 0017H
00:024A 01-F0'00-00'             8296   	bl	_CheckSafetyLimit
                                 8297   
                                 8298   ;;				PDRUN = 1;
                                 8299   CLINEA 0000H 0001H 0A48H 0005H 000EH
                                 8300   CBLOCKEND 239 5 2634
                                 8301   
                                 8302   ;;			}
                                 8303   CLINEA 0000H 0000H 0A4AH 0004H 0004H
00:024E                          8304   _$L521 :
00:024E 80-A0 37-F9              8305   	sb	0f937h.0
00:0252 80-A0 27-F9              8306   	sb	0f927h.0
                                 8307   
                                 8308   ;;			if(Accel_PID_YPitchError > 0){
                                 8309   CLINEA 0000H 0001H 0A4BH 0004H 0021H
00:0256 12-90 00-00'             8310   	l	er0,	NEAR _Accel_PID_YPitchError
00:025A 12-92 00-00'             8311   	l	er2,	NEAR _Accel_PID_YPitchError+02h
00:025E 6E-F0                    8312   	push	xr0
00:0260 00 E0                    8313   	mov	er0,	#0 
00:0262 00 E2                    8314   	mov	er2,	#0 
00:0264 6E-F0                    8315   	push	xr0
00:0266 01-F0'00-00'             8316   	bl	__fcmpu8sw
00:026A 08 E1                    8317   	add	sp,	#8 
00:026C 0B-A0                    8318   	mov	psw,	r0
00:026E 23 C3                    8319   	ble	_$L522
                                 8320   CBLOCK 239 6 2635
                                 8321   
                                 8322   ;;				PFRUN = 0;	//Turn OFF PWM
                                 8323   CLINEA 0000H 0001H 0A4CH 0005H 001DH
00:0270 82-A0 73-F9              8324   	rb	0f973h.0
                                 8325   
                                 8326   ;;				PCRUN = 0;
                                 8327   CLINEA 0000H 0001H 0A4FH 0005H 000EH
00:0274 82-A0 17-F9              8328   	rb	0f917h.0
                                 8329   
                                 8330   ;;				PWF0D = PWMIdleDutyRun + Accel_PID_YPitchOutput; 		//Can't be running to change (Only this variable)
                                 8331   CLINEA 0000H 0001H 0A50H 0005H 0068H
00:0278 12-90 00-00'             8332   	l	er0,	NEAR _PWMIdleDutyRun
00:027C 00 E2                    8333   	mov	er2,	#0 
00:027E 6E-F0                    8334   	push	xr0
00:0280 01-F0'00-00'             8335   	bl	__fuldu8sw
00:0284 12-90 00-00'             8336   	l	er0,	NEAR _$ST8
00:0288 12-92 00-00'             8337   	l	er2,	NEAR _$ST8+02h
00:028C 6E-F0                    8338   	push	xr0
00:028E 01-F0'00-00'             8339   	bl	__faddu8sw
00:0292 04 E1                    8340   	add	sp,	#4 
00:0294 01-F0'00-00'             8341   	bl	__ftolu8sw
00:0298 1E-F0                    8342   	pop	er0
00:029A 02 E1                    8343   	add	sp,	#2 
00:029C 13-90 62-F9              8344   	st	er0,	0f962h
                                 8345   
                                 8346   ;;				PWCD = PWMIdleDutyRun;	
                                 8347   CLINEA 0000H 0001H 0A52H 0005H 001BH
00:02A0 12-90 00-00'             8348   	l	er0,	NEAR _PWMIdleDutyRun
00:02A4 13-90 12-F9              8349   	st	er0,	0f912h
                                 8350   
                                 8351   ;;				CheckSafetyLimit();
                                 8352   CLINEA 0000H 0001H 0A54H 0005H 0017H
00:02A8 01-F0'00-00'             8353   	bl	_CheckSafetyLimit
                                 8354   
                                 8355   ;;				PFRUN = 1;	//Turn ON PWM
                                 8356   CLINEA 0000H 0001H 0A55H 0005H 001CH
00:02AC 80-A0 73-F9              8357   	sb	0f973h.0
                                 8358   
                                 8359   ;;				PCRUN = 1;
                                 8360   CLINEA 0000H 0001H 0A58H 0005H 000EH
00:02B0 80-A0 17-F9              8361   	sb	0f917h.0
                                 8362   CBLOCKEND 239 6 2649
                                 8363   
                                 8364   ;;			else{
                                 8365   CLINEA 0000H 0001H 0A5AH 0004H 0008H
00:02B4 2C CE                    8366   	bal	_$L524
00:02B6                          8367   _$L522 :
                                 8368   CBLOCK 239 7 2650
                                 8369   
                                 8370   ;;				PFRUN = 0;	//Turn OFF PWM
                                 8371   CLINEA 0000H 0001H 0A5BH 0005H 001DH
00:02B6 82-A0 73-F9              8372   	rb	0f973h.0
                                 8373   
                                 8374   ;;				PCRUN = 0;
                                 8375   CLINEA 0000H 0001H 0A5EH 0005H 000EH
00:02BA 82-A0 17-F9              8376   	rb	0f917h.0
                                 8377   
                                 8378   ;;				PWF0D = PWMIdleDutyRun; 		//Can't be running to change (Only this variable)
                                 8379   CLINEA 0000H 0001H 0A5FH 0005H 004FH
00:02BE 12-90 00-00'             8380   	l	er0,	NEAR _PWMIdleDutyRun
00:02C2 13-90 62-F9              8381   	st	er0,	0f962h
                                 8382   
                                 8383   ;;				PWCD = PWMIdleDutyRun - Accel_PID_YPitchOutput + PWMtoRPMOffset_Mot3;	
                                 8384   CLINEA 0000H 0001H 0A61H 0005H 004AH
00:02C6 00 E2                    8385   	mov	er2,	#0 
00:02C8 6E-F0                    8386   	push	xr0
00:02CA 01-F0'00-00'             8387   	bl	__fuldu8sw
00:02CE 12-90 00-00'             8388   	l	er0,	NEAR _$ST8
00:02D2 12-92 00-00'             8389   	l	er2,	NEAR _$ST8+02h
00:02D6 6E-F0                    8390   	push	xr0
00:02D8 01-F0'00-00'             8391   	bl	__fsubu8sw
00:02DC 04 E1                    8392   	add	sp,	#4 
00:02DE 2E-F4                    8393   	pop	xr4
00:02E0 12-90 00-00'             8394   	l	er0,	NEAR _PWMtoRPMOffset_Mot3
00:02E4 00 E2                    8395   	mov	er2,	#0 
00:02E6 6E-F0                    8396   	push	xr0
00:02E8 01-F0'00-00'             8397   	bl	__fuldu8sw
00:02EC 2E-F0                    8398   	pop	xr0
00:02EE 7E-F0                    8399   	push	qr0
00:02F0 01-F0'00-00'             8400   	bl	__faddu8sw
00:02F4 04 E1                    8401   	add	sp,	#4 
00:02F6 01-F0'00-00'             8402   	bl	__ftolu8sw
00:02FA 1E-F0                    8403   	pop	er0
00:02FC 02 E1                    8404   	add	sp,	#2 
00:02FE 13-90 12-F9              8405   	st	er0,	0f912h
                                 8406   
                                 8407   ;;				CheckSafetyLimit();
                                 8408   CLINEA 0000H 0001H 0A63H 0005H 0017H
00:0302 01-F0'00-00'             8409   	bl	_CheckSafetyLimit
                                 8410   
                                 8411   ;;				PFRUN = 1;	//Turn ON PWM
                                 8412   CLINEA 0000H 0001H 0A64H 0005H 001CH
00:0306 80-A0 73-F9              8413   	sb	0f973h.0
                                 8414   
                                 8415   ;;				PCRUN = 1;
                                 8416   CLINEA 0000H 0001H 0A67H 0005H 000EH
00:030A 80-A0 17-F9              8417   	sb	0f917h.0
                                 8418   CBLOCKEND 239 7 2664
                                 8419   
                                 8420   ;;			}
                                 8421   CLINEA 0000H 0000H 0A68H 0004H 0004H
00:030E                          8422   _$L524 :
                                 8423   CBLOCKEND 239 3 2665
                                 8424   CBLOCKEND 239 2 2694
                                 8425   
                                 8426   ;;}
                                 8427   CLINEA 0000H 0001H 0A86H 0001H 0001H
00:030E 2E-F4                    8428   	pop	xr4
00:0310 8E-F2                    8429   	pop	pc
                                 8430   CBLOCKEND 239 1 2694
                                 8431   CFUNCTIONEND 239
                                 8432   
                                 8433   
  --------------------------     8434   	rseg $$AccelSensorControlPID_D$main
                                 8435   CFUNCTION 240
                                 8436   
00:0000                          8437   _AccelSensorControlPID_D	:
                                 8438   CBLOCK 240 1 2696
                                 8439   
                                 8440   ;;void AccelSensorControlPID_D(void){
                                 8441   CLINEA 0000H 0001H 0A88H 0001H 0023H
00:0000 CE-F8                    8442   	push	lr
00:0002 6E-F8                    8443   	push	xr8
00:0004 6E-F4                    8444   	push	xr4
                                 8445   CBLOCK 240 2 2696
                                 8446   CRET 0008H
                                 8447   CLOCAL 4BH 0002H 0000H 0002H "i" 02H 00H 01H
                                 8448   CSLOCAL 43H 0004H 0009H 0002H "Accel_PID_XRollCurrentCount" 02H 00H 03H
                                 8449   CSLOCAL 43H 0004H 000AH 0002H "Accel_PID_XRollOutput" 02H 00H 03H
                                 8450   CSLOCAL 43H 0004H 000BH 0002H "Accel_PID_YPitchCurrentCount" 02H 00H 03H
                                 8451   CSLOCAL 43H 0004H 000CH 0002H "Accel_PID_YPitchOutput" 02H 00H 03H
                                 8452   
                                 8453   ;;		Accel_PID_XRollCurrentCount = Accel_PID_XRollCounter_D * .001;	//Timer in Seconds
                                 8454   CLINEA 0000H 0001H 0A9EH 0003H 0053H
00:0006 12-90 00-00'             8455   	l	er0,	NEAR _Accel_PID_XRollCounter_D
00:000A 00 E2                    8456   	mov	er2,	#0 
00:000C 6E-F0                    8457   	push	xr0
00:000E FC E1                    8458   	add	sp,	#-4
00:0010 01-F0'00-00'             8459   	bl	__dildu8sw
00:0014 FC 00                    8460   	mov	r0,	#0fch
00:0016 A9 01                    8461   	mov	r1,	#0a9h
00:0018 F1 02                    8462   	mov	r2,	#0f1h
00:001A D2 03                    8463   	mov	r3,	#0d2h
00:001C 4D 04                    8464   	mov	r4,	#04dh
00:001E 62 05                    8465   	mov	r5,	#062h
00:0020 50 06                    8466   	mov	r6,	#050h
00:0022 3F 07                    8467   	mov	r7,	#03fh
00:0024 7E-F0                    8468   	push	qr0
00:0026 01-F0'00-00'             8469   	bl	__dmulu8sw
00:002A 08 E1                    8470   	add	sp,	#8 
00:002C 01-F0'00-00'             8471   	bl	__dtofu8sw
00:0030 04 E1                    8472   	add	sp,	#4 
00:0032 2E-F0                    8473   	pop	xr0
00:0034 13-90 00-00'             8474   	st	er0,	NEAR _$ST9
00:0038 13-92 00-00'             8475   	st	er2,	NEAR _$ST9+02h
                                 8476   
                                 8477   ;;		Accel_PID_XRollCounter_D = 0;
                                 8478   CLINEA 0000H 0001H 0A9FH 0003H 001FH
00:003C 00 E0                    8479   	mov	er0,	#0 
00:003E 13-90 00-00'             8480   	st	er0,	NEAR _Accel_PID_XRollCounter_D
                                 8481   
                                 8482   ;;		Accel_PID_XRolldErr	/= Accel_PID_XRollCurrentCount;
                                 8483   CLINEA 0000H 0001H 0AA3H 0003H 0035H
00:0042 12-90 00-00'             8484   	l	er0,	NEAR _Accel_PID_XRollError
00:0046 12-92 00-00'             8485   	l	er2,	NEAR _Accel_PID_XRollError+02h
00:004A 6E-F0                    8486   	push	xr0
00:004C 12-90 00-00'             8487   	l	er0,	NEAR _Accel_PID_XRollErrPrev
00:0050 12-92 00-00'             8488   	l	er2,	NEAR _Accel_PID_XRollErrPrev+02h
00:0054 6E-F0                    8489   	push	xr0
00:0056 01-F0'00-00'             8490   	bl	__fsubu8sw
00:005A 04 E1                    8491   	add	sp,	#4 
00:005C 12-90 00-00'             8492   	l	er0,	NEAR _$ST9
00:0060 12-92 00-00'             8493   	l	er2,	NEAR _$ST9+02h
00:0064 6E-F0                    8494   	push	xr0
00:0066 01-F0'00-00'             8495   	bl	__fdivu8sw
00:006A 04 E1                    8496   	add	sp,	#4 
00:006C 2E-F0                    8497   	pop	xr0
00:006E 13-90 00-00'             8498   	st	er0,	NEAR _Accel_PID_XRolldErr
00:0072 13-92 00-00'             8499   	st	er2,	NEAR _Accel_PID_XRolldErr+02h
                                 8500   
                                 8501   ;;		if( Accel_PID_XRollError<0)
                                 8502   CLINEA 0000H 0001H 0AA5H 0003H 001DH
00:0076 12-90 00-00'             8503   	l	er0,	NEAR _Accel_PID_XRollError
00:007A 12-92 00-00'             8504   	l	er2,	NEAR _Accel_PID_XRollError+02h
00:007E 6E-F0                    8505   	push	xr0
00:0080 00 E0                    8506   	mov	er0,	#0 
00:0082 00 E2                    8507   	mov	er2,	#0 
00:0084 6E-F0                    8508   	push	xr0
00:0086 01-F0'00-00'             8509   	bl	__fcmpu8sw
00:008A 08 E1                    8510   	add	sp,	#8 
00:008C 0B-A0                    8511   	mov	psw,	r0
00:008E 12 C0                    8512   	bge	_$L528
                                 8513   CBLOCK 240 3 2726
                                 8514   
                                 8515   ;;			if(Accel_PID_XRollErrPrev>=0)
                                 8516   CLINEA 0000H 0001H 0AA7H 0004H 0020H
00:0090 12-90 00-00'             8517   	l	er0,	NEAR _Accel_PID_XRollErrPrev
00:0094 12-92 00-00'             8518   	l	er2,	NEAR _Accel_PID_XRollErrPrev+02h
00:0098 6E-F0                    8519   	push	xr0
00:009A 00 E0                    8520   	mov	er0,	#0 
00:009C 00 E2                    8521   	mov	er2,	#0 
00:009E 6E-F0                    8522   	push	xr0
00:00A0 01-F0'00-00'             8523   	bl	__fcmpu8sw
00:00A4 08 E1                    8524   	add	sp,	#8 
00:00A6 0B-A0                    8525   	mov	psw,	r0
00:00A8 05 C1                    8526   	blt	_$L528
                                 8527   CBLOCK 240 4 2728
                                 8528   
                                 8529   ;;				Accel_PID_XRollErrSum = 0;
                                 8530   CLINEA 0000H 0001H 0AA9H 0005H 001EH
00:00AA 00 E0                    8531   	mov	er0,	#0 
00:00AC 13-90 00-00'             8532   	st	er0,	NEAR _Accel_PID_XRollErrSum
00:00B0 13-90 00-00'             8533   	st	er0,	NEAR _Accel_PID_XRollErrSum+02h
                                 8534   CBLOCKEND 240 4 2730
                                 8535   
                                 8536   ;;			}
                                 8537   CLINEA 0000H 0000H 0AAAH 0004H 0004H
00:00B4                          8538   _$L528 :
                                 8539   CBLOCKEND 240 3 2731
                                 8540   
                                 8541   ;;		if( Accel_PID_XRollError>=0)
                                 8542   CLINEA 0000H 0001H 0AADH 0003H 001EH
00:00B4 12-90 00-00'             8543   	l	er0,	NEAR _Accel_PID_XRollError
00:00B8 12-92 00-00'             8544   	l	er2,	NEAR _Accel_PID_XRollError+02h
00:00BC 6E-F0                    8545   	push	xr0
00:00BE 00 E0                    8546   	mov	er0,	#0 
00:00C0 00 E2                    8547   	mov	er2,	#0 
00:00C2 6E-F0                    8548   	push	xr0
00:00C4 01-F0'00-00'             8549   	bl	__fcmpu8sw
00:00C8 08 E1                    8550   	add	sp,	#8 
00:00CA 0B-A0                    8551   	mov	psw,	r0
00:00CC 12 C1                    8552   	blt	_$L532
                                 8553   CBLOCK 240 5 2734
                                 8554   
                                 8555   ;;			if(Accel_PID_XRollErrPrev<0)
                                 8556   CLINEA 0000H 0001H 0AAFH 0004H 001FH
00:00CE 12-90 00-00'             8557   	l	er0,	NEAR _Accel_PID_XRollErrPrev
00:00D2 12-92 00-00'             8558   	l	er2,	NEAR _Accel_PID_XRollErrPrev+02h
00:00D6 6E-F0                    8559   	push	xr0
00:00D8 00 E0                    8560   	mov	er0,	#0 
00:00DA 00 E2                    8561   	mov	er2,	#0 
00:00DC 6E-F0                    8562   	push	xr0
00:00DE 01-F0'00-00'             8563   	bl	__fcmpu8sw
00:00E2 08 E1                    8564   	add	sp,	#8 
00:00E4 0B-A0                    8565   	mov	psw,	r0
00:00E6 05 C0                    8566   	bge	_$L532
                                 8567   CBLOCK 240 6 2736
                                 8568   
                                 8569   ;;				Accel_PID_XRollErrSum = 0;
                                 8570   CLINEA 0000H 0001H 0AB1H 0005H 001EH
00:00E8 00 E0                    8571   	mov	er0,	#0 
00:00EA 13-90 00-00'             8572   	st	er0,	NEAR _Accel_PID_XRollErrSum
00:00EE 13-90 00-00'             8573   	st	er0,	NEAR _Accel_PID_XRollErrSum+02h
                                 8574   CBLOCKEND 240 6 2738
                                 8575   
                                 8576   ;;			}
                                 8577   CLINEA 0000H 0000H 0AB2H 0004H 0004H
00:00F2                          8578   _$L532 :
                                 8579   CBLOCKEND 240 5 2739
                                 8580   
                                 8581   ;;		Accel_PID_XRollErrPrev = Accel_PID_XRollError;
                                 8582   CLINEA 0000H 0001H 0AB5H 0003H 0030H
00:00F2 12-90 00-00'             8583   	l	er0,	NEAR _Accel_PID_XRollError
00:00F6 12-92 00-00'             8584   	l	er2,	NEAR _Accel_PID_XRollError+02h
00:00FA 13-90 00-00'             8585   	st	er0,	NEAR _Accel_PID_XRollErrPrev
00:00FE 13-92 00-00'             8586   	st	er2,	NEAR _Accel_PID_XRollErrPrev+02h
                                 8587   
                                 8588   ;;		testD = (Accel_PID_XRoll_kd*Accel_PID_XRolldErr);
                                 8589   CLINEA 0000H 0001H 0AC2H 0003H 0033H
00:0102 12-90 00-00'             8590   	l	er0,	NEAR _Accel_PID_XRoll_kd
00:0106 12-92 00-00'             8591   	l	er2,	NEAR _Accel_PID_XRoll_kd+02h
00:010A 6E-F0                    8592   	push	xr0
00:010C 12-90 00-00'             8593   	l	er0,	NEAR _Accel_PID_XRolldErr
00:0110 12-92 00-00'             8594   	l	er2,	NEAR _Accel_PID_XRolldErr+02h
00:0114 6E-F0                    8595   	push	xr0
00:0116 01-F0'00-00'             8596   	bl	__fmulu8sw
00:011A 04 E1                    8597   	add	sp,	#4 
00:011C 01-F0'00-00'             8598   	bl	__ftolu8sw
00:0120 1E-F8                    8599   	pop	er8
00:0122 02 E1                    8600   	add	sp,	#2 
00:0124 13-98 00-00'             8601   	st	er8,	NEAR _testD
                                 8602   
                                 8603   ;;		Accel_PID_XRollOutput += testD;
                                 8604   CLINEA 0000H 0001H 0AC4H 0003H 0021H
00:0128 12-90 00-00'             8605   	l	er0,	NEAR _Accel_PID_XRollError
00:012C 12-92 00-00'             8606   	l	er2,	NEAR _Accel_PID_XRollError+02h
00:0130 6E-F0                    8607   	push	xr0
00:0132 12-90 00-00'             8608   	l	er0,	NEAR _Accel_PID_XRoll_kp
00:0136 12-92 00-00'             8609   	l	er2,	NEAR _Accel_PID_XRoll_kp+02h
00:013A 6E-F0                    8610   	push	xr0
00:013C 01-F0'00-00'             8611   	bl	__fmulu8sw
00:0140 04 E1                    8612   	add	sp,	#4 
00:0142 2E-F0                    8613   	pop	xr0
00:0144 12-94 00-00'             8614   	l	er4,	NEAR _Accel_PID_XRollErrSum
00:0148 12-96 00-00'             8615   	l	er6,	NEAR _Accel_PID_XRollErrSum+02h
00:014C 6E-F4                    8616   	push	xr4
00:014E 12-94 00-00'             8617   	l	er4,	NEAR _Accel_PID_XRoll_ki
00:0152 12-96 00-00'             8618   	l	er6,	NEAR _Accel_PID_XRoll_ki+02h
00:0156 6E-F4                    8619   	push	xr4
00:0158 01-F0'00-00'             8620   	bl	__fmulu8sw
00:015C 04 E1                    8621   	add	sp,	#4 
00:015E 2E-F4                    8622   	pop	xr4
00:0160 6E-F0                    8623   	push	xr0
00:0162 6E-F4                    8624   	push	xr4
00:0164 01-F0'00-00'             8625   	bl	__faddu8sw
00:0168 04 E1                    8626   	add	sp,	#4 
00:016A 2E-F4                    8627   	pop	xr4
00:016C 90-82                    8628   	mov	r2,	r9
00:016E 2F-83                    8629   	extbw	er2
00:0170 30-82                    8630   	mov	r2,	r3
00:0172 25-FA                    8631   	mov	er10,	er2
00:0174 6E-F8                    8632   	push	xr8
00:0176 01-F0'00-00'             8633   	bl	__fildu8sw
00:017A 2E-F0                    8634   	pop	xr0
00:017C 7E-F0                    8635   	push	qr0
00:017E 01-F0'00-00'             8636   	bl	__faddu8sw
00:0182 04 E1                    8637   	add	sp,	#4 
00:0184 2E-F0                    8638   	pop	xr0
00:0186 13-90 00-00'             8639   	st	er0,	NEAR _$ST10
00:018A 13-92 00-00'             8640   	st	er2,	NEAR _$ST10+02h
                                 8641   
                                 8642   ;;		Accel_PID_YPitchCurrentCount = Accel_PID_YPitchCounter_D * .001;		//Timer in Seconds
                                 8643   CLINEA 0000H 0001H 0AC8H 0003H 0056H
00:018E 12-90 00-00'             8644   	l	er0,	NEAR _Accel_PID_YPitchCounter_D
00:0192 00 E2                    8645   	mov	er2,	#0 
00:0194 6E-F0                    8646   	push	xr0
00:0196 FC E1                    8647   	add	sp,	#-4
00:0198 01-F0'00-00'             8648   	bl	__dildu8sw
00:019C FC 00                    8649   	mov	r0,	#0fch
00:019E A9 01                    8650   	mov	r1,	#0a9h
00:01A0 F1 02                    8651   	mov	r2,	#0f1h
00:01A2 D2 03                    8652   	mov	r3,	#0d2h
00:01A4 4D 04                    8653   	mov	r4,	#04dh
00:01A6 62 05                    8654   	mov	r5,	#062h
00:01A8 50 06                    8655   	mov	r6,	#050h
00:01AA 3F 07                    8656   	mov	r7,	#03fh
00:01AC 7E-F0                    8657   	push	qr0
00:01AE 01-F0'00-00'             8658   	bl	__dmulu8sw
00:01B2 08 E1                    8659   	add	sp,	#8 
00:01B4 01-F0'00-00'             8660   	bl	__dtofu8sw
00:01B8 04 E1                    8661   	add	sp,	#4 
00:01BA 2E-F0                    8662   	pop	xr0
00:01BC 13-90 00-00'             8663   	st	er0,	NEAR _$ST11
00:01C0 13-92 00-00'             8664   	st	er2,	NEAR _$ST11+02h
                                 8665   
                                 8666   ;;		Accel_PID_YPitchCounter_D = 0;
                                 8667   CLINEA 0000H 0001H 0AC9H 0003H 0020H
00:01C4 00 E0                    8668   	mov	er0,	#0 
00:01C6 13-90 00-00'             8669   	st	er0,	NEAR _Accel_PID_YPitchCounter_D
                                 8670   
                                 8671   ;;		Accel_PID_YPitchdErr /= Accel_PID_YPitchCurrentCount;
                                 8672   CLINEA 0000H 0001H 0ACEH 0003H 0037H
00:01CA 12-90 00-00'             8673   	l	er0,	NEAR _Accel_PID_YPitchError
00:01CE 12-92 00-00'             8674   	l	er2,	NEAR _Accel_PID_YPitchError+02h
00:01D2 6E-F0                    8675   	push	xr0
00:01D4 12-90 00-00'             8676   	l	er0,	NEAR _Accel_PID_YPitchErrPrev
00:01D8 12-92 00-00'             8677   	l	er2,	NEAR _Accel_PID_YPitchErrPrev+02h
00:01DC 6E-F0                    8678   	push	xr0
00:01DE 01-F0'00-00'             8679   	bl	__fsubu8sw
00:01E2 04 E1                    8680   	add	sp,	#4 
00:01E4 12-90 00-00'             8681   	l	er0,	NEAR _$ST11
00:01E8 12-92 00-00'             8682   	l	er2,	NEAR _$ST11+02h
00:01EC 6E-F0                    8683   	push	xr0
00:01EE 01-F0'00-00'             8684   	bl	__fdivu8sw
00:01F2 04 E1                    8685   	add	sp,	#4 
00:01F4 2E-F0                    8686   	pop	xr0
00:01F6 13-90 00-00'             8687   	st	er0,	NEAR _Accel_PID_YPitchdErr
00:01FA 13-92 00-00'             8688   	st	er2,	NEAR _Accel_PID_YPitchdErr+02h
                                 8689   
                                 8690   ;;		if( Accel_PID_YPitchError<0)
                                 8691   CLINEA 0000H 0001H 0AD0H 0003H 001EH
00:01FE 12-90 00-00'             8692   	l	er0,	NEAR _Accel_PID_YPitchError
00:0202 12-92 00-00'             8693   	l	er2,	NEAR _Accel_PID_YPitchError+02h
00:0206 6E-F0                    8694   	push	xr0
00:0208 00 E0                    8695   	mov	er0,	#0 
00:020A 00 E2                    8696   	mov	er2,	#0 
00:020C 6E-F0                    8697   	push	xr0
00:020E 01-F0'00-00'             8698   	bl	__fcmpu8sw
00:0212 08 E1                    8699   	add	sp,	#8 
00:0214 0B-A0                    8700   	mov	psw,	r0
00:0216 12 C0                    8701   	bge	_$L536
                                 8702   CBLOCK 240 7 2769
                                 8703   
                                 8704   ;;			if(Accel_PID_YPitchErrPrev>=0) 
                                 8705   CLINEA 0000H 0001H 0AD2H 0004H 0022H
00:0218 12-90 00-00'             8706   	l	er0,	NEAR _Accel_PID_YPitchErrPrev
00:021C 12-92 00-00'             8707   	l	er2,	NEAR _Accel_PID_YPitchErrPrev+02h
00:0220 6E-F0                    8708   	push	xr0
00:0222 00 E0                    8709   	mov	er0,	#0 
00:0224 00 E2                    8710   	mov	er2,	#0 
00:0226 6E-F0                    8711   	push	xr0
00:0228 01-F0'00-00'             8712   	bl	__fcmpu8sw
00:022C 08 E1                    8713   	add	sp,	#8 
00:022E 0B-A0                    8714   	mov	psw,	r0
00:0230 05 C1                    8715   	blt	_$L536
                                 8716   CBLOCK 240 8 2771
                                 8717   
                                 8718   ;;				Accel_PID_YPitchErrSum = 0;
                                 8719   CLINEA 0000H 0001H 0AD4H 0005H 001FH
00:0232 00 E0                    8720   	mov	er0,	#0 
00:0234 13-90 00-00'             8721   	st	er0,	NEAR _Accel_PID_YPitchErrSum
00:0238 13-90 00-00'             8722   	st	er0,	NEAR _Accel_PID_YPitchErrSum+02h
                                 8723   CBLOCKEND 240 8 2773
                                 8724   
                                 8725   ;;			}
                                 8726   CLINEA 0000H 0000H 0AD5H 0004H 0004H
00:023C                          8727   _$L536 :
                                 8728   CBLOCKEND 240 7 2774
                                 8729   
                                 8730   ;;		if( Accel_PID_YPitchError>=0)
                                 8731   CLINEA 0000H 0001H 0AD7H 0003H 001FH
00:023C 12-90 00-00'             8732   	l	er0,	NEAR _Accel_PID_YPitchError
00:0240 12-92 00-00'             8733   	l	er2,	NEAR _Accel_PID_YPitchError+02h
00:0244 6E-F0                    8734   	push	xr0
00:0246 00 E0                    8735   	mov	er0,	#0 
00:0248 00 E2                    8736   	mov	er2,	#0 
00:024A 6E-F0                    8737   	push	xr0
00:024C 01-F0'00-00'             8738   	bl	__fcmpu8sw
00:0250 08 E1                    8739   	add	sp,	#8 
00:0252 0B-A0                    8740   	mov	psw,	r0
00:0254 12 C1                    8741   	blt	_$L540
                                 8742   CBLOCK 240 9 2776
                                 8743   
                                 8744   ;;			if(Accel_PID_YPitchErrPrev<0)
                                 8745   CLINEA 0000H 0001H 0AD9H 0004H 0020H
00:0256 12-90 00-00'             8746   	l	er0,	NEAR _Accel_PID_YPitchErrPrev
00:025A 12-92 00-00'             8747   	l	er2,	NEAR _Accel_PID_YPitchErrPrev+02h
00:025E 6E-F0                    8748   	push	xr0
00:0260 00 E0                    8749   	mov	er0,	#0 
00:0262 00 E2                    8750   	mov	er2,	#0 
00:0264 6E-F0                    8751   	push	xr0
00:0266 01-F0'00-00'             8752   	bl	__fcmpu8sw
00:026A 08 E1                    8753   	add	sp,	#8 
00:026C 0B-A0                    8754   	mov	psw,	r0
00:026E 05 C0                    8755   	bge	_$L540
                                 8756   CBLOCK 240 10 2778
                                 8757   
                                 8758   ;;				Accel_PID_YPitchErrSum = 0;
                                 8759   CLINEA 0000H 0001H 0ADBH 0005H 001FH
00:0270 00 E0                    8760   	mov	er0,	#0 
00:0272 13-90 00-00'             8761   	st	er0,	NEAR _Accel_PID_YPitchErrSum
00:0276 13-90 00-00'             8762   	st	er0,	NEAR _Accel_PID_YPitchErrSum+02h
                                 8763   CBLOCKEND 240 10 2780
                                 8764   
                                 8765   ;;			}
                                 8766   CLINEA 0000H 0000H 0ADCH 0004H 0004H
00:027A                          8767   _$L540 :
                                 8768   CBLOCKEND 240 9 2781
                                 8769   
                                 8770   ;;		Accel_PID_YPitchErrPrev = Accel_PID_YPitchError;
                                 8771   CLINEA 0000H 0001H 0ADFH 0003H 0032H
00:027A 12-90 00-00'             8772   	l	er0,	NEAR _Accel_PID_YPitchError
00:027E 12-92 00-00'             8773   	l	er2,	NEAR _Accel_PID_YPitchError+02h
00:0282 13-90 00-00'             8774   	st	er0,	NEAR _Accel_PID_YPitchErrPrev
00:0286 13-92 00-00'             8775   	st	er2,	NEAR _Accel_PID_YPitchErrPrev+02h
                                 8776   
                                 8777   ;;		Accel_PID_YPitchOutput = (Accel_PID_YPitch_kp*Accel_PID_YPitchError) + (Accel_PID_YPitch_ki*Accel_PID_YPitchErrSum) + (Accel_PID_YPitch_kd*Accel_PID_YPitchdErr);
                                 8778   CLINEA 0000H 0001H 0AEAH 0003H 00A3H
00:028A 6E-F0                    8779   	push	xr0
00:028C 12-90 00-00'             8780   	l	er0,	NEAR _Accel_PID_YPitch_kp
00:0290 12-92 00-00'             8781   	l	er2,	NEAR _Accel_PID_YPitch_kp+02h
00:0294 6E-F0                    8782   	push	xr0
00:0296 01-F0'00-00'             8783   	bl	__fmulu8sw
00:029A 04 E1                    8784   	add	sp,	#4 
00:029C 2E-F0                    8785   	pop	xr0
00:029E 12-94 00-00'             8786   	l	er4,	NEAR _Accel_PID_YPitchErrSum
00:02A2 12-96 00-00'             8787   	l	er6,	NEAR _Accel_PID_YPitchErrSum+02h
00:02A6 6E-F4                    8788   	push	xr4
00:02A8 12-94 00-00'             8789   	l	er4,	NEAR _Accel_PID_YPitch_ki
00:02AC 12-96 00-00'             8790   	l	er6,	NEAR _Accel_PID_YPitch_ki+02h
00:02B0 6E-F4                    8791   	push	xr4
00:02B2 01-F0'00-00'             8792   	bl	__fmulu8sw
00:02B6 04 E1                    8793   	add	sp,	#4 
00:02B8 2E-F4                    8794   	pop	xr4
00:02BA 6E-F0                    8795   	push	xr0
00:02BC 6E-F4                    8796   	push	xr4
00:02BE 01-F0'00-00'             8797   	bl	__faddu8sw
00:02C2 04 E1                    8798   	add	sp,	#4 
00:02C4 2E-F0                    8799   	pop	xr0
00:02C6 12-94 00-00'             8800   	l	er4,	NEAR _Accel_PID_YPitch_kd
00:02CA 12-96 00-00'             8801   	l	er6,	NEAR _Accel_PID_YPitch_kd+02h
00:02CE 6E-F4                    8802   	push	xr4
00:02D0 12-94 00-00'             8803   	l	er4,	NEAR _Accel_PID_YPitchdErr
00:02D4 12-96 00-00'             8804   	l	er6,	NEAR _Accel_PID_YPitchdErr+02h
00:02D8 6E-F4                    8805   	push	xr4
00:02DA 01-F0'00-00'             8806   	bl	__fmulu8sw
00:02DE 04 E1                    8807   	add	sp,	#4 
00:02E0 2E-F4                    8808   	pop	xr4
00:02E2 6E-F0                    8809   	push	xr0
00:02E4 6E-F4                    8810   	push	xr4
00:02E6 01-F0'00-00'             8811   	bl	__faddu8sw
00:02EA 04 E1                    8812   	add	sp,	#4 
00:02EC 2E-F0                    8813   	pop	xr0
00:02EE 13-90 00-00'             8814   	st	er0,	NEAR _$ST12
00:02F2 13-92 00-00'             8815   	st	er2,	NEAR _$ST12+02h
                                 8816   
                                 8817   ;;		if(PrePIDCount >= 10){
                                 8818   CLINEA 0000H 0001H 0AECH 0003H 0018H
00:02F6 10-90 00-00'             8819   	l	r0,	NEAR _PrePIDCount
00:02FA 0A 70                    8820   	cmp	r0,	#0ah
00:02FC 02 C0                    8821   	bge	_$M42
00:02FE 00-F0'00-00'             8822   	b	_$L549
00:0302                          8823   _$M42 :
                                 8824   CBLOCK 240 11 2796
                                 8825   
                                 8826   ;;			if(Accel_PID_XRollError > 0){
                                 8827   CLINEA 0000H 0001H 0AEDH 0004H 0020H
00:0302 12-90 00-00'             8828   	l	er0,	NEAR _Accel_PID_XRollError
00:0306 12-92 00-00'             8829   	l	er2,	NEAR _Accel_PID_XRollError+02h
00:030A 6E-F0                    8830   	push	xr0
00:030C 00 E0                    8831   	mov	er0,	#0 
00:030E 00 E2                    8832   	mov	er2,	#0 
00:0310 6E-F0                    8833   	push	xr0
00:0312 01-F0'00-00'             8834   	bl	__fcmpu8sw
00:0316 08 E1                    8835   	add	sp,	#8 
00:0318 0B-A0                    8836   	mov	psw,	r0
00:031A 2B C3                    8837   	ble	_$L544
                                 8838   CBLOCK 240 12 2797
                                 8839   
                                 8840   ;;				PERUN = 0;
                                 8841   CLINEA 0000H 0001H 0AEFH 0005H 000EH
00:031C 82-A0 37-F9              8842   	rb	0f937h.0
                                 8843   
                                 8844   ;;				PDRUN = 0;
                                 8845   CLINEA 0000H 0001H 0AF0H 0005H 000EH
00:0320 82-A0 27-F9              8846   	rb	0f927h.0
                                 8847   
                                 8848   ;;				PWED = PWMIdleDutyRun + Accel_PID_XRollOutput + PWMtoRPMOffset_Mot2;	
                                 8849   CLINEA 0000H 0001H 0AF3H 0005H 0049H
00:0324 12-90 00-00'             8850   	l	er0,	NEAR _PWMIdleDutyRun
00:0328 00 E2                    8851   	mov	er2,	#0 
00:032A 6E-F0                    8852   	push	xr0
00:032C 01-F0'00-00'             8853   	bl	__fuldu8sw
00:0330 12-90 00-00'             8854   	l	er0,	NEAR _$ST10
00:0334 12-92 00-00'             8855   	l	er2,	NEAR _$ST10+02h
00:0338 6E-F0                    8856   	push	xr0
00:033A 01-F0'00-00'             8857   	bl	__faddu8sw
00:033E 04 E1                    8858   	add	sp,	#4 
00:0340 2E-F4                    8859   	pop	xr4
00:0342 12-90 00-00'             8860   	l	er0,	NEAR _PWMtoRPMOffset_Mot2
00:0346 00 E2                    8861   	mov	er2,	#0 
00:0348 6E-F0                    8862   	push	xr0
00:034A 01-F0'00-00'             8863   	bl	__fuldu8sw
00:034E 2E-F0                    8864   	pop	xr0
00:0350 7E-F0                    8865   	push	qr0
00:0352 01-F0'00-00'             8866   	bl	__faddu8sw
00:0356 04 E1                    8867   	add	sp,	#4 
00:0358 01-F0'00-00'             8868   	bl	__ftolu8sw
00:035C 1E-F0                    8869   	pop	er0
00:035E 02 E1                    8870   	add	sp,	#2 
00:0360 13-90 32-F9              8871   	st	er0,	0f932h
                                 8872   
                                 8873   ;;				PWDD = PWMIdleDutyRun;
                                 8874   CLINEA 0000H 0001H 0AF6H 0005H 001AH
00:0364 12-90 00-00'             8875   	l	er0,	NEAR _PWMIdleDutyRun
00:0368 13-90 22-F9              8876   	st	er0,	0f922h
                                 8877   
                                 8878   ;;				CheckSafetyLimit();
                                 8879   CLINEA 0000H 0001H 0AF7H 0005H 0017H
00:036C 01-F0'00-00'             8880   	bl	_CheckSafetyLimit
                                 8881   
                                 8882   ;;				PDRUN = 1;
                                 8883   CLINEA 0000H 0001H 0AFAH 0005H 000EH
                                 8884   CBLOCKEND 240 12 2812
                                 8885   
                                 8886   ;;			else{
                                 8887   CLINEA 0000H 0001H 0AFDH 0004H 0008H
00:0370 28 CE                    8888   	bal	_$L546
00:0372                          8889   _$L544 :
                                 8890   CBLOCK 240 13 2813
                                 8891   
                                 8892   ;;				PERUN = 0;
                                 8893   CLINEA 0000H 0001H 0AFFH 0005H 000EH
00:0372 82-A0 37-F9              8894   	rb	0f937h.0
                                 8895   
                                 8896   ;;				PDRUN = 0;
                                 8897   CLINEA 0000H 0001H 0B00H 0005H 000EH
00:0376 82-A0 27-F9              8898   	rb	0f927h.0
                                 8899   
                                 8900   ;;				PWED = PWMIdleDutyRun;	
                                 8901   CLINEA 0000H 0001H 0B03H 0005H 001BH
00:037A 12-90 00-00'             8902   	l	er0,	NEAR _PWMIdleDutyRun
00:037E 13-90 32-F9              8903   	st	er0,	0f932h
                                 8904   
                                 8905   ;;				PWDD = PWMIdleDutyRun - Accel_PID_XRollOutput + PWMtoRPMOffset_Mot4;
                                 8906   CLINEA 0000H 0001H 0B05H 0005H 0048H
00:0382 00 E2                    8907   	mov	er2,	#0 
00:0384 6E-F0                    8908   	push	xr0
00:0386 01-F0'00-00'             8909   	bl	__fuldu8sw
00:038A 12-90 00-00'             8910   	l	er0,	NEAR _$ST10
00:038E 12-92 00-00'             8911   	l	er2,	NEAR _$ST10+02h
00:0392 6E-F0                    8912   	push	xr0
00:0394 01-F0'00-00'             8913   	bl	__fsubu8sw
00:0398 04 E1                    8914   	add	sp,	#4 
00:039A 2E-F4                    8915   	pop	xr4
00:039C 12-90 00-00'             8916   	l	er0,	NEAR _PWMtoRPMOffset_Mot4
00:03A0 00 E2                    8917   	mov	er2,	#0 
00:03A2 6E-F0                    8918   	push	xr0
00:03A4 01-F0'00-00'             8919   	bl	__fuldu8sw
00:03A8 2E-F0                    8920   	pop	xr0
00:03AA 7E-F0                    8921   	push	qr0
00:03AC 01-F0'00-00'             8922   	bl	__faddu8sw
00:03B0 04 E1                    8923   	add	sp,	#4 
00:03B2 01-F0'00-00'             8924   	bl	__ftolu8sw
00:03B6 1E-F0                    8925   	pop	er0
00:03B8 02 E1                    8926   	add	sp,	#2 
00:03BA 13-90 22-F9              8927   	st	er0,	0f922h
                                 8928   
                                 8929   ;;				CheckSafetyLimit();
                                 8930   CLINEA 0000H 0001H 0B06H 0005H 0017H
00:03BE 01-F0'00-00'             8931   	bl	_CheckSafetyLimit
                                 8932   
                                 8933   ;;				PDRUN = 1;
                                 8934   CLINEA 0000H 0001H 0B09H 0005H 000EH
                                 8935   CBLOCKEND 240 13 2827
                                 8936   
                                 8937   ;;			}
                                 8938   CLINEA 0000H 0000H 0B0BH 0004H 0004H
00:03C2                          8939   _$L546 :
00:03C2 80-A0 37-F9              8940   	sb	0f937h.0
00:03C6 80-A0 27-F9              8941   	sb	0f927h.0
                                 8942   
                                 8943   ;;			if(Accel_PID_YPitchError > 0){
                                 8944   CLINEA 0000H 0001H 0B0CH 0004H 0021H
00:03CA 12-90 00-00'             8945   	l	er0,	NEAR _Accel_PID_YPitchError
00:03CE 12-92 00-00'             8946   	l	er2,	NEAR _Accel_PID_YPitchError+02h
00:03D2 6E-F0                    8947   	push	xr0
00:03D4 00 E0                    8948   	mov	er0,	#0 
00:03D6 00 E2                    8949   	mov	er2,	#0 
00:03D8 6E-F0                    8950   	push	xr0
00:03DA 01-F0'00-00'             8951   	bl	__fcmpu8sw
00:03DE 08 E1                    8952   	add	sp,	#8 
00:03E0 0B-A0                    8953   	mov	psw,	r0
00:03E2 23 C3                    8954   	ble	_$L547
                                 8955   CBLOCK 240 14 2828
                                 8956   
                                 8957   ;;				PFRUN = 0;	//Turn OFF PWM
                                 8958   CLINEA 0000H 0001H 0B0DH 0005H 001DH
00:03E4 82-A0 73-F9              8959   	rb	0f973h.0
                                 8960   
                                 8961   ;;				PCRUN = 0;
                                 8962   CLINEA 0000H 0001H 0B10H 0005H 000EH
00:03E8 82-A0 17-F9              8963   	rb	0f917h.0
                                 8964   
                                 8965   ;;				PWF0D = PWMIdleDutyRun + Accel_PID_YPitchOutput; 		//Can't be running to change (Only this variable)
                                 8966   CLINEA 0000H 0001H 0B11H 0005H 0068H
00:03EC 12-90 00-00'             8967   	l	er0,	NEAR _PWMIdleDutyRun
00:03F0 00 E2                    8968   	mov	er2,	#0 
00:03F2 6E-F0                    8969   	push	xr0
00:03F4 01-F0'00-00'             8970   	bl	__fuldu8sw
00:03F8 12-90 00-00'             8971   	l	er0,	NEAR _$ST12
00:03FC 12-92 00-00'             8972   	l	er2,	NEAR _$ST12+02h
00:0400 6E-F0                    8973   	push	xr0
00:0402 01-F0'00-00'             8974   	bl	__faddu8sw
00:0406 04 E1                    8975   	add	sp,	#4 
00:0408 01-F0'00-00'             8976   	bl	__ftolu8sw
00:040C 1E-F0                    8977   	pop	er0
00:040E 02 E1                    8978   	add	sp,	#2 
00:0410 13-90 62-F9              8979   	st	er0,	0f962h
                                 8980   
                                 8981   ;;				PWCD = PWMIdleDutyRun;	
                                 8982   CLINEA 0000H 0001H 0B13H 0005H 001BH
00:0414 12-90 00-00'             8983   	l	er0,	NEAR _PWMIdleDutyRun
00:0418 13-90 12-F9              8984   	st	er0,	0f912h
                                 8985   
                                 8986   ;;				CheckSafetyLimit();
                                 8987   CLINEA 0000H 0001H 0B15H 0005H 0017H
00:041C 01-F0'00-00'             8988   	bl	_CheckSafetyLimit
                                 8989   
                                 8990   ;;				PFRUN = 1;	//Turn ON PWM
                                 8991   CLINEA 0000H 0001H 0B16H 0005H 001CH
00:0420 80-A0 73-F9              8992   	sb	0f973h.0
                                 8993   
                                 8994   ;;				PCRUN = 1;
                                 8995   CLINEA 0000H 0001H 0B19H 0005H 000EH
00:0424 80-A0 17-F9              8996   	sb	0f917h.0
                                 8997   CBLOCKEND 240 14 2842
                                 8998   
                                 8999   ;;			else{
                                 9000   CLINEA 0000H 0001H 0B1BH 0004H 0008H
00:0428 2C CE                    9001   	bal	_$L549
00:042A                          9002   _$L547 :
                                 9003   CBLOCK 240 15 2843
                                 9004   
                                 9005   ;;				PFRUN = 0;	//Turn OFF PWM
                                 9006   CLINEA 0000H 0001H 0B1CH 0005H 001DH
00:042A 82-A0 73-F9              9007   	rb	0f973h.0
                                 9008   
                                 9009   ;;				PCRUN = 0;
                                 9010   CLINEA 0000H 0001H 0B1FH 0005H 000EH
00:042E 82-A0 17-F9              9011   	rb	0f917h.0
                                 9012   
                                 9013   ;;				PWF0D = PWMIdleDutyRun; 		//Can't be running to change (Only this variable)
                                 9014   CLINEA 0000H 0001H 0B20H 0005H 004FH
00:0432 12-90 00-00'             9015   	l	er0,	NEAR _PWMIdleDutyRun
00:0436 13-90 62-F9              9016   	st	er0,	0f962h
                                 9017   
                                 9018   ;;				PWCD = PWMIdleDutyRun - Accel_PID_YPitchOutput + PWMtoRPMOffset_Mot3;	
                                 9019   CLINEA 0000H 0001H 0B22H 0005H 004AH
00:043A 00 E2                    9020   	mov	er2,	#0 
00:043C 6E-F0                    9021   	push	xr0
00:043E 01-F0'00-00'             9022   	bl	__fuldu8sw
00:0442 12-90 00-00'             9023   	l	er0,	NEAR _$ST12
00:0446 12-92 00-00'             9024   	l	er2,	NEAR _$ST12+02h
00:044A 6E-F0                    9025   	push	xr0
00:044C 01-F0'00-00'             9026   	bl	__fsubu8sw
00:0450 04 E1                    9027   	add	sp,	#4 
00:0452 2E-F4                    9028   	pop	xr4
00:0454 12-90 00-00'             9029   	l	er0,	NEAR _PWMtoRPMOffset_Mot3
00:0458 00 E2                    9030   	mov	er2,	#0 
00:045A 6E-F0                    9031   	push	xr0
00:045C 01-F0'00-00'             9032   	bl	__fuldu8sw
00:0460 2E-F0                    9033   	pop	xr0
00:0462 7E-F0                    9034   	push	qr0
00:0464 01-F0'00-00'             9035   	bl	__faddu8sw
00:0468 04 E1                    9036   	add	sp,	#4 
00:046A 01-F0'00-00'             9037   	bl	__ftolu8sw
00:046E 1E-F0                    9038   	pop	er0
00:0470 02 E1                    9039   	add	sp,	#2 
00:0472 13-90 12-F9              9040   	st	er0,	0f912h
                                 9041   
                                 9042   ;;				CheckSafetyLimit();
                                 9043   CLINEA 0000H 0001H 0B24H 0005H 0017H
00:0476 01-F0'00-00'             9044   	bl	_CheckSafetyLimit
                                 9045   
                                 9046   ;;				PFRUN = 1;	//Turn ON PWM
                                 9047   CLINEA 0000H 0001H 0B25H 0005H 001CH
00:047A 80-A0 73-F9              9048   	sb	0f973h.0
                                 9049   
                                 9050   ;;				PCRUN = 1;
                                 9051   CLINEA 0000H 0001H 0B28H 0005H 000EH
00:047E 80-A0 17-F9              9052   	sb	0f917h.0
                                 9053   CBLOCKEND 240 15 2857
                                 9054   
                                 9055   ;;			}
                                 9056   CLINEA 0000H 0000H 0B29H 0004H 0004H
00:0482                          9057   _$L549 :
                                 9058   CBLOCKEND 240 11 2858
                                 9059   CBLOCKEND 240 2 2888
                                 9060   
                                 9061   ;;}
                                 9062   CLINEA 0000H 0001H 0B48H 0001H 0001H
00:0482 2E-F4                    9063   	pop	xr4
00:0484 2E-F8                    9064   	pop	xr8
00:0486 8E-F2                    9065   	pop	pc
                                 9066   CBLOCKEND 240 1 2888
                                 9067   CFUNCTIONEND 240
                                 9068   
                                 9069   
  --------------------------     9070   	rseg $$RangeSensorControlPID$main
                                 9071   CFUNCTION 241
                                 9072   
00:0000                          9073   _RangeSensorControlPID	:
                                 9074   CBLOCK 241 1 2889
                                 9075   
                                 9076   ;;void RangeSensorControlPID(void){
                                 9077   CLINEA 0000H 0001H 0B49H 0001H 0021H
00:0000 CE-F8                    9078   	push	lr
00:0002 6E-F8                    9079   	push	xr8
00:0004 6E-F4                    9080   	push	xr4
                                 9081   CBLOCK 241 2 2889
                                 9082   CRET 0008H
                                 9083   CLOCAL 47H 0002H 0024H 0002H "i" 02H 00H 01H
                                 9084   
                                 9085   ;;	Range_PIDError = Range_PIDSetpoint - Range_out;
                                 9086   CLINEA 0000H 0001H 0B4EH 0002H 0030H
00:0006 12-90 00-00'             9087   	l	er0,	NEAR _Range_out
00:000A 00 E2                    9088   	mov	er2,	#0 
00:000C 6E-F0                    9089   	push	xr0
00:000E 01-F0'00-00'             9090   	bl	__fuldu8sw
00:0012 2E-F0                    9091   	pop	xr0
00:0014 12-94 00-00'             9092   	l	er4,	NEAR _Range_PIDSetpoint
00:0018 12-96 00-00'             9093   	l	er6,	NEAR _Range_PIDSetpoint+02h
00:001C 7E-F0                    9094   	push	qr0
00:001E 01-F0'00-00'             9095   	bl	__fsubu8sw
00:0022 04 E1                    9096   	add	sp,	#4 
00:0024 2E-F0                    9097   	pop	xr0
00:0026 13-90 00-00'             9098   	st	er0,	NEAR _Range_PIDError
00:002A 13-92 00-00'             9099   	st	er2,	NEAR _Range_PIDError+02h
                                 9100   
                                 9101   ;;	Range_PIDCurrentCount = Range_PIDCounter * .007;		//Timer in Seconds (.007 used to convert 128Hz TBC to seconds)
                                 9102   CLINEA 0000H 0001H 0B51H 0002H 0071H
00:002E 12-94 00-00'             9103   	l	er4,	NEAR _Range_PIDCounter
00:0032 00 E6                    9104   	mov	er6,	#0 
00:0034 6E-F4                    9105   	push	xr4
00:0036 FC E1                    9106   	add	sp,	#-4
00:0038 01-F0'00-00'             9107   	bl	__dildu8sw
00:003C 79 04                    9108   	mov	r4,	#079h
00:003E E9 05                    9109   	mov	r5,	#0e9h
00:0040 26 06                    9110   	mov	r6,	#026h
00:0042 31 07                    9111   	mov	r7,	#031h
00:0044 08 08                    9112   	mov	r8,	#08h
00:0046 AC 09                    9113   	mov	r9,	#0ach
00:0048 7C 0A                    9114   	mov	r10,	#07ch
00:004A 3F 0B                    9115   	mov	r11,	#03fh
00:004C 6E-F8                    9116   	push	xr8
00:004E 6E-F4                    9117   	push	xr4
00:0050 01-F0'00-00'             9118   	bl	__dmulu8sw
00:0054 08 E1                    9119   	add	sp,	#8 
00:0056 01-F0'00-00'             9120   	bl	__dtofu8sw
00:005A 04 E1                    9121   	add	sp,	#4 
00:005C 2E-F4                    9122   	pop	xr4
00:005E 13-94 00-00'             9123   	st	er4,	NEAR _Range_PIDCurrentCount
00:0062 13-96 00-00'             9124   	st	er6,	NEAR _Range_PIDCurrentCount+02h
                                 9125   
                                 9126   ;;	Range_PIDCounter = 0;
                                 9127   CLINEA 0000H 0001H 0B52H 0002H 0016H
00:0066 00 E4                    9128   	mov	er4,	#0 
00:0068 13-94 00-00'             9129   	st	er4,	NEAR _Range_PIDCounter
                                 9130   
                                 9131   ;;	Range_PIDErrSum += (Range_PIDError * Range_PIDCurrentCount);
                                 9132   CLINEA 0000H 0001H 0B55H 0002H 003DH
00:006C 6E-F0                    9133   	push	xr0
00:006E 12-94 00-00'             9134   	l	er4,	NEAR _Range_PIDCurrentCount
00:0072 6E-F4                    9135   	push	xr4
00:0074 01-F0'00-00'             9136   	bl	__fmulu8sw
00:0078 04 E1                    9137   	add	sp,	#4 
00:007A 12-94 00-00'             9138   	l	er4,	NEAR _Range_PIDErrSum
00:007E 12-96 00-00'             9139   	l	er6,	NEAR _Range_PIDErrSum+02h
00:0082 6E-F4                    9140   	push	xr4
00:0084 01-F0'00-00'             9141   	bl	__faddu8sw
00:0088 04 E1                    9142   	add	sp,	#4 
00:008A 2E-F4                    9143   	pop	xr4
00:008C 13-94 00-00'             9144   	st	er4,	NEAR _Range_PIDErrSum
00:0090 13-96 00-00'             9145   	st	er6,	NEAR _Range_PIDErrSum+02h
                                 9146   
                                 9147   ;;	Range_PIDdErr	/= Range_PIDCurrentCount;
                                 9148   CLINEA 0000H 0001H 0B59H 0002H 0028H
00:0094 6E-F0                    9149   	push	xr0
00:0096 12-94 00-00'             9150   	l	er4,	NEAR _Range_PIDErrPrev
00:009A 12-96 00-00'             9151   	l	er6,	NEAR _Range_PIDErrPrev+02h
00:009E 6E-F4                    9152   	push	xr4
00:00A0 01-F0'00-00'             9153   	bl	__fsubu8sw
00:00A4 04 E1                    9154   	add	sp,	#4 
00:00A6 12-94 00-00'             9155   	l	er4,	NEAR _Range_PIDCurrentCount
00:00AA 12-96 00-00'             9156   	l	er6,	NEAR _Range_PIDCurrentCount+02h
00:00AE 6E-F4                    9157   	push	xr4
00:00B0 01-F0'00-00'             9158   	bl	__fdivu8sw
00:00B4 04 E1                    9159   	add	sp,	#4 
00:00B6 2E-F4                    9160   	pop	xr4
00:00B8 13-94 00-00'             9161   	st	er4,	NEAR _Range_PIDdErr
00:00BC 13-96 00-00'             9162   	st	er6,	NEAR _Range_PIDdErr+02h
                                 9163   
                                 9164   ;;	Range_PIDErrPrev = Range_PIDError;
                                 9165   CLINEA 0000H 0001H 0B5AH 0002H 0023H
00:00C0 13-90 00-00'             9166   	st	er0,	NEAR _Range_PIDErrPrev
00:00C4 13-92 00-00'             9167   	st	er2,	NEAR _Range_PIDErrPrev+02h
                                 9168   
                                 9169   ;;	Range_PIDOutput = (Range_PID_kp*Range_PIDError) + (Range_PID_ki*Range_PIDErrSum) + (Range_PID_kd*Range_PIDdErr);
                                 9170   CLINEA 0000H 0001H 0B5DH 0002H 0071H
00:00C8 6E-F0                    9171   	push	xr0
00:00CA 12-90 00-00'             9172   	l	er0,	NEAR _Range_PID_kp
00:00CE 12-92 00-00'             9173   	l	er2,	NEAR _Range_PID_kp+02h
00:00D2 6E-F0                    9174   	push	xr0
00:00D4 01-F0'00-00'             9175   	bl	__fmulu8sw
00:00D8 04 E1                    9176   	add	sp,	#4 
00:00DA 2E-F0                    9177   	pop	xr0
00:00DC 12-94 00-00'             9178   	l	er4,	NEAR _Range_PIDErrSum
00:00E0 12-96 00-00'             9179   	l	er6,	NEAR _Range_PIDErrSum+02h
00:00E4 6E-F4                    9180   	push	xr4
00:00E6 12-94 00-00'             9181   	l	er4,	NEAR _Range_PID_ki
00:00EA 12-96 00-00'             9182   	l	er6,	NEAR _Range_PID_ki+02h
00:00EE 6E-F4                    9183   	push	xr4
00:00F0 01-F0'00-00'             9184   	bl	__fmulu8sw
00:00F4 04 E1                    9185   	add	sp,	#4 
00:00F6 2E-F4                    9186   	pop	xr4
00:00F8 6E-F0                    9187   	push	xr0
00:00FA 6E-F4                    9188   	push	xr4
00:00FC 01-F0'00-00'             9189   	bl	__faddu8sw
00:0100 04 E1                    9190   	add	sp,	#4 
00:0102 2E-F0                    9191   	pop	xr0
00:0104 12-94 00-00'             9192   	l	er4,	NEAR _Range_PID_kd
00:0108 12-96 00-00'             9193   	l	er6,	NEAR _Range_PID_kd+02h
00:010C 6E-F4                    9194   	push	xr4
00:010E 12-94 00-00'             9195   	l	er4,	NEAR _Range_PIDdErr
00:0112 12-96 00-00'             9196   	l	er6,	NEAR _Range_PIDdErr+02h
00:0116 6E-F4                    9197   	push	xr4
00:0118 01-F0'00-00'             9198   	bl	__fmulu8sw
00:011C 04 E1                    9199   	add	sp,	#4 
00:011E 2E-F4                    9200   	pop	xr4
00:0120 6E-F0                    9201   	push	xr0
00:0122 6E-F4                    9202   	push	xr4
00:0124 01-F0'00-00'             9203   	bl	__faddu8sw
00:0128 04 E1                    9204   	add	sp,	#4 
00:012A 2E-F0                    9205   	pop	xr0
00:012C 13-90 00-00'             9206   	st	er0,	NEAR _Range_PIDOutput
00:0130 13-92 00-00'             9207   	st	er2,	NEAR _Range_PIDOutput+02h
                                 9208   
                                 9209   ;;	PFRUN = 0;	//Turn OFF PWM
                                 9210   CLINEA 0000H 0001H 0B61H 0002H 001AH
00:0134 82-A0 73-F9              9211   	rb	0f973h.0
                                 9212   
                                 9213   ;;	PERUN = 0;
                                 9214   CLINEA 0000H 0001H 0B62H 0002H 000BH
00:0138 82-A0 37-F9              9215   	rb	0f937h.0
                                 9216   
                                 9217   ;;	PDRUN = 0;
                                 9218   CLINEA 0000H 0001H 0B63H 0002H 000BH
00:013C 82-A0 27-F9              9219   	rb	0f927h.0
                                 9220   
                                 9221   ;;	PCRUN = 0;
                                 9222   CLINEA 0000H 0001H 0B64H 0002H 000BH
00:0140 82-A0 17-F9              9223   	rb	0f917h.0
                                 9224   
                                 9225   ;;	PWF0D += Range_PIDOutput; 		//Can't be running to change (Only this variable)
                                 9226   CLINEA 0000H 0001H 0B65H 0002H 004EH
00:0144 12-90 62-F9              9227   	l	er0,	0f962h
00:0148 00 E2                    9228   	mov	er2,	#0 
00:014A 6E-F0                    9229   	push	xr0
00:014C 01-F0'00-00'             9230   	bl	__fuldu8sw
00:0150 12-90 00-00'             9231   	l	er0,	NEAR _Range_PIDOutput
00:0154 12-92 00-00'             9232   	l	er2,	NEAR _Range_PIDOutput+02h
00:0158 6E-F0                    9233   	push	xr0
00:015A 01-F0'00-00'             9234   	bl	__faddu8sw
00:015E 04 E1                    9235   	add	sp,	#4 
00:0160 01-F0'00-00'             9236   	bl	__ftolu8sw
00:0164 1E-F0                    9237   	pop	er0
00:0166 02 E1                    9238   	add	sp,	#2 
00:0168 13-90 62-F9              9239   	st	er0,	0f962h
                                 9240   
                                 9241   ;;	PWED += Range_PIDOutput;	
                                 9242   CLINEA 0000H 0001H 0B66H 0002H 001AH
00:016C 12-90 32-F9              9243   	l	er0,	0f932h
00:0170 00 E2                    9244   	mov	er2,	#0 
00:0172 6E-F0                    9245   	push	xr0
00:0174 01-F0'00-00'             9246   	bl	__fuldu8sw
00:0178 12-90 00-00'             9247   	l	er0,	NEAR _Range_PIDOutput
00:017C 12-92 00-00'             9248   	l	er2,	NEAR _Range_PIDOutput+02h
00:0180 6E-F0                    9249   	push	xr0
00:0182 01-F0'00-00'             9250   	bl	__faddu8sw
00:0186 04 E1                    9251   	add	sp,	#4 
00:0188 01-F0'00-00'             9252   	bl	__ftolu8sw
00:018C 1E-F0                    9253   	pop	er0
00:018E 02 E1                    9254   	add	sp,	#2 
00:0190 13-90 32-F9              9255   	st	er0,	0f932h
                                 9256   
                                 9257   ;;	PWDD += Range_PIDOutput;	
                                 9258   CLINEA 0000H 0001H 0B67H 0002H 001AH
00:0194 12-90 22-F9              9259   	l	er0,	0f922h
00:0198 00 E2                    9260   	mov	er2,	#0 
00:019A 6E-F0                    9261   	push	xr0
00:019C 01-F0'00-00'             9262   	bl	__fuldu8sw
00:01A0 12-90 00-00'             9263   	l	er0,	NEAR _Range_PIDOutput
00:01A4 12-92 00-00'             9264   	l	er2,	NEAR _Range_PIDOutput+02h
00:01A8 6E-F0                    9265   	push	xr0
00:01AA 01-F0'00-00'             9266   	bl	__faddu8sw
00:01AE 04 E1                    9267   	add	sp,	#4 
00:01B0 01-F0'00-00'             9268   	bl	__ftolu8sw
00:01B4 1E-F0                    9269   	pop	er0
00:01B6 02 E1                    9270   	add	sp,	#2 
00:01B8 13-90 22-F9              9271   	st	er0,	0f922h
                                 9272   
                                 9273   ;;	PWCD += Range_PIDOutput;
                                 9274   CLINEA 0000H 0001H 0B68H 0002H 0019H
00:01BC 12-90 12-F9              9275   	l	er0,	0f912h
00:01C0 00 E2                    9276   	mov	er2,	#0 
00:01C2 6E-F0                    9277   	push	xr0
00:01C4 01-F0'00-00'             9278   	bl	__fuldu8sw
00:01C8 12-90 00-00'             9279   	l	er0,	NEAR _Range_PIDOutput
00:01CC 12-92 00-00'             9280   	l	er2,	NEAR _Range_PIDOutput+02h
00:01D0 6E-F0                    9281   	push	xr0
00:01D2 01-F0'00-00'             9282   	bl	__faddu8sw
00:01D6 04 E1                    9283   	add	sp,	#4 
00:01D8 01-F0'00-00'             9284   	bl	__ftolu8sw
00:01DC 1E-F0                    9285   	pop	er0
00:01DE 02 E1                    9286   	add	sp,	#2 
00:01E0 13-90 12-F9              9287   	st	er0,	0f912h
                                 9288   
                                 9289   ;;	CheckSafetyLimit();
                                 9290   CLINEA 0000H 0001H 0B69H 0002H 0014H
00:01E4 01-F0'00-00'             9291   	bl	_CheckSafetyLimit
                                 9292   
                                 9293   ;;	PFRUN = 1;	//Turn ON PWM
                                 9294   CLINEA 0000H 0001H 0B6AH 0002H 0019H
00:01E8 80-A0 73-F9              9295   	sb	0f973h.0
                                 9296   
                                 9297   ;;	PERUN = 1;
                                 9298   CLINEA 0000H 0001H 0B6BH 0002H 000BH
00:01EC 80-A0 37-F9              9299   	sb	0f937h.0
                                 9300   
                                 9301   ;;	PDRUN = 1;
                                 9302   CLINEA 0000H 0001H 0B6CH 0002H 000BH
00:01F0 80-A0 27-F9              9303   	sb	0f927h.0
                                 9304   
                                 9305   ;;	PCRUN = 1;
                                 9306   CLINEA 0000H 0001H 0B6DH 0002H 000BH
00:01F4 80-A0 17-F9              9307   	sb	0f917h.0
                                 9308   
                                 9309   ;;	for(i = 0; i<150; i++)
                                 9310   CLINEA 0000H 0001H 0B6FH 0002H 0017H
00:01F8 00 E0                    9311   	mov	er0,	#0 
00:01FA                          9312   _$L553 :
                                 9313   CBLOCK 241 3 2928
                                 9314   
                                 9315   ;;		SensorReturn[i] = 0x20;
                                 9316   CLINEA 0000H 0001H 0B71H 0003H 0019H
00:01FA 20 02                    9317   	mov	r2,	#020h
00:01FC 09-92 00-00'             9318   	st	r2,	NEAR _SensorReturn[er0]
                                 9319   CBLOCKEND 241 3 2930
                                 9320   
                                 9321   ;;	for(i = 0; i<150; i++)
                                 9322   CLINEA 0000H 0000H 0B6FH 0002H 0017H
00:0200 81 E0                    9323   	add	er0,	#1 
                                 9324   
                                 9325   ;;	for(i = 0; i<150; i++)
                                 9326   CLINEA 0000H 0000H 0B6FH 000EH 0013H
00:0202 96 70                    9327   	cmp	r0,	#096h
00:0204 00 51                    9328   	cmpc	r1,	#00h
00:0206 F9 C5                    9329   	blts	_$L553
                                 9330   
                                 9331   ;;	sprintf(SensorReturn, "%f,%f,%f", Range_out, Range_PIDCurrentCount,Range_PIDOutput);
                                 9332   CLINEA 0000H 0001H 0B75H 0002H 0055H
00:0208 12-90 00-00'             9333   	l	er0,	NEAR _Range_PIDOutput
00:020C 12-92 00-00'             9334   	l	er2,	NEAR _Range_PIDOutput+02h
00:0210 6E-F0                    9335   	push	xr0
00:0212 FC E1                    9336   	add	sp,	#-4
00:0214 01-F0'00-00'             9337   	bl	__ftodu8sw
00:0218 12-90 00-00'             9338   	l	er0,	NEAR _Range_PIDCurrentCount
00:021C 12-92 00-00'             9339   	l	er2,	NEAR _Range_PIDCurrentCount+02h
00:0220 6E-F0                    9340   	push	xr0
00:0222 FC E1                    9341   	add	sp,	#-4
00:0224 01-F0'00-00'             9342   	bl	__ftodu8sw
00:0228 12-90 00-00'             9343   	l	er0,	NEAR _Range_out
00:022C 5E-F0                    9344   	push	er0
00:022E 00'00                    9345   	mov	r0,	#BYTE1 OFFSET $$S196
00:0230 00'01                    9346   	mov	r1,	#BYTE2 OFFSET $$S196
00:0232 5E-F0                    9347   	push	er0
00:0234 00'00                    9348   	mov	r0,	#BYTE1 OFFSET _SensorReturn
00:0236 00'01                    9349   	mov	r1,	#BYTE2 OFFSET _SensorReturn
00:0238 5E-F0                    9350   	push	er0
00:023A 01-F0'00-00'             9351   	bl	_sprintf_nn
00:023E 16 E1                    9352   	add	sp,	#22
                                 9353   
                                 9354   ;;	SensorReturn[148] = 0x0D;
                                 9355   CLINEA 0000H 0001H 0B77H 0002H 001AH
00:0240 0D 00                    9356   	mov	r0,	#0dh
00:0242 11-90 00-00'             9357   	st	r0,	NEAR _SensorReturn+094h
                                 9358   
                                 9359   ;;	SensorReturn[149] = 0x0A;
                                 9360   CLINEA 0000H 0001H 0B78H 0002H 001AH
00:0246 0A 00                    9361   	mov	r0,	#0ah
00:0248 11-90 00-00'             9362   	st	r0,	NEAR _SensorReturn+095h
                                 9363   
                                 9364   ;;	_flgUartFin = 0;
                                 9365   CLINEA 0000H 0001H 0B7BH 0002H 0011H
00:024C 00 00                    9366   	mov	r0,	#00h
00:024E 11-90 00-00'             9367   	st	r0,	NEAR __flgUartFin
                                 9368   
                                 9369   ;;	uart_stop();
                                 9370   CLINEA 0000H 0001H 0B7CH 0002H 000DH
00:0252 01-F0'00-00'             9371   	bl	_uart_stop
                                 9372   
                                 9373   ;;	uart_startSend(SensorReturn, 150, _funcUartFin);
                                 9374   CLINEA 0000H 0001H 0B7DH 0002H 0031H
00:0256 00'00                    9375   	mov	r0,	#BYTE1 OFFSET __funcUartFin
00:0258 00'01                    9376   	mov	r1,	#BYTE2 OFFSET __funcUartFin
00:025A 5E-F0                    9377   	push	er0
00:025C 96 02                    9378   	mov	r2,	#096h
00:025E 00 03                    9379   	mov	r3,	#00h
00:0260 00'00                    9380   	mov	r0,	#BYTE1 OFFSET _SensorReturn
00:0262 00'01                    9381   	mov	r1,	#BYTE2 OFFSET _SensorReturn
00:0264 01-F0'00-00'             9382   	bl	_uart_startSend
00:0268 02 E1                    9383   	add	sp,	#2 
                                 9384   
                                 9385   ;;	while(_flgUartFin != 1){
                                 9386   CLINEA 0000H 0000H 0B7EH 0001H 0001H
00:026A 02 CE                    9387   	bal	_$L561
                                 9388   
                                 9389   ;;	while(_flgUartFin != 1){
                                 9390   CLINEA 0000H 0000H 0B7EH 0002H 0019H
00:026C                          9391   _$L559 :
                                 9392   CBLOCK 241 4 2942
                                 9393   
                                 9394   ;;		main_clrWDT();
                                 9395   CLINEA 0000H 0001H 0B7FH 0003H 0010H
00:026C 01-F0'00-00'             9396   	bl	_main_clrWDT
                                 9397   CBLOCKEND 241 4 2944
                                 9398   
                                 9399   ;;	while(_flgUartFin != 1){
                                 9400   CLINEA 0000H 0000H 0B7EH 0001H 0001H
00:0270                          9401   _$L561 :
                                 9402   
                                 9403   ;;	while(_flgUartFin != 1){
                                 9404   CLINEA 0000H 0000H 0B7EH 000EH 0013H
00:0270 10-90 00-00'             9405   	l	r0,	NEAR __flgUartFin
00:0274 01 70                    9406   	cmp	r0,	#01h
00:0276 FA C8                    9407   	bne	_$L559
                                 9408   CBLOCKEND 241 2 2946
                                 9409   
                                 9410   ;;}
                                 9411   CLINEA 0000H 0001H 0B82H 0001H 0001H
00:0278 2E-F4                    9412   	pop	xr4
00:027A 2E-F8                    9413   	pop	xr8
00:027C 8E-F2                    9414   	pop	pc
                                 9415   CBLOCKEND 241 1 2946
                                 9416   CFUNCTIONEND 241
                                 9417   
                                 9418   
  --------------------------     9419   	rseg $$CheckSafetyLimit$main
                                 9420   CFUNCTION 242
                                 9421   
00:0000                          9422   _CheckSafetyLimit	:
                                 9423   CBLOCK 242 1 2948
                                 9424   
                                 9425   ;;void CheckSafetyLimit(void){	
                                 9426   CLINEA 0000H 0001H 0B84H 0001H 001DH
                                 9427   CBLOCK 242 2 2948
                                 9428   
                                 9429   ;;	if(PWED > PWMUpperDutyLimitRun){
                                 9430   CLINEA 0000H 0001H 0B86H 0002H 0021H
00:0000 12-90 32-F9              9431   	l	er0,	0f932h
00:0004 12-92 00-00'             9432   	l	er2,	NEAR _PWMUpperDutyLimitRun
00:0008 27-F0                    9433   	cmp	er0,	er2
00:000A 02 C3                    9434   	ble	_$L563
                                 9435   CBLOCK 242 3 2950
                                 9436   
                                 9437   ;;		PWED = PWMUpperDutyLimitRun;
                                 9438   CLINEA 0000H 0001H 0B87H 0003H 001EH
00:000C 13-92 32-F9              9439   	st	er2,	0f932h
                                 9440   CBLOCKEND 242 3 2952
                                 9441   
                                 9442   ;;	}
                                 9443   CLINEA 0000H 0000H 0B88H 0002H 0002H
00:0010                          9444   _$L563 :
                                 9445   
                                 9446   ;;	if(PWED < PWMLowerDutyLimitRun){
                                 9447   CLINEA 0000H 0001H 0B89H 0002H 0021H
00:0010 12-90 32-F9              9448   	l	er0,	0f932h
00:0014 12-92 00-00'             9449   	l	er2,	NEAR _PWMLowerDutyLimitRun
00:0018 27-F0                    9450   	cmp	er0,	er2
00:001A 02 C0                    9451   	bge	_$L565
                                 9452   CBLOCK 242 4 2953
                                 9453   
                                 9454   ;;		PWED = PWMLowerDutyLimitRun;
                                 9455   CLINEA 0000H 0001H 0B8AH 0003H 001EH
00:001C 13-92 32-F9              9456   	st	er2,	0f932h
                                 9457   CBLOCKEND 242 4 2955
                                 9458   
                                 9459   ;;	}
                                 9460   CLINEA 0000H 0000H 0B8BH 0002H 0002H
00:0020                          9461   _$L565 :
                                 9462   
                                 9463   ;;	if(PWF0D > PWMUpperDutyLimitRun){
                                 9464   CLINEA 0000H 0001H 0B8CH 0002H 0022H
00:0020 12-90 62-F9              9465   	l	er0,	0f962h
00:0024 12-92 00-00'             9466   	l	er2,	NEAR _PWMUpperDutyLimitRun
00:0028 27-F0                    9467   	cmp	er0,	er2
00:002A 02 C3                    9468   	ble	_$L567
                                 9469   CBLOCK 242 5 2956
                                 9470   
                                 9471   ;;		PWF0D = PWMUpperDutyLimitRun;
                                 9472   CLINEA 0000H 0001H 0B8DH 0003H 001FH
00:002C 13-92 62-F9              9473   	st	er2,	0f962h
                                 9474   CBLOCKEND 242 5 2958
                                 9475   
                                 9476   ;;	}
                                 9477   CLINEA 0000H 0000H 0B8EH 0002H 0002H
00:0030                          9478   _$L567 :
                                 9479   
                                 9480   ;;	if(PWF0D < PWMLowerDutyLimitRun){
                                 9481   CLINEA 0000H 0001H 0B8FH 0002H 0022H
00:0030 12-90 62-F9              9482   	l	er0,	0f962h
00:0034 12-92 00-00'             9483   	l	er2,	NEAR _PWMLowerDutyLimitRun
00:0038 27-F0                    9484   	cmp	er0,	er2
00:003A 02 C0                    9485   	bge	_$L569
                                 9486   CBLOCK 242 6 2959
                                 9487   
                                 9488   ;;		PWF0D = PWMLowerDutyLimitRun;
                                 9489   CLINEA 0000H 0001H 0B90H 0003H 001FH
00:003C 13-92 62-F9              9490   	st	er2,	0f962h
                                 9491   CBLOCKEND 242 6 2961
                                 9492   
                                 9493   ;;	}
                                 9494   CLINEA 0000H 0000H 0B91H 0002H 0002H
00:0040                          9495   _$L569 :
                                 9496   
                                 9497   ;;	if(PWDD > PWMUpperDutyLimitRun){
                                 9498   CLINEA 0000H 0001H 0B92H 0002H 0021H
00:0040 12-90 22-F9              9499   	l	er0,	0f922h
00:0044 12-92 00-00'             9500   	l	er2,	NEAR _PWMUpperDutyLimitRun
00:0048 27-F0                    9501   	cmp	er0,	er2
00:004A 02 C3                    9502   	ble	_$L571
                                 9503   CBLOCK 242 7 2962
                                 9504   
                                 9505   ;;		PWDD = PWMUpperDutyLimitRun;
                                 9506   CLINEA 0000H 0001H 0B93H 0003H 001EH
00:004C 13-92 22-F9              9507   	st	er2,	0f922h
                                 9508   CBLOCKEND 242 7 2964
                                 9509   
                                 9510   ;;	}
                                 9511   CLINEA 0000H 0000H 0B94H 0002H 0002H
00:0050                          9512   _$L571 :
                                 9513   
                                 9514   ;;	if(PWDD < PWMLowerDutyLimitRun){
                                 9515   CLINEA 0000H 0001H 0B95H 0002H 0021H
00:0050 12-90 22-F9              9516   	l	er0,	0f922h
00:0054 12-92 00-00'             9517   	l	er2,	NEAR _PWMLowerDutyLimitRun
00:0058 27-F0                    9518   	cmp	er0,	er2
00:005A 02 C0                    9519   	bge	_$L573
                                 9520   CBLOCK 242 8 2965
                                 9521   
                                 9522   ;;		PWDD = PWMLowerDutyLimitRun;
                                 9523   CLINEA 0000H 0001H 0B96H 0003H 001EH
00:005C 13-92 22-F9              9524   	st	er2,	0f922h
                                 9525   CBLOCKEND 242 8 2967
                                 9526   
                                 9527   ;;	}
                                 9528   CLINEA 0000H 0000H 0B97H 0002H 0002H
00:0060                          9529   _$L573 :
                                 9530   
                                 9531   ;;	if(PWCD > PWMUpperDutyLimitRun){
                                 9532   CLINEA 0000H 0001H 0B98H 0002H 0021H
00:0060 12-90 12-F9              9533   	l	er0,	0f912h
00:0064 12-92 00-00'             9534   	l	er2,	NEAR _PWMUpperDutyLimitRun
00:0068 27-F0                    9535   	cmp	er0,	er2
00:006A 02 C3                    9536   	ble	_$L575
                                 9537   CBLOCK 242 9 2968
                                 9538   
                                 9539   ;;		PWCD = PWMUpperDutyLimitRun;
                                 9540   CLINEA 0000H 0001H 0B99H 0003H 001EH
00:006C 13-92 12-F9              9541   	st	er2,	0f912h
                                 9542   CBLOCKEND 242 9 2970
                                 9543   
                                 9544   ;;	}
                                 9545   CLINEA 0000H 0000H 0B9AH 0002H 0002H
00:0070                          9546   _$L575 :
                                 9547   
                                 9548   ;;	if(PWCD < PWMLowerDutyLimitRun){
                                 9549   CLINEA 0000H 0001H 0B9BH 0002H 0021H
00:0070 12-90 12-F9              9550   	l	er0,	0f912h
00:0074 12-92 00-00'             9551   	l	er2,	NEAR _PWMLowerDutyLimitRun
00:0078 27-F0                    9552   	cmp	er0,	er2
00:007A 02 C0                    9553   	bge	_$L577
                                 9554   CBLOCK 242 10 2971
                                 9555   
                                 9556   ;;		PWCD = PWMLowerDutyLimitRun;
                                 9557   CLINEA 0000H 0001H 0B9CH 0003H 001EH
00:007C 13-92 12-F9              9558   	st	er2,	0f912h
                                 9559   CBLOCKEND 242 10 2973
                                 9560   
                                 9561   ;;	}
                                 9562   CLINEA 0000H 0000H 0B9DH 0002H 0002H
00:0080                          9563   _$L577 :
                                 9564   CBLOCKEND 242 2 2974
                                 9565   
                                 9566   ;;}
                                 9567   CLINEA 0000H 0001H 0B9EH 0001H 0001H
00:0080 1F-FE                    9568   	rt
                                 9569   CBLOCKEND 242 1 2974
                                 9570   CFUNCTIONEND 242
                                 9571   
                                 9572   
  --------------------------     9573   	rseg $$CheckSafetyLimitUnscaled$main
                                 9574   CFUNCTION 243
                                 9575   
00:0000                          9576   _CheckSafetyLimitUnscaled	:
                                 9577   CBLOCK 243 1 2976
                                 9578   
                                 9579   ;;void CheckSafetyLimitUnscaled(void){	
                                 9580   CLINEA 0000H 0001H 0BA0H 0001H 0025H
                                 9581   CBLOCK 243 2 2976
                                 9582   
                                 9583   ;;	if(Accel_PID_Motor1 > (49151)){
                                 9584   CLINEA 0000H 0001H 0BA2H 0002H 0020H
00:0000 12-90 00-00'             9585   	l	er0,	NEAR _Accel_PID_Motor1
00:0004 00 E2                    9586   	mov	er2,	#0 
00:0006 FF 70                    9587   	cmp	r0,	#0ffh
00:0008 BF 51                    9588   	cmpc	r1,	#0bfh
00:000A 00 52                    9589   	cmpc	r2,	#00h
00:000C 00 53                    9590   	cmpc	r3,	#00h
00:000E 04 C7                    9591   	bles	_$L580
                                 9592   CBLOCK 243 3 2978
                                 9593   
                                 9594   ;;		Accel_PID_Motor1 = 49151;
                                 9595   CLINEA 0000H 0001H 0BA3H 0003H 001BH
00:0010 FF 00                    9596   	mov	r0,	#0ffh
00:0012 BF 01                    9597   	mov	r1,	#0bfh
00:0014 13-90 00-00'             9598   	st	er0,	NEAR _Accel_PID_Motor1
                                 9599   CBLOCKEND 243 3 2980
                                 9600   
                                 9601   ;;	}
                                 9602   CLINEA 0000H 0000H 0BA4H 0002H 0002H
00:0018                          9603   _$L580 :
                                 9604   
                                 9605   ;;	if(Accel_PID_Motor1 < 16383){
                                 9606   CLINEA 0000H 0001H 0BA5H 0002H 001EH
00:0018 12-90 00-00'             9607   	l	er0,	NEAR _Accel_PID_Motor1
00:001C FF 70                    9608   	cmp	r0,	#0ffh
00:001E 3F 51                    9609   	cmpc	r1,	#03fh
00:0020 04 C0                    9610   	bge	_$L582
                                 9611   CBLOCK 243 4 2981
                                 9612   
                                 9613   ;;		Accel_PID_Motor1 = 16383;
                                 9614   CLINEA 0000H 0001H 0BA6H 0003H 001BH
00:0022 FF 00                    9615   	mov	r0,	#0ffh
00:0024 3F 01                    9616   	mov	r1,	#03fh
00:0026 13-90 00-00'             9617   	st	er0,	NEAR _Accel_PID_Motor1
                                 9618   CBLOCKEND 243 4 2983
                                 9619   
                                 9620   ;;	}
                                 9621   CLINEA 0000H 0000H 0BA7H 0002H 0002H
00:002A                          9622   _$L582 :
                                 9623   
                                 9624   ;;	if(Accel_PID_Motor2 > (49151)){
                                 9625   CLINEA 0000H 0001H 0BA8H 0002H 0020H
00:002A 12-90 00-00'             9626   	l	er0,	NEAR _Accel_PID_Motor2
00:002E 00 E2                    9627   	mov	er2,	#0 
00:0030 FF 70                    9628   	cmp	r0,	#0ffh
00:0032 BF 51                    9629   	cmpc	r1,	#0bfh
00:0034 00 52                    9630   	cmpc	r2,	#00h
00:0036 00 53                    9631   	cmpc	r3,	#00h
00:0038 04 C7                    9632   	bles	_$L584
                                 9633   CBLOCK 243 5 2984
                                 9634   
                                 9635   ;;		Accel_PID_Motor2 = 49151;
                                 9636   CLINEA 0000H 0001H 0BA9H 0003H 001BH
00:003A FF 00                    9637   	mov	r0,	#0ffh
00:003C BF 01                    9638   	mov	r1,	#0bfh
00:003E 13-90 00-00'             9639   	st	er0,	NEAR _Accel_PID_Motor2
                                 9640   CBLOCKEND 243 5 2986
                                 9641   
                                 9642   ;;	}
                                 9643   CLINEA 0000H 0000H 0BAAH 0002H 0002H
00:0042                          9644   _$L584 :
                                 9645   
                                 9646   ;;	if(Accel_PID_Motor2 < (16383)){
                                 9647   CLINEA 0000H 0001H 0BABH 0002H 0020H
00:0042 12-90 00-00'             9648   	l	er0,	NEAR _Accel_PID_Motor2
00:0046 FF 70                    9649   	cmp	r0,	#0ffh
00:0048 3F 51                    9650   	cmpc	r1,	#03fh
00:004A 04 C0                    9651   	bge	_$L586
                                 9652   CBLOCK 243 6 2987
                                 9653   
                                 9654   ;;		Accel_PID_Motor2 = 16383;
                                 9655   CLINEA 0000H 0001H 0BACH 0003H 001BH
00:004C FF 00                    9656   	mov	r0,	#0ffh
00:004E 3F 01                    9657   	mov	r1,	#03fh
00:0050 13-90 00-00'             9658   	st	er0,	NEAR _Accel_PID_Motor2
                                 9659   CBLOCKEND 243 6 2989
                                 9660   
                                 9661   ;;	}
                                 9662   CLINEA 0000H 0000H 0BADH 0002H 0002H
00:0054                          9663   _$L586 :
                                 9664   
                                 9665   ;;	if(Accel_PID_Motor3 > (49151)){
                                 9666   CLINEA 0000H 0001H 0BAEH 0002H 0020H
00:0054 12-90 00-00'             9667   	l	er0,	NEAR _Accel_PID_Motor3
00:0058 00 E2                    9668   	mov	er2,	#0 
00:005A FF 70                    9669   	cmp	r0,	#0ffh
00:005C BF 51                    9670   	cmpc	r1,	#0bfh
00:005E 00 52                    9671   	cmpc	r2,	#00h
00:0060 00 53                    9672   	cmpc	r3,	#00h
00:0062 04 C7                    9673   	bles	_$L588
                                 9674   CBLOCK 243 7 2990
                                 9675   
                                 9676   ;;		Accel_PID_Motor3 = 49151;
                                 9677   CLINEA 0000H 0001H 0BAFH 0003H 001BH
00:0064 FF 00                    9678   	mov	r0,	#0ffh
00:0066 BF 01                    9679   	mov	r1,	#0bfh
00:0068 13-90 00-00'             9680   	st	er0,	NEAR _Accel_PID_Motor3
                                 9681   CBLOCKEND 243 7 2992
                                 9682   
                                 9683   ;;	}
                                 9684   CLINEA 0000H 0000H 0BB0H 0002H 0002H
00:006C                          9685   _$L588 :
                                 9686   
                                 9687   ;;	if(Accel_PID_Motor3 < (16383)){
                                 9688   CLINEA 0000H 0001H 0BB1H 0002H 0020H
00:006C 12-90 00-00'             9689   	l	er0,	NEAR _Accel_PID_Motor3
00:0070 FF 70                    9690   	cmp	r0,	#0ffh
00:0072 3F 51                    9691   	cmpc	r1,	#03fh
00:0074 04 C0                    9692   	bge	_$L590
                                 9693   CBLOCK 243 8 2993
                                 9694   
                                 9695   ;;		Accel_PID_Motor3 = 16383;
                                 9696   CLINEA 0000H 0001H 0BB2H 0003H 001BH
00:0076 FF 00                    9697   	mov	r0,	#0ffh
00:0078 3F 01                    9698   	mov	r1,	#03fh
00:007A 13-90 00-00'             9699   	st	er0,	NEAR _Accel_PID_Motor3
                                 9700   CBLOCKEND 243 8 2995
                                 9701   
                                 9702   ;;	}
                                 9703   CLINEA 0000H 0000H 0BB3H 0002H 0002H
00:007E                          9704   _$L590 :
                                 9705   
                                 9706   ;;	if(Accel_PID_Motor4 > (49151)){
                                 9707   CLINEA 0000H 0001H 0BB4H 0002H 0020H
00:007E 12-90 00-00'             9708   	l	er0,	NEAR _Accel_PID_Motor4
00:0082 00 E2                    9709   	mov	er2,	#0 
00:0084 FF 70                    9710   	cmp	r0,	#0ffh
00:0086 BF 51                    9711   	cmpc	r1,	#0bfh
00:0088 00 52                    9712   	cmpc	r2,	#00h
00:008A 00 53                    9713   	cmpc	r3,	#00h
00:008C 04 C7                    9714   	bles	_$L592
                                 9715   CBLOCK 243 9 2996
                                 9716   
                                 9717   ;;		Accel_PID_Motor4 = 49151;
                                 9718   CLINEA 0000H 0001H 0BB5H 0003H 001BH
00:008E FF 00                    9719   	mov	r0,	#0ffh
00:0090 BF 01                    9720   	mov	r1,	#0bfh
00:0092 13-90 00-00'             9721   	st	er0,	NEAR _Accel_PID_Motor4
                                 9722   CBLOCKEND 243 9 2998
                                 9723   
                                 9724   ;;	}
                                 9725   CLINEA 0000H 0000H 0BB6H 0002H 0002H
00:0096                          9726   _$L592 :
                                 9727   
                                 9728   ;;	if(Accel_PID_Motor4 < (16383)){
                                 9729   CLINEA 0000H 0001H 0BB7H 0002H 0020H
00:0096 12-90 00-00'             9730   	l	er0,	NEAR _Accel_PID_Motor4
00:009A FF 70                    9731   	cmp	r0,	#0ffh
00:009C 3F 51                    9732   	cmpc	r1,	#03fh
00:009E 04 C0                    9733   	bge	_$L594
                                 9734   CBLOCK 243 10 2999
                                 9735   
                                 9736   ;;		Accel_PID_Motor4 = 16383;
                                 9737   CLINEA 0000H 0001H 0BB8H 0003H 001BH
00:00A0 FF 00                    9738   	mov	r0,	#0ffh
00:00A2 3F 01                    9739   	mov	r1,	#03fh
00:00A4 13-90 00-00'             9740   	st	er0,	NEAR _Accel_PID_Motor4
                                 9741   CBLOCKEND 243 10 3001
                                 9742   
                                 9743   ;;	}
                                 9744   CLINEA 0000H 0000H 0BB9H 0002H 0002H
00:00A8                          9745   _$L594 :
                                 9746   CBLOCKEND 243 2 3002
                                 9747   
                                 9748   ;;}
                                 9749   CLINEA 0000H 0001H 0BBAH 0001H 0001H
00:00A8 1F-FE                    9750   	rt
                                 9751   CBLOCKEND 243 1 3002
                                 9752   CFUNCTIONEND 243
                                 9753   
                                 9754   
  --------------------------     9755   	rseg $$Shutdown$main
                                 9756   CFUNCTION 244
                                 9757   
00:0000                          9758   _Shutdown	:
                                 9759   CBLOCK 244 1 3004
                                 9760   
                                 9761   ;;void Shutdown(void){
                                 9762   CLINEA 0000H 0001H 0BBCH 0001H 0014H
00:0000 CE-F8                    9763   	push	lr
                                 9764   CBLOCK 244 2 3004
                                 9765   CRET 0000H
                                 9766   
                                 9767   ;;	if((PWED > PWMSafeDuty)||(PWF0D > PWMSafeDuty)||(PWDD > PWMSafeDuty)||(PWCD > PWMSafeDuty)){
                                 9768   CLINEA 0000H 0001H 0BBDH 0002H 005DH
00:0002 12-90 32-F9              9769   	l	er0,	0f932h
00:0006 12-92 00-00'             9770   	l	er2,	NEAR _PWMSafeDuty
00:000A 27-F0                    9771   	cmp	er0,	er2
00:000C 0E C2                    9772   	bgt	_$L598
00:000E 12-90 62-F9              9773   	l	er0,	0f962h
00:0012 27-F0                    9774   	cmp	er0,	er2
00:0014 0A C2                    9775   	bgt	_$L598
00:0016 12-90 22-F9              9776   	l	er0,	0f922h
00:001A 27-F0                    9777   	cmp	er0,	er2
00:001C 06 C2                    9778   	bgt	_$L598
00:001E 12-90 12-F9              9779   	l	er0,	0f912h
00:0022 27-F0                    9780   	cmp	er0,	er2
00:0024 02 C2                    9781   	bgt	_$M47
00:0026 00-F0'00-00'             9782   	b	_$L611
00:002A                          9783   _$M47 :
00:002A                          9784   _$L598 :
                                 9785   CBLOCK 244 3 3005
                                 9786   CBLOCK 244 4 3006
                                 9787   
                                 9788   ;;			main_clrWDT();					
                                 9789   CLINEA 0000H 0001H 0BBFH 0004H 0016H
00:002A 01-F0'00-00'             9790   	bl	_main_clrWDT
                                 9791   
                                 9792   ;;			PFRUN = 0;	//Turn OFF PWM
                                 9793   CLINEA 0000H 0001H 0BC0H 0004H 001CH
00:002E 82-A0 73-F9              9794   	rb	0f973h.0
                                 9795   
                                 9796   ;;			PERUN = 0;
                                 9797   CLINEA 0000H 0001H 0BC1H 0004H 000DH
00:0032 82-A0 37-F9              9798   	rb	0f937h.0
                                 9799   
                                 9800   ;;			PDRUN = 0;
                                 9801   CLINEA 0000H 0001H 0BC2H 0004H 000DH
00:0036 82-A0 27-F9              9802   	rb	0f927h.0
                                 9803   
                                 9804   ;;			PCRUN = 0;
                                 9805   CLINEA 0000H 0001H 0BC3H 0004H 000DH
00:003A 82-A0 17-F9              9806   	rb	0f917h.0
                                 9807   
                                 9808   ;;			PWF0D -= 10; //Can't be running to change (Only this variable)
                                 9809   CLINEA 0000H 0001H 0BC4H 0004H 0041H
00:003E 12-90 62-F9              9810   	l	er0,	0f962h
00:0042 F6 E0                    9811   	add	er0,	#-10
00:0044 13-90 62-F9              9812   	st	er0,	0f962h
                                 9813   
                                 9814   ;;			PWED -= 10;
                                 9815   CLINEA 0000H 0001H 0BC5H 0004H 000EH
00:0048 12-90 32-F9              9816   	l	er0,	0f932h
00:004C F6 E0                    9817   	add	er0,	#-10
00:004E 13-90 32-F9              9818   	st	er0,	0f932h
                                 9819   
                                 9820   ;;			PWDD -= 10;
                                 9821   CLINEA 0000H 0001H 0BC6H 0004H 000EH
00:0052 12-90 22-F9              9822   	l	er0,	0f922h
00:0056 F6 E0                    9823   	add	er0,	#-10
00:0058 13-90 22-F9              9824   	st	er0,	0f922h
                                 9825   
                                 9826   ;;			PWCD -= 10;
                                 9827   CLINEA 0000H 0001H 0BC7H 0004H 000EH
00:005C 12-90 12-F9              9828   	l	er0,	0f912h
00:0060 F6 E0                    9829   	add	er0,	#-10
00:0062 13-90 12-F9              9830   	st	er0,	0f912h
                                 9831   
                                 9832   ;;			PFRUN = 1;	//Turn ON PWM
                                 9833   CLINEA 0000H 0001H 0BC8H 0004H 001BH
00:0066 80-A0 73-F9              9834   	sb	0f973h.0
                                 9835   
                                 9836   ;;			PERUN = 1;
                                 9837   CLINEA 0000H 0001H 0BC9H 0004H 000DH
00:006A 80-A0 37-F9              9838   	sb	0f937h.0
                                 9839   
                                 9840   ;;			PDRUN = 1;
                                 9841   CLINEA 0000H 0001H 0BCAH 0004H 000DH
00:006E 80-A0 27-F9              9842   	sb	0f927h.0
                                 9843   
                                 9844   ;;			PCRUN = 1;
                                 9845   CLINEA 0000H 0001H 0BCBH 0004H 000DH
00:0072 80-A0 17-F9              9846   	sb	0f917h.0
                                 9847   
                                 9848   ;;			NOPms(100);
                                 9849   CLINEA 0000H 0001H 0BCCH 0004H 000EH
00:0076 64 00                    9850   	mov	r0,	#064h
00:0078 00 01                    9851   	mov	r1,	#00h
00:007A 01-F0'00-00'             9852   	bl	_NOPms
                                 9853   
                                 9854   ;;			if(PWED <= PWMSafeDuty){
                                 9855   CLINEA 0000H 0001H 0BCEH 0004H 001BH
00:007E 12-90 32-F9              9856   	l	er0,	0f932h
00:0082 12-92 00-00'             9857   	l	er2,	NEAR _PWMSafeDuty
00:0086 27-F0                    9858   	cmp	er0,	er2
00:0088 02 C2                    9859   	bgt	_$L614
                                 9860   CBLOCK 244 5 3022
                                 9861   
                                 9862   ;;				PWED = PWMSafeDuty;
                                 9863   CLINEA 0000H 0001H 0BCFH 0005H 0017H
00:008A 13-92 32-F9              9864   	st	er2,	0f932h
                                 9865   CBLOCKEND 244 5 3024
                                 9866   
                                 9867   ;;			}
                                 9868   CLINEA 0000H 0000H 0BD0H 0004H 0004H
00:008E                          9869   _$L614 :
                                 9870   
                                 9871   ;;			if(PWF0D <= PWMSafeDuty){
                                 9872   CLINEA 0000H 0001H 0BD1H 0004H 001CH
00:008E 12-90 62-F9              9873   	l	er0,	0f962h
00:0092 27-F0                    9874   	cmp	er0,	er2
00:0094 02 C2                    9875   	bgt	_$L616
                                 9876   CBLOCK 244 6 3025
                                 9877   
                                 9878   ;;				PWF0D = PWMSafeDuty;
                                 9879   CLINEA 0000H 0001H 0BD2H 0005H 0018H
00:0096 13-92 62-F9              9880   	st	er2,	0f962h
                                 9881   CBLOCKEND 244 6 3027
                                 9882   
                                 9883   ;;			}
                                 9884   CLINEA 0000H 0000H 0BD3H 0004H 0004H
00:009A                          9885   _$L616 :
                                 9886   
                                 9887   ;;			if(PWDD <= PWMSafeDuty){
                                 9888   CLINEA 0000H 0001H 0BD4H 0004H 001BH
00:009A 12-90 22-F9              9889   	l	er0,	0f922h
00:009E 27-F0                    9890   	cmp	er0,	er2
00:00A0 02 C2                    9891   	bgt	_$L618
                                 9892   CBLOCK 244 7 3028
                                 9893   
                                 9894   ;;				PWDD = PWMSafeDuty;
                                 9895   CLINEA 0000H 0001H 0BD5H 0005H 0017H
00:00A2 13-92 22-F9              9896   	st	er2,	0f922h
                                 9897   CBLOCKEND 244 7 3030
                                 9898   
                                 9899   ;;			}
                                 9900   CLINEA 0000H 0000H 0BD6H 0004H 0004H
00:00A6                          9901   _$L618 :
                                 9902   
                                 9903   ;;			if(PWCD <= PWMSafeDuty){
                                 9904   CLINEA 0000H 0001H 0BD7H 0004H 001BH
00:00A6 12-90 12-F9              9905   	l	er0,	0f912h
00:00AA 27-F0                    9906   	cmp	er0,	er2
00:00AC 02 C2                    9907   	bgt	_$L620
                                 9908   CBLOCK 244 8 3031
                                 9909   
                                 9910   ;;				PWCD = PWMSafeDuty;
                                 9911   CLINEA 0000H 0001H 0BD8H 0005H 0017H
00:00AE 13-92 12-F9              9912   	st	er2,	0f912h
                                 9913   CBLOCKEND 244 8 3033
                                 9914   
                                 9915   ;;			}
                                 9916   CLINEA 0000H 0000H 0BD9H 0004H 0004H
00:00B2                          9917   _$L620 :
                                 9918   CBLOCKEND 244 4 3035
                                 9919   
                                 9920   ;;		}while((PWED > PWMSafeDuty)||(PWF0D > PWMSafeDuty)||(PWDD > PWMSafeDuty)||(PWCD > PWMSafeDuty));
                                 9921   CLINEA 0000H 0000H 0BDBH 0003H 0062H
00:00B2 12-90 32-F9              9922   	l	er0,	0f932h
00:00B6 27-F0                    9923   	cmp	er0,	er2
00:00B8 02 C3                    9924   	ble	_$M48
00:00BA 00-F0'00-00'             9925   	b	_$L598
00:00BE                          9926   _$M48 :
00:00BE 12-90 62-F9              9927   	l	er0,	0f962h
00:00C2 27-F0                    9928   	cmp	er0,	er2
00:00C4 02 C3                    9929   	ble	_$M49
00:00C6 00-F0'00-00'             9930   	b	_$L598
00:00CA                          9931   _$M49 :
00:00CA 12-90 22-F9              9932   	l	er0,	0f922h
00:00CE 27-F0                    9933   	cmp	er0,	er2
00:00D0 02 C3                    9934   	ble	_$M50
00:00D2 00-F0'00-00'             9935   	b	_$L598
00:00D6                          9936   _$M50 :
00:00D6 12-90 12-F9              9937   	l	er0,	0f912h
00:00DA 27-F0                    9938   	cmp	er0,	er2
00:00DC 02 C3                    9939   	ble	_$M51
00:00DE 00-F0'00-00'             9940   	b	_$L598
00:00E2                          9941   _$M51 :
00:00E2                          9942   _$L611 :
                                 9943   CBLOCKEND 244 3 3036
                                 9944   
                                 9945   ;;	Accel_PID_Motor1 = 16383;
                                 9946   CLINEA 0000H 0001H 0BDDH 0002H 001AH
00:00E2 FF 00                    9947   	mov	r0,	#0ffh
00:00E4 3F 01                    9948   	mov	r1,	#03fh
00:00E6 13-90 00-00'             9949   	st	er0,	NEAR _Accel_PID_Motor1
                                 9950   
                                 9951   ;;	Accel_PID_Motor2 = 16383;
                                 9952   CLINEA 0000H 0001H 0BDEH 0002H 001AH
00:00EA 13-90 00-00'             9953   	st	er0,	NEAR _Accel_PID_Motor2
                                 9954   
                                 9955   ;;	Accel_PID_Motor3 = 16383;
                                 9956   CLINEA 0000H 0001H 0BDFH 0002H 001AH
00:00EE 13-90 00-00'             9957   	st	er0,	NEAR _Accel_PID_Motor3
                                 9958   
                                 9959   ;;	Accel_PID_Motor4 = 16383;
                                 9960   CLINEA 0000H 0001H 0BE0H 0002H 001AH
00:00F2 13-90 00-00'             9961   	st	er0,	NEAR _Accel_PID_Motor4
                                 9962   CBLOCKEND 244 2 3042
                                 9963   
                                 9964   ;;}
                                 9965   CLINEA 0000H 0001H 0BE2H 0001H 0001H
00:00F6 8E-F2                    9966   	pop	pc
                                 9967   CBLOCKEND 244 1 3042
                                 9968   CFUNCTIONEND 244
                                 9969   
                                 9970   
  --------------------------     9971   	rseg $$ESC1_PWM$main
                                 9972   CFUNCTION 215
                                 9973   
00:0000                          9974   _ESC1_PWM	:
                                 9975   CBLOCK 215 1 3046
                                 9976   
                                 9977   ;;void ESC1_PWM(void){
                                 9978   CLINEA 0000H 0001H 0BE6H 0001H 0014H
                                 9979   CBLOCK 215 2 3046
                                 9980   
                                 9981   ;;      PC0DIR = 0;       // PortB Bit0 set to Output Mode...
                                 9982   CLINEA 0000H 0001H 0BF5H 0007H 003BH
00:0000 82-A0 61-F2              9983   	rb	0f261h.0
                                 9984   
                                 9985   ;;      PC0C1  = 1;       // PortB Bit0 set to CMOS Output...
                                 9986   CLINEA 0000H 0001H 0BF8H 0007H 003BH
00:0004 80-A0 63-F2              9987   	sb	0f263h.0
                                 9988   
                                 9989   ;;      PC0C0  = 1;       
                                 9990   CLINEA 0000H 0001H 0BF9H 0007H 0018H
00:0008 80-A0 62-F2              9991   	sb	0f262h.0
                                 9992   
                                 9993   ;;      PC0MD1  = 1;            // PortC Bit0 set to PWM Output (1,0)...
                                 9994   CLINEA 0000H 0001H 0BFCH 0007H 0046H
00:000C 80-A0 65-F2              9995   	sb	0f265h.0
                                 9996   
                                 9997   ;;      PC0MD0  = 0;      
                                 9998   CLINEA 0000H 0001H 0BFDH 0007H 0018H
00:0010 82-A0 64-F2              9999   	rb	0f264h.0
                                10000   
                                10001   ;;      PFCS1 = 0;        //00= LS; 01=HS; 10=PLL
                                10002   CLINEA 0000H 0001H 0C01H 0007H 002FH
00:0014 92-A0 72-F9             10003   	rb	0f972h.1
                                10004   
                                10005   ;;      PFCS0 = 1;
                                10006   CLINEA 0000H 0001H 0C02H 0007H 0010H
00:0018 80-A0 72-F9             10007   	sb	0f972h.0
                                10008   
                                10009   ;;      PWFP = PWMPeriod;            // Init Period to (1=255kHz; 10=46kHz; 50=10kHz; 200=2.5kH; ; 3185 = 160Hz; 3400=150Hz; 4250=120Hz; 5000=102Hz)
                                10010   CLINEA 0000H 0001H 0C05H 0007H 0092H
00:001C 12-90 00-00'            10011   	l	er0,	NEAR _PWMPeriod
00:0020 13-90 60-F9             10012   	st	er0,	0f960h
                                10013   
                                10014   ;;      PWF0D =    PWMSafeDuty;           //12    ~  0.25 % duty cycle @ 160Hz
                                10015   CLINEA 0000H 0001H 0C0FH 0007H 004CH
00:0024 12-90 00-00'            10016   	l	er0,	NEAR _PWMSafeDuty
00:0028 13-90 62-F9             10017   	st	er0,	0f962h
                                10018   
                                10019   ;;      PFRUN = 0;        // OFF to start
                                10020   CLINEA 0000H 0001H 0C11H 0007H 0027H
00:002C 82-A0 73-F9             10021   	rb	0f973h.0
                                10022   CBLOCKEND 215 2 3090
                                10023   
                                10024   ;;}
                                10025   CLINEA 0000H 0001H 0C12H 0001H 0001H
00:0030 1F-FE                   10026   	rt
                                10027   CBLOCKEND 215 1 3090
                                10028   CFUNCTIONEND 215
                                10029   
                                10030   
  --------------------------    10031   	rseg $$ESC2_PWM$main
                                10032   CFUNCTION 216
                                10033   
00:0000                         10034   _ESC2_PWM	:
                                10035   CBLOCK 216 1 3095
                                10036   
                                10037   ;;void ESC2_PWM(void){
                                10038   CLINEA 0000H 0001H 0C17H 0001H 0014H
                                10039   CBLOCK 216 2 3095
                                10040   
                                10041   ;;      PB2DIR = 0;       // PortB Bit0 set to Output Mode...
                                10042   CLINEA 0000H 0001H 0C26H 0007H 003BH
00:0000 A2-A0 59-F2             10043   	rb	0f259h.2
                                10044   
                                10045   ;;      PB2C1  = 1;       // PortB Bit0 set to CMOS Output...
                                10046   CLINEA 0000H 0001H 0C29H 0007H 003BH
00:0004 A0-A0 5B-F2             10047   	sb	0f25bh.2
                                10048   
                                10049   ;;      PB2C0  = 1;       
                                10050   CLINEA 0000H 0001H 0C2AH 0007H 0018H
00:0008 A0-A0 5A-F2             10051   	sb	0f25ah.2
                                10052   
                                10053   ;;      PB2MD1  = 0;            // PortB Bit0 set to PWM Output (0,1)...
                                10054   CLINEA 0000H 0001H 0C2DH 0007H 0046H
00:000C A2-A0 5D-F2             10055   	rb	0f25dh.2
                                10056   
                                10057   ;;      PB2MD0  = 1;      
                                10058   CLINEA 0000H 0001H 0C2EH 0007H 0018H
00:0010 A0-A0 5C-F2             10059   	sb	0f25ch.2
                                10060   
                                10061   ;;      PECS1 = 0;        //00= LS; 01=HS; 10=PLL
                                10062   CLINEA 0000H 0001H 0C32H 0007H 002FH
00:0014 92-A0 36-F9             10063   	rb	0f936h.1
                                10064   
                                10065   ;;      PECS0 = 1;
                                10066   CLINEA 0000H 0001H 0C33H 0007H 0010H
00:0018 80-A0 36-F9             10067   	sb	0f936h.0
                                10068   
                                10069   ;;      PWEP = PWMPeriod;            // Init Period to (1=255kHz; 10=46kHz; 50=10kHz; 200=2.5kH; ; 3185 = 160Hz; 3400=150Hz; 4250=120Hz; 5000=102Hz)
                                10070   CLINEA 0000H 0001H 0C36H 0007H 0092H
00:001C 12-90 00-00'            10071   	l	er0,	NEAR _PWMPeriod
00:0020 13-90 30-F9             10072   	st	er0,	0f930h
                                10073   
                                10074   ;;      PWED =    PWMSafeDuty;           //12    ~  0.25 % duty cycle @ 160Hz
                                10075   CLINEA 0000H 0001H 0C40H 0007H 004BH
00:0024 12-90 00-00'            10076   	l	er0,	NEAR _PWMSafeDuty
00:0028 13-90 32-F9             10077   	st	er0,	0f932h
                                10078   
                                10079   ;;      PERUN = 0;        // OFF to start
                                10080   CLINEA 0000H 0001H 0C42H 0007H 0027H
00:002C 82-A0 37-F9             10081   	rb	0f937h.0
                                10082   CBLOCKEND 216 2 3139
                                10083   
                                10084   ;;}
                                10085   CLINEA 0000H 0001H 0C43H 0001H 0001H
00:0030 1F-FE                   10086   	rt
                                10087   CBLOCKEND 216 1 3139
                                10088   CFUNCTIONEND 216
                                10089   
                                10090   
  --------------------------    10091   	rseg $$ESC3_PWM$main
                                10092   CFUNCTION 217
                                10093   
00:0000                         10094   _ESC3_PWM	:
                                10095   CBLOCK 217 1 3145
                                10096   
                                10097   ;;void ESC3_PWM(void){
                                10098   CLINEA 0000H 0001H 0C49H 0001H 0014H
                                10099   CBLOCK 217 2 3145
                                10100   
                                10101   ;;      PA1DIR = 0;       // PortB Bit0 set to Output Mode...
                                10102   CLINEA 0000H 0001H 0C58H 0007H 003BH
00:0000 92-A0 51-F2             10103   	rb	0f251h.1
                                10104   
                                10105   ;;      PA1C1  = 1;       // PortB Bit0 set to CMOS Output...
                                10106   CLINEA 0000H 0001H 0C5BH 0007H 003BH
00:0004 90-A0 53-F2             10107   	sb	0f253h.1
                                10108   
                                10109   ;;      PA1C0  = 1;       
                                10110   CLINEA 0000H 0001H 0C5CH 0007H 0018H
00:0008 90-A0 52-F2             10111   	sb	0f252h.1
                                10112   
                                10113   ;;      PA1MD1  = 0;            // PortB Bit0 set to PWM Output (0,1)...
                                10114   CLINEA 0000H 0001H 0C5FH 0007H 0046H
00:000C 92-A0 55-F2             10115   	rb	0f255h.1
                                10116   
                                10117   ;;      PA1MD0  = 1;      
                                10118   CLINEA 0000H 0001H 0C60H 0007H 0018H
00:0010 90-A0 54-F2             10119   	sb	0f254h.1
                                10120   
                                10121   ;;      PDCS1 = 0;        //00= LS; 01=HS; 10=PLL
                                10122   CLINEA 0000H 0001H 0C64H 0007H 002FH
00:0014 92-A0 26-F9             10123   	rb	0f926h.1
                                10124   
                                10125   ;;      PDCS0 = 1;
                                10126   CLINEA 0000H 0001H 0C65H 0007H 0010H
00:0018 80-A0 26-F9             10127   	sb	0f926h.0
                                10128   
                                10129   ;;      PWDP = PWMPeriod;            // Init Period to (1=255kHz; 10=46kHz; 50=10kHz; 200=2.5kH; ; 3185 = 160Hz; 3400=150Hz; 4250=120Hz; 5000=102Hz)
                                10130   CLINEA 0000H 0001H 0C68H 0007H 0092H
00:001C 12-90 00-00'            10131   	l	er0,	NEAR _PWMPeriod
00:0020 13-90 20-F9             10132   	st	er0,	0f920h
                                10133   
                                10134   ;;      PWDD =    PWMSafeDuty;           //12    ~  0.25 % duty cycle @ 160Hz
                                10135   CLINEA 0000H 0001H 0C72H 0007H 004BH
00:0024 12-90 00-00'            10136   	l	er0,	NEAR _PWMSafeDuty
00:0028 13-90 22-F9             10137   	st	er0,	0f922h
                                10138   
                                10139   ;;      PDRUN = 0;        // OFF to start
                                10140   CLINEA 0000H 0001H 0C74H 0007H 0027H
00:002C 82-A0 27-F9             10141   	rb	0f927h.0
                                10142   CBLOCKEND 217 2 3189
                                10143   
                                10144   ;;}
                                10145   CLINEA 0000H 0001H 0C75H 0001H 0001H
00:0030 1F-FE                   10146   	rt
                                10147   CBLOCKEND 217 1 3189
                                10148   CFUNCTIONEND 217
                                10149   
                                10150   
  --------------------------    10151   	rseg $$ESC4_PWM$main
                                10152   CFUNCTION 218
                                10153   
00:0000                         10154   _ESC4_PWM	:
                                10155   CBLOCK 218 1 3196
                                10156   
                                10157   ;;void ESC4_PWM(void){
                                10158   CLINEA 0000H 0001H 0C7CH 0001H 0014H
                                10159   CBLOCK 218 2 3196
                                10160   
                                10161   ;;      PA0DIR = 0;       // PortB Bit0 set to Output Mode...
                                10162   CLINEA 0000H 0001H 0C8BH 0007H 003BH
00:0000 82-A0 51-F2             10163   	rb	0f251h.0
                                10164   
                                10165   ;;      PA0C1  = 1;       // PortB Bit0 set to CMOS Output...
                                10166   CLINEA 0000H 0001H 0C8EH 0007H 003BH
00:0004 80-A0 53-F2             10167   	sb	0f253h.0
                                10168   
                                10169   ;;      PA0C0  = 1;       
                                10170   CLINEA 0000H 0001H 0C8FH 0007H 0018H
00:0008 80-A0 52-F2             10171   	sb	0f252h.0
                                10172   
                                10173   ;;      PA0MD1  = 0;            // PortB Bit0 set to PWM Output (0,1)...
                                10174   CLINEA 0000H 0001H 0C92H 0007H 0046H
00:000C 82-A0 55-F2             10175   	rb	0f255h.0
                                10176   
                                10177   ;;      PA0MD0  = 1;      
                                10178   CLINEA 0000H 0001H 0C93H 0007H 0018H
00:0010 80-A0 54-F2             10179   	sb	0f254h.0
                                10180   
                                10181   ;;      PCCS1 = 0;        //00= LS; 01=HS; 10=PLL
                                10182   CLINEA 0000H 0001H 0C97H 0007H 002FH
00:0014 92-A0 16-F9             10183   	rb	0f916h.1
                                10184   
                                10185   ;;      PCCS0 = 1;
                                10186   CLINEA 0000H 0001H 0C98H 0007H 0010H
00:0018 80-A0 16-F9             10187   	sb	0f916h.0
                                10188   
                                10189   ;;      PWCP = PWMPeriod;            // Init Period to (1=255kHz; 10=46kHz; 50=10kHz; 200=2.5kH; ; 3185 = 160Hz; 3400=150Hz; 4250=120Hz; 5000=102Hz)
                                10190   CLINEA 0000H 0001H 0C9BH 0007H 0092H
00:001C 12-90 00-00'            10191   	l	er0,	NEAR _PWMPeriod
00:0020 13-90 10-F9             10192   	st	er0,	0f910h
                                10193   
                                10194   ;;      PWCD =    PWMSafeDuty;           //12    ~  0.25 % duty cycle @ 160Hz
                                10195   CLINEA 0000H 0001H 0CA6H 0007H 004BH
00:0024 12-90 00-00'            10196   	l	er0,	NEAR _PWMSafeDuty
00:0028 13-90 12-F9             10197   	st	er0,	0f912h
                                10198   
                                10199   ;;      PCRUN = 0;        // OFF to start
                                10200   CLINEA 0000H 0001H 0CAAH 0007H 0027H
00:002C 82-A0 17-F9             10201   	rb	0f917h.0
                                10202   CBLOCKEND 218 2 3243
                                10203   
                                10204   ;;}
                                10205   CLINEA 0000H 0001H 0CABH 0001H 0001H
00:0030 1F-FE                   10206   	rt
                                10207   CBLOCKEND 218 1 3243
                                10208   CFUNCTIONEND 218
                                10209   
                                10210   
  --------------------------    10211   	rseg $$TBC_ISR$main
                                10212   CFUNCTION 256
                                10213   
00:0000                         10214   _TBC_ISR	:
                                10215   CBLOCK 256 1 3248
                                10216   
                                10217   ;;{
                                10218   CLINEA 0000H 0001H 0CB0H 0001H 0001H
                                10219   CBLOCK 256 2 3248
                                10220   
                                10221   ;;	E128H = 0;	//Turn OFF TBC Interrupt
                                10222   CLINEA 0000H 0001H 0CB1H 0002H 0024H
00:0000 D2-A0 16-F0             10223   	rb	0f016h.5
                                10224   
                                10225   ;;	E128H = 1;	//Turn ON TBC Interrupt
                                10226   CLINEA 0000H 0001H 0CB2H 0002H 0023H
00:0004 D0-A0 16-F0             10227   	sb	0f016h.5
                                10228   CBLOCKEND 256 2 3251
                                10229   
                                10230   ;;}
                                10231   CLINEA 0000H 0001H 0CB3H 0001H 0001H
00:0008 1F-FE                   10232   	rt
                                10233   CBLOCKEND 256 1 3251
                                10234   CFUNCTIONEND 256
                                10235   
                                10236   
  --------------------------    10237   	rseg $$TMR89_ISR$main
                                10238   CFUNCTION 257
                                10239   
00:0000                         10240   _TMR89_ISR	:
                                10241   CBLOCK 257 1 3256
                                10242   
                                10243   ;;{
                                10244   CLINEA 0000H 0001H 0CB8H 0001H 0001H
00:0000 CE-F8                   10245   	push	lr
                                10246   CBLOCK 257 2 3256
                                10247   CRET 0000H
                                10248   
                                10249   ;;	LED_1 ^= 1;
                                10250   CLINEA 0000H 0001H 0CB9H 0002H 000CH
00:0002 A1-A0 50-F2             10251   	tb	0f250h.2
00:0006 03 C9                   10252   	beq	_$M58
00:0008 A2-A0 50-F2             10253   	rb	0f250h.2
00:000C 02 CE                   10254   	bal	_$M59
00:000E                         10255   _$M58 :
00:000E A0-A0 50-F2             10256   	sb	0f250h.2
00:0012                         10257   _$M59 :
                                10258   
                                10259   ;;	Accel_PID_XRollCounter_I++;
                                10260   CLINEA 0000H 0000H 0CC0H 0002H 001CH
00:0012 12-90 00-00'            10261   	l	er0,	NEAR _Accel_PID_XRollCounter_I
00:0016 81 E0                   10262   	add	er0,	#1 
00:0018 13-90 00-00'            10263   	st	er0,	NEAR _Accel_PID_XRollCounter_I
                                10264   
                                10265   ;;	if(Accel_PID_XRollCounter_I >= 65535){
                                10266   CLINEA 0000H 0001H 0CC1H 0002H 0027H
00:001C 00 E2                   10267   	mov	er2,	#0 
00:001E FF 70                   10268   	cmp	r0,	#0ffh
00:0020 FF 51                   10269   	cmpc	r1,	#0ffh
00:0022 00 52                   10270   	cmpc	r2,	#00h
00:0024 00 53                   10271   	cmpc	r3,	#00h
00:0026 03 C5                   10272   	blts	_$L639
                                10273   CBLOCK 257 3 3265
                                10274   
                                10275   ;;		Accel_PID_XRollCounter_I = 0;
                                10276   CLINEA 0000H 0001H 0CC2H 0003H 001FH
00:0028 00 E0                   10277   	mov	er0,	#0 
00:002A 13-90 00-00'            10278   	st	er0,	NEAR _Accel_PID_XRollCounter_I
                                10279   CBLOCKEND 257 3 3267
                                10280   
                                10281   ;;	}
                                10282   CLINEA 0000H 0000H 0CC3H 0002H 0002H
00:002E                         10283   _$L639 :
                                10284   
                                10285   ;;	Accel_PID_YPitchCounter_I++;
                                10286   CLINEA 0000H 0000H 0CC4H 0002H 001DH
00:002E 12-90 00-00'            10287   	l	er0,	NEAR _Accel_PID_YPitchCounter_I
00:0032 81 E0                   10288   	add	er0,	#1 
00:0034 13-90 00-00'            10289   	st	er0,	NEAR _Accel_PID_YPitchCounter_I
                                10290   
                                10291   ;;	if(Accel_PID_YPitchCounter_I >= 65535){
                                10292   CLINEA 0000H 0001H 0CC5H 0002H 0028H
00:0038 00 E2                   10293   	mov	er2,	#0 
00:003A FF 70                   10294   	cmp	r0,	#0ffh
00:003C FF 51                   10295   	cmpc	r1,	#0ffh
00:003E 00 52                   10296   	cmpc	r2,	#00h
00:0040 00 53                   10297   	cmpc	r3,	#00h
00:0042 03 C5                   10298   	blts	_$L641
                                10299   CBLOCK 257 4 3269
                                10300   
                                10301   ;;		Accel_PID_YPitchCounter_I = 0;
                                10302   CLINEA 0000H 0001H 0CC6H 0003H 0020H
00:0044 00 E0                   10303   	mov	er0,	#0 
00:0046 13-90 00-00'            10304   	st	er0,	NEAR _Accel_PID_YPitchCounter_I
                                10305   CBLOCKEND 257 4 3271
                                10306   
                                10307   ;;	}
                                10308   CLINEA 0000H 0000H 0CC7H 0002H 0002H
00:004A                         10309   _$L641 :
                                10310   
                                10311   ;;	Accel_PID_XRollCounter_D++;
                                10312   CLINEA 0000H 0000H 0CC8H 0002H 001CH
00:004A 12-90 00-00'            10313   	l	er0,	NEAR _Accel_PID_XRollCounter_D
00:004E 81 E0                   10314   	add	er0,	#1 
00:0050 13-90 00-00'            10315   	st	er0,	NEAR _Accel_PID_XRollCounter_D
                                10316   
                                10317   ;;	if(Accel_PID_XRollCounter_D >= 65535){
                                10318   CLINEA 0000H 0001H 0CC9H 0002H 0027H
00:0054 00 E2                   10319   	mov	er2,	#0 
00:0056 FF 70                   10320   	cmp	r0,	#0ffh
00:0058 FF 51                   10321   	cmpc	r1,	#0ffh
00:005A 00 52                   10322   	cmpc	r2,	#00h
00:005C 00 53                   10323   	cmpc	r3,	#00h
00:005E 03 C5                   10324   	blts	_$L643
                                10325   CBLOCK 257 5 3273
                                10326   
                                10327   ;;		Accel_PID_XRollCounter_D = 0;
                                10328   CLINEA 0000H 0001H 0CCAH 0003H 001FH
00:0060 00 E0                   10329   	mov	er0,	#0 
00:0062 13-90 00-00'            10330   	st	er0,	NEAR _Accel_PID_XRollCounter_D
                                10331   CBLOCKEND 257 5 3275
                                10332   
                                10333   ;;	}
                                10334   CLINEA 0000H 0000H 0CCBH 0002H 0002H
00:0066                         10335   _$L643 :
                                10336   
                                10337   ;;	Accel_PID_YPitchCounter_D++;
                                10338   CLINEA 0000H 0000H 0CCCH 0002H 001DH
00:0066 12-90 00-00'            10339   	l	er0,	NEAR _Accel_PID_YPitchCounter_D
00:006A 81 E0                   10340   	add	er0,	#1 
00:006C 13-90 00-00'            10341   	st	er0,	NEAR _Accel_PID_YPitchCounter_D
                                10342   
                                10343   ;;	if(Accel_PID_YPitchCounter_D >= 65535){
                                10344   CLINEA 0000H 0001H 0CCDH 0002H 0028H
00:0070 00 E2                   10345   	mov	er2,	#0 
00:0072 FF 70                   10346   	cmp	r0,	#0ffh
00:0074 FF 51                   10347   	cmpc	r1,	#0ffh
00:0076 00 52                   10348   	cmpc	r2,	#00h
00:0078 00 53                   10349   	cmpc	r3,	#00h
00:007A 03 C5                   10350   	blts	_$L645
                                10351   CBLOCK 257 6 3277
                                10352   
                                10353   ;;		Accel_PID_YPitchCounter_D = 0;
                                10354   CLINEA 0000H 0001H 0CCEH 0003H 0020H
00:007C 00 E0                   10355   	mov	er0,	#0 
00:007E 13-90 00-00'            10356   	st	er0,	NEAR _Accel_PID_YPitchCounter_D
                                10357   CBLOCKEND 257 6 3279
                                10358   
                                10359   ;;	}
                                10360   CLINEA 0000H 0000H 0CCFH 0002H 0002H
00:0082                         10361   _$L645 :
                                10362   
                                10363   ;;	CF_Gyro_Counter++;
                                10364   CLINEA 0000H 0000H 0CD6H 0002H 0013H
00:0082 12-90 00-00'            10365   	l	er0,	NEAR _CF_Gyro_Counter
00:0086 12-92 00-00'            10366   	l	er2,	NEAR _CF_Gyro_Counter+02h
00:008A 6E-F0                   10367   	push	xr0
00:008C 00 E0                   10368   	mov	er0,	#0 
00:008E 80 02                   10369   	mov	r2,	#080h
00:0090 3F 03                   10370   	mov	r3,	#03fh
00:0092 6E-F0                   10371   	push	xr0
00:0094 01-F0'00-00'            10372   	bl	__faddu8sw
00:0098 04 E1                   10373   	add	sp,	#4 
00:009A 2E-F0                   10374   	pop	xr0
00:009C 13-90 00-00'            10375   	st	er0,	NEAR _CF_Gyro_Counter
00:00A0 13-92 00-00'            10376   	st	er2,	NEAR _CF_Gyro_Counter+02h
                                10377   
                                10378   ;;	if(CF_Gyro_Counter >= 65535){
                                10379   CLINEA 0000H 0001H 0CD7H 0002H 001EH
00:00A4 6E-F0                   10380   	push	xr0
00:00A6 00 00                   10381   	mov	r0,	#00h
00:00A8 FF 01                   10382   	mov	r1,	#0ffh
00:00AA 7F 02                   10383   	mov	r2,	#07fh
00:00AC 47 03                   10384   	mov	r3,	#047h
00:00AE 6E-F0                   10385   	push	xr0
00:00B0 01-F0'00-00'            10386   	bl	__fcmpu8sw
00:00B4 08 E1                   10387   	add	sp,	#8 
00:00B6 0B-A0                   10388   	mov	psw,	r0
00:00B8 05 C1                   10389   	blt	_$L647
                                10390   CBLOCK 257 7 3287
                                10391   
                                10392   ;;		CF_Gyro_Counter = 0;
                                10393   CLINEA 0000H 0001H 0CD8H 0003H 0016H
00:00BA 00 E0                   10394   	mov	er0,	#0 
00:00BC 13-90 00-00'            10395   	st	er0,	NEAR _CF_Gyro_Counter
00:00C0 13-90 00-00'            10396   	st	er0,	NEAR _CF_Gyro_Counter+02h
                                10397   CBLOCKEND 257 7 3289
                                10398   
                                10399   ;;	}
                                10400   CLINEA 0000H 0000H 0CD9H 0002H 0002H
00:00C4                         10401   _$L647 :
                                10402   CBLOCKEND 257 2 3290
                                10403   
                                10404   ;;}
                                10405   CLINEA 0000H 0001H 0CDAH 0001H 0001H
00:00C4 8E-F2                   10406   	pop	pc
                                10407   CBLOCKEND 257 1 3290
                                10408   CFUNCTIONEND 257
                                10409   
                                10410   
  --------------------------    10411   	rseg $$AccelGyroDataReady_ISR$main
                                10412   CFUNCTION 258
                                10413   
00:0000                         10414   _AccelGyroDataReady_ISR	:
                                10415   CBLOCK 258 1 3294
                                10416   
                                10417   ;;{
                                10418   CLINEA 0000H 0001H 0CDEH 0001H 0001H
                                10419   CBLOCK 258 2 3294
                                10420   
                                10421   ;;	AccGyro_ReadFlag = 1;
                                10422   CLINEA 0000H 0001H 0CDFH 0002H 0016H
00:0000 01 00                   10423   	mov	r0,	#01h
00:0002 11-90 00-00'            10424   	st	r0,	NEAR _AccGyro_ReadFlag
                                10425   CBLOCKEND 258 2 3296
                                10426   
                                10427   ;;}
                                10428   CLINEA 0000H 0001H 0CE0H 0001H 0001H
00:0006 1F-FE                   10429   	rt
                                10430   CBLOCKEND 258 1 3296
                                10431   CFUNCTIONEND 258
                                10432   
                                10433   
  --------------------------    10434   	rseg $$_funcUartFin$main
                                10435   CFUNCTION 245
                                10436   
00:0000                         10437   __funcUartFin	:
                                10438   CBLOCK 245 1 3307
                                10439   
                                10440   ;;{
                                10441   CLINEA 0000H 0001H 0CEBH 0001H 0001H
00:0000 CE-F8                   10442   	push	lr
                                10443   CBLOCK 245 2 3307
                                10444   CRET 0000H
                                10445   CARGUMENT 46H 0002H 0000H "size" 02H 00H 01H
                                10446   CARGUMENT 46H 0001H 0000H "errStat" 02H 00H 00H
                                10447   
                                10448   ;;	uart_continue();					// Function in UART.c: process to continue send and receive...
                                10449   CLINEA 0000H 0001H 0CECH 0002H 0054H
00:0002 01-F0'00-00'            10450   	bl	_uart_continue
                                10451   
                                10452   ;;	_flgUartFin = (unsigned char)FLG_SET;
                                10453   CLINEA 0000H 0001H 0CEDH 0002H 0026H
00:0006 01 00                   10454   	mov	r0,	#01h
00:0008 11-90 00-00'            10455   	st	r0,	NEAR __flgUartFin
                                10456   CBLOCKEND 245 2 3311
                                10457   
                                10458   ;;}
                                10459   CLINEA 0000H 0001H 0CEFH 0001H 0001H
00:000C 8E-F2                   10460   	pop	pc
                                10461   CBLOCKEND 245 1 3311
                                10462   CFUNCTIONEND 245
                                10463   
                                10464   
  --------------------------    10465   	rseg $$_funcI2CFin$main
                                10466   CFUNCTION 246
                                10467   
00:0000                         10468   __funcI2CFin	:
                                10469   CBLOCK 246 1 3322
                                10470   
                                10471   ;;{
                                10472   CLINEA 0000H 0001H 0CFAH 0001H 0001H
00:0000 CE-F8                   10473   	push	lr
                                10474   CBLOCK 246 2 3322
                                10475   CRET 0000H
                                10476   CARGUMENT 46H 0002H 0000H "size" 02H 00H 01H
                                10477   CARGUMENT 46H 0001H 0000H "errStat" 02H 00H 00H
                                10478   
                                10479   ;;	i2c_continue();					// Function in UART.c: process to continue send and receive...
                                10480   CLINEA 0000H 0001H 0CFBH 0002H 0053H
00:0002 01-F0'00-00'            10481   	bl	_i2c_continue
                                10482   
                                10483   ;;	_flgI2CFin = (unsigned char)FLG_SET;
                                10484   CLINEA 0000H 0001H 0CFCH 0002H 0025H
00:0006 01 00                   10485   	mov	r0,	#01h
00:0008 11-90 00-00'            10486   	st	r0,	NEAR __flgI2CFin
                                10487   CBLOCKEND 246 2 3326
                                10488   
                                10489   ;;}
                                10490   CLINEA 0000H 0001H 0CFEH 0001H 0001H
00:000C 8E-F2                   10491   	pop	pc
                                10492   CBLOCKEND 246 1 3326
                                10493   CFUNCTIONEND 246
                                10494   
                                10495   
  --------------------------    10496   	rseg $$_intI2c$main
                                10497   CFUNCTION 250
                                10498   
00:0000                         10499   __intI2c	:
                                10500   CBLOCK 250 1 3336
                                10501   
                                10502   ;;{
                                10503   CLINEA 0000H 0001H 0D08H 0001H 0001H
                                10504   CBLOCK 250 2 3336
                                10505   
                                10506   ;;	i2c_continue();
                                10507   CLINEA 0000H 0001H 0D09H 0002H 0010H
00:0000 00-F0'00-00'            10508   	b	_i2c_continue
                                10509   CBLOCKEND 250 2 3339
                                10510   CLINEA 0000H 0001H 0D0BH 0001H 0001H
                                10511   CBLOCKEND 250 1 3339
                                10512   CFUNCTIONEND 250
                                10513   
                                10514   
  --------------------------    10515   	rseg $$checkI2C$main
                                10516   CFUNCTION 247
                                10517   
00:0000                         10518   _checkI2C	:
                                10519   CBLOCK 247 1 3349
                                10520   
                                10521   ;;{
                                10522   CLINEA 0000H 0001H 0D15H 0001H 0001H
00:0000 CE-F8                   10523   	push	lr
                                10524   CBLOCK 247 2 3349
                                10525   CRET 0000H
                                10526   CLOCAL 47H 0002H 0024H 0002H "ret" 02H 00H 01H
                                10527   
                                10528   ;;	while (ret != 1) {
                                10529   CLINEA 0000H 0000H 0D1AH 0002H 0013H
00:0002                         10530   _$L656 :
                                10531   CBLOCK 247 3 3354
                                10532   
                                10533   ;;		ret = i2c_continue();
                                10534   CLINEA 0000H 0000H 0D1BH 0003H 0017H
00:0002 01-F0'00-00'            10535   	bl	_i2c_continue
                                10536   CBLOCK 247 4 3356
                                10537   CBLOCKEND 247 4 3358
                                10538   CBLOCKEND 247 3 3359
                                10539   
                                10540   ;;	while (ret != 1) {
                                10541   CLINEA 0000H 0000H 0D1AH 000EH 0013H
00:0006 01 70                   10542   	cmp	r0,	#01h
00:0008 00 51                   10543   	cmpc	r1,	#00h
00:000A FB C8                   10544   	bne	_$L656
                                10545   CBLOCKEND 247 2 3360
                                10546   
                                10547   ;;}
                                10548   CLINEA 0000H 0001H 0D20H 0001H 0001H
00:000C 8E-F2                   10549   	pop	pc
                                10550   CBLOCKEND 247 1 3360
                                10551   CFUNCTIONEND 247
                                10552   
                                10553   
  --------------------------    10554   	rseg $$main_reqNotHalt$main
                                10555   CFUNCTION 248
                                10556   
00:0000                         10557   _main_reqNotHalt	:
                                10558   CBLOCK 248 1 3370
                                10559   
                                10560   ;;{
                                10561   CLINEA 0000H 0001H 0D2AH 0001H 0001H
                                10562   CBLOCK 248 2 3370
                                10563   
                                10564   ;;	_reqNotHalt = (unsigned char)FLG_SET;
                                10565   CLINEA 0000H 0001H 0D2BH 0002H 0026H
00:0000 01 00                   10566   	mov	r0,	#01h
00:0002 11-90 00-00'            10567   	st	r0,	NEAR __reqNotHalt
                                10568   CBLOCKEND 248 2 3372
                                10569   
                                10570   ;;}
                                10571   CLINEA 0000H 0001H 0D2CH 0001H 0001H
00:0006 1F-FE                   10572   	rt
                                10573   CBLOCKEND 248 1 3372
                                10574   CFUNCTIONEND 248
                                10575   
                                10576   
  --------------------------    10577   	rseg $$_intUart$main
                                10578   CFUNCTION 249
                                10579   
00:0000                         10580   __intUart	:
                                10581   CBLOCK 249 1 3382
                                10582   
                                10583   ;;{
                                10584   CLINEA 0000H 0001H 0D36H 0001H 0001H
                                10585   CBLOCK 249 2 3382
                                10586   
                                10587   ;;		uart_continue(); //in UART.c: process to continue send and receive...
                                10588   CLINEA 0000H 0001H 0D37H 0003H 0047H
00:0000 00-F0'00-00'            10589   	b	_uart_continue
                                10590   CBLOCKEND 249 2 3384
                                10591   CLINEA 0000H 0001H 0D38H 0001H 0001H
                                10592   CBLOCKEND 249 1 3384
                                10593   CFUNCTIONEND 249
                                10594   
                                10595   
  --------------------------    10596   	rseg $$SetOSC$main
                                10597   CFUNCTION 208
                                10598   
00:0000                         10599   _SetOSC	:
                                10600   CBLOCK 208 1 3389
                                10601   
                                10602   ;;static void SetOSC(void){
                                10603   CLINEA 0000H 0001H 0D3DH 0001H 0019H
                                10604   CBLOCK 208 2 3389
                                10605   
                                10606   ;;	SYSC0 = 0;			// Used to select the frequency of the HSCLK => 00=8.192MHz.
                                10607   CLINEA 0000H 0001H 0D40H 0002H 004AH
00:0000 82-A0 02-F0             10608   	rb	0f002h.0
                                10609   
                                10610   ;;	SYSC1 = 0;
                                10611   CLINEA 0000H 0001H 0D41H 0002H 000BH
00:0004 92-A0 02-F0             10612   	rb	0f002h.1
                                10613   
                                10614   ;;	OSCM1 = 1;			// 10 => Built-in PLL oscillation mode
                                10615   CLINEA 0000H 0001H 0D43H 0002H 0034H
00:0008 B0-A0 02-F0             10616   	sb	0f002h.3
                                10617   
                                10618   ;;	OSCM0 = 0;
                                10619   CLINEA 0000H 0001H 0D44H 0002H 000BH
00:000C A2-A0 02-F0             10620   	rb	0f002h.2
                                10621   
                                10622   ;;	ENOSC = 1;			//1=Enable High Speed Oscillator...
                                10623   CLINEA 0000H 0001H 0D46H 0002H 0031H
00:0010 90-A0 03-F0             10624   	sb	0f003h.1
                                10625   
                                10626   ;;	SYSCLK = 1;			//1=HSCLK; 0=LSCLK 
                                10627   CLINEA 0000H 0001H 0D47H 0002H 0022H
00:0014 80-A0 03-F0             10628   	sb	0f003h.0
                                10629   
                                10630   ;;	LPLL = 1;			//1=Enables the use of PLL oscillation - ADDED 4/30/2013
                                10631   CLINEA 0000H 0001H 0D49H 0002H 0045H
00:0018 F0-A0 03-F0             10632   	sb	0f003h.7
                                10633   
                                10634   ;;	__EI();			//INT enable
                                10635   CLINEA 0000H 0001H 0D4BH 0002H 0017H
00:001C 08-ED                   10636   	ei
                                10637   CBLOCKEND 208 2 3404
                                10638   
                                10639   ;;}
                                10640   CLINEA 0000H 0001H 0D4CH 0001H 0001H
00:001E 1F-FE                   10641   	rt
                                10642   CBLOCKEND 208 1 3404
                                10643   CFUNCTIONEND 208
                                10644   
                                10645   
  --------------------------    10646   	rseg $$analog_comparator$main
                                10647   CFUNCTION 209
                                10648   
00:0000                         10649   _analog_comparator	:
                                10650   CBLOCK 209 1 3411
                                10651   
                                10652   ;;void analog_comparator(void){
                                10653   CLINEA 0000H 0001H 0D53H 0001H 001DH
                                10654   CBLOCK 209 2 3411
                                10655   
                                10656   ;;	CMP0EN  = 0x01; 	// Comparator ON...
                                10657   CLINEA 0000H 0001H 0D69H 0002H 0025H
00:0000 80-A0 50-F9             10658   	sb	0f950h.0
                                10659   
                                10660   ;;	CMP0E1  = 0x00; 	// No Interupt...
                                10661   CLINEA 0000H 0001H 0D6AH 0002H 0023H
00:0004 92-A0 51-F9             10662   	rb	0f951h.1
                                10663   
                                10664   ;;	CMP0E0  = 0x00;
                                10665   CLINEA 0000H 0001H 0D6BH 0002H 0010H
00:0008 82-A0 51-F9             10666   	rb	0f951h.0
                                10667   
                                10668   ;;	CMP0SM1 = 0x00; 	// Detect without Sampling... 
                                10669   CLINEA 0000H 0001H 0D6CH 0002H 0030H
00:000C B2-A0 51-F9             10670   	rb	0f951h.3
                                10671   
                                10672   ;;	CMP0RFS = 0x01; 	// Differential Input on B5
                                10673   CLINEA 0000H 0001H 0D6DH 0002H 002DH
00:0010 C0-A0 51-F9             10674   	sb	0f951h.4
                                10675   
                                10676   ;;	CMP0EN  = 0x00;
                                10677   CLINEA 0000H 0001H 0D70H 0002H 0010H
00:0014 82-A0 50-F9             10678   	rb	0f950h.0
                                10679   CBLOCKEND 209 2 3443
                                10680   
                                10681   ;;}
                                10682   CLINEA 0000H 0001H 0D73H 0001H 0001H
00:0018 1F-FE                   10683   	rt
                                10684   CBLOCKEND 209 1 3443
                                10685   CFUNCTIONEND 209
                                10686   
                                10687   
  --------------------------    10688   	rseg $$PortA_Low$main
                                10689   CFUNCTION 210
                                10690   
00:0000                         10691   _PortA_Low	:
                                10692   CBLOCK 210 1 3451
                                10693   
                                10694   ;;void PortA_Low(void){
                                10695   CLINEA 0000H 0001H 0D7BH 0001H 0015H
                                10696   CBLOCK 210 2 3451
                                10697   
                                10698   ;;	PA0DIR = 0;		// PortA Bit0 set to Output Mode...
                                10699   CLINEA 0000H 0001H 0D85H 0002H 0031H
00:0000 82-A0 51-F2             10700   	rb	0f251h.0
                                10701   
                                10702   ;;	PA1DIR = 0;		// PortA Bit1 set to Output Mode...
                                10703   CLINEA 0000H 0001H 0D86H 0002H 0031H
00:0004 92-A0 51-F2             10704   	rb	0f251h.1
                                10705   
                                10706   ;;	PA2DIR = 0;		// PortA Bit2 set to Output Mode...
                                10707   CLINEA 0000H 0001H 0D87H 0002H 0031H
00:0008 A2-A0 51-F2             10708   	rb	0f251h.2
                                10709   
                                10710   ;;	PA0C1  = 1;		// PortA Bit0 set to CMOS Output...
                                10711   CLINEA 0000H 0001H 0D8AH 0002H 0031H
00:000C 80-A0 53-F2             10712   	sb	0f253h.0
                                10713   
                                10714   ;;	PA0C0  = 1;		
                                10715   CLINEA 0000H 0001H 0D8BH 0002H 000EH
00:0010 80-A0 52-F2             10716   	sb	0f252h.0
                                10717   
                                10718   ;;	PA1C1  = 1;		// PortA Bit1 set to CMOS Output...
                                10719   CLINEA 0000H 0001H 0D8CH 0002H 0031H
00:0014 90-A0 53-F2             10720   	sb	0f253h.1
                                10721   
                                10722   ;;	PA1C0  = 1;	
                                10723   CLINEA 0000H 0001H 0D8DH 0002H 000DH
00:0018 90-A0 52-F2             10724   	sb	0f252h.1
                                10725   
                                10726   ;;	PA2C1  = 1;		// PortA Bit2 set to CMOS Output...
                                10727   CLINEA 0000H 0001H 0D8EH 0002H 0031H
00:001C A0-A0 53-F2             10728   	sb	0f253h.2
                                10729   
                                10730   ;;	PA2C0  = 1;	
                                10731   CLINEA 0000H 0001H 0D8FH 0002H 000DH
00:0020 A0-A0 52-F2             10732   	sb	0f252h.2
                                10733   
                                10734   ;;	PA0MD1  = 0;	// PortA Bit0 set to General Purpose Output...
                                10735   CLINEA 0000H 0001H 0D92H 0002H 003CH
00:0024 82-A0 55-F2             10736   	rb	0f255h.0
                                10737   
                                10738   ;;	PA0MD0  = 0;	
                                10739   CLINEA 0000H 0001H 0D93H 0002H 000EH
00:0028 82-A0 54-F2             10740   	rb	0f254h.0
                                10741   
                                10742   ;;	PA1MD1  = 0;	// PortA Bit1 set to General Purpose Output...
                                10743   CLINEA 0000H 0001H 0D94H 0002H 003CH
00:002C 92-A0 55-F2             10744   	rb	0f255h.1
                                10745   
                                10746   ;;	PA1MD0  = 0;	
                                10747   CLINEA 0000H 0001H 0D95H 0002H 000EH
00:0030 92-A0 54-F2             10748   	rb	0f254h.1
                                10749   
                                10750   ;;	PA2MD1  = 0;	// PortA Bit2 set to General Purpose Output...
                                10751   CLINEA 0000H 0001H 0D96H 0002H 003CH
00:0034 A2-A0 55-F2             10752   	rb	0f255h.2
                                10753   
                                10754   ;;	PA2MD0  = 0;	
                                10755   CLINEA 0000H 0001H 0D97H 0002H 000EH
00:0038 A2-A0 54-F2             10756   	rb	0f254h.2
                                10757   
                                10758   ;;	PA0D = 0;		// A.0 Output OFF....
                                10759   CLINEA 0000H 0001H 0D9AH 0002H 0021H
00:003C 82-A0 50-F2             10760   	rb	0f250h.0
                                10761   
                                10762   ;;	PA1D = 0;		// A.1 Output OFF....
                                10763   CLINEA 0000H 0001H 0D9BH 0002H 0021H
00:0040 92-A0 50-F2             10764   	rb	0f250h.1
                                10765   
                                10766   ;;	PA2D = 0;		// A.2 Output OFF....
                                10767   CLINEA 0000H 0001H 0D9CH 0002H 0021H
00:0044 A2-A0 50-F2             10768   	rb	0f250h.2
                                10769   
                                10770   ;;	main_clrWDT(); 	// Clear WDT
                                10771   CLINEA 0000H 0001H 0D9EH 0002H 001DH
00:0048 00-F0'00-00'            10772   	b	_main_clrWDT
                                10773   CBLOCKEND 210 2 3488
                                10774   CLINEA 0000H 0001H 0DA0H 0001H 0001H
                                10775   CBLOCKEND 210 1 3488
                                10776   CFUNCTIONEND 210
                                10777   
                                10778   
  --------------------------    10779   	rseg $$PortB_Low$main
                                10780   CFUNCTION 211
                                10781   
00:0000                         10782   _PortB_Low	:
                                10783   CBLOCK 211 1 3494
                                10784   
                                10785   ;;void PortB_Low(void){
                                10786   CLINEA 0000H 0001H 0DA6H 0001H 0015H
                                10787   CBLOCK 211 2 3494
                                10788   
                                10789   ;;	PB0DIR = 0;		// PortB Bit0 set to Output Mode...
                                10790   CLINEA 0000H 0001H 0DB0H 0002H 0031H
00:0000 82-A0 59-F2             10791   	rb	0f259h.0
                                10792   
                                10793   ;;	PB1DIR = 0;		// PortB Bit1 set to Output Mode...
                                10794   CLINEA 0000H 0001H 0DB1H 0002H 0031H
00:0004 92-A0 59-F2             10795   	rb	0f259h.1
                                10796   
                                10797   ;;	PB2DIR = 0;		// PortB Bit2 set to Output Mode...
                                10798   CLINEA 0000H 0001H 0DB2H 0002H 0031H
00:0008 A2-A0 59-F2             10799   	rb	0f259h.2
                                10800   
                                10801   ;;	PB3DIR = 0;		// PortB Bit3 set to Output Mode...
                                10802   CLINEA 0000H 0001H 0DB3H 0002H 0031H
00:000C B2-A0 59-F2             10803   	rb	0f259h.3
                                10804   
                                10805   ;;	PB4DIR = 0;		// PortB Bit4 set to Output Mode...
                                10806   CLINEA 0000H 0001H 0DB4H 0002H 0031H
00:0010 C2-A0 59-F2             10807   	rb	0f259h.4
                                10808   
                                10809   ;;	PB5DIR = 0;		// PortB Bit5 set to Output Mode...
                                10810   CLINEA 0000H 0001H 0DB5H 0002H 0031H
00:0014 D2-A0 59-F2             10811   	rb	0f259h.5
                                10812   
                                10813   ;;	PB6DIR = 0;		// PortB Bit6 set to Output Mode...
                                10814   CLINEA 0000H 0001H 0DB6H 0002H 0031H
00:0018 E2-A0 59-F2             10815   	rb	0f259h.6
                                10816   
                                10817   ;;	PB7DIR = 0;		// PortB Bit7 set to Output Mode...
                                10818   CLINEA 0000H 0001H 0DB7H 0002H 0031H
00:001C F2-A0 59-F2             10819   	rb	0f259h.7
                                10820   
                                10821   ;;	PB0C1  = 1;		// PortB Bit0 set to CMOS Output...
                                10822   CLINEA 0000H 0001H 0DBAH 0002H 0031H
00:0020 80-A0 5B-F2             10823   	sb	0f25bh.0
                                10824   
                                10825   ;;	PB0C0  = 1;		
                                10826   CLINEA 0000H 0001H 0DBBH 0002H 000EH
00:0024 80-A0 5A-F2             10827   	sb	0f25ah.0
                                10828   
                                10829   ;;	PB1C1  = 1;		// PortB Bit1 set to CMOS Output...
                                10830   CLINEA 0000H 0001H 0DBCH 0002H 0031H
00:0028 90-A0 5B-F2             10831   	sb	0f25bh.1
                                10832   
                                10833   ;;	PB1C0  = 1;	
                                10834   CLINEA 0000H 0001H 0DBDH 0002H 000DH
00:002C 90-A0 5A-F2             10835   	sb	0f25ah.1
                                10836   
                                10837   ;;	PB2C1  = 1;		// PortB Bit2 set to CMOS Output...
                                10838   CLINEA 0000H 0001H 0DBEH 0002H 0031H
00:0030 A0-A0 5B-F2             10839   	sb	0f25bh.2
                                10840   
                                10841   ;;	PB2C0  = 1;	
                                10842   CLINEA 0000H 0001H 0DBFH 0002H 000DH
00:0034 A0-A0 5A-F2             10843   	sb	0f25ah.2
                                10844   
                                10845   ;;	PB3C1  = 1;		// PortB Bit3 set to CMOS Output...
                                10846   CLINEA 0000H 0001H 0DC0H 0002H 0031H
00:0038 B0-A0 5B-F2             10847   	sb	0f25bh.3
                                10848   
                                10849   ;;	PB3C0  = 1;		
                                10850   CLINEA 0000H 0001H 0DC1H 0002H 000EH
00:003C B0-A0 5A-F2             10851   	sb	0f25ah.3
                                10852   
                                10853   ;;	PB4C1  = 1;		// PortB Bit4 set to CMOS Output...
                                10854   CLINEA 0000H 0001H 0DC2H 0002H 0031H
00:0040 C0-A0 5B-F2             10855   	sb	0f25bh.4
                                10856   
                                10857   ;;	PB4C0  = 1;	
                                10858   CLINEA 0000H 0001H 0DC3H 0002H 000DH
00:0044 C0-A0 5A-F2             10859   	sb	0f25ah.4
                                10860   
                                10861   ;;	PB5C1  = 1;		// PortB Bit5 set to CMOS Output...
                                10862   CLINEA 0000H 0001H 0DC4H 0002H 0031H
00:0048 D0-A0 5B-F2             10863   	sb	0f25bh.5
                                10864   
                                10865   ;;	PB5C0  = 1;	
                                10866   CLINEA 0000H 0001H 0DC5H 0002H 000DH
00:004C D0-A0 5A-F2             10867   	sb	0f25ah.5
                                10868   
                                10869   ;;	PB6C1  = 1;		// PortB Bit6 set to CMOS Output...
                                10870   CLINEA 0000H 0001H 0DC6H 0002H 0031H
00:0050 E0-A0 5B-F2             10871   	sb	0f25bh.6
                                10872   
                                10873   ;;	PB6C0  = 1;	
                                10874   CLINEA 0000H 0001H 0DC7H 0002H 000DH
00:0054 E0-A0 5A-F2             10875   	sb	0f25ah.6
                                10876   
                                10877   ;;	PB7C1  = 1;		// PortB Bit7 set to CMOS Output...
                                10878   CLINEA 0000H 0001H 0DC8H 0002H 0031H
00:0058 F0-A0 5B-F2             10879   	sb	0f25bh.7
                                10880   
                                10881   ;;	PB7C0  = 1;	
                                10882   CLINEA 0000H 0001H 0DC9H 0002H 000DH
00:005C F0-A0 5A-F2             10883   	sb	0f25ah.7
                                10884   
                                10885   ;;	PB0MD1  = 0;	// PortB Bit0 set to General Purpose Output...
                                10886   CLINEA 0000H 0001H 0DCCH 0002H 003CH
00:0060 82-A0 5D-F2             10887   	rb	0f25dh.0
                                10888   
                                10889   ;;	PB0MD0  = 0;	
                                10890   CLINEA 0000H 0001H 0DCDH 0002H 000EH
00:0064 82-A0 5C-F2             10891   	rb	0f25ch.0
                                10892   
                                10893   ;;	PB1MD1  = 0;	// PortB Bit1 set to General Purpose Output...
                                10894   CLINEA 0000H 0001H 0DCEH 0002H 003CH
00:0068 92-A0 5D-F2             10895   	rb	0f25dh.1
                                10896   
                                10897   ;;	PB1MD0  = 0;	
                                10898   CLINEA 0000H 0001H 0DCFH 0002H 000EH
00:006C 92-A0 5C-F2             10899   	rb	0f25ch.1
                                10900   
                                10901   ;;	PB2MD1  = 0;	// PortB Bit2 set to General Purpose Output...
                                10902   CLINEA 0000H 0001H 0DD0H 0002H 003CH
00:0070 A2-A0 5D-F2             10903   	rb	0f25dh.2
                                10904   
                                10905   ;;	PB2MD0  = 0;	
                                10906   CLINEA 0000H 0001H 0DD1H 0002H 000EH
00:0074 A2-A0 5C-F2             10907   	rb	0f25ch.2
                                10908   
                                10909   ;;	PB3MD1  = 0;	// PortB Bit3 set to General Purpose Output...
                                10910   CLINEA 0000H 0001H 0DD2H 0002H 003CH
00:0078 B2-A0 5D-F2             10911   	rb	0f25dh.3
                                10912   
                                10913   ;;	PB3MD0  = 0;	
                                10914   CLINEA 0000H 0001H 0DD3H 0002H 000EH
00:007C B2-A0 5C-F2             10915   	rb	0f25ch.3
                                10916   
                                10917   ;;	PB4MD1  = 0;	// PortB Bit4 set to General Purpose Output...
                                10918   CLINEA 0000H 0001H 0DD4H 0002H 003CH
00:0080 C2-A0 5D-F2             10919   	rb	0f25dh.4
                                10920   
                                10921   ;;	PB4MD0  = 0;	
                                10922   CLINEA 0000H 0001H 0DD5H 0002H 000EH
00:0084 C2-A0 5C-F2             10923   	rb	0f25ch.4
                                10924   
                                10925   ;;	PB5MD1  = 0;	// PortB Bit5 set to General Purpose Output...
                                10926   CLINEA 0000H 0001H 0DD6H 0002H 003CH
00:0088 D2-A0 5D-F2             10927   	rb	0f25dh.5
                                10928   
                                10929   ;;	PB5MD0  = 0;
                                10930   CLINEA 0000H 0001H 0DD7H 0002H 000DH
00:008C D2-A0 5C-F2             10931   	rb	0f25ch.5
                                10932   
                                10933   ;;	PB6MD1  = 0;	// PortB Bit6 set to General Purpose Output...
                                10934   CLINEA 0000H 0001H 0DD8H 0002H 003CH
00:0090 E2-A0 5D-F2             10935   	rb	0f25dh.6
                                10936   
                                10937   ;;	PB6MD0  = 0;	
                                10938   CLINEA 0000H 0001H 0DD9H 0002H 000EH
00:0094 E2-A0 5C-F2             10939   	rb	0f25ch.6
                                10940   
                                10941   ;;	PB7MD1  = 0;	// PortB Bit7 set to General Purpose Output...
                                10942   CLINEA 0000H 0001H 0DDAH 0002H 003CH
00:0098 F2-A0 5D-F2             10943   	rb	0f25dh.7
                                10944   
                                10945   ;;	PB7MD0  = 0;
                                10946   CLINEA 0000H 0001H 0DDBH 0002H 000DH
00:009C F2-A0 5C-F2             10947   	rb	0f25ch.7
                                10948   
                                10949   ;;	PB0D = 0;		// B.0 Output OFF....
                                10950   CLINEA 0000H 0001H 0DDEH 0002H 0021H
00:00A0 82-A0 58-F2             10951   	rb	0f258h.0
                                10952   
                                10953   ;;	PB1D = 0;		// B.1 Output OFF....
                                10954   CLINEA 0000H 0001H 0DDFH 0002H 0021H
00:00A4 92-A0 58-F2             10955   	rb	0f258h.1
                                10956   
                                10957   ;;	PB2D = 0;		// B.2 Output OFF....
                                10958   CLINEA 0000H 0001H 0DE0H 0002H 0021H
00:00A8 A2-A0 58-F2             10959   	rb	0f258h.2
                                10960   
                                10961   ;;	PB3D = 0;		// B.3 Output OFF....
                                10962   CLINEA 0000H 0001H 0DE1H 0002H 0021H
00:00AC B2-A0 58-F2             10963   	rb	0f258h.3
                                10964   
                                10965   ;;	PB4D = 0;		// B.4 Output OFF....
                                10966   CLINEA 0000H 0001H 0DE2H 0002H 0021H
00:00B0 C2-A0 58-F2             10967   	rb	0f258h.4
                                10968   
                                10969   ;;	PB5D = 0;		// B.5 Output OFF....
                                10970   CLINEA 0000H 0001H 0DE3H 0002H 0021H
00:00B4 D2-A0 58-F2             10971   	rb	0f258h.5
                                10972   
                                10973   ;;	PB6D = 0;		// B.6 Output OFF....
                                10974   CLINEA 0000H 0001H 0DE4H 0002H 0021H
00:00B8 E2-A0 58-F2             10975   	rb	0f258h.6
                                10976   
                                10977   ;;	PB7D = 0;		// B.7 Output OFF....
                                10978   CLINEA 0000H 0001H 0DE5H 0002H 0021H
00:00BC F2-A0 58-F2             10979   	rb	0f258h.7
                                10980   
                                10981   ;;	main_clrWDT(); 	// Clear WDT
                                10982   CLINEA 0000H 0001H 0DE7H 0002H 001DH
00:00C0 00-F0'00-00'            10983   	b	_main_clrWDT
                                10984   CBLOCKEND 211 2 3561
                                10985   CLINEA 0000H 0001H 0DE9H 0001H 0001H
                                10986   CBLOCKEND 211 1 3561
                                10987   CFUNCTIONEND 211
                                10988   
                                10989   
  --------------------------    10990   	rseg $$PortC_Low$main
                                10991   CFUNCTION 212
                                10992   
00:0000                         10993   _PortC_Low	:
                                10994   CBLOCK 212 1 3567
                                10995   
                                10996   ;;void PortC_Low(void){
                                10997   CLINEA 0000H 0001H 0DEFH 0001H 0015H
                                10998   CBLOCK 212 2 3567
                                10999   
                                11000   ;;	PC0DIR = 0;		// PortC Bit0 set to Output Mode...
                                11001   CLINEA 0000H 0001H 0DF9H 0002H 0031H
00:0000 82-A0 61-F2             11002   	rb	0f261h.0
                                11003   
                                11004   ;;	PC1DIR = 0;		// PortC Bit1 set to Output Mode...
                                11005   CLINEA 0000H 0001H 0DFAH 0002H 0031H
00:0004 92-A0 61-F2             11006   	rb	0f261h.1
                                11007   
                                11008   ;;	PC2DIR = 0;		// PortC Bit2 set to Output Mode...
                                11009   CLINEA 0000H 0001H 0DFBH 0002H 0031H
00:0008 A2-A0 61-F2             11010   	rb	0f261h.2
                                11011   
                                11012   ;;	PC3DIR = 0;		// PortC Bit3 set to Output Mode...
                                11013   CLINEA 0000H 0001H 0DFCH 0002H 0031H
00:000C B2-A0 61-F2             11014   	rb	0f261h.3
                                11015   
                                11016   ;;	PC4DIR = 0;		// PortC Bit4 set to Output Mode...
                                11017   CLINEA 0000H 0001H 0DFDH 0002H 0031H
00:0010 C2-A0 61-F2             11018   	rb	0f261h.4
                                11019   
                                11020   ;;	PC5DIR = 0;		// PortC Bit5 set to Output Mode...
                                11021   CLINEA 0000H 0001H 0DFEH 0002H 0031H
00:0014 D2-A0 61-F2             11022   	rb	0f261h.5
                                11023   
                                11024   ;;	PC6DIR = 0;		// PortC Bit6 set to Output Mode...
                                11025   CLINEA 0000H 0001H 0DFFH 0002H 0031H
00:0018 E2-A0 61-F2             11026   	rb	0f261h.6
                                11027   
                                11028   ;;	PC7DIR = 0;		// PortC Bit7 set to Output Mode...
                                11029   CLINEA 0000H 0001H 0E00H 0002H 0031H
00:001C F2-A0 61-F2             11030   	rb	0f261h.7
                                11031   
                                11032   ;;	PC0C1  = 1;		// PortC Bit0 set to High-Impedance Output...
                                11033   CLINEA 0000H 0001H 0E03H 0002H 003BH
00:0020 80-A0 63-F2             11034   	sb	0f263h.0
                                11035   
                                11036   ;;	PC0C0  = 1;		
                                11037   CLINEA 0000H 0001H 0E04H 0002H 000EH
00:0024 80-A0 62-F2             11038   	sb	0f262h.0
                                11039   
                                11040   ;;	PC1C1  = 1;		// PortC Bit1 set to High-Impedance Output...
                                11041   CLINEA 0000H 0001H 0E05H 0002H 003BH
00:0028 90-A0 63-F2             11042   	sb	0f263h.1
                                11043   
                                11044   ;;	PC1C0  = 1;	
                                11045   CLINEA 0000H 0001H 0E06H 0002H 000DH
00:002C 90-A0 62-F2             11046   	sb	0f262h.1
                                11047   
                                11048   ;;	PC2C1  = 1;		// PortC Bit2 set to High-Impedance Output...
                                11049   CLINEA 0000H 0001H 0E07H 0002H 003BH
00:0030 A0-A0 63-F2             11050   	sb	0f263h.2
                                11051   
                                11052   ;;	PC2C0  = 1;	
                                11053   CLINEA 0000H 0001H 0E08H 0002H 000DH
00:0034 A0-A0 62-F2             11054   	sb	0f262h.2
                                11055   
                                11056   ;;	PC3C1  = 1;		// PortC Bit3 set to High-Impedance Output...
                                11057   CLINEA 0000H 0001H 0E09H 0002H 003BH
00:0038 B0-A0 63-F2             11058   	sb	0f263h.3
                                11059   
                                11060   ;;	PC3C0  = 1;		
                                11061   CLINEA 0000H 0001H 0E0AH 0002H 000EH
00:003C B0-A0 62-F2             11062   	sb	0f262h.3
                                11063   
                                11064   ;;	PC4C1  = 1;		// PortC Bit4 set to High-Impedance Output...
                                11065   CLINEA 0000H 0001H 0E0BH 0002H 003BH
00:0040 C0-A0 63-F2             11066   	sb	0f263h.4
                                11067   
                                11068   ;;	PC4C0  = 1;	
                                11069   CLINEA 0000H 0001H 0E0CH 0002H 000DH
00:0044 C0-A0 62-F2             11070   	sb	0f262h.4
                                11071   
                                11072   ;;	PC5C1  = 1;		// PortC Bit5 set to High-Impedance Output...
                                11073   CLINEA 0000H 0001H 0E0DH 0002H 003BH
00:0048 D0-A0 63-F2             11074   	sb	0f263h.5
                                11075   
                                11076   ;;	PC5C0  = 1;	
                                11077   CLINEA 0000H 0001H 0E0EH 0002H 000DH
00:004C D0-A0 62-F2             11078   	sb	0f262h.5
                                11079   
                                11080   ;;	PC6C1  = 1;		// PortC Bit6 set to High-Impedance Output...
                                11081   CLINEA 0000H 0001H 0E0FH 0002H 003BH
00:0050 E0-A0 63-F2             11082   	sb	0f263h.6
                                11083   
                                11084   ;;	PC6C0  = 1;	
                                11085   CLINEA 0000H 0001H 0E10H 0002H 000DH
00:0054 E0-A0 62-F2             11086   	sb	0f262h.6
                                11087   
                                11088   ;;	PC7C1  = 1;		// PortC Bit7 set to High-Impedance Output...
                                11089   CLINEA 0000H 0001H 0E11H 0002H 003BH
00:0058 F0-A0 63-F2             11090   	sb	0f263h.7
                                11091   
                                11092   ;;	PC7C0  = 1;	
                                11093   CLINEA 0000H 0001H 0E12H 0002H 000DH
00:005C F0-A0 62-F2             11094   	sb	0f262h.7
                                11095   
                                11096   ;;	PC0MD1  = 0;	// PortC Bit0 set to General Purpose Output...
                                11097   CLINEA 0000H 0001H 0E15H 0002H 003CH
00:0060 82-A0 65-F2             11098   	rb	0f265h.0
                                11099   
                                11100   ;;	PC0MD0  = 0;	
                                11101   CLINEA 0000H 0001H 0E16H 0002H 000EH
00:0064 82-A0 64-F2             11102   	rb	0f264h.0
                                11103   
                                11104   ;;	PC1MD1  = 0;	// PortC Bit1 set to General Purpose Output...
                                11105   CLINEA 0000H 0001H 0E17H 0002H 003CH
00:0068 92-A0 65-F2             11106   	rb	0f265h.1
                                11107   
                                11108   ;;	PC1MD0  = 0;	
                                11109   CLINEA 0000H 0001H 0E18H 0002H 000EH
00:006C 92-A0 64-F2             11110   	rb	0f264h.1
                                11111   
                                11112   ;;	PC2MD1  = 0;	// PortC Bit2 set to General Purpose Output...
                                11113   CLINEA 0000H 0001H 0E19H 0002H 003CH
00:0070 A2-A0 65-F2             11114   	rb	0f265h.2
                                11115   
                                11116   ;;	PC2MD0  = 0;	
                                11117   CLINEA 0000H 0001H 0E1AH 0002H 000EH
00:0074 A2-A0 64-F2             11118   	rb	0f264h.2
                                11119   
                                11120   ;;	PC3MD1  = 0;	// PortC Bit3 set to General Purpose Output...
                                11121   CLINEA 0000H 0001H 0E1BH 0002H 003CH
00:0078 B2-A0 65-F2             11122   	rb	0f265h.3
                                11123   
                                11124   ;;	PC3MD0  = 0;	
                                11125   CLINEA 0000H 0001H 0E1CH 0002H 000EH
00:007C B2-A0 64-F2             11126   	rb	0f264h.3
                                11127   
                                11128   ;;	PC4MD1  = 0;	// PortC Bit4 set to General Purpose Output...
                                11129   CLINEA 0000H 0001H 0E1DH 0002H 003CH
00:0080 C2-A0 65-F2             11130   	rb	0f265h.4
                                11131   
                                11132   ;;	PC4MD0  = 0;	
                                11133   CLINEA 0000H 0001H 0E1EH 0002H 000EH
00:0084 C2-A0 64-F2             11134   	rb	0f264h.4
                                11135   
                                11136   ;;	PC5MD1  = 0;	// PortC Bit5 set to General Purpose Output...
                                11137   CLINEA 0000H 0001H 0E1FH 0002H 003CH
00:0088 D2-A0 65-F2             11138   	rb	0f265h.5
                                11139   
                                11140   ;;	PC5MD0  = 0;
                                11141   CLINEA 0000H 0001H 0E20H 0002H 000DH
00:008C D2-A0 64-F2             11142   	rb	0f264h.5
                                11143   
                                11144   ;;	PC6MD1  = 0;	// PortC Bit6 set to General Purpose Output...
                                11145   CLINEA 0000H 0001H 0E21H 0002H 003CH
00:0090 E2-A0 65-F2             11146   	rb	0f265h.6
                                11147   
                                11148   ;;	PC6MD0  = 0;	
                                11149   CLINEA 0000H 0001H 0E22H 0002H 000EH
00:0094 E2-A0 64-F2             11150   	rb	0f264h.6
                                11151   
                                11152   ;;	PC7MD1  = 0;	// PortC Bit7 set to General Purpose Output...
                                11153   CLINEA 0000H 0001H 0E23H 0002H 003CH
00:0098 F2-A0 65-F2             11154   	rb	0f265h.7
                                11155   
                                11156   ;;	PC7MD0  = 0;
                                11157   CLINEA 0000H 0001H 0E24H 0002H 000DH
00:009C F2-A0 64-F2             11158   	rb	0f264h.7
                                11159   
                                11160   ;;	PC0D = 0;		// C.0 Output OFF....
                                11161   CLINEA 0000H 0001H 0E27H 0002H 0021H
00:00A0 82-A0 60-F2             11162   	rb	0f260h.0
                                11163   
                                11164   ;;	PC1D = 0;		// C.1 Output OFF....
                                11165   CLINEA 0000H 0001H 0E28H 0002H 0021H
00:00A4 92-A0 60-F2             11166   	rb	0f260h.1
                                11167   
                                11168   ;;	PC2D = 0;		// C.2 Output OFF....
                                11169   CLINEA 0000H 0001H 0E29H 0002H 0021H
00:00A8 A2-A0 60-F2             11170   	rb	0f260h.2
                                11171   
                                11172   ;;	PC3D = 0;		// C.3 Output OFF....
                                11173   CLINEA 0000H 0001H 0E2AH 0002H 0021H
00:00AC B2-A0 60-F2             11174   	rb	0f260h.3
                                11175   
                                11176   ;;	PC4D = 0;		// C.4 Output OFF....
                                11177   CLINEA 0000H 0001H 0E2BH 0002H 0021H
00:00B0 C2-A0 60-F2             11178   	rb	0f260h.4
                                11179   
                                11180   ;;	PC5D = 0;		// C.5 Output OFF....
                                11181   CLINEA 0000H 0001H 0E2CH 0002H 0021H
00:00B4 D2-A0 60-F2             11182   	rb	0f260h.5
                                11183   
                                11184   ;;	PC6D = 0;		// C.6 Output OFF....
                                11185   CLINEA 0000H 0001H 0E2DH 0002H 0021H
00:00B8 E2-A0 60-F2             11186   	rb	0f260h.6
                                11187   
                                11188   ;;	PC7D = 0;		// C.7 Output OFF....
                                11189   CLINEA 0000H 0001H 0E2EH 0002H 0021H
00:00BC F2-A0 60-F2             11190   	rb	0f260h.7
                                11191   
                                11192   ;;	main_clrWDT(); 	// Clear WDT
                                11193   CLINEA 0000H 0001H 0E30H 0002H 001DH
00:00C0 00-F0'00-00'            11194   	b	_main_clrWDT
                                11195   CBLOCKEND 212 2 3634
                                11196   CLINEA 0000H 0001H 0E32H 0001H 0001H
                                11197   CBLOCKEND 212 1 3634
                                11198   CFUNCTIONEND 212
                                11199   
                                11200   
  --------------------------    11201   	rseg $$PortD_Low$main
                                11202   CFUNCTION 213
                                11203   
00:0000                         11204   _PortD_Low	:
                                11205   CBLOCK 213 1 3640
                                11206   
                                11207   ;;void PortD_Low(void){
                                11208   CLINEA 0000H 0001H 0E38H 0001H 0015H
                                11209   CBLOCK 213 2 3640
                                11210   
                                11211   ;;	PD0DIR = 0;		// PortD Bit0 set to Output Mode...
                                11212   CLINEA 0000H 0001H 0E41H 0002H 0031H
00:0000 82-A0 69-F2             11213   	rb	0f269h.0
                                11214   
                                11215   ;;	PD1DIR = 0;		// PortD Bit1 set to Output Mode...
                                11216   CLINEA 0000H 0001H 0E42H 0002H 0031H
00:0004 92-A0 69-F2             11217   	rb	0f269h.1
                                11218   
                                11219   ;;	PD2DIR = 0;		// PortD Bit2 set to Output Mode...
                                11220   CLINEA 0000H 0001H 0E43H 0002H 0031H
00:0008 A2-A0 69-F2             11221   	rb	0f269h.2
                                11222   
                                11223   ;;	PD3DIR = 0;		// PortD Bit3 set to Output Mode...
                                11224   CLINEA 0000H 0001H 0E44H 0002H 0031H
00:000C B2-A0 69-F2             11225   	rb	0f269h.3
                                11226   
                                11227   ;;	PD4DIR = 0;		// PortD Bit4 set to Output Mode...
                                11228   CLINEA 0000H 0001H 0E45H 0002H 0031H
00:0010 C2-A0 69-F2             11229   	rb	0f269h.4
                                11230   
                                11231   ;;	PD5DIR = 0;		// PortD Bit5 set to Output Mode...
                                11232   CLINEA 0000H 0001H 0E46H 0002H 0031H
00:0014 D2-A0 69-F2             11233   	rb	0f269h.5
                                11234   
                                11235   ;;	PD0C1= 1;		// PortD Bit0 set to CMOS Output...
                                11236   CLINEA 0000H 0001H 0E49H 0002H 002FH
00:0018 80-A0 6B-F2             11237   	sb	0f26bh.0
                                11238   
                                11239   ;;	PD0C0= 1;		
                                11240   CLINEA 0000H 0001H 0E4AH 0002H 000CH
00:001C 80-A0 6A-F2             11241   	sb	0f26ah.0
                                11242   
                                11243   ;;	PD1C1= 1;		// PortD Bit1 set to CMOS Output...
                                11244   CLINEA 0000H 0001H 0E4BH 0002H 002FH
00:0020 90-A0 6B-F2             11245   	sb	0f26bh.1
                                11246   
                                11247   ;;	PD1C0= 1;	
                                11248   CLINEA 0000H 0001H 0E4CH 0002H 000BH
00:0024 90-A0 6A-F2             11249   	sb	0f26ah.1
                                11250   
                                11251   ;;	PD2C1= 1;		// PortD Bit2 set to CMOS Output...
                                11252   CLINEA 0000H 0001H 0E4DH 0002H 002FH
00:0028 A0-A0 6B-F2             11253   	sb	0f26bh.2
                                11254   
                                11255   ;;	PD2C0= 1;	
                                11256   CLINEA 0000H 0001H 0E4EH 0002H 000BH
00:002C A0-A0 6A-F2             11257   	sb	0f26ah.2
                                11258   
                                11259   ;;	PD3C1= 1;		// PortD Bit3 set to CMOS Output...
                                11260   CLINEA 0000H 0001H 0E4FH 0002H 002FH
00:0030 B0-A0 6B-F2             11261   	sb	0f26bh.3
                                11262   
                                11263   ;;	PD3C0= 1;		
                                11264   CLINEA 0000H 0001H 0E50H 0002H 000CH
00:0034 B0-A0 6A-F2             11265   	sb	0f26ah.3
                                11266   
                                11267   ;;	PD4C1= 1;		// PortD Bit4 set to CMOS Output...
                                11268   CLINEA 0000H 0001H 0E51H 0002H 002FH
00:0038 C0-A0 6B-F2             11269   	sb	0f26bh.4
                                11270   
                                11271   ;;	PD4C0= 1;	
                                11272   CLINEA 0000H 0001H 0E52H 0002H 000BH
00:003C C0-A0 6A-F2             11273   	sb	0f26ah.4
                                11274   
                                11275   ;;	PD5C1= 1;		// PortD Bit5 set to CMOS Output...
                                11276   CLINEA 0000H 0001H 0E53H 0002H 002FH
00:0040 D0-A0 6B-F2             11277   	sb	0f26bh.5
                                11278   
                                11279   ;;	PD5C0= 1;	
                                11280   CLINEA 0000H 0001H 0E54H 0002H 000BH
00:0044 D0-A0 6A-F2             11281   	sb	0f26ah.5
                                11282   
                                11283   ;;	PD0D = 0;		// D.0 Output OFF....
                                11284   CLINEA 0000H 0001H 0E57H 0002H 0021H
00:0048 82-A0 68-F2             11285   	rb	0f268h.0
                                11286   
                                11287   ;;	PD1D = 0;		// D.1 Output OFF....
                                11288   CLINEA 0000H 0001H 0E58H 0002H 0021H
00:004C 92-A0 68-F2             11289   	rb	0f268h.1
                                11290   
                                11291   ;;	PD2D = 0;		// D.2 Output OFF....
                                11292   CLINEA 0000H 0001H 0E59H 0002H 0021H
00:0050 A2-A0 68-F2             11293   	rb	0f268h.2
                                11294   
                                11295   ;;	PD3D = 0;		// D.3 Output OFF....
                                11296   CLINEA 0000H 0001H 0E5AH 0002H 0021H
00:0054 B2-A0 68-F2             11297   	rb	0f268h.3
                                11298   
                                11299   ;;	PD4D = 0;		// D.4 Output OFF....
                                11300   CLINEA 0000H 0001H 0E5BH 0002H 0021H
00:0058 C2-A0 68-F2             11301   	rb	0f268h.4
                                11302   
                                11303   ;;	PD5D = 0;		// D.5 Output OFF....
                                11304   CLINEA 0000H 0001H 0E5CH 0002H 0021H
00:005C D2-A0 68-F2             11305   	rb	0f268h.5
                                11306   
                                11307   ;;	main_clrWDT(); 	// Clear WDT
                                11308   CLINEA 0000H 0001H 0E5FH 0002H 001DH
00:0060 00-F0'00-00'            11309   	b	_main_clrWDT
                                11310   CBLOCKEND 213 2 3681
                                11311   CLINEA 0000H 0001H 0E61H 0001H 0001H
                                11312   CBLOCKEND 213 1 3681
                                11313   CFUNCTIONEND 213
                                11314   
                                11315   
  --------------------------    11316   	rseg $$PortA_Digital_Inputs$main
                                11317   CFUNCTION 214
                                11318   
00:0000                         11319   _PortA_Digital_Inputs	:
                                11320   CBLOCK 214 1 3687
                                11321   
                                11322   ;;void PortA_Digital_Inputs(void){
                                11323   CLINEA 0000H 0001H 0E67H 0001H 0020H
                                11324   CBLOCK 214 2 3687
                                11325   
                                11326   ;;	PA0DIR = 1;		// PortA Bit0 set to Input Mode...
                                11327   CLINEA 0000H 0001H 0E71H 0002H 0030H
00:0000 80-A0 51-F2             11328   	sb	0f251h.0
                                11329   
                                11330   ;;	PA1DIR = 1;		// PortA Bit1 set to Input Mode...
                                11331   CLINEA 0000H 0001H 0E72H 0002H 0030H
00:0004 90-A0 51-F2             11332   	sb	0f251h.1
                                11333   
                                11334   ;;	PA2DIR = 1;		// PortA Bit2 set to Input Mode...
                                11335   CLINEA 0000H 0001H 0E73H 0002H 0030H
00:0008 A0-A0 51-F2             11336   	sb	0f251h.2
                                11337   
                                11338   ;;	PA0C1  = 1;		// PortA Bit0 set to Input with Pull-Up Resistor...
                                11339   CLINEA 0000H 0001H 0E77H 0002H 0041H
00:000C 80-A0 53-F2             11340   	sb	0f253h.0
                                11341   
                                11342   ;;	PA0C0  = 0;		
                                11343   CLINEA 0000H 0001H 0E78H 0002H 000EH
00:0010 82-A0 52-F2             11344   	rb	0f252h.0
                                11345   
                                11346   ;;	PA1C1  = 1;		// PortA Bit1 set to Input with Pull-Up Resistor...
                                11347   CLINEA 0000H 0001H 0E79H 0002H 0041H
00:0014 90-A0 53-F2             11348   	sb	0f253h.1
                                11349   
                                11350   ;;	PA1C0  = 0;	
                                11351   CLINEA 0000H 0001H 0E7AH 0002H 000DH
00:0018 92-A0 52-F2             11352   	rb	0f252h.1
                                11353   
                                11354   ;;	PA2C1  = 1;		// PortA Bit2 set to Input with Pull-Up Resistor...
                                11355   CLINEA 0000H 0001H 0E7BH 0002H 0041H
00:001C A0-A0 53-F2             11356   	sb	0f253h.2
                                11357   
                                11358   ;;	PA2C0  = 0;	
                                11359   CLINEA 0000H 0001H 0E7CH 0002H 000DH
00:0020 A2-A0 52-F2             11360   	rb	0f252h.2
                                11361   
                                11362   ;;	PA0MD1  = 0;	// PortA Bit0 set to General Purpose I/O...
                                11363   CLINEA 0000H 0001H 0E7FH 0002H 0039H
00:0024 82-A0 55-F2             11364   	rb	0f255h.0
                                11365   
                                11366   ;;	PA0MD0  = 0;	
                                11367   CLINEA 0000H 0001H 0E80H 0002H 000EH
00:0028 82-A0 54-F2             11368   	rb	0f254h.0
                                11369   
                                11370   ;;	PA1MD1  = 0;	// PortA Bit1 set to General Purpose I/O...
                                11371   CLINEA 0000H 0001H 0E81H 0002H 0039H
00:002C 92-A0 55-F2             11372   	rb	0f255h.1
                                11373   
                                11374   ;;	PA1MD0  = 0;	
                                11375   CLINEA 0000H 0001H 0E82H 0002H 000EH
00:0030 92-A0 54-F2             11376   	rb	0f254h.1
                                11377   
                                11378   ;;	PA2MD1  = 0;	// PortA Bit2 set to General Purpose I/O...
                                11379   CLINEA 0000H 0001H 0E83H 0002H 0039H
00:0034 A2-A0 55-F2             11380   	rb	0f255h.2
                                11381   
                                11382   ;;	PA2MD0  = 0;	
                                11383   CLINEA 0000H 0001H 0E84H 0002H 000EH
00:0038 A2-A0 54-F2             11384   	rb	0f254h.2
                                11385   
                                11386   ;;	main_clrWDT(); 	// Clear WDT
                                11387   CLINEA 0000H 0001H 0E86H 0002H 001DH
00:003C 00-F0'00-00'            11388   	b	_main_clrWDT
                                11389   CBLOCKEND 214 2 3720
                                11390   CLINEA 0000H 0001H 0E88H 0001H 0001H
                                11391   CBLOCKEND 214 1 3720
                                11392   CFUNCTIONEND 214
                                11393   
                                11394   
  --------------------------    11395   	rseg $$NOP$main
                                11396   CFUNCTION 251
                                11397   
00:0000                         11398   _NOP	:
                                11399   CBLOCK 251 1 3783
                                11400   
                                11401   ;;{
                                11402   CLINEA 0000H 0001H 0EC7H 0001H 0001H
00:0000 CE-F8                   11403   	push	lr
00:0002 6E-F4                   11404   	push	xr4
00:0004 5E-F8                   11405   	push	er8
00:0006 00-88                   11406   	mov	r8,	r0
                                11407   CBLOCK 251 2 3783
                                11408   CRET 0006H
                                11409   CARGUMENT 46H 0001H 001CH "sec" 02H 00H 00H
                                11410   CLOCAL 46H 0002H 0027H 0002H "timerThres" 02H 00H 01H
                                11411   CLOCAL 46H 0001H 0018H 0002H "TimeFlag" 02H 00H 00H
                                11412   CLOCAL 46H 0001H 0016H 0002H "TempSec" 02H 00H 00H
                                11413   CLOCAL 46H 0002H 0024H 0002H "timer" 02H 00H 01H
                                11414   CLOCAL 4AH 0002H 0000H 0002H "timertest" 02H 00H 01H
                                11415   
                                11416   ;;	tm_init(TM_CH_NO_AB);
                                11417   CLINEA 0000H 0001H 0ECEH 0002H 0016H
00:0008 01 00                   11418   	mov	r0,	#01h
00:000A 01-F0'00-00'            11419   	bl	_tm_init
                                11420   
                                11421   ;;	TempSec = sec;
                                11422   CLINEA 0000H 0001H 0ECFH 0002H 000FH
00:000E 80-82                   11423   	mov	r2,	r8
                                11424   
                                11425   ;;	TimeFlag = 0;
                                11426   CLINEA 0000H 0001H 0ED0H 0002H 000EH
00:0010 00 04                   11427   	mov	r4,	#00h
                                11428   
                                11429   ;;	tm_setABSource(TM_CS_LSCLK);
                                11430   CLINEA 0000H 0000H 018DH 0002H 0015H
00:0012 82-A0 EA-F8             11431   	rb	0f8eah.0
                                11432   
                                11433   ;;	tm_setABSource(TM_CS_LSCLK);
                                11434   CLINEA 0000H 0000H 018EH 0002H 001AH
00:0016 92-A0 EA-F8             11435   	rb	0f8eah.1
                                11436   
                                11437   ;;	tm_setABData(0xffff);
                                11438   CLINEA 0000H 0000H 0157H 0002H 0025H
00:001A FF 00                   11439   	mov	r0,	#0ffh
00:001C 11-90 E8-F8             11440   	st	r0,	0f8e8h
                                11441   
                                11442   ;;	tm_setABData(0xffff);
                                11443   CLINEA 0000H 0000H 0158H 0002H 0023H
00:0020 11-90 EC-F8             11444   	st	r0,	0f8ech
                                11445   
                                11446   ;;	if(sec == 1){
                                11447   CLINEA 0000H 0001H 0ED5H 0002H 000EH
00:0024 01 78                   11448   	cmp	r8,	#01h
00:0026 02 C8                   11449   	bne	_$L670
                                11450   CBLOCK 251 3 3797
                                11451   
                                11452   ;;		timerThres = 0x7FFF;
                                11453   CLINEA 0000H 0001H 0ED6H 0003H 0016H
00:0028 FF 06                   11454   	mov	r6,	#0ffh
00:002A 7F 07                   11455   	mov	r7,	#07fh
                                11456   
                                11457   ;;		TimeFlag = 0;
                                11458   CLINEA 0000H 0001H 0ED7H 0003H 000FH
                                11459   CBLOCKEND 251 3 3800
                                11460   
                                11461   ;;	}
                                11462   CLINEA 0000H 0000H 0ED8H 0002H 0002H
00:002C                         11463   _$L670 :
                                11464   
                                11465   ;;	if(sec == 2){
                                11466   CLINEA 0000H 0001H 0ED9H 0002H 000EH
00:002C 02 78                   11467   	cmp	r8,	#02h
00:002E 02 C8                   11468   	bne	_$L672
                                11469   CBLOCK 251 4 3801
                                11470   
                                11471   ;;		timerThres = 0xFFFF;
                                11472   CLINEA 0000H 0001H 0EDAH 0003H 0016H
00:0030 7F E6                   11473   	mov	er6,	#-1
                                11474   
                                11475   ;;		TimeFlag = 0;
                                11476   CLINEA 0000H 0001H 0EDBH 0003H 000FH
00:0032 00 04                   11477   	mov	r4,	#00h
                                11478   CBLOCKEND 251 4 3804
                                11479   
                                11480   ;;	}
                                11481   CLINEA 0000H 0000H 0EDCH 0002H 0002H
00:0034                         11482   _$L672 :
                                11483   
                                11484   ;;	if(sec > 2){
                                11485   CLINEA 0000H 0001H 0EDDH 0002H 000DH
00:0034 02 78                   11486   	cmp	r8,	#02h
00:0036 0C C3                   11487   	ble	_$L682
                                11488   CBLOCK 251 5 3805
                                11489   
                                11490   ;;	while(TempSec > 1){
                                11491   CLINEA 0000H 0000H 0EDEH 0001H 0001H
00:0038 02 CE                   11492   	bal	_$L692
                                11493   
                                11494   ;;	while(TempSec > 1){
                                11495   CLINEA 0000H 0000H 0EDEH 0002H 0014H
00:003A                         11496   _$L678 :
                                11497   CBLOCK 251 6 3806
                                11498   
                                11499   ;;		TempSec -= 2;
                                11500   CLINEA 0000H 0001H 0EDFH 0003H 000FH
00:003A FE 12                   11501   	add	r2,	#0feh
                                11502   
                                11503   ;;		TimeFlag++;
                                11504   CLINEA 0000H 0000H 0EE0H 0003H 000DH
00:003C 01 14                   11505   	add	r4,	#01h
                                11506   CBLOCKEND 251 6 3809
                                11507   
                                11508   ;;	while(TempSec > 1){
                                11509   CLINEA 0000H 0000H 0EDEH 0001H 0001H
00:003E                         11510   _$L692 :
                                11511   
                                11512   ;;	while(TempSec > 1){
                                11513   CLINEA 0000H 0000H 0EDEH 000EH 0013H
00:003E 01 72                   11514   	cmp	r2,	#01h
00:0040 FC C2                   11515   	bgt	_$L678
                                11516   
                                11517   ;;	if(TempSec == 1){
                                11518   CLINEA 0000H 0001H 0EE2H 0002H 0012H
00:0042 01 72                   11519   	cmp	r2,	#01h
00:0044 03 C8                   11520   	bne	_$L680
                                11521   CBLOCK 251 7 3810
                                11522   
                                11523   ;;		timerThres = 0x7FFF;
                                11524   CLINEA 0000H 0001H 0EE3H 0003H 0016H
00:0046 FF 06                   11525   	mov	r6,	#0ffh
00:0048 7F 07                   11526   	mov	r7,	#07fh
                                11527   CBLOCKEND 251 7 3812
                                11528   
                                11529   ;;	else{
                                11530   CLINEA 0000H 0001H 0EE5H 0002H 0006H
00:004A 02 CE                   11531   	bal	_$L682
00:004C                         11532   _$L680 :
                                11533   CBLOCK 251 8 3813
                                11534   
                                11535   ;;		timerThres = 0xFFFF;
                                11536   CLINEA 0000H 0001H 0EE6H 0003H 0016H
00:004C 7F E6                   11537   	mov	er6,	#-1
                                11538   
                                11539   ;;		TimeFlag--;
                                11540   CLINEA 0000H 0000H 0EE7H 0003H 000DH
00:004E FF 14                   11541   	add	r4,	#0ffh
                                11542   CBLOCKEND 251 8 3816
                                11543   
                                11544   ;;	}
                                11545   CLINEA 0000H 0000H 0EE8H 0002H 0002H
00:0050                         11546   _$L682 :
                                11547   CBLOCKEND 251 5 3817
                                11548   
                                11549   ;;	main_clrWDT();	
                                11550   CLINEA 0000H 0001H 0EECH 0002H 0010H
00:0050 01-F0'00-00'            11551   	bl	_main_clrWDT
                                11552   
                                11553   ;;	tm_startAB();
                                11554   CLINEA 0000H 0001H 00D1H 0002H 000AH
00:0054 00 00                   11555   	mov	r0,	#00h
00:0056 11-90 E9-F8             11556   	st	r0,	0f8e9h
                                11557   
                                11558   ;;	tm_startAB();
                                11559   CLINEA 0000H 0000H 00D2H 0002H 000BH
00:005A 80-A0 EB-F8             11560   	sb	0f8ebh.0
                                11561   
                                11562   ;;	timer = tm_getABCounter();
                                11563   CLINEA 0000H 0000H 0120H 0002H 001BH
00:005E 10-90 E9-F8             11564   	l	r0,	0f8e9h
00:0062 00 01                   11565   	mov	r1,	#00h
00:0064 05-F2                   11566   	mov	er2,	er0
                                11567   
                                11568   ;;	timer = tm_getABCounter();
                                11569   CLINEA 0000H 0000H 0121H 0002H 0014H
00:0066 10-90 ED-F8             11570   	l	r0,	0f8edh
00:006A 03-83                   11571   	or	r3,	r0
                                11572   
                                11573   ;;	timer = tm_getABCounter();
                                11574   CLINEA 0000H 0000H 0122H 0002H 000CH
00:006C 25-F0                   11575   	mov	er0,	er2
                                11576   
                                11577   ;;	while(timer < timerThres){
                                11578   CLINEA 0000H 0001H 0EF0H 0002H 001BH
00:006E 08 CE                   11579   	bal	_$L685
00:0070                         11580   _$L687 :
                                11581   CBLOCK 251 9 3824
                                11582   
                                11583   ;;		timer = tm_getABCounter();
                                11584   CLINEA 0000H 0000H 0120H 0002H 001BH
00:0070 10-90 E9-F8             11585   	l	r0,	0f8e9h
00:0074 00 01                   11586   	mov	r1,	#00h
00:0076 05-F2                   11587   	mov	er2,	er0
                                11588   
                                11589   ;;		timer = tm_getABCounter();
                                11590   CLINEA 0000H 0000H 0121H 0002H 0014H
00:0078 10-90 ED-F8             11591   	l	r0,	0f8edh
00:007C 03-83                   11592   	or	r3,	r0
                                11593   
                                11594   ;;		timer = tm_getABCounter();
                                11595   CLINEA 0000H 0000H 0122H 0002H 000CH
00:007E 25-F0                   11596   	mov	er0,	er2
                                11597   
                                11598   ;;		timer = tm_getABCounter();
                                11599   CLINEA 0000H 0000H 0EF1H 0003H 001CH
                                11600   CBLOCKEND 251 9 3827
                                11601   
                                11602   ;;	}
                                11603   CLINEA 0000H 0000H 0EF3H 0002H 0002H
00:0080                         11604   _$L685 :
                                11605   
                                11606   ;;	while(timer < timerThres){
                                11607   CLINEA 0000H 0000H 0EF0H 000EH 0013H
00:0080 67-F0                   11608   	cmp	er0,	er6
00:0082 F6 C1                   11609   	blt	_$L687
                                11610   
                                11611   ;;	if(TimeFlag !=0){
                                11612   CLINEA 0000H 0001H 0EF4H 0002H 0012H
00:0084 00 74                   11613   	cmp	r4,	#00h
00:0086 05 C9                   11614   	beq	_$L690
                                11615   
                                11616   ;;		tm_stopAB();
                                11617   CLINEA 0000H 0001H 0105H 0002H 000BH
00:0088 82-A0 EB-F8             11618   	rb	0f8ebh.0
                                11619   
                                11620   ;;		TimeFlag--;
                                11621   CLINEA 0000H 0000H 0EF6H 0003H 000DH
00:008C FF 14                   11622   	add	r4,	#0ffh
                                11623   
                                11624   ;;		timerThres = 0xFFFF;
                                11625   CLINEA 0000H 0001H 0EF7H 0003H 0016H
00:008E 7F E6                   11626   	mov	er6,	#-1
                                11627   
                                11628   ;;		goto TimerRestart;
                                11629   CLINEA 0000H 0001H 0EF8H 0003H 0014H
00:0090 DF CE                   11630   	bal	_$L682
                                11631   
                                11632   ;;	}
                                11633   CLINEA 0000H 0000H 0EF9H 0002H 0002H
00:0092                         11634   _$L690 :
                                11635   CBLOCKEND 251 2 3834
                                11636   
                                11637   ;;}
                                11638   CLINEA 0000H 0001H 0EFAH 0001H 0001H
00:0092 1E-F8                   11639   	pop	er8
00:0094 2E-F4                   11640   	pop	xr4
00:0096 8E-F2                   11641   	pop	pc
                                11642   CBLOCKEND 251 1 3834
                                11643   CFUNCTIONEND 251
                                11644   
                                11645   
  --------------------------    11646   	rseg $$NOPms$main
                                11647   CFUNCTION 252
                                11648   
00:0000                         11649   _NOPms	:
                                11650   CBLOCK 252 1 3847
                                11651   
                                11652   ;;{
                                11653   CLINEA 0000H 0001H 0F07H 0001H 0001H
00:0000 CE-F8                   11654   	push	lr
00:0002 6E-F4                   11655   	push	xr4
00:0004 5E-FC                   11656   	push	bp
00:0006 5E-F8                   11657   	push	er8
00:0008 05-F8                   11658   	mov	er8,	er0
                                11659   CBLOCK 252 2 3847
                                11660   CRET 0008H
                                11661   CARGUMENT 46H 0002H 0028H "ms" 02H 00H 01H
                                11662   CLOCAL 46H 0002H 002AH 0002H "timerThres" 02H 00H 01H
                                11663   CLOCAL 46H 0001H 001AH 0002H "TimeFlag" 02H 00H 00H
                                11664   CLOCAL 46H 0002H 0026H 0002H "TempSec" 02H 00H 01H
                                11665   CLOCAL 46H 0002H 0024H 0002H "timer" 02H 00H 01H
                                11666   CLOCAL 4AH 0002H 0000H 0002H "timertest" 02H 00H 01H
                                11667   
                                11668   ;;TempSec = ms;
                                11669   CLINEA 0000H 0001H 0F0EH 0001H 000DH
00:000A 05-F4                   11670   	mov	er4,	er0
                                11671   
                                11672   ;;TimeFlag = 0;
                                11673   CLINEA 0000H 0001H 0F0FH 0001H 000DH
00:000C 00 06                   11674   	mov	r6,	#00h
                                11675   
                                11676   ;;tm_init(TM_CH_NO_AB);
                                11677   CLINEA 0000H 0001H 0F11H 0001H 0015H
00:000E 01 00                   11678   	mov	r0,	#01h
00:0010 01-F0'00-00'            11679   	bl	_tm_init
                                11680   
                                11681   ;;tm_setABSource(TM_CS_HTBCLK);
                                11682   CLINEA 0000H 0000H 018DH 0002H 0015H
00:0014 80-A0 EA-F8             11683   	sb	0f8eah.0
                                11684   
                                11685   ;;tm_setABSource(TM_CS_HTBCLK);
                                11686   CLINEA 0000H 0000H 018EH 0002H 001AH
00:0018 92-A0 EA-F8             11687   	rb	0f8eah.1
                                11688   
                                11689   ;;tm_setABData(0xffff);
                                11690   CLINEA 0000H 0000H 0157H 0002H 0025H
00:001C FF 00                   11691   	mov	r0,	#0ffh
00:001E 11-90 E8-F8             11692   	st	r0,	0f8e8h
                                11693   
                                11694   ;;tm_setABData(0xffff);
                                11695   CLINEA 0000H 0000H 0158H 0002H 0023H
00:0022 11-90 EC-F8             11696   	st	r0,	0f8ech
                                11697   
                                11698   ;;if(ms < 128){
                                11699   CLINEA 0000H 0001H 0F15H 0001H 000DH
00:0026 85-F0                   11700   	mov	er0,	er8
00:0028 80 78                   11701   	cmp	r8,	#080h
00:002A 00 59                   11702   	cmpc	r9,	#00h
00:002C 07 C0                   11703   	bge	_$L694
                                11704   CBLOCK 252 3 3861
                                11705   
                                11706   ;;	timerThres = 0x1FF * ms;
                                11707   CLINEA 0000H 0001H 0F16H 0002H 0019H
00:002E 7B-91                   11708   	sllc	r1,	#07h
00:0030 7A-90                   11709   	sll	r0,	#07h
00:0032 2B-91                   11710   	sllc	r1,	#02h
00:0034 2A-90                   11711   	sll	r0,	#02h
00:0036 88-80                   11712   	sub	r0,	r8
00:0038 99-81                   11713   	subc	r1,	r9
00:003A 05-FC                   11714   	mov	bp,	er0
                                11715   
                                11716   ;;	TimeFlag = 0;
                                11717   CLINEA 0000H 0001H 0F17H 0002H 000EH
                                11718   CBLOCKEND 252 3 3864
                                11719   
                                11720   ;;}
                                11721   CLINEA 0000H 0000H 0F18H 0001H 0001H
00:003C                         11722   _$L694 :
                                11723   
                                11724   ;;if(ms == 128){
                                11725   CLINEA 0000H 0001H 0F19H 0001H 000EH
00:003C 80 78                   11726   	cmp	r8,	#080h
00:003E 00 59                   11727   	cmpc	r9,	#00h
00:0040 02 C8                   11728   	bne	_$L696
                                11729   CBLOCK 252 4 3865
                                11730   
                                11731   ;;	timerThres = 0xFFFF;
                                11732   CLINEA 0000H 0001H 0F1AH 0002H 0015H
00:0042 7F EC                   11733   	mov	bp,	#-1
                                11734   
                                11735   ;;	TimeFlag = 0;
                                11736   CLINEA 0000H 0001H 0F1BH 0002H 000EH
00:0044 00 06                   11737   	mov	r6,	#00h
                                11738   CBLOCKEND 252 4 3868
                                11739   
                                11740   ;;}
                                11741   CLINEA 0000H 0000H 0F1CH 0001H 0001H
00:0046                         11742   _$L696 :
                                11743   
                                11744   ;;if(ms > 128){
                                11745   CLINEA 0000H 0001H 0F1DH 0001H 000DH
00:0046 80 78                   11746   	cmp	r8,	#080h
00:0048 00 59                   11747   	cmpc	r9,	#00h
00:004A 15 C3                   11748   	ble	_$L706
                                11749   CBLOCK 252 5 3869
                                11750   
                                11751   ;;	while(TempSec > 128){
                                11752   CLINEA 0000H 0000H 0F1EH 0001H 0001H
00:004C 04 CE                   11753   	bal	_$L716
                                11754   
                                11755   ;;	while(TempSec > 128){
                                11756   CLINEA 0000H 0000H 0F1EH 0002H 0016H
00:004E                         11757   _$L702 :
                                11758   CBLOCK 252 6 3870
                                11759   
                                11760   ;;		TempSec -= 128;
                                11761   CLINEA 0000H 0001H 0F1FH 0003H 0011H
00:004E 80 10                   11762   	add	r0,	#080h
00:0050 FF 61                   11763   	addc	r1,	#0ffh
00:0052 05-F4                   11764   	mov	er4,	er0
                                11765   
                                11766   ;;		TimeFlag++;
                                11767   CLINEA 0000H 0000H 0F20H 0003H 000DH
00:0054 01 16                   11768   	add	r6,	#01h
                                11769   CBLOCKEND 252 6 3873
                                11770   
                                11771   ;;	while(TempSec > 128){
                                11772   CLINEA 0000H 0000H 0F1EH 0001H 0001H
00:0056                         11773   _$L716 :
                                11774   
                                11775   ;;	while(TempSec > 128){
                                11776   CLINEA 0000H 0000H 0F1EH 000EH 0013H
00:0056 45-F0                   11777   	mov	er0,	er4
00:0058 80 74                   11778   	cmp	r4,	#080h
00:005A 00 55                   11779   	cmpc	r5,	#00h
00:005C F8 C2                   11780   	bgt	_$L702
                                11781   
                                11782   ;;	if(TempSec != 0){
                                11783   CLINEA 0000H 0001H 0F22H 0002H 0012H
00:005E 45-F4                   11784   	mov	er4,	er4
00:0060 08 C9                   11785   	beq	_$L704
                                11786   CBLOCK 252 7 3874
                                11787   
                                11788   ;;		timerThres = 0x1FF * TempSec;
                                11789   CLINEA 0000H 0001H 0F23H 0003H 001FH
00:0062 7B-91                   11790   	sllc	r1,	#07h
00:0064 7A-90                   11791   	sll	r0,	#07h
00:0066 2B-91                   11792   	sllc	r1,	#02h
00:0068 2A-90                   11793   	sll	r0,	#02h
00:006A 48-80                   11794   	sub	r0,	r4
00:006C 59-81                   11795   	subc	r1,	r5
00:006E 05-FC                   11796   	mov	bp,	er0
                                11797   CBLOCKEND 252 7 3876
                                11798   
                                11799   ;;	else{
                                11800   CLINEA 0000H 0001H 0F25H 0002H 0006H
00:0070 02 CE                   11801   	bal	_$L706
00:0072                         11802   _$L704 :
                                11803   CBLOCK 252 8 3877
                                11804   
                                11805   ;;		timerThres = 0xFFFF;
                                11806   CLINEA 0000H 0001H 0F26H 0003H 0016H
00:0072 7F EC                   11807   	mov	bp,	#-1
                                11808   
                                11809   ;;		TimeFlag--;
                                11810   CLINEA 0000H 0000H 0F27H 0003H 000DH
00:0074 FF 16                   11811   	add	r6,	#0ffh
                                11812   CBLOCKEND 252 8 3880
                                11813   
                                11814   ;;	}
                                11815   CLINEA 0000H 0000H 0F28H 0002H 0002H
00:0076                         11816   _$L706 :
                                11817   CBLOCKEND 252 5 3881
                                11818   
                                11819   ;;	main_clrWDT();	
                                11820   CLINEA 0000H 0001H 0F2CH 0002H 0010H
00:0076 01-F0'00-00'            11821   	bl	_main_clrWDT
                                11822   
                                11823   ;;	tm_startAB();
                                11824   CLINEA 0000H 0001H 00D1H 0002H 000AH
00:007A 00 00                   11825   	mov	r0,	#00h
00:007C 11-90 E9-F8             11826   	st	r0,	0f8e9h
                                11827   
                                11828   ;;	tm_startAB();
                                11829   CLINEA 0000H 0000H 00D2H 0002H 000BH
00:0080 80-A0 EB-F8             11830   	sb	0f8ebh.0
                                11831   
                                11832   ;;	timer = tm_getABCounter();
                                11833   CLINEA 0000H 0000H 0120H 0002H 001BH
00:0084 10-90 E9-F8             11834   	l	r0,	0f8e9h
00:0088 00 01                   11835   	mov	r1,	#00h
00:008A 05-F2                   11836   	mov	er2,	er0
                                11837   
                                11838   ;;	timer = tm_getABCounter();
                                11839   CLINEA 0000H 0000H 0121H 0002H 0014H
00:008C 10-90 ED-F8             11840   	l	r0,	0f8edh
00:0090 03-83                   11841   	or	r3,	r0
                                11842   
                                11843   ;;	timer = tm_getABCounter();
                                11844   CLINEA 0000H 0000H 0122H 0002H 000CH
00:0092 25-F0                   11845   	mov	er0,	er2
                                11846   
                                11847   ;;	while(timer < timerThres){
                                11848   CLINEA 0000H 0001H 0F30H 0002H 001BH
00:0094 08 CE                   11849   	bal	_$L709
00:0096                         11850   _$L711 :
                                11851   CBLOCK 252 9 3888
                                11852   
                                11853   ;;		timer = tm_getABCounter();
                                11854   CLINEA 0000H 0000H 0120H 0002H 001BH
00:0096 10-90 E9-F8             11855   	l	r0,	0f8e9h
00:009A 00 01                   11856   	mov	r1,	#00h
00:009C 05-F2                   11857   	mov	er2,	er0
                                11858   
                                11859   ;;		timer = tm_getABCounter();
                                11860   CLINEA 0000H 0000H 0121H 0002H 0014H
00:009E 10-90 ED-F8             11861   	l	r0,	0f8edh
00:00A2 03-83                   11862   	or	r3,	r0
                                11863   
                                11864   ;;		timer = tm_getABCounter();
                                11865   CLINEA 0000H 0000H 0122H 0002H 000CH
00:00A4 25-F0                   11866   	mov	er0,	er2
                                11867   
                                11868   ;;		timer = tm_getABCounter();
                                11869   CLINEA 0000H 0000H 0F31H 0003H 001CH
                                11870   CBLOCKEND 252 9 3891
                                11871   
                                11872   ;;	}
                                11873   CLINEA 0000H 0000H 0F33H 0002H 0002H
00:00A6                         11874   _$L709 :
                                11875   
                                11876   ;;	while(timer < timerThres){
                                11877   CLINEA 0000H 0000H 0F30H 000EH 0013H
00:00A6 C7-F0                   11878   	cmp	er0,	bp
00:00A8 F6 C1                   11879   	blt	_$L711
                                11880   
                                11881   ;;	if(TimeFlag !=0){
                                11882   CLINEA 0000H 0001H 0F34H 0002H 0012H
00:00AA 00 76                   11883   	cmp	r6,	#00h
00:00AC 05 C9                   11884   	beq	_$L714
                                11885   
                                11886   ;;		tm_stopAB();
                                11887   CLINEA 0000H 0001H 0105H 0002H 000BH
00:00AE 82-A0 EB-F8             11888   	rb	0f8ebh.0
                                11889   
                                11890   ;;		TimeFlag--;
                                11891   CLINEA 0000H 0000H 0F36H 0003H 000DH
00:00B2 FF 16                   11892   	add	r6,	#0ffh
                                11893   
                                11894   ;;		timerThres = 0xFFFF;
                                11895   CLINEA 0000H 0001H 0F37H 0003H 0016H
00:00B4 7F EC                   11896   	mov	bp,	#-1
                                11897   
                                11898   ;;		goto TimerRestart;
                                11899   CLINEA 0000H 0001H 0F38H 0003H 0014H
00:00B6 DF CE                   11900   	bal	_$L706
                                11901   
                                11902   ;;	}
                                11903   CLINEA 0000H 0000H 0F39H 0002H 0002H
00:00B8                         11904   _$L714 :
                                11905   CBLOCKEND 252 2 3899
                                11906   
                                11907   ;;}
                                11908   CLINEA 0000H 0001H 0F3BH 0001H 0001H
00:00B8 1E-F8                   11909   	pop	er8
00:00BA 1E-FC                   11910   	pop	bp
00:00BC 2E-F4                   11911   	pop	xr4
00:00BE 8E-F2                   11912   	pop	pc
                                11913   CBLOCKEND 252 1 3899
                                11914   CFUNCTIONEND 252
                                11915   
                                11916   
  --------------------------    11917   	rseg $$NOPus$main
                                11918   CFUNCTION 253
                                11919   
00:0000                         11920   _NOPus	:
                                11921   CBLOCK 253 1 3909
                                11922   
                                11923   ;;{
                                11924   CLINEA 0000H 0001H 0F45H 0001H 0001H
                                11925   CBLOCK 253 2 3909
                                11926   
                                11927   ;;	timer_us = 0;
                                11928   CLINEA 0000H 0001H 0F46H 0002H 000EH
00:0000 00 E0                   11929   	mov	er0,	#0 
00:0002 13-90 00-00'            11930   	st	er0,	NEAR _timer_us
                                11931   
                                11932   ;;	TM8C = 0x00;
                                11933   CLINEA 0000H 0001H 0F47H 0002H 000DH
00:0006 11-90 E1-F8             11934   	st	r0,	0f8e1h
                                11935   
                                11936   ;;	ETM8 = 1;
                                11937   CLINEA 0000H 0001H 0F48H 0002H 000AH
00:000A A0-A0 13-F0             11938   	sb	0f013h.2
                                11939   
                                11940   ;;	while(timer_us == 0);
                                11941   CLINEA 0000H 0000H 0F49H 0002H 0016H
00:000E                         11942   _$L720 :
                                11943   
                                11944   ;;	while(timer_us == 0);
                                11945   CLINEA 0000H 0000H 0F49H 000EH 0013H
00:000E 12-90 00-00'            11946   	l	er0,	NEAR _timer_us
00:0012 FD C9                   11947   	beq	_$L720
                                11948   CBLOCKEND 253 2 3914
                                11949   
                                11950   ;;}
                                11951   CLINEA 0000H 0001H 0F4AH 0001H 0001H
00:0014 1F-FE                   11952   	rt
                                11953   CBLOCKEND 253 1 3914
                                11954   CFUNCTIONEND 253
                                11955   
                                11956   
  --------------------------    11957   	rseg $$NOP1000$main
                                11958   CFUNCTION 254
                                11959   
00:0000                         11960   _NOP1000	:
                                11961   CBLOCK 254 1 3917
                                11962   
                                11963   ;;{
                                11964   CLINEA 0000H 0001H 0F4DH 0001H 0001H
                                11965   CBLOCK 254 2 3917
                                11966   CLOCAL 4AH 0002H 0000H 0002H "ONCNT" 02H 00H 01H
                                11967   CBLOCKEND 254 2 3923
                                11968   
                                11969   ;;}
                                11970   CLINEA 0000H 0001H 0F53H 0001H 0001H
00:0000 1F-FE                   11971   	rt
                                11972   CBLOCKEND 254 1 3923
                                11973   CFUNCTIONEND 254
                                11974   
                                11975   
  --------------------------    11976   	rseg $$approx_arctan2$main
                                11977   CFUNCTION 255
                                11978   
00:0000                         11979   _approx_arctan2	:
                                11980   CBLOCK 255 1 3926
                                11981   
                                11982   ;;{
                                11983   CLINEA 0000H 0001H 0F56H 0001H 0001H
00:0000 CE-F8                   11984   	push	lr
00:0002 5E-FE                   11985   	push	fp
00:0004 1A-AE                   11986   	mov	fp,	sp
00:0006 E4 E1                   11987   	add	sp,	#-028
00:0008 6E-F8                   11988   	push	xr8
00:000A 6E-F4                   11989   	push	xr4
00:000C 05-F8                   11990   	mov	er8,	er0
00:000E 25-FA                   11991   	mov	er10,	er2
                                11992   CBLOCK 255 2 3926
                                11993   CRET 0026H
                                11994   CARGUMENT 47H 0004H 2928H "y" 02H 00H 03H
                                11995   CARGUMENT 43H 0004H 0004H "x" 02H 00H 03H
                                11996   CLOCAL 43H 0004H 001CH 0002H "YoverX" 02H 00H 03H
                                11997   CLOCAL 47H 0004H 2726H 0002H "result" 02H 00H 03H
                                11998   
                                11999   ;;	float YoverX = y/x;
                                12000   CLINEA 0000H 0001H 0F57H 0002H 0014H
00:0010 6E-F0                   12001   	push	xr0
00:0012 44 B0                   12002   	l	er0,	4[fp]
00:0014 46 B2                   12003   	l	er2,	6[fp]
00:0016 6E-F0                   12004   	push	xr0
00:0018 01-F0'00-00'            12005   	bl	__fdivu8sw
00:001C 04 E1                   12006   	add	sp,	#4 
00:001E 2E-F0                   12007   	pop	xr0
00:0020 E4 B0                   12008   	st	er0,	-28[fp]
00:0022 E6 B2                   12009   	st	er2,	-26[fp]
                                12010   
                                12011   ;;	float result = 0;
                                12012   CLINEA 0000H 0001H 0F58H 0002H 0012H
00:0024 00 E4                   12013   	mov	er4,	#0 
00:0026 00 E6                   12014   	mov	er6,	#0 
                                12015   
                                12016   ;;	if(x>0){
                                12017   CLINEA 0000H 0001H 0F5AH 0002H 0009H
00:0028 44 B0                   12018   	l	er0,	4[fp]
00:002A 46 B2                   12019   	l	er2,	6[fp]
00:002C 6E-F0                   12020   	push	xr0
00:002E 00 E0                   12021   	mov	er0,	#0 
00:0030 00 E2                   12022   	mov	er2,	#0 
00:0032 6E-F0                   12023   	push	xr0
00:0034 01-F0'00-00'            12024   	bl	__fcmpu8sw
00:0038 08 E1                   12025   	add	sp,	#8 
00:003A 0B-A0                   12026   	mov	psw,	r0
00:003C 02 C2                   12027   	bgt	_$M79
00:003E 00-F0'00-00'            12028   	b	_$L728
00:0042                         12029   _$M79 :
                                12030   CBLOCK 255 3 3930
                                12031   
                                12032   ;;		result = (0.97239*YoverX)-(0.19195*pow(YoverX,3));
                                12033   CLINEA 0000H 0000H 0F5BH 0003H 0034H
00:0042 64 B0                   12034   	l	er0,	-28[fp]
00:0044 66 B2                   12035   	l	er2,	-26[fp]
00:0046 6E-F0                   12036   	push	xr0
00:0048 FC E1                   12037   	add	sp,	#-4
00:004A 01-F0'00-00'            12038   	bl	__ftodu8sw
00:004E 3E-F0                   12039   	pop	qr0
00:0050 EB-F0 F8-FF             12040   	lea	-8[fp]
00:0054 37-90                   12041   	st	qr0,	[ea]
00:0056 7E-F0                   12042   	push	qr0
00:0058 59 00                   12043   	mov	r0,	#059h
00:005A A3 01                   12044   	mov	r1,	#0a3h
00:005C 1E 02                   12045   	mov	r2,	#01eh
00:005E A2 03                   12046   	mov	r3,	#0a2h
00:0060 D1 04                   12047   	mov	r4,	#0d1h
00:0062 1D 05                   12048   	mov	r5,	#01dh
00:0064 EF 06                   12049   	mov	r6,	#0efh
00:0066 3F 07                   12050   	mov	r7,	#03fh
00:0068 7E-F0                   12051   	push	qr0
00:006A 01-F0'00-00'            12052   	bl	__dmulu8sw
00:006E 08 E1                   12053   	add	sp,	#8 
00:0070 3E-F0                   12054   	pop	qr0
00:0072 EB-F0 F0-FF             12055   	lea	-16[fp]
00:0076 37-90                   12056   	st	qr0,	[ea]
00:0078 00 E0                   12057   	mov	er0,	#0 
00:007A 00 E2                   12058   	mov	er2,	#0 
00:007C 00 E4                   12059   	mov	er4,	#0 
00:007E 08 06                   12060   	mov	r6,	#08h
00:0080 40 07                   12061   	mov	r7,	#040h
00:0082 7E-F0                   12062   	push	qr0
00:0084 EB-F0 F8-FF             12063   	lea	-8[fp]
00:0088 36-90                   12064   	l	qr0,	[ea]
00:008A 7E-F0                   12065   	push	qr0
00:008C E5-F0                   12066   	mov	er0,	fp
00:008E E8 E0                   12067   	add	er0,	#-24
00:0090 01-F0'00-00'            12068   	bl	_pow
00:0094 10 E1                   12069   	add	sp,	#16
00:0096 EB-F0 F0-FF             12070   	lea	-16[fp]
00:009A 36-90                   12071   	l	qr0,	[ea]
00:009C 7E-F0                   12072   	push	qr0
00:009E EB-F0 E8-FF             12073   	lea	-24[fp]
00:00A2 36-90                   12074   	l	qr0,	[ea]
00:00A4 7E-F0                   12075   	push	qr0
00:00A6 36 00                   12076   	mov	r0,	#036h
00:00A8 CD 01                   12077   	mov	r1,	#0cdh
00:00AA 3B 02                   12078   	mov	r2,	#03bh
00:00AC 4E 03                   12079   	mov	r3,	#04eh
00:00AE D1 04                   12080   	mov	r4,	#0d1h
00:00B0 91 05                   12081   	mov	r5,	#091h
00:00B2 C8 06                   12082   	mov	r6,	#0c8h
00:00B4 3F 07                   12083   	mov	r7,	#03fh
00:00B6 7E-F0                   12084   	push	qr0
00:00B8 01-F0'00-00'            12085   	bl	__dmulu8sw
00:00BC 08 E1                   12086   	add	sp,	#8 
00:00BE 01-F0'00-00'            12087   	bl	__dsubu8sw
00:00C2 08 E1                   12088   	add	sp,	#8 
00:00C4 01-F0'00-00'            12089   	bl	__dtofu8sw
00:00C8 04 E1                   12090   	add	sp,	#4 
00:00CA 2E-F0                   12091   	pop	xr0
00:00CC 05-F4                   12092   	mov	er4,	er0
00:00CE 25-F6                   12093   	mov	er6,	er2
                                12094   CBLOCKEND 255 3 3932
                                12095   
                                12096   ;;	}
                                12097   CLINEA 0000H 0000H 0F5CH 0002H 0002H
00:00D0                         12098   _$L728 :
                                12099   
                                12100   ;;	if((x<0)&&(y>=0)){
                                12101   CLINEA 0000H 0001H 0F5DH 0002H 0013H
00:00D0 44 B0                   12102   	l	er0,	4[fp]
00:00D2 46 B2                   12103   	l	er2,	6[fp]
00:00D4 6E-F0                   12104   	push	xr0
00:00D6 00 E0                   12105   	mov	er0,	#0 
00:00D8 00 E2                   12106   	mov	er2,	#0 
00:00DA 6E-F0                   12107   	push	xr0
00:00DC 01-F0'00-00'            12108   	bl	__fcmpu8sw
00:00E0 08 E1                   12109   	add	sp,	#8 
00:00E2 0B-A0                   12110   	mov	psw,	r0
00:00E4 02 C1                   12111   	blt	_$M80
00:00E6 00-F0'00-00'            12112   	b	_$L730
00:00EA                         12113   _$M80 :
00:00EA 6E-F8                   12114   	push	xr8
00:00EC 00 E0                   12115   	mov	er0,	#0 
00:00EE 00 E2                   12116   	mov	er2,	#0 
00:00F0 6E-F0                   12117   	push	xr0
00:00F2 01-F0'00-00'            12118   	bl	__fcmpu8sw
00:00F6 08 E1                   12119   	add	sp,	#8 
00:00F8 0B-A0                   12120   	mov	psw,	r0
00:00FA 02 C0                   12121   	bge	_$M81
00:00FC 00-F0'00-00'            12122   	b	_$L730
00:0100                         12123   _$M81 :
                                12124   CBLOCK 255 4 3933
                                12125   
                                12126   ;;		result = (0.97239*YoverX)-(0.19195*pow(YoverX,3))+3.14;
                                12127   CLINEA 0000H 0000H 0F5EH 0003H 0039H
00:0100 64 B0                   12128   	l	er0,	-28[fp]
00:0102 66 B2                   12129   	l	er2,	-26[fp]
00:0104 6E-F0                   12130   	push	xr0
00:0106 FC E1                   12131   	add	sp,	#-4
00:0108 01-F0'00-00'            12132   	bl	__ftodu8sw
00:010C 3E-F0                   12133   	pop	qr0
00:010E EB-F0 F8-FF             12134   	lea	-8[fp]
00:0112 37-90                   12135   	st	qr0,	[ea]
00:0114 7E-F0                   12136   	push	qr0
00:0116 59 00                   12137   	mov	r0,	#059h
00:0118 A3 01                   12138   	mov	r1,	#0a3h
00:011A 1E 02                   12139   	mov	r2,	#01eh
00:011C A2 03                   12140   	mov	r3,	#0a2h
00:011E D1 04                   12141   	mov	r4,	#0d1h
00:0120 1D 05                   12142   	mov	r5,	#01dh
00:0122 EF 06                   12143   	mov	r6,	#0efh
00:0124 3F 07                   12144   	mov	r7,	#03fh
00:0126 7E-F0                   12145   	push	qr0
00:0128 01-F0'00-00'            12146   	bl	__dmulu8sw
00:012C 08 E1                   12147   	add	sp,	#8 
00:012E 3E-F0                   12148   	pop	qr0
00:0130 EB-F0 F0-FF             12149   	lea	-16[fp]
00:0134 37-90                   12150   	st	qr0,	[ea]
00:0136 00 E0                   12151   	mov	er0,	#0 
00:0138 00 E2                   12152   	mov	er2,	#0 
00:013A 00 E4                   12153   	mov	er4,	#0 
00:013C 08 06                   12154   	mov	r6,	#08h
00:013E 40 07                   12155   	mov	r7,	#040h
00:0140 7E-F0                   12156   	push	qr0
00:0142 EB-F0 F8-FF             12157   	lea	-8[fp]
00:0146 36-90                   12158   	l	qr0,	[ea]
00:0148 7E-F0                   12159   	push	qr0
00:014A E5-F0                   12160   	mov	er0,	fp
00:014C E8 E0                   12161   	add	er0,	#-24
00:014E 01-F0'00-00'            12162   	bl	_pow
00:0152 10 E1                   12163   	add	sp,	#16
00:0154 EB-F0 F0-FF             12164   	lea	-16[fp]
00:0158 36-90                   12165   	l	qr0,	[ea]
00:015A 7E-F0                   12166   	push	qr0
00:015C EB-F0 E8-FF             12167   	lea	-24[fp]
00:0160 36-90                   12168   	l	qr0,	[ea]
00:0162 7E-F0                   12169   	push	qr0
00:0164 36 00                   12170   	mov	r0,	#036h
00:0166 CD 01                   12171   	mov	r1,	#0cdh
00:0168 3B 02                   12172   	mov	r2,	#03bh
00:016A 4E 03                   12173   	mov	r3,	#04eh
00:016C D1 04                   12174   	mov	r4,	#0d1h
00:016E 91 05                   12175   	mov	r5,	#091h
00:0170 C8 06                   12176   	mov	r6,	#0c8h
00:0172 3F 07                   12177   	mov	r7,	#03fh
00:0174 7E-F0                   12178   	push	qr0
00:0176 01-F0'00-00'            12179   	bl	__dmulu8sw
00:017A 08 E1                   12180   	add	sp,	#8 
00:017C 01-F0'00-00'            12181   	bl	__dsubu8sw
00:0180 08 E1                   12182   	add	sp,	#8 
00:0182 1F 00                   12183   	mov	r0,	#01fh
00:0184 85 01                   12184   	mov	r1,	#085h
00:0186 EB 02                   12185   	mov	r2,	#0ebh
00:0188 51 03                   12186   	mov	r3,	#051h
00:018A B8 04                   12187   	mov	r4,	#0b8h
00:018C 1E 05                   12188   	mov	r5,	#01eh
00:018E 09 06                   12189   	mov	r6,	#09h
00:0190 40 07                   12190   	mov	r7,	#040h
00:0192 7E-F0                   12191   	push	qr0
00:0194 01-F0'00-00'            12192   	bl	__daddu8sw
00:0198 08 E1                   12193   	add	sp,	#8 
00:019A 01-F0'00-00'            12194   	bl	__dtofu8sw
00:019E 04 E1                   12195   	add	sp,	#4 
00:01A0 2E-F0                   12196   	pop	xr0
00:01A2 05-F4                   12197   	mov	er4,	er0
00:01A4 25-F6                   12198   	mov	er6,	er2
                                12199   CBLOCKEND 255 4 3935
                                12200   
                                12201   ;;	}	
                                12202   CLINEA 0000H 0000H 0F5FH 0002H 0003H
00:01A6                         12203   _$L730 :
                                12204   
                                12205   ;;	if((y<0)&&(x<0)){
                                12206   CLINEA 0000H 0001H 0F60H 0002H 0012H
00:01A6 6E-F8                   12207   	push	xr8
00:01A8 00 E0                   12208   	mov	er0,	#0 
00:01AA 00 E2                   12209   	mov	er2,	#0 
00:01AC 6E-F0                   12210   	push	xr0
00:01AE 01-F0'00-00'            12211   	bl	__fcmpu8sw
00:01B2 08 E1                   12212   	add	sp,	#8 
00:01B4 0B-A0                   12213   	mov	psw,	r0
00:01B6 02 C1                   12214   	blt	_$M82
00:01B8 00-F0'00-00'            12215   	b	_$L737
00:01BC                         12216   _$M82 :
00:01BC 44 B0                   12217   	l	er0,	4[fp]
00:01BE 46 B2                   12218   	l	er2,	6[fp]
00:01C0 6E-F0                   12219   	push	xr0
00:01C2 00 E0                   12220   	mov	er0,	#0 
00:01C4 00 E2                   12221   	mov	er2,	#0 
00:01C6 6E-F0                   12222   	push	xr0
00:01C8 01-F0'00-00'            12223   	bl	__fcmpu8sw
00:01CC 08 E1                   12224   	add	sp,	#8 
00:01CE 0B-A0                   12225   	mov	psw,	r0
00:01D0 02 C1                   12226   	blt	_$M83
00:01D2 00-F0'00-00'            12227   	b	_$L737
00:01D6                         12228   _$M83 :
                                12229   CBLOCK 255 5 3936
                                12230   
                                12231   ;;		result = (0.97239*YoverX)-(0.19195*pow(YoverX,3))-3.14;
                                12232   CLINEA 0000H 0000H 0F61H 0003H 0039H
00:01D6 64 B0                   12233   	l	er0,	-28[fp]
00:01D8 66 B2                   12234   	l	er2,	-26[fp]
00:01DA 6E-F0                   12235   	push	xr0
00:01DC FC E1                   12236   	add	sp,	#-4
00:01DE 01-F0'00-00'            12237   	bl	__ftodu8sw
00:01E2 3E-F0                   12238   	pop	qr0
00:01E4 EB-F0 F8-FF             12239   	lea	-8[fp]
00:01E8 37-90                   12240   	st	qr0,	[ea]
00:01EA 7E-F0                   12241   	push	qr0
00:01EC 59 00                   12242   	mov	r0,	#059h
00:01EE A3 01                   12243   	mov	r1,	#0a3h
00:01F0 1E 02                   12244   	mov	r2,	#01eh
00:01F2 A2 03                   12245   	mov	r3,	#0a2h
00:01F4 D1 04                   12246   	mov	r4,	#0d1h
00:01F6 1D 05                   12247   	mov	r5,	#01dh
00:01F8 EF 06                   12248   	mov	r6,	#0efh
00:01FA 3F 07                   12249   	mov	r7,	#03fh
00:01FC 7E-F0                   12250   	push	qr0
00:01FE 01-F0'00-00'            12251   	bl	__dmulu8sw
00:0202 08 E1                   12252   	add	sp,	#8 
00:0204 3E-F0                   12253   	pop	qr0
00:0206 EB-F0 F0-FF             12254   	lea	-16[fp]
00:020A 37-90                   12255   	st	qr0,	[ea]
00:020C 00 E0                   12256   	mov	er0,	#0 
00:020E 00 E2                   12257   	mov	er2,	#0 
00:0210 00 E4                   12258   	mov	er4,	#0 
00:0212 08 06                   12259   	mov	r6,	#08h
00:0214 40 07                   12260   	mov	r7,	#040h
00:0216 7E-F0                   12261   	push	qr0
00:0218 EB-F0 F8-FF             12262   	lea	-8[fp]
00:021C 36-90                   12263   	l	qr0,	[ea]
00:021E 7E-F0                   12264   	push	qr0
00:0220 E5-F0                   12265   	mov	er0,	fp
00:0222 E8 E0                   12266   	add	er0,	#-24
00:0224 01-F0'00-00'            12267   	bl	_pow
00:0228 10 E1                   12268   	add	sp,	#16
00:022A EB-F0 F0-FF             12269   	lea	-16[fp]
00:022E 36-90                   12270   	l	qr0,	[ea]
00:0230 7E-F0                   12271   	push	qr0
00:0232 EB-F0 E8-FF             12272   	lea	-24[fp]
00:0236 36-90                   12273   	l	qr0,	[ea]
00:0238 7E-F0                   12274   	push	qr0
00:023A 36 00                   12275   	mov	r0,	#036h
00:023C CD 01                   12276   	mov	r1,	#0cdh
00:023E 3B 02                   12277   	mov	r2,	#03bh
00:0240 4E 03                   12278   	mov	r3,	#04eh
00:0242 D1 04                   12279   	mov	r4,	#0d1h
00:0244 91 05                   12280   	mov	r5,	#091h
00:0246 C8 06                   12281   	mov	r6,	#0c8h
00:0248 3F 07                   12282   	mov	r7,	#03fh
00:024A 7E-F0                   12283   	push	qr0
00:024C 01-F0'00-00'            12284   	bl	__dmulu8sw
00:0250 08 E1                   12285   	add	sp,	#8 
00:0252 01-F0'00-00'            12286   	bl	__dsubu8sw
00:0256 08 E1                   12287   	add	sp,	#8 
00:0258 1F 00                   12288   	mov	r0,	#01fh
00:025A 85 01                   12289   	mov	r1,	#085h
00:025C EB 02                   12290   	mov	r2,	#0ebh
00:025E 51 03                   12291   	mov	r3,	#051h
00:0260 B8 04                   12292   	mov	r4,	#0b8h
00:0262 1E 05                   12293   	mov	r5,	#01eh
00:0264 09 06                   12294   	mov	r6,	#09h
00:0266 C0 07                   12295   	mov	r7,	#0c0h
00:0268 7E-F0                   12296   	push	qr0
00:026A 01-F0'00-00'            12297   	bl	__daddu8sw
00:026E 08 E1                   12298   	add	sp,	#8 
00:0270 01-F0'00-00'            12299   	bl	__dtofu8sw
00:0274 04 E1                   12300   	add	sp,	#4 
00:0276 2E-F0                   12301   	pop	xr0
00:0278 05-F4                   12302   	mov	er4,	er0
00:027A 25-F6                   12303   	mov	er6,	er2
                                12304   CBLOCKEND 255 5 3938
                                12305   
                                12306   ;;	}
                                12307   CLINEA 0000H 0000H 0F62H 0002H 0002H
00:027C                         12308   _$L737 :
                                12309   
                                12310   ;;	if((y>0)&&(x==0)){
                                12311   CLINEA 0000H 0001H 0F63H 0002H 0013H
00:027C 6E-F8                   12312   	push	xr8
00:027E 00 E0                   12313   	mov	er0,	#0 
00:0280 00 E2                   12314   	mov	er2,	#0 
00:0282 6E-F0                   12315   	push	xr0
00:0284 01-F0'00-00'            12316   	bl	__fcmpu8sw
00:0288 08 E1                   12317   	add	sp,	#8 
00:028A 0B-A0                   12318   	mov	psw,	r0
00:028C 11 C3                   12319   	ble	_$L744
00:028E 44 B0                   12320   	l	er0,	4[fp]
00:0290 46 B2                   12321   	l	er2,	6[fp]
00:0292 6E-F0                   12322   	push	xr0
00:0294 00 E0                   12323   	mov	er0,	#0 
00:0296 00 E2                   12324   	mov	er2,	#0 
00:0298 6E-F0                   12325   	push	xr0
00:029A 01-F0'00-00'            12326   	bl	__fcmpu8sw
00:029E 08 E1                   12327   	add	sp,	#8 
00:02A0 0B-A0                   12328   	mov	psw,	r0
00:02A2 06 C8                   12329   	bne	_$L744
                                12330   CBLOCK 255 6 3939
                                12331   
                                12332   ;;		result = 1.57;
                                12333   CLINEA 0000H 0001H 0F64H 0003H 0010H
00:02A4 C3 00                   12334   	mov	r0,	#0c3h
00:02A6 F5 01                   12335   	mov	r1,	#0f5h
00:02A8 C8 02                   12336   	mov	r2,	#0c8h
00:02AA 3F 03                   12337   	mov	r3,	#03fh
00:02AC 05-F4                   12338   	mov	er4,	er0
00:02AE 25-F6                   12339   	mov	er6,	er2
                                12340   CBLOCKEND 255 6 3941
                                12341   
                                12342   ;;	}
                                12343   CLINEA 0000H 0000H 0F65H 0002H 0002H
00:02B0                         12344   _$L744 :
                                12345   
                                12346   ;;	if((y<0)&&(x==0)){
                                12347   CLINEA 0000H 0001H 0F66H 0002H 0013H
00:02B0 6E-F8                   12348   	push	xr8
00:02B2 00 E0                   12349   	mov	er0,	#0 
00:02B4 00 E2                   12350   	mov	er2,	#0 
00:02B6 6E-F0                   12351   	push	xr0
00:02B8 01-F0'00-00'            12352   	bl	__fcmpu8sw
00:02BC 08 E1                   12353   	add	sp,	#8 
00:02BE 0B-A0                   12354   	mov	psw,	r0
00:02C0 11 C0                   12355   	bge	_$L751
00:02C2 44 B0                   12356   	l	er0,	4[fp]
00:02C4 46 B2                   12357   	l	er2,	6[fp]
00:02C6 6E-F0                   12358   	push	xr0
00:02C8 00 E0                   12359   	mov	er0,	#0 
00:02CA 00 E2                   12360   	mov	er2,	#0 
00:02CC 6E-F0                   12361   	push	xr0
00:02CE 01-F0'00-00'            12362   	bl	__fcmpu8sw
00:02D2 08 E1                   12363   	add	sp,	#8 
00:02D4 0B-A0                   12364   	mov	psw,	r0
00:02D6 06 C8                   12365   	bne	_$L751
                                12366   CBLOCK 255 7 3942
                                12367   
                                12368   ;;		result = -1.57;
                                12369   CLINEA 0000H 0001H 0F67H 0003H 0011H
00:02D8 C3 00                   12370   	mov	r0,	#0c3h
00:02DA F5 01                   12371   	mov	r1,	#0f5h
00:02DC C8 02                   12372   	mov	r2,	#0c8h
00:02DE BF 03                   12373   	mov	r3,	#0bfh
00:02E0 05-F4                   12374   	mov	er4,	er0
00:02E2 25-F6                   12375   	mov	er6,	er2
                                12376   CBLOCKEND 255 7 3944
                                12377   
                                12378   ;;	}
                                12379   CLINEA 0000H 0000H 0F68H 0002H 0002H
00:02E4                         12380   _$L751 :
                                12381   
                                12382   ;;	if((x==0)&&(y==0)){			//we made this up....
                                12383   CLINEA 0000H 0001H 0F69H 0002H 002CH
00:02E4 44 B0                   12384   	l	er0,	4[fp]
00:02E6 46 B2                   12385   	l	er2,	6[fp]
00:02E8 6E-F0                   12386   	push	xr0
00:02EA 00 E0                   12387   	mov	er0,	#0 
00:02EC 00 E2                   12388   	mov	er2,	#0 
00:02EE 6E-F0                   12389   	push	xr0
00:02F0 01-F0'00-00'            12390   	bl	__fcmpu8sw
00:02F4 08 E1                   12391   	add	sp,	#8 
00:02F6 0B-A0                   12392   	mov	psw,	r0
00:02F8 38 C8                   12393   	bne	_$L758
00:02FA 6E-F8                   12394   	push	xr8
00:02FC 00 E0                   12395   	mov	er0,	#0 
00:02FE 00 E2                   12396   	mov	er2,	#0 
00:0300 6E-F0                   12397   	push	xr0
00:0302 01-F0'00-00'            12398   	bl	__fcmpu8sw
00:0306 08 E1                   12399   	add	sp,	#8 
00:0308 0B-A0                   12400   	mov	psw,	r0
00:030A 2F C8                   12401   	bne	_$L758
                                12402   CBLOCK 255 8 3945
                                12403   
                                12404   ;;		result = (0.97239*YoverX)-(0.19195*pow(YoverX,3));
                                12405   CLINEA 0000H 0000H 0F6DH 0003H 0034H
00:030C 00 E0                   12406   	mov	er0,	#0 
00:030E 00 E2                   12407   	mov	er2,	#0 
00:0310 00 E4                   12408   	mov	er4,	#0 
00:0312 08 06                   12409   	mov	r6,	#08h
00:0314 40 07                   12410   	mov	r7,	#040h
00:0316 7E-F0                   12411   	push	qr0
00:0318 F0 06                   12412   	mov	r6,	#0f0h
00:031A 3F 07                   12413   	mov	r7,	#03fh
00:031C 7E-F0                   12414   	push	qr0
00:031E E5-F0                   12415   	mov	er0,	fp
00:0320 F0 E0                   12416   	add	er0,	#-16
00:0322 01-F0'00-00'            12417   	bl	_pow
00:0326 10 E1                   12418   	add	sp,	#16
00:0328 59 00                   12419   	mov	r0,	#059h
00:032A A3 01                   12420   	mov	r1,	#0a3h
00:032C 1E 02                   12421   	mov	r2,	#01eh
00:032E A2 03                   12422   	mov	r3,	#0a2h
00:0330 D1 04                   12423   	mov	r4,	#0d1h
00:0332 1D 05                   12424   	mov	r5,	#01dh
00:0334 EF 06                   12425   	mov	r6,	#0efh
00:0336 7E-F0                   12426   	push	qr0
00:0338 EB-F0 F0-FF             12427   	lea	-16[fp]
00:033C 36-90                   12428   	l	qr0,	[ea]
00:033E 7E-F0                   12429   	push	qr0
00:0340 36 00                   12430   	mov	r0,	#036h
00:0342 CD 01                   12431   	mov	r1,	#0cdh
00:0344 3B 02                   12432   	mov	r2,	#03bh
00:0346 4E 03                   12433   	mov	r3,	#04eh
00:0348 D1 04                   12434   	mov	r4,	#0d1h
00:034A 91 05                   12435   	mov	r5,	#091h
00:034C C8 06                   12436   	mov	r6,	#0c8h
00:034E 3F 07                   12437   	mov	r7,	#03fh
00:0350 7E-F0                   12438   	push	qr0
00:0352 01-F0'00-00'            12439   	bl	__dmulu8sw
00:0356 08 E1                   12440   	add	sp,	#8 
00:0358 01-F0'00-00'            12441   	bl	__dsubu8sw
00:035C 08 E1                   12442   	add	sp,	#8 
00:035E 01-F0'00-00'            12443   	bl	__dtofu8sw
00:0362 04 E1                   12444   	add	sp,	#4 
00:0364 2E-F0                   12445   	pop	xr0
00:0366 05-F4                   12446   	mov	er4,	er0
00:0368 25-F6                   12447   	mov	er6,	er2
                                12448   CBLOCKEND 255 8 3950
                                12449   
                                12450   ;;	}
                                12451   CLINEA 0000H 0000H 0F6EH 0002H 0002H
00:036A                         12452   _$L758 :
                                12453   
                                12454   ;;	result *= 57.29;
                                12455   CLINEA 0000H 0001H 0F6FH 0002H 0011H
00:036A 6E-F4                   12456   	push	xr4
00:036C FC E1                   12457   	add	sp,	#-4
00:036E 01-F0'00-00'            12458   	bl	__ftodu8sw
00:0372 85 00                   12459   	mov	r0,	#085h
00:0374 EB 01                   12460   	mov	r1,	#0ebh
00:0376 51 02                   12461   	mov	r2,	#051h
00:0378 B8 03                   12462   	mov	r3,	#0b8h
00:037A 1E 04                   12463   	mov	r4,	#01eh
00:037C A5 05                   12464   	mov	r5,	#0a5h
00:037E 4C 06                   12465   	mov	r6,	#04ch
00:0380 40 07                   12466   	mov	r7,	#040h
00:0382 7E-F0                   12467   	push	qr0
00:0384 01-F0'00-00'            12468   	bl	__dmulu8sw
00:0388 08 E1                   12469   	add	sp,	#8 
00:038A 01-F0'00-00'            12470   	bl	__dtofu8sw
00:038E 04 E1                   12471   	add	sp,	#4 
00:0390 2E-F0                   12472   	pop	xr0
00:0392 05-F4                   12473   	mov	er4,	er0
00:0394 25-F6                   12474   	mov	er6,	er2
                                12475   
                                12476   ;;	if(result > 45){
                                12477   CLINEA 0000H 0001H 0F71H 0002H 0011H
00:0396 6E-F0                   12478   	push	xr0
00:0398 00 E0                   12479   	mov	er0,	#0 
00:039A 34 02                   12480   	mov	r2,	#034h
00:039C 42 03                   12481   	mov	r3,	#042h
00:039E 6E-F0                   12482   	push	xr0
00:03A0 01-F0'00-00'            12483   	bl	__fcmpu8sw
00:03A4 08 E1                   12484   	add	sp,	#8 
00:03A6 0B-A0                   12485   	mov	psw,	r0
00:03A8 04 C3                   12486   	ble	_$L765
                                12487   CBLOCK 255 9 3953
                                12488   
                                12489   ;;		result = 45;
                                12490   CLINEA 0000H 0001H 0F72H 0003H 000EH
00:03AA 34 02                   12491   	mov	r2,	#034h
00:03AC 42 03                   12492   	mov	r3,	#042h
00:03AE 00 E4                   12493   	mov	er4,	#0 
00:03B0 25-F6                   12494   	mov	er6,	er2
                                12495   CBLOCKEND 255 9 3955
                                12496   
                                12497   ;;	}
                                12498   CLINEA 0000H 0000H 0F73H 0002H 0002H
00:03B2                         12499   _$L765 :
                                12500   
                                12501   ;;	if(result < -45){
                                12502   CLINEA 0000H 0001H 0F74H 0002H 0012H
00:03B2 6E-F4                   12503   	push	xr4
00:03B4 00 E0                   12504   	mov	er0,	#0 
00:03B6 34 02                   12505   	mov	r2,	#034h
00:03B8 C2 03                   12506   	mov	r3,	#0c2h
00:03BA 6E-F0                   12507   	push	xr0
00:03BC 01-F0'00-00'            12508   	bl	__fcmpu8sw
00:03C0 08 E1                   12509   	add	sp,	#8 
00:03C2 0B-A0                   12510   	mov	psw,	r0
00:03C4 04 C0                   12511   	bge	_$L767
                                12512   CBLOCK 255 10 3956
                                12513   
                                12514   ;;		result = -45;
                                12515   CLINEA 0000H 0001H 0F75H 0003H 000FH
00:03C6 34 02                   12516   	mov	r2,	#034h
00:03C8 C2 03                   12517   	mov	r3,	#0c2h
00:03CA 00 E4                   12518   	mov	er4,	#0 
00:03CC 25-F6                   12519   	mov	er6,	er2
                                12520   CBLOCKEND 255 10 3958
                                12521   
                                12522   ;;	}
                                12523   CLINEA 0000H 0000H 0F76H 0002H 0002H
00:03CE                         12524   _$L767 :
                                12525   
                                12526   ;;	return(result);
                                12527   CLINEA 0000H 0001H 0F78H 0002H 0010H
00:03CE 45-F0                   12528   	mov	er0,	er4
00:03D0 65-F2                   12529   	mov	er2,	er6
                                12530   CBLOCKEND 255 2 3961
                                12531   
                                12532   ;;}
                                12533   CLINEA 0000H 0000H 0F79H 0001H 0001H
00:03D2 2E-F4                   12534   	pop	xr4
00:03D4 2E-F8                   12535   	pop	xr8
00:03D6 EA-A1                   12536   	mov	sp,	fp
00:03D8 1E-FE                   12537   	pop	fp
00:03DA 8E-F2                   12538   	pop	pc
                                12539   CBLOCKEND 255 1 3961
                                12540   CFUNCTIONEND 255
                                12541   
                                12542   
  --------------------------    12543   	rseg $$NVARmain
00:0000                         12544   _$ST0 :
00:0000                         12545   	ds	02h
                                12546   	public _AccelSensorControlPID_D
                                12547   	public _AccelSensorControlPID_I
                                12548   	public _AccelSensorControlPID_P
                                12549   	public _Shutdown
                                12550   	public _NOPms
                                12551   	public _NOPus
                                12552   	public _approx_arctan2
                                12553   	public _checkI2C
                                12554   	public _main_clrWDT
                                12555   	public _Accel_PID_XYChangeFlag
                                12556   	public _main_reqNotHalt
                                12557   	public _ReturnMagData
                                12558   	public _DistanceSensorControl
                                12559   	public _RangeSensorControlPID
                                12560   	public _PortA_Digital_Inputs
                                12561   	public _MagSensorControl
                                12562   	public _ESC2_PWM
                                12563   	public _Get_AccGyroData
                                12564   	public _main
                                12565   	public _MagSensorControlPID
                                12566   	public _ClearVariables
                                12567   	public _PortD_Low
                                12568   	public _NOP1000
                                12569   	public _ESC1_PWM
                                12570   	public _CheckSafetyLimitUnscaled
                                12571   	public _CalibrateAccel
                                12572   	public _Get_RangeData
                                12573   	public _PortC_Low
                                12574   	public _CheckSafetyLimit
                                12575   	public _ESC4_PWM
                                12576   	public _Get_MagData
                                12577   	public _UARTTunePID
                                12578   	public _Get_PingData
                                12579   	public _SerialOutCoefficients
                                12580   	public _PortB_Low
                                12581   	public _CalibrateMotors
                                12582   	public _ReturnAccelData
                                12583   	public _ESC3_PWM
                                12584   	public _CalibrateGyro
                                12585   	public _RampUpMotorTest
                                12586   	public _NOP
                                12587   	public _PortA_Low
                                12588   	public _analog_comparator
                                12589   	public _Run_AccGyroCF
                                12590   	public _SoftStart
                                12591   	public _ReturnSensorData
                                12592   	__flgUartFin comm data 01h #00h
                                12593   	__flgI2CFin comm data 01h #00h
                                12594   	__reqNotHalt comm data 01h #00h
                                12595   	extrn code near : _abs
                                12596   	extrn code near : _irq_init
                                12597   	extrn code near : _uart_PortSet
                                12598   	extrn code near : _i2c_stop
                                12599   	extrn code near : _i2c_startReceive
                                12600   	extrn code near : _uart_startReceive
                                12601   	extrn code near : _pow
                                12602   	extrn code near : _atan
                                12603   	extrn code near : _uart_init
                                12604   	extrn code near : _i2c_continue
                                12605   	extrn code near : _irq_di
                                12606   	extrn code near : _irq_ei
                                12607   	extrn code near : _sscanf_nn
                                12608   	extrn code near : _irq_setHdr
                                12609   	extrn code near : _sprintf_nn
                                12610   	extrn code near : _uart_stop
                                12611   	extrn code near : _uart_startSend
                                12612   	extrn code near : _i2c_startSend
                                12613   	extrn code near : _uart_continue
                                12614   	extrn code near : _atan2
                                12615   	extrn code near : _i2c_init
                                12616   	extrn code near : _tm_init
                                12617   	extrn code : $$start_up
                                12618   
  --------------------------    12619   	cseg #00h at 02h
00:0002 00-00'                  12620   	dw	$$start_up
                                12621   
  --------------------------    12622   	rseg $$NINITTAB
??:0000 68                      12623   	db	068h
??:0001 6B                      12624   	db	06bh
??:0002 00                      12625   	db	00h
??:0003 1C                      12626   	db	01ch
??:0004 00                      12627   	db	00h
??:0005 00                      12628   	align
??:0006 00-00                   12629   	dw	00h
??:0008 80-46                   12630   	dw	04680h
??:000A 1B                      12631   	db	01bh
??:000B 08                      12632   	db	08h
??:000C 6F-12                   12633   	dw	0126fh
??:000E 83-42                   12634   	dw	04283h
??:0010 1A                      12635   	db	01ah
??:0011 04                      12636   	db	04h
??:0012 19                      12637   	db	019h
??:0013 13                      12638   	db	013h
??:0014 38                      12639   	db	038h
??:0015 01                      12640   	db	01h
??:0016 00                      12641   	db	00h
??:0017 00                      12642   	db	00h
??:0018 3B                      12643   	db	03bh
??:0019 00                      12644   	align
??:001A 00-00                   12645   	dw	00h
??:001C 00-00                   12646   	dw	00h
??:001E 00                      12647   	db	00h
??:001F 00                      12648   	db	00h
??:0020 00-00                   12649   	dw	00h
??:0022 00-00                   12650   	dw	00h
??:0024 00-00                   12651   	dw	00h
??:0026 00-00                   12652   	dw	00h
??:0028 00-00                   12653   	dw	00h
??:002A 00-00                   12654   	dw	00h
??:002C 00-00                   12655   	dw	00h
??:002E 00-00                   12656   	dw	00h
??:0030 00-00                   12657   	dw	00h
??:0032 00-00                   12658   	dw	00h
??:0034 00-00                   12659   	dw	00h
??:0036 00-00                   12660   	dw	00h
??:0038 00-00                   12661   	dw	00h
??:003A 00-00                   12662   	dw	00h
??:003C 00-00                   12663   	dw	00h
??:003E 00-00                   12664   	dw	00h
??:0040 00-00                   12665   	dw	00h
??:0042 00-00                   12666   	dw	00h
??:0044 1E                      12667   	db	01eh
??:0045 00                      12668   	db	00h
??:0046 78                      12669   	db	078h
??:0047 01                      12670   	db	01h
??:0048 60                      12671   	db	060h
??:0049 02                      12672   	db	02h
??:004A 01                      12673   	db	01h
??:004B 03                      12674   	db	03h
??:004C 09                      12675   	db	09h
??:004D 00                      12676   	align
??:004E 00-00                   12677   	dw	00h
??:0050 00-00                   12678   	dw	00h
??:0052 00-00                   12679   	dw	00h
??:0054 00-00                   12680   	dw	00h
??:0056 00-00                   12681   	dw	00h
??:0058 00-00                   12682   	dw	00h
??:005A 00-00                   12683   	dw	00h
??:005C 00-00                   12684   	dw	00h
??:005E 5C-8F                   12685   	dw	08f5ch
??:0060 C2-3F                   12686   	dw	03fc2h
??:0062 6F-12                   12687   	dw	0126fh
??:0064 03-BE                   12688   	dw	0be03h
??:0066 00-00                   12689   	dw	00h
??:0068 00-00                   12690   	dw	00h
??:006A 00-00                   12691   	dw	00h
??:006C 00-00                   12692   	dw	00h
??:006E 70                      12693   	db	070h
??:006F 51                      12694   	db	051h
??:0070 00-00                   12695   	dw	00h
??:0072 0A-00                   12696   	dw	0ah
??:0074 0A-00                   12697   	dw	0ah
??:0076 00-00                   12698   	dw	00h
??:0078 8C-42                   12699   	dw	0428ch
??:007A 00-00                   12700   	dw	00h
??:007C 48-42                   12701   	dw	04248h
??:007E 00-00                   12702   	dw	00h
??:0080 70-43                   12703   	dw	04370h
??:0082 AE-47                   12704   	dw	047aeh
??:0084 E1-BD                   12705   	dw	0bde1h
??:0086 AE-47                   12706   	dw	047aeh
??:0088 E1-3D                   12707   	dw	03de1h
??:008A AE-47                   12708   	dw	047aeh
??:008C E1-BD                   12709   	dw	0bde1h
??:008E AE-47                   12710   	dw	047aeh
??:0090 E1-3D                   12711   	dw	03de1h
??:0092 00-00                   12712   	dw	00h
??:0094 80-3F                   12713   	dw	03f80h
??:0096 00-80                   12714   	dw	08000h
??:0098 B3-43                   12715   	dw	043b3h
??:009A 00-00                   12716   	dw	00h
??:009C 34-43                   12717   	dw	04334h
??:009E 00-00                   12718   	dw	00h
??:00A0 00-00                   12719   	dw	00h
??:00A2 00-00                   12720   	dw	00h
??:00A4 00-00                   12721   	dw	00h
??:00A6 00-00                   12722   	dw	00h
??:00A8 00-00                   12723   	dw	00h
??:00AA 00-00                   12724   	dw	00h
??:00AC 00-00                   12725   	dw	00h
??:00AE 00-00                   12726   	dw	00h
??:00B0 00-00                   12727   	dw	00h
??:00B2 00-00                   12728   	dw	00h
??:00B4 00-00                   12729   	dw	00h
??:00B6 00-00                   12730   	dw	00h
??:00B8 00-00                   12731   	dw	00h
??:00BA 00-00                   12732   	dw	00h
??:00BC 00-00                   12733   	dw	00h
??:00BE 00-00                   12734   	dw	00h
??:00C0 00-00                   12735   	dw	00h
??:00C2 C0-3E                   12736   	dw	03ec0h
??:00C4 00-00                   12737   	dw	00h
??:00C6 00-00                   12738   	dw	00h
??:00C8 9A-99                   12739   	dw	0999ah
??:00CA 59-3F                   12740   	dw	03f59h
??:00CC 00-00                   12741   	dw	00h
??:00CE 00-00                   12742   	dw	00h
??:00D0 00-00                   12743   	dw	00h
??:00D2 00-00                   12744   	dw	00h
??:00D4 00-00                   12745   	dw	00h
??:00D6 00-00                   12746   	dw	00h
??:00D8 00-00                   12747   	dw	00h
??:00DA 00-00                   12748   	dw	00h
??:00DC EC-51                   12749   	dw	051ech
??:00DE 78-3F                   12750   	dw	03f78h
??:00E0 8F-C2                   12751   	dw	0c28fh
??:00E2 F5-3C                   12752   	dw	03cf5h
??:00E4 00                      12753   	db	00h
??:00E5 00                      12754   	db	00h
??:00E6 00-00                   12755   	dw	00h
??:00E8 00-00                   12756   	dw	00h
??:00EA 00-00                   12757   	dw	00h
??:00EC 00-00                   12758   	dw	00h
??:00EE 01                      12759   	db	01h
??:00EF 00                      12760   	align
??:00F0 00-00                   12761   	dw	00h
??:00F2 00-00                   12762   	dw	00h
??:00F4 00-00                   12763   	dw	00h
??:00F6 00-00                   12764   	dw	00h
??:00F8 00-00                   12765   	dw	00h
??:00FA 00-00                   12766   	dw	00h
??:00FC 00-00                   12767   	dw	00h
??:00FE 00-00                   12768   	dw	00h
??:0100 00-00                   12769   	dw	00h
??:0102 00-00                   12770   	dw	00h
??:0104 00-00                   12771   	dw	00h
??:0106 00-00                   12772   	dw	00h
??:0108 00-00                   12773   	dw	00h
??:010A 00-00                   12774   	dw	00h
??:010C 00-00                   12775   	dw	00h
??:010E 00-00                   12776   	dw	00h
??:0110 00-00                   12777   	dw	00h
??:0112 00-00                   12778   	dw	00h
??:0114 00-00                   12779   	dw	00h
??:0116 00-00                   12780   	dw	00h
??:0118 00-00                   12781   	dw	00h
??:011A 00-00                   12782   	dw	00h
??:011C 00-00                   12783   	dw	00h
??:011E 80-3F                   12784   	dw	03f80h
??:0120 00-00                   12785   	dw	00h
??:0122 00-00                   12786   	dw	00h
??:0124 00-00                   12787   	dw	00h
??:0126 00-00                   12788   	dw	00h
??:0128 00-00                   12789   	dw	00h
??:012A 00-00                   12790   	dw	00h
??:012C 00-00                   12791   	dw	00h
??:012E 00-00                   12792   	dw	00h
??:0130 00-00                   12793   	dw	00h
??:0132 00-00                   12794   	dw	00h
??:0134 00-00                   12795   	dw	00h
??:0136 00-00                   12796   	dw	00h
??:0138 00-00                   12797   	dw	00h
??:013A 00-00                   12798   	dw	00h
??:013C 00-00                   12799   	dw	00h
??:013E 00-00                   12800   	dw	00h
??:0140 00-00                   12801   	dw	00h
??:0142 00-00                   12802   	dw	00h
??:0144 00-00                   12803   	dw	00h
??:0146 00-00                   12804   	dw	00h
??:0148 00-00                   12805   	dw	00h
??:014A 14-42                   12806   	dw	04214h
??:014C 00-00                   12807   	dw	00h
??:014E 00-41                   12808   	dw	04100h
??:0150 00-00                   12809   	dw	00h
??:0152 50-41                   12810   	dw	04150h
??:0154 00-00                   12811   	dw	00h
??:0156 14-42                   12812   	dw	04214h
??:0158 00-00                   12813   	dw	00h
??:015A 00-41                   12814   	dw	04100h
??:015C 00-00                   12815   	dw	00h
??:015E 50-41                   12816   	dw	04150h
??:0160 00                      12817   	db	00h
??:0161 00                      12818   	db	00h
??:0162 00                      12819   	db	00h
??:0163 00                      12820   	align
??:0164 FF-3F                   12821   	dw	03fffh
??:0166 FF-3F                   12822   	dw	03fffh
??:0168 FF-3F                   12823   	dw	03fffh
??:016A FF-3F                   12824   	dw	03fffh
??:016C 00                      12825   	db	00h
??:016D 00                      12826   	align
??:016E 00-00                   12827   	dw	00h
??:0170 8C-42                   12828   	dw	0428ch
??:0172 00-00                   12829   	dw	00h
??:0174 00-00                   12830   	dw	00h
??:0176 00-00                   12831   	dw	00h
??:0178 00-00                   12832   	dw	00h
??:017A 00-00                   12833   	dw	00h
??:017C 00-00                   12834   	dw	00h
??:017E 00-00                   12835   	dw	00h
??:0180 00-00                   12836   	dw	00h
??:0182 00-00                   12837   	dw	00h
??:0184 00-00                   12838   	dw	00h
??:0186 00-00                   12839   	dw	00h
??:0188 00-00                   12840   	dw	00h
??:018A 00-00                   12841   	dw	00h
??:018C 00-00                   12842   	dw	00h
??:018E 00-00                   12843   	dw	00h
??:0190 00-00                   12844   	dw	00h
??:0192 00-00                   12845   	dw	00h
??:0194 00-00                   12846   	dw	00h
??:0196 00-00                   12847   	dw	00h
??:0198 00-00                   12848   	dw	00h
??:019A 00-00                   12849   	dw	00h
??:019C 00-00                   12850   	dw	00h
??:019E 00-00                   12851   	dw	00h
??:01A0 00-00                   12852   	dw	00h
??:01A2 00-00                   12853   	dw	00h
??:01A4 00                      12854   	db	00h
??:01A5 00                      12855   	db	00h
??:01A6 98-3A                   12856   	dw	03a98h
??:01A8 40-1F                   12857   	dw	01f40h
??:01AA 02-21                   12858   	dw	02102h
??:01AC 68-42                   12859   	dw	04268h
??:01AE 00                      12860   	db	00h
??:01AF 00                      12861   	db	00h
??:01B0 00-00                   12862   	dw	00h
??:01B2 C8-32                   12863   	dw	032c8h
??:01B4 04-29                   12864   	dw	02904h
??:01B6 34-21                   12865   	dw	02134h
??:01B8 88-FF                   12866   	dw	0ff88h
??:01BA 9C-FF                   12867   	dw	0ff9ch
??:01BC 32-00                   12868   	dw	032h
??:01BE 00-00                   12869   	dw	00h
??:01C0 00                      12870   	db	00h
??:01C1 00                      12871   	align
??:01C2 00-00                   12872   	dw	00h
??:01C4 00-00                   12873   	dw	00h
??:01C6 00-00                   12874   	dw	00h
??:01C8 00-00                   12875   	dw	00h
??:01CA 00-00                   12876   	dw	00h
??:01CC 00-00                   12877   	dw	00h
??:01CE 00-00                   12878   	dw	00h
??:01D0 00-00                   12879   	dw	00h
??:01D2 00-00                   12880   	dw	00h
??:01D4 00-00                   12881   	dw	00h
??:01D6 00-00                   12882   	dw	00h
??:01D8 00-00                   12883   	dw	00h
??:01DA 00-00                   12884   	dw	00h
??:01DC 00-00                   12885   	dw	00h
??:01DE 00-00                   12886   	dw	00h
??:01E0 00-00                   12887   	dw	00h
??:01E2 00-00                   12888   	dw	00h
??:01E4 00-00                   12889   	dw	00h
??:01E6 00-00                   12890   	dw	00h
??:01E8 00-00                   12891   	dw	00h
                                12892   
  --------------------------    12893   	rseg $$TAB_uartSetParam$main
00:0000                         12894   __uartSetParam :
00:0000 00-E1                   12895   	dw	0e100h
00:0002 00-00                   12896   	dw	00h
00:0004 00                      12897   	db	00h
00:0005 02                      12898   	db	02h
00:0006 00                      12899   	db	00h
00:0007 00                      12900   	db	00h
00:0008 00                      12901   	db	00h
00:0009 00                      12902   	align
                                12903   
  --------------------------    12904   	rseg $$TAB$$S183$main
00:0000                         12905   $$S183 :
00:0000 25 66 2C 25 66 2C 25 66 12906   	DB	"%f,%f,%f,%f,%f,%f,%f,%u"
00:0008 2C 25 66 2C 25 66 2C 25   >>>   
00:0010 66 2C 25 66 2C 25 75 00   >>>   , 00H
                                12907   
  --------------------------    12908   	rseg $$TAB$$S196$main
00:0000                         12909   $$S196 :
00:0000 25 66 2C 25 66 2C 25 66 12910   	DB	"%f,%f,%f",
00:0008 00                        >>>    00H
                                12911   
  --------------------------    12912   	rseg $$TAB$$S209$main
00:0000                         12913   $$S209 :
00:0000 25 66 00                12914   	DB	"%f", 00H
                                12915   
  --------------------------    12916   	rseg $$TAB$$S223$main
00:0000                         12917   $$S223 :
00:0000 47 79 72 6F 20 43 61 6C 12918   	DB	"Gyro Calibration: Please Keep the Quad Flat and Return Any 2 chars to Start"
00:0008 69 62 72 61 74 69 6F 6E   >>>   
00:0010 3A 20 50 6C 65 61 73 65   >>>   
00:0018 20 4B 65 65 70 20 74 68   >>>   
00:0020 65 20 51 75 61 64 20 46   >>>   
00:0028 6C 61 74 20 61 6E 64 20   >>>   
00:0030 52 65 74 75 72 6E 20 41   >>>   
00:0038 6E 79 20 32 20 63 68 61   >>>   
00:0040 72 73 20 74 6F 20 53 74   >>>   
00:0048 61 72 74 00               >>>   , 00H
                                12919   
  --------------------------    12920   	rseg $$TAB$$S248$main
00:0000                         12921   $$S248 :
00:0000 47 79 72 6F 20 43 61 6C 12922   	DB	"Gyro Calibration Complete!"
00:0008 69 62 72 61 74 69 6F 6E   >>>   
00:0010 20 43 6F 6D 70 6C 65 74   >>>   
00:0018 65 21 00                  >>>   , 00H
                                12923   
  --------------------------    12924   	rseg $$TAB$$S264$main
00:0000                         12925   $$S264 :
00:0000 41 63 63 65 6C 20 43 61 12926   	DB	"Accel Calibration: Keep Quad Flat! Return any 2 chars to Start"
00:0008 6C 69 62 72 61 74 69 6F   >>>   
00:0010 6E 3A 20 4B 65 65 70 20   >>>   
00:0018 51 75 61 64 20 46 6C 61   >>>   
00:0020 74 21 20 52 65 74 75 72   >>>   
00:0028 6E 20 61 6E 79 20 32 20   >>>   
00:0030 63 68 61 72 73 20 74 6F   >>>   
00:0038 20 53 74 61 72 74 00      >>>   , 00H
                                12927   
  --------------------------    12928   	rseg $$TAB$$S295$main
00:0000                         12929   $$S295 :
00:0000 41 63 63 65 6C 20 43 61 12930   	DB	"Accel Calibration: Tilt the Quad 90deg in the ROLL Direction! Return any 2 chars to Start"
00:0008 6C 69 62 72 61 74 69 6F   >>>   
00:0010 6E 3A 20 54 69 6C 74 20   >>>   
00:0018 74 68 65 20 51 75 61 64   >>>   
00:0020 20 39 30 64 65 67 20 69   >>>   
00:0028 6E 20 74 68 65 20 52 4F   >>>   
00:0030 4C 4C 20 44 69 72 65 63   >>>   
00:0038 74 69 6F 6E 21 20 52 65   >>>   
00:0040 74 75 72 6E 20 61 6E 79   >>>   
00:0048 20 32 20 63 68 61 72 73   >>>   
00:0050 20 74 6F 20 53 74 61 72   >>>   
00:0058 74 00                     >>>   , 00H
                                12931   
  --------------------------    12932   	rseg $$TAB$$S320$main
00:0000                         12933   $$S320 :
00:0000 41 63 63 65 6C 20 43 61 12934   	DB	"Accel Calibration: Tilt the Quad 90deg in the PITCH direction! Return any 2 chars to Start"
00:0008 6C 69 62 72 61 74 69 6F   >>>   
00:0010 6E 3A 20 54 69 6C 74 20   >>>   
00:0018 74 68 65 20 51 75 61 64   >>>   
00:0020 20 39 30 64 65 67 20 69   >>>   
00:0028 6E 20 74 68 65 20 50 49   >>>   
00:0030 54 43 48 20 64 69 72 65   >>>   
00:0038 63 74 69 6F 6E 21 20 52   >>>   
00:0040 65 74 75 72 6E 20 61 6E   >>>   
00:0048 79 20 32 20 63 68 61 72   >>>   
00:0050 73 20 74 6F 20 53 74 61   >>>   
00:0058 72 74 00                  >>>   , 00H
                                12935   
  --------------------------    12936   	rseg $$TAB$$S345$main
00:0000                         12937   $$S345 :
00:0000 41 63 63 65 6C 20 43 61 12938   	DB	"Accel Calibration Complete!"
00:0008 6C 69 62 72 61 74 69 6F   >>>   
00:0010 6E 20 43 6F 6D 70 6C 65   >>>   
00:0018 74 65 21 00               >>>   , 00H
                                12939   
  --------------------------    12940   	rseg $$TAB$$S367$main
00:0000                         12941   $$S367 :
00:0000 43 75 72 72 65 6E 74 20 12942   	DB	"Current Settings: kp=%f,ki=%f,kd=%f,a1=%f,a2=%f,Pb=%u,Db=%u"
00:0008 53 65 74 74 69 6E 67 73   >>>   
00:0010 3A 20 6B 70 3D 25 66 2C   >>>   
00:0018 6B 69 3D 25 66 2C 6B 64   >>>   
00:0020 3D 25 66 2C 61 31 3D 25   >>>   
00:0028 66 2C 61 32 3D 25 66 2C   >>>   
00:0030 50 62 3D 25 75 2C 44 62   >>>   
00:0038 3D 25 75 00               >>>   , 00H
                                12943   
  --------------------------    12944   	rseg $$TAB$$S423$main
00:0000                         12945   $$S423 :
00:0000 20 20 20 20 4E 65 77 20 12946   	DB	"    New Settings: kp=%f,ki=%f,kd=%f,a1=%f,a2=%f,Pb=%u,Db=%u"
00:0008 53 65 74 74 69 6E 67 73   >>>   
00:0010 3A 20 6B 70 3D 25 66 2C   >>>   
00:0018 6B 69 3D 25 66 2C 6B 64   >>>   
00:0020 3D 25 66 2C 61 31 3D 25   >>>   
00:0028 66 2C 61 32 3D 25 66 2C   >>>   
00:0030 50 62 3D 25 75 2C 44 62   >>>   
00:0038 3D 25 75 00               >>>   , 00H
                                12947   
  --------------------------    12948   	rseg $$TAB$$S501$main
00:0000                         12949   $$S501 :
00:0000 25 66 2C 25 66 2C 25 66 12950   	DB	"%f,%f,%f,%f"
00:0008 2C 25 66 00               >>>   , 00H
                                12951   
  --------------------------    12952   	rseg $$NINITVAR
00:0000                         12953   _MPU6050Address :
00:0000                         12954   	ds	01h
00:0001                         12955   _AccGyro_PWRMGMT1REG :
00:0001                         12956   	ds	01h
00:0002                         12957   _AccGyro_PWRMGMT1REG_Contents :
00:0002                         12958   	ds	01h
00:0003                         12959   _AccGyro_AccelConfig :
00:0003                         12960   	ds	01h
00:0004                         12961   _AccGyro_AccelConfig_Contents :
00:0004                         12962   	ds	01h
00:0005                         12963   	align
00:0006                         12964   _AccGyro_AccelScaling :
00:0006                         12965   	ds	04h
00:000A                         12966   _AccGyro_GyroConfig :
00:000A                         12967   	ds	01h
00:000B                         12968   _AccGyro_GyroConfig_Contents :
00:000B                         12969   	ds	01h
00:000C                         12970   _AccGyro_GyroScaling :
00:000C                         12971   	ds	04h
00:0010                         12972   _AccGyro_GyroAccelLPF :
00:0010                         12973   	ds	01h
00:0011                         12974   _AccGyro_GyroAccelLPF_Contents :
00:0011                         12975   	ds	01h
00:0012                         12976   _AccGyro_GyroAccel_SMPRTDIV :
00:0012                         12977   	ds	01h
00:0013                         12978   _AccGyro_GyroAccelLPF_SMPRTDIVCo :
00:0013                         12979   	ds	01h
00:0014                         12980   _AccGyro_INTENABLEReg :
00:0014                         12981   	ds	01h
00:0015                         12982   _AccGyro_INTENABLEReg_contents :
00:0015                         12983   	ds	01h
00:0016                         12984   _AccGYRO_Test :
00:0016                         12985   	ds	01h
00:0017                         12986   _AccGyro_ReadFlag :
00:0017                         12987   	ds	01h
00:0018                         12988   _AccGyro_ReadData :
00:0018                         12989   	ds	01h
00:0019                         12990   	align
00:001A                         12991   _Temp_out :
00:001A                         12992   	ds	04h
00:001E                         12993   _Accel_SavIndex :
00:001E                         12994   	ds	01h
00:001F                         12995   _AccGyro_CF_FlagCounter :
00:001F                         12996   	ds	01h
00:0020                         12997   _CF_Accel_XRoll :
00:0020                         12998   	ds	04h
00:0024                         12999   _CF_Accel_YPitch :
00:0024                         13000   	ds	04h
00:0028                         13001   _CF_Gyro_XRoll :
00:0028                         13002   	ds	04h
00:002C                         13003   _CF_Gyro_YPitch :
00:002C                         13004   	ds	04h
00:0030                         13005   _CF_Accel_ForceMagApprox :
00:0030                         13006   	ds	04h
00:0034                         13007   _CF_Gyro_CurrentCount :
00:0034                         13008   	ds	04h
00:0038                         13009   _Gyro_Xcal :
00:0038                         13010   	ds	04h
00:003C                         13011   _Gyro_Ycal :
00:003C                         13012   	ds	04h
00:0040                         13013   _Gyro_Zcal :
00:0040                         13014   	ds	04h
00:0044                         13015   _HMC5883Address :
00:0044                         13016   	ds	01h
00:0045                         13017   _Mag_ConfigA :
00:0045                         13018   	ds	01h
00:0046                         13019   _Mag_ConfigA_Contents :
00:0046                         13020   	ds	01h
00:0047                         13021   _Mag_ConfigB :
00:0047                         13022   	ds	01h
00:0048                         13023   _Mag_ConfigB_Contents :
00:0048                         13024   	ds	01h
00:0049                         13025   _Mag_ModeReg :
00:0049                         13026   	ds	01h
00:004A                         13027   _Mag_ModeReg_Contents :
00:004A                         13028   	ds	01h
00:004B                         13029   _Mag_ReadData :
00:004B                         13030   	ds	01h
00:004C                         13031   _Mag_Status :
00:004C                         13032   	ds	01h
00:004D                         13033   	align
00:004E                         13034   _Mag_Xout :
00:004E                         13035   	ds	04h
00:0052                         13036   _Mag_Yout :
00:0052                         13037   	ds	04h
00:0056                         13038   _Mag_Zout :
00:0056                         13039   	ds	04h
00:005A                         13040   _Mag_Angle :
00:005A                         13041   	ds	04h
00:005E                         13042   _Mag_GainFactor :
00:005E                         13043   	ds	04h
00:0062                         13044   _Mag_DeclinationAngle :
00:0062                         13045   	ds	04h
00:0066                         13046   _timer_us :
00:0066                         13047   	ds	02h
00:0068                         13048   _Ping_timer :
00:0068                         13049   	ds	02h
00:006A                         13050   _Ping_out :
00:006A                         13051   	ds	04h
00:006E                         13052   _Range_Address :
00:006E                         13053   	ds	01h
00:006F                         13054   _Range_TakeRangeReading :
00:006F                         13055   	ds	01h
00:0070                         13056   _Range_out :
00:0070                         13057   	ds	02h
00:0072                         13058   _MotorStep :
00:0072                         13059   	ds	02h
00:0074                         13060   _Mag_MotorStep :
00:0074                         13061   	ds	02h
00:0076                         13062   _Range_ZHiThres :
00:0076                         13063   	ds	04h
00:007A                         13064   _Range_ZLoThres :
00:007A                         13065   	ds	04h
00:007E                         13066   _Range_Ceiling :
00:007E                         13067   	ds	04h
00:0082                         13068   _Accel_XLoThres :
00:0082                         13069   	ds	04h
00:0086                         13070   _Accel_XHiThres :
00:0086                         13071   	ds	04h
00:008A                         13072   _Accel_YLoThres :
00:008A                         13073   	ds	04h
00:008E                         13074   _Accel_YHiThres :
00:008E                         13075   	ds	04h
00:0092                         13076   _Mag_CWThres :
00:0092                         13077   	ds	04h
00:0096                         13078   _Mag_CCWThres :
00:0096                         13079   	ds	04h
00:009A                         13080   _Mag_OpposingPole :
00:009A                         13081   	ds	04h
00:009E                         13082   _Mag_PIDSetpoint :
00:009E                         13083   	ds	04h
00:00A2                         13084   _Mag_PIDCorrectionFactor :
00:00A2                         13085   	ds	04h
00:00A6                         13086   _Mag_PIDAngleScaled :
00:00A6                         13087   	ds	04h
00:00AA                         13088   _Mag_PIDError :
00:00AA                         13089   	ds	04h
00:00AE                         13090   _Mag_PIDCounter :
00:00AE                         13091   	ds	02h
00:00B0                         13092   _Mag_PIDCurrentCount :
00:00B0                         13093   	ds	04h
00:00B4                         13094   _Mag_PIDErrSum :
00:00B4                         13095   	ds	04h
00:00B8                         13096   _Mag_PIDdErr :
00:00B8                         13097   	ds	04h
00:00BC                         13098   _Mag_PIDErrPrev :
00:00BC                         13099   	ds	04h
00:00C0                         13100   _Mag_PID_kp :
00:00C0                         13101   	ds	04h
00:00C4                         13102   _Mag_PID_ki :
00:00C4                         13103   	ds	04h
00:00C8                         13104   _Mag_PID_kd :
00:00C8                         13105   	ds	04h
00:00CC                         13106   _Mag_PIDOutput :
00:00CC                         13107   	ds	04h
00:00D0                         13108   _CF_Gyro_Counter :
00:00D0                         13109   	ds	04h
00:00D4                         13110   _CF_YPitch :
00:00D4                         13111   	ds	04h
00:00D8                         13112   _CF_XRoll :
00:00D8                         13113   	ds	04h
00:00DC                         13114   _CF_HPF :
00:00DC                         13115   	ds	04h
00:00E0                         13116   _CF_LPF :
00:00E0                         13117   	ds	04h
00:00E4                         13118   _CF_UseFlag :
00:00E4                         13119   	ds	01h
00:00E5                         13120   _CF_Counter :
00:00E5                         13121   	ds	01h
00:00E6                         13122   _CF_YPitch_avg :
00:00E6                         13123   	ds	04h
00:00EA                         13124   _CF_XRoll_avg :
00:00EA                         13125   	ds	04h
00:00EE                         13126   _CF_highlow_flag :
00:00EE                         13127   	ds	01h
00:00EF                         13128   	align
00:00F0                         13129   _CF_YPitch_high :
00:00F0                         13130   	ds	04h
00:00F4                         13131   _CF_XRoll_high :
00:00F4                         13132   	ds	04h
00:00F8                         13133   _CF_YPitch_low :
00:00F8                         13134   	ds	04h
00:00FC                         13135   _CF_XRoll_low :
00:00FC                         13136   	ds	04h
00:0100                         13137   _CF_avgCnt :
00:0100                         13138   	ds	04h
00:0104                         13139   _CF_StdDev_M_X :
00:0104                         13140   	ds	04h
00:0108                         13141   _CF_StdDev_M_Y :
00:0108                         13142   	ds	04h
00:010C                         13143   _CF_StdDev_Mtmp_X :
00:010C                         13144   	ds	04h
00:0110                         13145   _CF_StdDev_Mtmp_Y :
00:0110                         13146   	ds	04h
00:0114                         13147   _CF_StdDev_S_X :
00:0114                         13148   	ds	04h
00:0118                         13149   _CF_StdDev_S_Y :
00:0118                         13150   	ds	04h
00:011C                         13151   _CF_StdDev_K :
00:011C                         13152   	ds	04h
00:0120                         13153   _Accel_PID_XRollError :
00:0120                         13154   	ds	04h
00:0124                         13155   _Accel_PID_XRollCounter_I :
00:0124                         13156   	ds	02h
00:0126                         13157   _Accel_PID_XRollCounter_D :
00:0126                         13158   	ds	02h
00:0128                         13159   _Accel_PID_XRollErrSum :
00:0128                         13160   	ds	04h
00:012C                         13161   _Accel_PID_XRollErrPrev :
00:012C                         13162   	ds	04h
00:0130                         13163   _Accel_PID_YPitchError :
00:0130                         13164   	ds	04h
00:0134                         13165   _Accel_PID_YPitchCounter_I :
00:0134                         13166   	ds	02h
00:0136                         13167   _Accel_PID_YPitchCounter_D :
00:0136                         13168   	ds	02h
00:0138                         13169   _Accel_PID_YPitchErrSum :
00:0138                         13170   	ds	04h
00:013C                         13171   _Accel_PID_YPitchErrPrev :
00:013C                         13172   	ds	04h
00:0140                         13173   _Accel_PID_XRolldErr :
00:0140                         13174   	ds	04h
00:0144                         13175   _Accel_PID_YPitchdErr :
00:0144                         13176   	ds	04h
00:0148                         13177   _Accel_PID_XRoll_kp :
00:0148                         13178   	ds	04h
00:014C                         13179   _Accel_PID_XRoll_ki :
00:014C                         13180   	ds	04h
00:0150                         13181   _Accel_PID_XRoll_kd :
00:0150                         13182   	ds	04h
00:0154                         13183   _Accel_PID_YPitch_kp :
00:0154                         13184   	ds	04h
00:0158                         13185   _Accel_PID_YPitch_ki :
00:0158                         13186   	ds	04h
00:015C                         13187   _Accel_PID_YPitch_kd :
00:015C                         13188   	ds	04h
00:0160                         13189   _Accel_PID_IFlag :
00:0160                         13190   	ds	01h
00:0161                         13191   _Accel_PID_DFlag :
00:0161                         13192   	ds	01h
00:0162                         13193   _Accel_PID_XYChangeFlag :
00:0162                         13194   	ds	01h
00:0163                         13195   	align
00:0164                         13196   _Accel_PID_Motor1 :
00:0164                         13197   	ds	02h
00:0166                         13198   _Accel_PID_Motor2 :
00:0166                         13199   	ds	02h
00:0168                         13200   _Accel_PID_Motor3 :
00:0168                         13201   	ds	02h
00:016A                         13202   _Accel_PID_Motor4 :
00:016A                         13203   	ds	02h
00:016C                         13204   _Accel_PID_GoCounter :
00:016C                         13205   	ds	01h
00:016D                         13206   	align
00:016E                         13207   _Range_PIDSetpoint :
00:016E                         13208   	ds	04h
00:0172                         13209   _Range_PIDError :
00:0172                         13210   	ds	04h
00:0176                         13211   _Range_PIDCounter :
00:0176                         13212   	ds	02h
00:0178                         13213   _Range_PIDCurrentCount :
00:0178                         13214   	ds	04h
00:017C                         13215   _Range_PIDErrSum :
00:017C                         13216   	ds	04h
00:0180                         13217   _Range_PIDdErr :
00:0180                         13218   	ds	04h
00:0184                         13219   _Range_PIDErrPrev :
00:0184                         13220   	ds	04h
00:0188                         13221   _Range_PIDOutput :
00:0188                         13222   	ds	04h
00:018C                         13223   _Range_PID_kp :
00:018C                         13224   	ds	04h
00:0190                         13225   _Range_PID_ki :
00:0190                         13226   	ds	04h
00:0194                         13227   _Range_PID_kd :
00:0194                         13228   	ds	04h
00:0198                         13229   _TestingEndTimer :
00:0198                         13230   	ds	02h
00:019A                         13231   _Timer8Counter :
00:019A                         13232   	ds	02h
00:019C                         13233   _Accel_PID_PBounds_Var_Pos :
00:019C                         13234   	ds	02h
00:019E                         13235   _Accel_PID_DBounds_Var_Pos :
00:019E                         13236   	ds	02h
00:01A0                         13237   _Accel_PID_PBounds_Var_Neg :
00:01A0                         13238   	ds	02h
00:01A2                         13239   _Accel_PID_DBounds_Var_Neg :
00:01A2                         13240   	ds	02h
00:01A4                         13241   _PrePIDCount :
00:01A4                         13242   	ds	01h
00:01A5                         13243   _PWMflag :
00:01A5                         13244   	ds	01h
00:01A6                         13245   _PWMUpperDutyLimitCalib :
00:01A6                         13246   	ds	02h
00:01A8                         13247   _PWMLowerDutyLimitCalib :
00:01A8                         13248   	ds	02h
00:01AA                         13249   _PWMSafeDuty :
00:01AA                         13250   	ds	02h
00:01AC                         13251   _PWMPeriod :
00:01AC                         13252   	ds	02h
00:01AE                         13253   _PWMCounter :
00:01AE                         13254   	ds	01h
00:01AF                         13255   _PWMSensorResPerInc :
00:01AF                         13256   	ds	01h
00:01B0                         13257   _PWMUpperLowerDiff :
00:01B0                         13258   	ds	02h
00:01B2                         13259   _PWMUpperDutyLimitRun :
00:01B2                         13260   	ds	02h
00:01B4                         13261   _PWMIdleDutyRun :
00:01B4                         13262   	ds	02h
00:01B6                         13263   _PWMLowerDutyLimitRun :
00:01B6                         13264   	ds	02h
00:01B8                         13265   _PWMtoRPMOffset_Mot2 :
00:01B8                         13266   	ds	02h
00:01BA                         13267   _PWMtoRPMOffset_Mot3 :
00:01BA                         13268   	ds	02h
00:01BC                         13269   _PWMtoRPMOffset_Mot4 :
00:01BC                         13270   	ds	02h
00:01BE                         13271   _$ST1 :
00:01BE                         13272   	ds	02h
00:01C0                         13273   _$ST2 :
00:01C0                         13274   	ds	01h
00:01C1                         13275   	align
00:01C2                         13276   _$ST3 :
00:01C2                         13277   	ds	04h
00:01C6                         13278   _$ST4 :
00:01C6                         13279   	ds	04h
00:01CA                         13280   _$ST5 :
00:01CA                         13281   	ds	04h
00:01CE                         13282   _$ST6 :
00:01CE                         13283   	ds	04h
00:01D2                         13284   _$ST7 :
00:01D2                         13285   	ds	04h
00:01D6                         13286   _$ST8 :
00:01D6                         13287   	ds	04h
00:01DA                         13288   _$ST9 :
00:01DA                         13289   	ds	04h
00:01DE                         13290   _$ST10 :
00:01DE                         13291   	ds	04h
00:01E2                         13292   _$ST11 :
00:01E2                         13293   	ds	04h
00:01E6                         13294   _$ST12 :
00:01E6                         13295   	ds	04h
                                13296   
  --------------------------    13297   	rseg $$NVARmain
00:0002                         13298   _RecWorld :
00:0002                         13299   	ds	08h
00:000A                         13300   _SensorReturn :
00:000A                         13301   	ds	0c8h
00:00D2                         13302   _Gyro_Zout :
00:00D2                         13303   	ds	04h
00:00D6                         13304   _Gyro_Yout :
00:00D6                         13305   	ds	04h
00:00DA                         13306   _NewVar_Str :
00:00DA                         13307   	ds	06h
00:00E0                         13308   _Accel_Zout_Avg :
00:00E0                         13309   	ds	04h
00:00E4                         13310   _Accel_Yout_Avg :
00:00E4                         13311   	ds	04h
00:00E8                         13312   _Accel_Xout_Avg :
00:00E8                         13313   	ds	04h
00:00EC                         13314   _NewVar :
00:00EC                         13315   	ds	04h
00:00F0                         13316   _AccGyro_Data :
00:00F0                         13317   	ds	0eh
00:00FE                         13318   _Range_Output :
00:00FE                         13319   	ds	02h
00:0100                         13320   _Accel_Zcal :
00:0100                         13321   	ds	0ch
00:010C                         13322   _Accel_Xcal :
00:010C                         13323   	ds	0ch
00:0118                         13324   _Mag_Data :
00:0118                         13325   	ds	06h
00:011E                         13326   _Accel_Xout :
00:011E                         13327   	ds	03ch
00:015A                         13328   _Accel_Ycal :
00:015A                         13329   	ds	0ch
00:0166                         13330   _SensorReturnSM :
00:0166                         13331   	ds	032h
00:0198                         13332   _testI :
00:0198                         13333   	ds	02h
00:019A                         13334   _testD :
00:019A                         13335   	ds	02h
00:019C                         13336   _testP :
00:019C                         13337   	ds	02h
00:019E                         13338   _Accel_Yout :
00:019E                         13339   	ds	03ch
00:01DA                         13340   _Accel_Zout :
00:01DA                         13341   	ds	03ch
00:0216                         13342   _Gyro_Xout :
00:0216                         13343   	ds	04h
                                13344   	extrn code : __faddu8sw
                                13345   	extrn code : __fsubu8sw
                                13346   	extrn code : __fnegu8sw
                                13347   	extrn code : __fcmpu8sw
                                13348   	extrn code : __fmulu8sw
                                13349   	extrn code : __fdivu8sw
                                13350   	extrn code : __fildu8sw
                                13351   	extrn code : __ftolu8sw
                                13352   	extrn code : __ftodu8sw
                                13353   	extrn code : __daddu8sw
                                13354   	extrn code : __dsubu8sw
                                13355   	extrn code : __dmulu8sw
                                13356   	extrn code : __dildu8sw
                                13357   	extrn code : __dtofu8sw
                                13358   	extrn code : __fuldu8sw
                                13359   
                                13360   	end



  Target       : ML610112 (nX-U8/100)
  Memory Model : SMALL
  Data   Model : NEAR
  ROM WINDOW   : (not specified)
  Internal RAM : E000H to EFFFH

  Errors   : 0
  Warnings : 0  (/Wrpeast)
  Lines    : 13360
